   1                             		.file	"dave_line.c"
   2                             		.section P,"ax"
   3                             	.Ltext0:
   4                             		.section	.text.d2_renderline_intern,"ax",@progbits
   5                             		.global	_d2_renderline_intern
   7                             	_d2_renderline_intern:
   8                             	.LVL0:
   9                             	.LFB6:
  10                             		.file 1 "../src/smc_gen/r_drw2d_rx/src/tes/dave_line.c"
   1:../src/smc_gen/r_drw2d_rx/src/tes/dave_line.c **** /*--------------------------------------------------------------------------
   2:../src/smc_gen/r_drw2d_rx/src/tes/dave_line.c ****  * Project: D/AVE
   3:../src/smc_gen/r_drw2d_rx/src/tes/dave_line.c ****  * File:    dave_line.c (%version: 40 %)
   4:../src/smc_gen/r_drw2d_rx/src/tes/dave_line.c ****  *          created Mon Jan 31 16:49:01 2005 by hh04027
   5:../src/smc_gen/r_drw2d_rx/src/tes/dave_line.c ****  *
   6:../src/smc_gen/r_drw2d_rx/src/tes/dave_line.c ****  * Description:
   7:../src/smc_gen/r_drw2d_rx/src/tes/dave_line.c ****  *  %date_modified: Thu Mar 08 14:52:36 2007 %  (%derived_by:  hh04027 %)
   8:../src/smc_gen/r_drw2d_rx/src/tes/dave_line.c ****  *
   9:../src/smc_gen/r_drw2d_rx/src/tes/dave_line.c ****  * Changes:
  10:../src/smc_gen/r_drw2d_rx/src/tes/dave_line.c ****  *  2007-03-08 NSc  fixed incorrect blurring of lines
  11:../src/smc_gen/r_drw2d_rx/src/tes/dave_line.c ****  *  2008-01-02 ASc  fixed drawing lines with width=0
  12:../src/smc_gen/r_drw2d_rx/src/tes/dave_line.c ****  *  2008-01-14 ASc  fixed bug in d2_renderline_intern_split
  13:../src/smc_gen/r_drw2d_rx/src/tes/dave_line.c ****  *  2008-01-14 ASc  changed comments from C++ to C, removed tabs
  14:../src/smc_gen/r_drw2d_rx/src/tes/dave_line.c ****  *  2011-01-20 SSt  made lines and polylines thread safe (eliminated globals)
  15:../src/smc_gen/r_drw2d_rx/src/tes/dave_line.c ****  *  2012-09-25 BSp  MISRA cleanup
  16:../src/smc_gen/r_drw2d_rx/src/tes/dave_line.c ****  *-------------------------------------------------------------------------- */
  17:../src/smc_gen/r_drw2d_rx/src/tes/dave_line.c **** 
  18:../src/smc_gen/r_drw2d_rx/src/tes/dave_line.c **** #include "dave_driver.h"
  19:../src/smc_gen/r_drw2d_rx/src/tes/dave_line.c **** #include "dave_intern.h"
  20:../src/smc_gen/r_drw2d_rx/src/tes/dave_line.c **** #include "dave_viewport.h"
  21:../src/smc_gen/r_drw2d_rx/src/tes/dave_line.c **** #include "dave_render.h"
  22:../src/smc_gen/r_drw2d_rx/src/tes/dave_line.c **** #include "dave_pattern.h"
  23:../src/smc_gen/r_drw2d_rx/src/tes/dave_line.c **** #include "dave_line.h"
  24:../src/smc_gen/r_drw2d_rx/src/tes/dave_line.c **** #include "dave_circle.h"
  25:../src/smc_gen/r_drw2d_rx/src/tes/dave_line.c **** #include "dave_edge.h"
  26:../src/smc_gen/r_drw2d_rx/src/tes/dave_line.c **** #include "dave_curve.h"
  27:../src/smc_gen/r_drw2d_rx/src/tes/dave_line.c **** #include "dave_texture.h"
  28:../src/smc_gen/r_drw2d_rx/src/tes/dave_line.c **** 
  29:../src/smc_gen/r_drw2d_rx/src/tes/dave_line.c **** /*--------------------------------------------------------------------------
  30:../src/smc_gen/r_drw2d_rx/src/tes/dave_line.c ****  *
  31:../src/smc_gen/r_drw2d_rx/src/tes/dave_line.c ****  * */
  32:../src/smc_gen/r_drw2d_rx/src/tes/dave_line.c **** d2_s32 d2_renderline_intern( d2_devicedata *handle, d2_contextdata *ctx, d2_point x1, d2_point y1, 
  33:../src/smc_gen/r_drw2d_rx/src/tes/dave_line.c **** {
  11                             		.loc 1 33 1 view -0
  12                             		.loc 1 33 1 is_stmt 0 view .LVU1
  13 0000 6E 6D                   		pushm	r6-r13
  14                             	.LCFI0:
  15                             		.loc 1 33 1 view .LVU2
  16 0002 72 00 54 FF             		add	#-172, r0
  17                             	.LCFI1:
  18 0006 75 47 D0                		mov.L	#0xd0, r7
  19 0009 4B 07                   		add	r0, r7
  20 000b EF 15                   		mov.L	r1, r5
  21 000d D4 70 2C                		mov.W	[r7], 88[r0]
  22 0010 D5 70 01 2E             		mov.W	2[r7], 92[r0]
  23 0014 D5 70 02 2A             		mov.W	4[r7], 84[r0]
  24 0018 ED 7B 02                		mov.L	8[r7], r11
  25 001b E5 70 03 1D             		mov.L	12[r7], 116[r0]
  26 001f E5 70 04 1E             		mov.L	16[r7], 120[r0]
  27 0023 E5 70 05 1C             		mov.L	20[r7], 112[r0]
  34:../src/smc_gen/r_drw2d_rx/src/tes/dave_line.c ****    d2_bbox bbox, bbox2;
  28                             		.loc 1 34 4 is_stmt 1 view .LVU3
  35:../src/smc_gen/r_drw2d_rx/src/tes/dave_line.c ****    d2_limdata edge[4];
  29                             		.loc 1 35 4 view .LVU4
  36:../src/smc_gen/r_drw2d_rx/src/tes/dave_line.c ****    d2_width wh, er;
  30                             		.loc 1 36 4 view .LVU5
  37:../src/smc_gen/r_drw2d_rx/src/tes/dave_line.c ****    d2_s32 w16;
  31                             		.loc 1 37 4 view .LVU6
  38:../src/smc_gen/r_drw2d_rx/src/tes/dave_line.c ****    d2_u32 control;
  32                             		.loc 1 38 4 view .LVU7
  39:../src/smc_gen/r_drw2d_rx/src/tes/dave_line.c ****    d2_u32 tmask;
  33                             		.loc 1 39 4 view .LVU8
  40:../src/smc_gen/r_drw2d_rx/src/tes/dave_line.c ****    d2_s32 flip, h, swt, miter, len;
  34                             		.loc 1 40 4 view .LVU9
  41:../src/smc_gen/r_drw2d_rx/src/tes/dave_line.c ****    d2_u32 cap;
  35                             		.loc 1 41 4 view .LVU10
  42:../src/smc_gen/r_drw2d_rx/src/tes/dave_line.c **** 
  43:../src/smc_gen/r_drw2d_rx/src/tes/dave_line.c ****    /* find deltas */
  44:../src/smc_gen/r_drw2d_rx/src/tes/dave_line.c ****    d2_s32 dx = x2 - x1;
  36                             		.loc 1 44 4 view .LVU11
  37                             		.loc 1 44 19 is_stmt 0 view .LVU12
  38 0027 DD 0C 2C                		mov.W	88[r0], r12
  39 002a DF 37                   		mov.W	r3, r7
  40                             		.loc 1 44 11 view .LVU13
  41 002c 43 7C                   		sub	r7, r12
  42                             	.LVL1:
  45:../src/smc_gen/r_drw2d_rx/src/tes/dave_line.c ****    d2_s32 dy = y2 - y1;
  43                             		.loc 1 45 4 is_stmt 1 view .LVU14
  44                             		.loc 1 45 19 is_stmt 0 view .LVU15
  45 002e DD 06 2E                		mov.W	92[r0], r6
  46 0031 DF 47                   		mov.W	r4, r7
  47                             		.loc 1 45 11 view .LVU16
  48 0033 43 76                   		sub	r7, r6
  49                             	.LVL2:
  46:../src/smc_gen/r_drw2d_rx/src/tes/dave_line.c **** 
  47:../src/smc_gen/r_drw2d_rx/src/tes/dave_line.c ****    if(0 == (dx | dy))           /* PRQA S 4130 */ /* $Misra: #PERF_BITWISE $ */
  50                             		.loc 1 47 4 is_stmt 1 view .LVU17
  51                             		.loc 1 47 16 is_stmt 0 view .LVU18
  52 0035 FF 51 6C                		or	r6, r12, r1
  53                             	.LVL3:
  54                             		.loc 1 47 6 view .LVU19
  55 0038 61 01                   		cmp	#0, r1
  56 003a 3A 6B 04                		beq	.L1
  48:../src/smc_gen/r_drw2d_rx/src/tes/dave_line.c ****    {
  49:../src/smc_gen/r_drw2d_rx/src/tes/dave_line.c ****       return 0;
  50:../src/smc_gen/r_drw2d_rx/src/tes/dave_line.c ****    }
  51:../src/smc_gen/r_drw2d_rx/src/tes/dave_line.c **** 
  52:../src/smc_gen/r_drw2d_rx/src/tes/dave_line.c ****    cap = ctx->linecap;
  57                             		.loc 1 52 4 is_stmt 1 view .LVU20
  58                             		.loc 1 52 8 is_stmt 0 view .LVU21
  59 003d 59 29 D6                		movu.B	214[r2], r9
  60                             	.LVL4:
  53:../src/smc_gen/r_drw2d_rx/src/tes/dave_line.c **** 
  54:../src/smc_gen/r_drw2d_rx/src/tes/dave_line.c ****    /* find bounding box */
  55:../src/smc_gen/r_drw2d_rx/src/tes/dave_line.c ****    wh = (d2_width)((w + 15) >> 1);          /* PRQA S 0502 */ /* $Misra: #PERF_ARITHMETIC_SHIFT_RIG
  61                             		.loc 1 55 4 is_stmt 1 view .LVU22
  62                             		.loc 1 55 23 is_stmt 0 view .LVU23
  63 0040 DD 0D 2A                		mov.W	84[r0], r13
  64 0043 71 D7 0F                		add	#15, r13, r7
  65                             		.loc 1 55 29 view .LVU24
  66 0046 6A 17                   		shar	#1, r7
  67 0048 A6 8F                   		mov.L	r7, 108[r0]
  68                             		.loc 1 55 7 view .LVU25
  69 004a DF 78                   		mov.W	r7, r8
  70                             	.LVL5:
  56:../src/smc_gen/r_drw2d_rx/src/tes/dave_line.c **** 
  57:../src/smc_gen/r_drw2d_rx/src/tes/dave_line.c ****    if(d2_lc_square == cap)
  71                             		.loc 1 57 4 is_stmt 1 view .LVU26
  72                             		.loc 1 57 6 is_stmt 0 view .LVU27
  73 004c 61 19                   		cmp	#1, r9
  74 004e 20 2C                   		beq	.L100
  75                             	.LVL6:
  76                             	.L3:
  58:../src/smc_gen/r_drw2d_rx/src/tes/dave_line.c ****    {
  59:../src/smc_gen/r_drw2d_rx/src/tes/dave_line.c ****       /* increase bbox for square ends */
  60:../src/smc_gen/r_drw2d_rx/src/tes/dave_line.c ****       if( (flags & d2_le_exclude_both) != d2_le_exclude_both )
  61:../src/smc_gen/r_drw2d_rx/src/tes/dave_line.c ****       {
  62:../src/smc_gen/r_drw2d_rx/src/tes/dave_line.c ****          /* scale halfwidth by sqrt(2) */
  63:../src/smc_gen/r_drw2d_rx/src/tes/dave_line.c ****          wh = (d2_width)((wh * 23) >> 4);   /* PRQA S 0502 */ /* $Misra: #PERF_ARITHMETIC_SHIFT_RIG
  64:../src/smc_gen/r_drw2d_rx/src/tes/dave_line.c ****       }
  65:../src/smc_gen/r_drw2d_rx/src/tes/dave_line.c ****    }
  66:../src/smc_gen/r_drw2d_rx/src/tes/dave_line.c **** 
  67:../src/smc_gen/r_drw2d_rx/src/tes/dave_line.c ****    if(0 != (flags & d2_lei_miter_edge))
  77                             		.loc 1 67 4 is_stmt 1 view .LVU28
  78                             		.loc 1 67 19 is_stmt 0 view .LVU29
  79 0050 FB 7A 00 20             		mov.L	#0x2000, r7
  80 0054 53 B7                   		and	r11, r7
  81 0056 A6 87                   		mov.L	r7, 104[r0]
  82                             		.loc 1 67 6 view .LVU30
  83 0058 20 49                   		beq	.L84
  68:../src/smc_gen/r_drw2d_rx/src/tes/dave_line.c ****    {
  69:../src/smc_gen/r_drw2d_rx/src/tes/dave_line.c ****       if(d2_lj_bevel == ctx->linejoin)
  84                             		.loc 1 69 7 is_stmt 1 view .LVU31
  85                             		.loc 1 69 9 is_stmt 0 view .LVU32
  86 005a 59 27 D7                		movu.B	215[r2], r7
  87 005d 61 47                   		cmp	#4, r7
  88 005f 20 2E                   		beq	.L101
  70:../src/smc_gen/r_drw2d_rx/src/tes/dave_line.c ****       {
  71:../src/smc_gen/r_drw2d_rx/src/tes/dave_line.c ****          /* scale halfwidth by 1.25 */
  72:../src/smc_gen/r_drw2d_rx/src/tes/dave_line.c ****          wh = (d2_width)((wh * 20) >> 4);   /* PRQA S 0502 */ /* $Misra: #PERF_ARITHMETIC_SHIFT_RIG
  73:../src/smc_gen/r_drw2d_rx/src/tes/dave_line.c ****          miter = (w >> 1) << (16 - 4); /* PRQA S 0502 */ /* $Misra: #PERF_ARITHMETIC_SHIFT_RIGHT $*
  74:../src/smc_gen/r_drw2d_rx/src/tes/dave_line.c ****       }
  75:../src/smc_gen/r_drw2d_rx/src/tes/dave_line.c ****       else
  76:../src/smc_gen/r_drw2d_rx/src/tes/dave_line.c ****       {
  77:../src/smc_gen/r_drw2d_rx/src/tes/dave_line.c ****          miter = (ctx->miterlimit + (w >> 1)) << (16 - 4); /* PRQA S 0502 */ /* $Misra: #PERF_ARITH
  89                             		.loc 1 77 10 is_stmt 1 view .LVU33
  90                             		.loc 1 77 22 is_stmt 0 view .LVU34
  91 0061 DD 27 6C                		mov.W	216[r2], r7
  92                             		.loc 1 77 40 view .LVU35
  93 0064 DD 0A 2A                		mov.W	84[r0], r10
  94 0067 6A 1A                   		shar	#1, r10
  95                             		.loc 1 77 35 view .LVU36
  96 0069 4B A7                   		add	r10, r7
  97                             		.loc 1 77 16 view .LVU37
  98 006b FD CC 7A                		shll	#12, r7, r10
  99 006e E7 0A 23                		mov.L	r10, 140[r0]
 100                             	.LVL7:
  78:../src/smc_gen/r_drw2d_rx/src/tes/dave_line.c ****          wh = (d2_width)( ((ctx->miterlimit + (w >> 1)) * 20) >> 4 ); /* PRQA S 0502 */ /* $Misra: 
 101                             		.loc 1 78 10 is_stmt 1 view .LVU38
 102                             		.loc 1 78 57 is_stmt 0 view .LVU39
 103 0071 75 17 14                		mul	#20, r7
 104                             		.loc 1 78 63 view .LVU40
 105 0074 6A 47                   		shar	#4, r7
 106                             		.loc 1 78 13 view .LVU41
 107 0076 DF 78                   		mov.W	r7, r8
 108                             	.LVL8:
 109                             		.loc 1 78 13 view .LVU42
 110 0078 2E 2D                   		bra	.L4
 111                             	.LVL9:
 112                             	.L100:
  60:../src/smc_gen/r_drw2d_rx/src/tes/dave_line.c ****       {
 113                             		.loc 1 60 7 is_stmt 1 view .LVU43
  60:../src/smc_gen/r_drw2d_rx/src/tes/dave_line.c ****       {
 114                             		.loc 1 60 18 is_stmt 0 view .LVU44
 115 007a 66 37                   		mov.L	#3, r7
 116                             	.LVL10:
  60:../src/smc_gen/r_drw2d_rx/src/tes/dave_line.c ****       {
 117                             		.loc 1 60 18 view .LVU45
 118 007c 53 B7                   		and	r11, r7
  60:../src/smc_gen/r_drw2d_rx/src/tes/dave_line.c ****       {
 119                             		.loc 1 60 9 view .LVU46
 120 007e 61 37                   		cmp	#3, r7
 121 0080 20 D0                   		beq	.L3
  63:../src/smc_gen/r_drw2d_rx/src/tes/dave_line.c ****       }
 122                             		.loc 1 63 10 is_stmt 1 view .LVU47
  63:../src/smc_gen/r_drw2d_rx/src/tes/dave_line.c ****       }
 123                             		.loc 1 63 30 is_stmt 0 view .LVU48
 124 0082 AE 8F                   		mov.L	108[r0], r7
 125 0084 75 17 17                		mul	#23, r7
  63:../src/smc_gen/r_drw2d_rx/src/tes/dave_line.c ****       }
 126                             		.loc 1 63 36 view .LVU49
 127 0087 6A 47                   		shar	#4, r7
  63:../src/smc_gen/r_drw2d_rx/src/tes/dave_line.c ****       }
 128                             		.loc 1 63 13 view .LVU50
 129 0089 DF 78                   		mov.W	r7, r8
 130                             	.LVL11:
  63:../src/smc_gen/r_drw2d_rx/src/tes/dave_line.c ****       }
 131                             		.loc 1 63 13 view .LVU51
 132 008b 2E C5                   		bra	.L3
 133                             	.LVL12:
 134                             	.L101:
  72:../src/smc_gen/r_drw2d_rx/src/tes/dave_line.c ****          miter = (w >> 1) << (16 - 4); /* PRQA S 0502 */ /* $Misra: #PERF_ARITHMETIC_SHIFT_RIGHT $*
 135                             		.loc 1 72 10 is_stmt 1 view .LVU52
  72:../src/smc_gen/r_drw2d_rx/src/tes/dave_line.c ****          miter = (w >> 1) << (16 - 4); /* PRQA S 0502 */ /* $Misra: #PERF_ARITHMETIC_SHIFT_RIGHT $*
 136                             		.loc 1 72 30 is_stmt 0 view .LVU53
 137 008d DF 87                   		mov.W	r8, r7
 138 008f 75 17 14                		mul	#20, r7
  72:../src/smc_gen/r_drw2d_rx/src/tes/dave_line.c ****          miter = (w >> 1) << (16 - 4); /* PRQA S 0502 */ /* $Misra: #PERF_ARITHMETIC_SHIFT_RIGHT $*
 139                             		.loc 1 72 36 view .LVU54
 140 0092 6A 47                   		shar	#4, r7
  72:../src/smc_gen/r_drw2d_rx/src/tes/dave_line.c ****          miter = (w >> 1) << (16 - 4); /* PRQA S 0502 */ /* $Misra: #PERF_ARITHMETIC_SHIFT_RIGHT $*
 141                             		.loc 1 72 13 view .LVU55
 142 0094 DF 78                   		mov.W	r7, r8
 143                             	.LVL13:
  73:../src/smc_gen/r_drw2d_rx/src/tes/dave_line.c ****       }
 144                             		.loc 1 73 10 is_stmt 1 view .LVU56
  73:../src/smc_gen/r_drw2d_rx/src/tes/dave_line.c ****       }
 145                             		.loc 1 73 21 is_stmt 0 view .LVU57
 146 0096 DD 07 2A                		mov.W	84[r0], r7
 147                             	.LVL14:
  73:../src/smc_gen/r_drw2d_rx/src/tes/dave_line.c ****       }
 148                             		.loc 1 73 21 view .LVU58
 149 0099 6A 17                   		shar	#1, r7
  73:../src/smc_gen/r_drw2d_rx/src/tes/dave_line.c ****       }
 150                             		.loc 1 73 16 view .LVU59
 151 009b 6C C7                   		shll	#12, r7
 152 009d E7 07 23                		mov.L	r7, 140[r0]
 153                             	.LVL15:
  73:../src/smc_gen/r_drw2d_rx/src/tes/dave_line.c ****       }
 154                             		.loc 1 73 16 view .LVU60
 155 00a0 0D                      		bra	.L4
 156                             	.LVL16:
 157                             	.L84:
  79:../src/smc_gen/r_drw2d_rx/src/tes/dave_line.c ****       }
  80:../src/smc_gen/r_drw2d_rx/src/tes/dave_line.c ****    }
  81:../src/smc_gen/r_drw2d_rx/src/tes/dave_line.c ****    else
  82:../src/smc_gen/r_drw2d_rx/src/tes/dave_line.c ****    {
  83:../src/smc_gen/r_drw2d_rx/src/tes/dave_line.c ****       miter = 0;
 158                             		.loc 1 83 13 view .LVU61
 159 00a1 F9 06 23 00             		mov.L	#0, 140[r0]
 160                             	.LVL17:
 161                             	.L4:
  84:../src/smc_gen/r_drw2d_rx/src/tes/dave_line.c ****    }
  85:../src/smc_gen/r_drw2d_rx/src/tes/dave_line.c **** 
  86:../src/smc_gen/r_drw2d_rx/src/tes/dave_line.c ****    if(dx > 0)
 162                             		.loc 1 86 4 is_stmt 1 view .LVU62
 163                             		.loc 1 86 6 is_stmt 0 view .LVU63
 164 00a5 61 0C                   		cmp	#0, r12
 165 00a7 2A 05 38 FF 03          		ble	.L6
  87:../src/smc_gen/r_drw2d_rx/src/tes/dave_line.c ****    {
  88:../src/smc_gen/r_drw2d_rx/src/tes/dave_line.c ****       bbox.xmin = (d2_point) D2_FLOOR4( x1 - wh );
 166                             		.loc 1 88 7 is_stmt 1 view .LVU64
 167                             		.loc 1 88 30 is_stmt 0 view .LVU65
 168 00ac FF 07 83                		sub	r8, r3, r7
 169                             		.loc 1 88 19 view .LVU66
 170 00af 75 27 F0                		and #-16, r7
 171                             		.loc 1 88 17 view .LVU67
 172 00b2 92 07                   		mov.W	r7, 16[r0]
  89:../src/smc_gen/r_drw2d_rx/src/tes/dave_line.c ****       bbox.xmax = (d2_point) D2_CEIL4( x2 + wh );
 173                             		.loc 1 89 7 is_stmt 1 view .LVU68
 174                             		.loc 1 89 30 is_stmt 0 view .LVU69
 175 00b4 DD 07 2C                		mov.W	88[r0], r7
 176 00b7 4B 87                   		add	r8, r7
 177 00b9 62 F7                   		add	#15, r7
 178                             		.loc 1 89 19 view .LVU70
 179 00bb 75 27 F0                		and #-16, r7
 180                             		.loc 1 89 17 view .LVU71
 181 00be 92 87                   		mov.W	r7, 20[r0]
 182                             	.L7:
  90:../src/smc_gen/r_drw2d_rx/src/tes/dave_line.c ****    }
  91:../src/smc_gen/r_drw2d_rx/src/tes/dave_line.c ****    else
  92:../src/smc_gen/r_drw2d_rx/src/tes/dave_line.c ****    {
  93:../src/smc_gen/r_drw2d_rx/src/tes/dave_line.c ****       bbox.xmin = (d2_point) D2_FLOOR4( x2 - wh );
  94:../src/smc_gen/r_drw2d_rx/src/tes/dave_line.c ****       bbox.xmax = (d2_point) D2_CEIL4( x1 + wh );
  95:../src/smc_gen/r_drw2d_rx/src/tes/dave_line.c ****    }
  96:../src/smc_gen/r_drw2d_rx/src/tes/dave_line.c **** 
  97:../src/smc_gen/r_drw2d_rx/src/tes/dave_line.c ****    if(dy > 0)
 183                             		.loc 1 97 4 is_stmt 1 view .LVU72
 184                             		.loc 1 97 6 is_stmt 0 view .LVU73
 185 00c0 61 06                   		cmp	#0, r6
 186 00c2 2A 05 38 FB 03          		ble	.L8
  98:../src/smc_gen/r_drw2d_rx/src/tes/dave_line.c ****    {
  99:../src/smc_gen/r_drw2d_rx/src/tes/dave_line.c ****       bbox.ymin = (d2_point) D2_FLOOR4( y1 - wh );
 187                             		.loc 1 99 7 is_stmt 1 view .LVU74
 188                             		.loc 1 99 30 is_stmt 0 view .LVU75
 189 00c7 FF 07 84                		sub	r8, r4, r7
 190                             		.loc 1 99 19 view .LVU76
 191 00ca 75 27 F0                		and #-16, r7
 192                             		.loc 1 99 17 view .LVU77
 193 00cd 92 0F                   		mov.W	r7, 18[r0]
 100:../src/smc_gen/r_drw2d_rx/src/tes/dave_line.c ****       bbox.ymax = (d2_point) D2_CEIL4( y2 + wh );
 194                             		.loc 1 100 7 is_stmt 1 view .LVU78
 195                             		.loc 1 100 30 is_stmt 0 view .LVU79
 196 00cf DD 07 2E                		mov.W	92[r0], r7
 197 00d2 4B 87                   		add	r8, r7
 198 00d4 62 F7                   		add	#15, r7
 199                             		.loc 1 100 19 view .LVU80
 200 00d6 75 27 F0                		and #-16, r7
 201                             		.loc 1 100 17 view .LVU81
 202 00d9 92 8F                   		mov.W	r7, 22[r0]
 203                             	.L9:
 204                             		.loc 1 100 17 view .LVU82
 205 00db D7 04 30                		mov.W	r4, 96[r0]
 206 00de D7 03 32                		mov.W	r3, 100[r0]
 207 00e1 EF 2A                   		mov.L	r2, r10
 208 00e3 EF 57                   		mov.L	r5, r7
 101:../src/smc_gen/r_drw2d_rx/src/tes/dave_line.c ****    }
 102:../src/smc_gen/r_drw2d_rx/src/tes/dave_line.c ****    else
 103:../src/smc_gen/r_drw2d_rx/src/tes/dave_line.c ****    {
 104:../src/smc_gen/r_drw2d_rx/src/tes/dave_line.c ****       bbox.ymin = (d2_point) D2_FLOOR4( y2 - wh );
 105:../src/smc_gen/r_drw2d_rx/src/tes/dave_line.c ****       bbox.ymax = (d2_point) D2_CEIL4( y1 + wh );
 106:../src/smc_gen/r_drw2d_rx/src/tes/dave_line.c ****    }
 107:../src/smc_gen/r_drw2d_rx/src/tes/dave_line.c **** 
 108:../src/smc_gen/r_drw2d_rx/src/tes/dave_line.c ****    /* clipping */
 109:../src/smc_gen/r_drw2d_rx/src/tes/dave_line.c ****    if(0 == d2_clipbbox_intern( handle, &bbox ))
 209                             		.loc 1 109 4 is_stmt 1 view .LVU83
 210                             		.loc 1 109 12 is_stmt 0 view .LVU84
 211 00e5 75 42 10                		mov.L	#16, r2
 212                             	.LVL18:
 213                             		.loc 1 109 12 view .LVU85
 214 00e8 4B 02                   		add	r0, r2
 215 00ea EF 51                   		mov.L	r5, r1
 216 00ec 05 00 00 00             		bsr	_d2_clipbbox_intern
 217                             	.LVL19:
 218                             		.loc 1 109 6 view .LVU86
 219 00f0 61 01                   		cmp	#0, r1
 220 00f2 3A B3 03                		beq	.L1
 110:../src/smc_gen/r_drw2d_rx/src/tes/dave_line.c ****    {
 111:../src/smc_gen/r_drw2d_rx/src/tes/dave_line.c ****       return 0;
 112:../src/smc_gen/r_drw2d_rx/src/tes/dave_line.c ****    }
 113:../src/smc_gen/r_drw2d_rx/src/tes/dave_line.c **** 
 114:../src/smc_gen/r_drw2d_rx/src/tes/dave_line.c ****    /* make relative (dont need relative endpoint) */
 115:../src/smc_gen/r_drw2d_rx/src/tes/dave_line.c ****    x1 = (d2_point)(x1 - bbox.xmin);
 221                             		.loc 1 115 4 is_stmt 1 view .LVU87
 222                             		.loc 1 115 29 is_stmt 0 view .LVU88
 223 00f5 9A 03                   		mov.W	16[r0], r3
 224                             		.loc 1 115 23 view .LVU89
 225 00f7 DD 01 32                		mov.W	100[r0], r1
 226 00fa 43 31                   		sub	r3, r1
 227 00fc A7 89                   		mov.L	r1, 124[r0]
 228                             	.LVL20:
 116:../src/smc_gen/r_drw2d_rx/src/tes/dave_line.c ****    y1 = (d2_point)(y1 - bbox.ymin);
 229                             		.loc 1 116 4 is_stmt 1 view .LVU90
 230                             		.loc 1 116 29 is_stmt 0 view .LVU91
 231 00fe D5 00 09 44             		mov.W	18[r0], 136[r0]
 232                             		.loc 1 116 23 view .LVU92
 233 0102 DD 03 30                		mov.W	96[r0], r3
 234 0105 DD 04 44                		mov.W	136[r0], r4
 235 0108 43 43                   		sub	r4, r3
 236 010a E7 03 20                		mov.L	r3, 128[r0]
 237                             	.LVL21:
 117:../src/smc_gen/r_drw2d_rx/src/tes/dave_line.c **** 
 118:../src/smc_gen/r_drw2d_rx/src/tes/dave_line.c ****    /* don't use round endpoints on very small lines */
 119:../src/smc_gen/r_drw2d_rx/src/tes/dave_line.c ****    if(w < D2_FIX4(3))
 238                             		.loc 1 119 4 is_stmt 1 view .LVU93
 239                             		.loc 1 119 6 is_stmt 0 view .LVU94
 240 010d DD 05 2A                		mov.W	84[r0], r5
 241 0110 75 55 2F                		cmp	#47, r5
 242 0113 2A 07                   		bgt	.L10
 120:../src/smc_gen/r_drw2d_rx/src/tes/dave_line.c ****    {
 121:../src/smc_gen/r_drw2d_rx/src/tes/dave_line.c ****       if(d2_lc_round == cap)
 243                             		.loc 1 121 7 is_stmt 1 view .LVU95
 244                             		.loc 1 121 9 is_stmt 0 view .LVU96
 245 0115 61 29                   		cmp	#2, r9
 246 0117 3A BF 03                		beq	.L102
 247                             	.LVL22:
 248                             	.L10:
 122:../src/smc_gen/r_drw2d_rx/src/tes/dave_line.c ****       {
 123:../src/smc_gen/r_drw2d_rx/src/tes/dave_line.c ****          cap = d2_lc_square;
 124:../src/smc_gen/r_drw2d_rx/src/tes/dave_line.c ****       }
 125:../src/smc_gen/r_drw2d_rx/src/tes/dave_line.c ****    }
 126:../src/smc_gen/r_drw2d_rx/src/tes/dave_line.c **** 
 127:../src/smc_gen/r_drw2d_rx/src/tes/dave_line.c ****    /* don't consider endpoint style if both are omitted */
 128:../src/smc_gen/r_drw2d_rx/src/tes/dave_line.c ****    if( (flags & d2_le_exclude_both) == d2_le_exclude_both )
 249                             		.loc 1 128 4 is_stmt 1 view .LVU97
 250                             		.loc 1 128 15 is_stmt 0 view .LVU98
 251 011a 66 35                   		mov.L	#3, r5
 252 011c 53 B5                   		and	r11, r5
 253                             		.loc 1 128 6 view .LVU99
 254 011e 61 35                   		cmp	#3, r5
 255 0120 3A BB 03                		beq	.L103
 256                             	.LVL23:
 257                             	.L11:
 129:../src/smc_gen/r_drw2d_rx/src/tes/dave_line.c ****    {
 130:../src/smc_gen/r_drw2d_rx/src/tes/dave_line.c ****       cap = d2_lc_butt;
 131:../src/smc_gen/r_drw2d_rx/src/tes/dave_line.c ****    }
 132:../src/smc_gen/r_drw2d_rx/src/tes/dave_line.c **** 
 133:../src/smc_gen/r_drw2d_rx/src/tes/dave_line.c ****    /* calc edge interpolation parameters */
 134:../src/smc_gen/r_drw2d_rx/src/tes/dave_line.c ****    if( (ctx->features & (d2_feat_blur | d2_feat_aa)) == (d2_feat_blur | d2_feat_aa) )
 258                             		.loc 1 134 4 is_stmt 1 view .LVU100
 259                             		.loc 1 134 12 is_stmt 0 view .LVU101
 260 0123 CD A5 D5                		mov.B	213[r10], r5
 261                             		.loc 1 134 6 view .LVU102
 262 0126 64 35                   		and #3, r5
 263 0128 61 35                   		cmp	#3, r5
 264 012a 3A B6 03                		beq	.L104
 135:../src/smc_gen/r_drw2d_rx/src/tes/dave_line.c ****    {
 136:../src/smc_gen/r_drw2d_rx/src/tes/dave_line.c ****       /* using special setup for blurred lines */
 137:../src/smc_gen/r_drw2d_rx/src/tes/dave_line.c ****       d2_lineedge_setup3blur_intern( edge, x1, y1, dx, dy, flags, ctx, &len );
 138:../src/smc_gen/r_drw2d_rx/src/tes/dave_line.c ****       w16 = (w * (d2_s32)ctx->invblur) >> 4;         /* PRQA S 0502 */ /* $Misra: #PERF_ARITHMETIC_
 139:../src/smc_gen/r_drw2d_rx/src/tes/dave_line.c ****       edge[0].start += w16 >> 1;             /* PRQA S 0502 */ /* $Misra: #PERF_ARITHMETIC_SHIFT_RI
 140:../src/smc_gen/r_drw2d_rx/src/tes/dave_line.c **** 
 141:../src/smc_gen/r_drw2d_rx/src/tes/dave_line.c ****       /* apply linecap */
 142:../src/smc_gen/r_drw2d_rx/src/tes/dave_line.c ****       if(d2_lc_square == cap)
 143:../src/smc_gen/r_drw2d_rx/src/tes/dave_line.c ****       {
 144:../src/smc_gen/r_drw2d_rx/src/tes/dave_line.c ****          if(0 == (flags & d2_le_exclude_start))
 145:../src/smc_gen/r_drw2d_rx/src/tes/dave_line.c ****          {
 146:../src/smc_gen/r_drw2d_rx/src/tes/dave_line.c ****             edge[1].start += w16 >> 1;       /* PRQA S 0502 */ /* $Misra: #PERF_ARITHMETIC_SHIFT_RI
 147:../src/smc_gen/r_drw2d_rx/src/tes/dave_line.c ****          }
 148:../src/smc_gen/r_drw2d_rx/src/tes/dave_line.c **** 
 149:../src/smc_gen/r_drw2d_rx/src/tes/dave_line.c ****          if(0 == (flags & d2_le_exclude_end))
 150:../src/smc_gen/r_drw2d_rx/src/tes/dave_line.c ****          {
 151:../src/smc_gen/r_drw2d_rx/src/tes/dave_line.c ****             edge[2].start += w16 >> 1;       /* PRQA S 0502 */ /* $Misra: #PERF_ARITHMETIC_SHIFT_RI
 152:../src/smc_gen/r_drw2d_rx/src/tes/dave_line.c ****          }
 153:../src/smc_gen/r_drw2d_rx/src/tes/dave_line.c ****       }
 154:../src/smc_gen/r_drw2d_rx/src/tes/dave_line.c **** 
 155:../src/smc_gen/r_drw2d_rx/src/tes/dave_line.c ****       w16 += (d2_s32)(ctx->invblur >> 1) - 65536;
 156:../src/smc_gen/r_drw2d_rx/src/tes/dave_line.c ****    }
 157:../src/smc_gen/r_drw2d_rx/src/tes/dave_line.c ****    else
 158:../src/smc_gen/r_drw2d_rx/src/tes/dave_line.c ****    {
 159:../src/smc_gen/r_drw2d_rx/src/tes/dave_line.c ****       /* using sqrt setup for wide lines (note: reduce threshold to 1?) */
 160:../src/smc_gen/r_drw2d_rx/src/tes/dave_line.c ****       if(w < D2_FIX4(2))
 265                             		.loc 1 160 7 is_stmt 1 view .LVU103
 266                             		.loc 1 160 9 is_stmt 0 view .LVU104
 267 012d DD 05 2A                		mov.W	84[r0], r5
 268 0130 75 55 1F                		cmp	#31, r5
 269 0133 2B 05 38 06 04          		bgt	.L16
 161:../src/smc_gen/r_drw2d_rx/src/tes/dave_line.c ****       {
 162:../src/smc_gen/r_drw2d_rx/src/tes/dave_line.c ****          d2_lineedge_setup3_intern( edge, x1, y1, dx, dy, flags, &len );
 270                             		.loc 1 162 10 is_stmt 1 view .LVU105
 271 0138 71 05 50                		add	#0x50, r0, r5
 272 013b A0 85                   		mov.L	r5, 8[r0]
 273 013d E7 0B 01                		mov.L	r11, 4[r0]
 274 0140 E3 06                   		mov.L	r6, [r0]
 275 0142 EF C4                   		mov.L	r12, r4
 276 0144 ED 05 20                		mov.L	128[r0], r5
 277 0147 DF 53                   		mov.W	r5, r3
 278                             	.LVL24:
 279                             		.loc 1 162 10 is_stmt 0 view .LVU106
 280 0149 AF 89                   		mov.L	124[r0], r1
 281                             	.LVL25:
 282                             		.loc 1 162 10 view .LVU107
 283 014b DF 12                   		mov.W	r1, r2
 284 014d 71 01 20                		add	#32, r0, r1
 285 0150 05 00 00 00             		bsr	_d2_lineedge_setup3_intern
 286                             	.LVL26:
 287                             	.L17:
 163:../src/smc_gen/r_drw2d_rx/src/tes/dave_line.c ****       }
 164:../src/smc_gen/r_drw2d_rx/src/tes/dave_line.c ****       else
 165:../src/smc_gen/r_drw2d_rx/src/tes/dave_line.c ****       {
 166:../src/smc_gen/r_drw2d_rx/src/tes/dave_line.c ****          d2_lineedge_setup3sqrt_intern( edge, x1, y1, dx, dy, flags, &len );
 167:../src/smc_gen/r_drw2d_rx/src/tes/dave_line.c ****       }
 168:../src/smc_gen/r_drw2d_rx/src/tes/dave_line.c **** 
 169:../src/smc_gen/r_drw2d_rx/src/tes/dave_line.c ****       w16 = w << (16 - 4);                  /* PRQA S 4131 */ /* $Misra: #PERF_ARITHMETIC_SHIFT_LEF
 288                             		.loc 1 169 7 is_stmt 1 view .LVU108
 289                             		.loc 1 169 11 is_stmt 0 view .LVU109
 290 0154 FD CC D3                		shll	#12, r13, r3
 291 0157 A6 0B                   		mov.L	r3, 100[r0]
 292                             	.LVL27:
 170:../src/smc_gen/r_drw2d_rx/src/tes/dave_line.c ****       edge[0].start += (w16 >> 1);          /* PRQA S 0502 */ /* $Misra: #PERF_ARITHMETIC_SHIFT_RIG
 293                             		.loc 1 170 7 is_stmt 1 view .LVU110
 294                             		.loc 1 170 29 is_stmt 0 view .LVU111
 295 0159 EF 35                   		mov.L	r3, r5
 296 015b 6A 15                   		shar	#1, r5
 297                             		.loc 1 170 21 view .LVU112
 298 015d 06 89 05 08             		add	32[r0], r5
 299 0161 A2 05                   		mov.L	r5, 32[r0]
 171:../src/smc_gen/r_drw2d_rx/src/tes/dave_line.c **** 
 172:../src/smc_gen/r_drw2d_rx/src/tes/dave_line.c ****       /* apply linecap */
 173:../src/smc_gen/r_drw2d_rx/src/tes/dave_line.c ****       if(d2_lc_square == cap)
 300                             		.loc 1 173 7 is_stmt 1 view .LVU113
 301                             		.loc 1 173 9 is_stmt 0 view .LVU114
 302 0163 61 19                   		cmp	#1, r9
 303 0165 3A F5 03                		beq	.L105
 304                             	.LVL28:
 305                             		.balign 8,3,1
 306                             	.L15:
 174:../src/smc_gen/r_drw2d_rx/src/tes/dave_line.c ****       {
 175:../src/smc_gen/r_drw2d_rx/src/tes/dave_line.c ****          if(0 == (flags & d2_le_exclude_start))
 176:../src/smc_gen/r_drw2d_rx/src/tes/dave_line.c ****          {
 177:../src/smc_gen/r_drw2d_rx/src/tes/dave_line.c ****             edge[1].start += (w16 - D2_FIX16(1)) >> 1;  /* PRQA S 0502 */ /* $Misra: #PERF_ARITHMET
 178:../src/smc_gen/r_drw2d_rx/src/tes/dave_line.c ****          }
 179:../src/smc_gen/r_drw2d_rx/src/tes/dave_line.c **** 
 180:../src/smc_gen/r_drw2d_rx/src/tes/dave_line.c ****          if(0 == (flags & d2_le_exclude_end))
 181:../src/smc_gen/r_drw2d_rx/src/tes/dave_line.c ****          {
 182:../src/smc_gen/r_drw2d_rx/src/tes/dave_line.c ****             edge[2].start += (w16 - D2_FIX16(1)) >> 1;  /* PRQA S 0502 */ /* $Misra: #PERF_ARITHMET
 183:../src/smc_gen/r_drw2d_rx/src/tes/dave_line.c ****          }
 184:../src/smc_gen/r_drw2d_rx/src/tes/dave_line.c ****       }
 185:../src/smc_gen/r_drw2d_rx/src/tes/dave_line.c ****    }
 186:../src/smc_gen/r_drw2d_rx/src/tes/dave_line.c **** 
 187:../src/smc_gen/r_drw2d_rx/src/tes/dave_line.c ****    /* set register values (material parameters) */
 188:../src/smc_gen/r_drw2d_rx/src/tes/dave_line.c ****    d2_setupmaterial_intern( handle, ctx );
 307                             		.loc 1 188 4 is_stmt 1 view .LVU115
 308 0168 EF A2                   		mov.L	r10, r2
 309 016a EF 71                   		mov.L	r7, r1
 310 016c 05 00 00 00             		bsr	_d2_setupmaterial_intern
 311                             	.LVL29:
 189:../src/smc_gen/r_drw2d_rx/src/tes/dave_line.c ****    tmask = ctx->thresholdmask;
 312                             		.loc 1 189 4 view .LVU116
 313                             		.loc 1 189 10 is_stmt 0 view .LVU117
 314 0170 E5 A0 4A 21             		mov.L	296[r10], 132[r0]
 315                             	.LVL30:
 190:../src/smc_gen/r_drw2d_rx/src/tes/dave_line.c **** 
 191:../src/smc_gen/r_drw2d_rx/src/tes/dave_line.c ****    /* determine rendering direction */
 192:../src/smc_gen/r_drw2d_rx/src/tes/dave_line.c ****    if( ((dy > 0) && (dx < 0)) || ((dy < 0) && (dx > 0)) )
 316                             		.loc 1 192 4 is_stmt 1 view .LVU118
 317                             		.loc 1 192 6 is_stmt 0 view .LVU119
 318 0174 61 06                   		cmp	#0, r6
 319 0176 2B 09                   		ble	.L19
 320                             		.loc 1 192 18 discriminator 1 view .LVU120
 321 0178 61 0C                   		cmp	#0, r12
 322 017a 28 05 38 1C 04          		blt	.L87
 323                             	.L19:
 324                             		.loc 1 192 31 discriminator 3 view .LVU121
 325 017f 61 06                   		cmp	#0, r6
 326 0181 28 05 38 05 04          		blt	.L106
 193:../src/smc_gen/r_drw2d_rx/src/tes/dave_line.c ****    {
 194:../src/smc_gen/r_drw2d_rx/src/tes/dave_line.c ****       flip = 1;
 195:../src/smc_gen/r_drw2d_rx/src/tes/dave_line.c ****    }
 196:../src/smc_gen/r_drw2d_rx/src/tes/dave_line.c ****    else
 197:../src/smc_gen/r_drw2d_rx/src/tes/dave_line.c ****    {
 198:../src/smc_gen/r_drw2d_rx/src/tes/dave_line.c ****       flip = 0;
 327                             		.loc 1 198 12 view .LVU122
 328 0186 3E 85 00                		mov.L	#0, 84[r0]
 329                             		.balign 8,3,2
 330                             	.L20:
 331                             	.LVL31:
 199:../src/smc_gen/r_drw2d_rx/src/tes/dave_line.c ****    }
 200:../src/smc_gen/r_drw2d_rx/src/tes/dave_line.c **** 
 201:../src/smc_gen/r_drw2d_rx/src/tes/dave_line.c ****    control = 
 332                             		.loc 1 201 4 is_stmt 1 view .LVU123
 202:../src/smc_gen/r_drw2d_rx/src/tes/dave_line.c ****       D2C_LIM1ENABLE  | 
 203:../src/smc_gen/r_drw2d_rx/src/tes/dave_line.c ****       D2C_LIM2ENABLE  | 
 204:../src/smc_gen/r_drw2d_rx/src/tes/dave_line.c ****       D2C_LIM5ENABLE  |
 205:../src/smc_gen/r_drw2d_rx/src/tes/dave_line.c ****       D2C_BAND1ENABLE | 
 206:../src/smc_gen/r_drw2d_rx/src/tes/dave_line.c ****       (tmask & (D2C_LIM1THRESHOLD | D2C_LIM2THRESHOLD | D2C_LIM5THRESHOLD)) |
 333                             		.loc 1 206 14 is_stmt 0 view .LVU124
 334 0189 ED 0C 21                		mov.L	132[r0], r12
 335                             	.LVL32:
 336                             		.loc 1 206 14 view .LVU125
 337 018c 76 2C 00 26             		and #0x2600, r12
 201:../src/smc_gen/r_drw2d_rx/src/tes/dave_line.c ****       D2C_LIM1ENABLE  | 
 338                             		.loc 1 201 12 view .LVU126
 339 0190 74 3C 13 80 C0 00       		or	#0xc08013, r12
 340                             	.LVL33:
 207:../src/smc_gen/r_drw2d_rx/src/tes/dave_line.c ****       D2C_SPANABORT   | 
 208:../src/smc_gen/r_drw2d_rx/src/tes/dave_line.c ****       D2C_SPANSTORE   ;
 209:../src/smc_gen/r_drw2d_rx/src/tes/dave_line.c **** 
 210:../src/smc_gen/r_drw2d_rx/src/tes/dave_line.c ****    /* check for alpha gradients */
 211:../src/smc_gen/r_drw2d_rx/src/tes/dave_line.c ****    if(0 != (ctx->alphamode & (d2_am_gradient1 | d2_am_gradient2)))
 341                             		.loc 1 211 4 is_stmt 1 view .LVU127
 342                             		.loc 1 211 16 is_stmt 0 view .LVU128
 343 0196 CD A5 16                		mov.B	22[r10], r5
 344                             		.loc 1 211 6 view .LVU129
 345 0199 64 65                   		and	#6, r5
 346 019b 20 2C                   		beq	.L21
 347                             	.LBB268:
 212:../src/smc_gen/r_drw2d_rx/src/tes/dave_line.c ****    {
 213:../src/smc_gen/r_drw2d_rx/src/tes/dave_line.c ****       d2_u32 gidx;
 348                             		.loc 1 213 7 is_stmt 1 view .LVU130
 214:../src/smc_gen/r_drw2d_rx/src/tes/dave_line.c **** 
 215:../src/smc_gen/r_drw2d_rx/src/tes/dave_line.c ****       if(d2_lc_round != cap)
 349                             		.loc 1 215 7 view .LVU131
 350                             		.loc 1 215 9 is_stmt 0 view .LVU132
 351 019d 61 29                   		cmp	#2, r9
 352 019f 3A FF 03                		beq	.L90
 216:../src/smc_gen/r_drw2d_rx/src/tes/dave_line.c ****       {
 217:../src/smc_gen/r_drw2d_rx/src/tes/dave_line.c ****          gidx = 2;   /* put gradients on limiters 3&4 for nonround lines */
 353                             		.loc 1 217 15 view .LVU133
 354 01a2 66 24                   		mov.L	#2, r4
 355                             	.L22:
 356                             	.LVL34:
 218:../src/smc_gen/r_drw2d_rx/src/tes/dave_line.c ****       }
 219:../src/smc_gen/r_drw2d_rx/src/tes/dave_line.c ****       else
 220:../src/smc_gen/r_drw2d_rx/src/tes/dave_line.c ****       {
 221:../src/smc_gen/r_drw2d_rx/src/tes/dave_line.c ****          gidx = 5;   /* put gradients on limiter 6 for rounded lines */
 222:../src/smc_gen/r_drw2d_rx/src/tes/dave_line.c ****       }
 223:../src/smc_gen/r_drw2d_rx/src/tes/dave_line.c **** 
 224:../src/smc_gen/r_drw2d_rx/src/tes/dave_line.c ****       if(0 != (flags & d2_lei_miter_edge))
 357                             		.loc 1 224 7 is_stmt 1 view .LVU134
 358                             		.loc 1 224 9 is_stmt 0 view .LVU135
 359 01a4 AE 85                   		mov.L	104[r0], r5
 360 01a6 61 05                   		cmp	#0, r5
 361 01a8 13                      		beq	.L23
 225:../src/smc_gen/r_drw2d_rx/src/tes/dave_line.c ****       {
 226:../src/smc_gen/r_drw2d_rx/src/tes/dave_line.c ****          gidx = 5;   /* keep limiters 3&4 free for miter limiters */
 362                             		.loc 1 226 15 view .LVU136
 363 01a9 66 54                   		mov.L	#5, r4
 364                             	.LVL35:
 365                             	.L23:
 227:../src/smc_gen/r_drw2d_rx/src/tes/dave_line.c ****       }
 228:../src/smc_gen/r_drw2d_rx/src/tes/dave_line.c **** 
 229:../src/smc_gen/r_drw2d_rx/src/tes/dave_line.c ****       control = d2_initgradients_intern( handle, ctx, &bbox, gidx, control );
 366                             		.loc 1 229 7 is_stmt 1 view .LVU137
 367                             		.loc 1 229 17 is_stmt 0 view .LVU138
 368 01ab E3 0C                   		mov.L	r12, [r0]
 369                             	.LVL36:
 370                             		.loc 1 229 17 view .LVU139
 371 01ad 75 43 10                		mov.L	#16, r3
 372 01b0 4B 03                   		add	r0, r3
 373 01b2 EF A2                   		mov.L	r10, r2
 374 01b4 EF 71                   		mov.L	r7, r1
 375 01b6 05 00 00 00             		bsr	_d2_initgradients_intern
 376                             	.LVL37:
 377                             		.loc 1 229 17 view .LVU140
 378 01ba EF 1C                   		mov.L	r1, r12
 379                             	.LVL38:
 230:../src/smc_gen/r_drw2d_rx/src/tes/dave_line.c **** 
 231:../src/smc_gen/r_drw2d_rx/src/tes/dave_line.c ****       if(0 == (control & D2C_SPANSTORE))
 380                             		.loc 1 231 7 is_stmt 1 view .LVU141
 381                             		.loc 1 231 9 is_stmt 0 view .LVU142
 382 01bc FD 70 C1 00 00 80 00    		tst	#0x800000, r1
 383 01c3 1C                      		bne	.L21
 232:../src/smc_gen/r_drw2d_rx/src/tes/dave_line.c ****       {
 233:../src/smc_gen/r_drw2d_rx/src/tes/dave_line.c ****          flip = 0;
 384                             		.loc 1 233 15 view .LVU143
 385 01c4 3E 85 00                		mov.L	#0, 84[r0]
 386                             	.LVL39:
 387                             	.L21:
 388                             		.loc 1 233 15 view .LVU144
 389                             	.LBE268:
 234:../src/smc_gen/r_drw2d_rx/src/tes/dave_line.c ****       }
 235:../src/smc_gen/r_drw2d_rx/src/tes/dave_line.c ****    }
 236:../src/smc_gen/r_drw2d_rx/src/tes/dave_line.c **** 
 237:../src/smc_gen/r_drw2d_rx/src/tes/dave_line.c ****    /* pattern autoalign */
 238:../src/smc_gen/r_drw2d_rx/src/tes/dave_line.c ****    if(0 != (ctx->patmode & d2_pm_autoalign))
 390                             		.loc 1 238 4 is_stmt 1 view .LVU145
 391                             		.loc 1 238 16 is_stmt 0 view .LVU146
 392 01c7 CD A5 D4                		mov.B	212[r10], r5
 393                             		.loc 1 238 6 view .LVU147
 394 01ca FD 74 C5 02             		tst	#2, r5
 395 01ce 20 53                   		beq	.L24
 396                             	.LBB269:
 239:../src/smc_gen/r_drw2d_rx/src/tes/dave_line.c ****    {
 240:../src/smc_gen/r_drw2d_rx/src/tes/dave_line.c ****       d2_gradientdata *grad;
 397                             		.loc 1 240 7 is_stmt 1 view .LVU148
 241:../src/smc_gen/r_drw2d_rx/src/tes/dave_line.c **** 
 242:../src/smc_gen/r_drw2d_rx/src/tes/dave_line.c ****       grad = & ctx->patulim[0];
 398                             		.loc 1 242 7 view .LVU149
 399                             	.LVL40:
 243:../src/smc_gen/r_drw2d_rx/src/tes/dave_line.c ****       ctx->internaldirty |= d2_dirty_upatlim;
 400                             		.loc 1 243 7 view .LVU150
 401                             		.loc 1 243 26 is_stmt 0 view .LVU151
 402 01d0 F2 A3 0E 01             		bset	#3, 270[r10].B
 244:../src/smc_gen/r_drw2d_rx/src/tes/dave_line.c **** 
 245:../src/smc_gen/r_drw2d_rx/src/tes/dave_line.c ****       grad->mode = d2_grad_linear | d2_grad_aapattern;
 403                             		.loc 1 245 7 is_stmt 1 view .LVU152
 404                             		.loc 1 245 18 is_stmt 0 view .LVU153
 405 01d4 F9 A6 1F 21             		mov.L	#33, 124[r10]
 246:../src/smc_gen/r_drw2d_rx/src/tes/dave_line.c ****       grad->x1 = x1;
 406                             		.loc 1 246 7 is_stmt 1 view .LVU154
 407                             		.loc 1 246 16 is_stmt 0 view .LVU155
 408 01d8 AF 89                   		mov.L	124[r0], r1
 409 01da D7 A1 48                		mov.W	r1, 144[r10]
 247:../src/smc_gen/r_drw2d_rx/src/tes/dave_line.c ****       grad->y1 = y1;
 410                             		.loc 1 247 7 is_stmt 1 view .LVU156
 411                             		.loc 1 247 16 is_stmt 0 view .LVU157
 412 01dd ED 03 20                		mov.L	128[r0], r3
 413 01e0 D7 A3 49                		mov.W	r3, 146[r10]
 248:../src/smc_gen/r_drw2d_rx/src/tes/dave_line.c **** 
 249:../src/smc_gen/r_drw2d_rx/src/tes/dave_line.c ****       if(0 != (ctx->patmode & d2_pm_orthogonal))
 414                             		.loc 1 249 7 is_stmt 1 view .LVU158
 415                             		.loc 1 249 9 is_stmt 0 view .LVU159
 416 01e3 FD 74 C5 08             		tst	#8, r5
 417 01e7 3A BC 03                		beq	.L25
 250:../src/smc_gen/r_drw2d_rx/src/tes/dave_line.c ****       {
 251:../src/smc_gen/r_drw2d_rx/src/tes/dave_line.c ****          grad->xadd = (edge[1].yadd << 4) / ctx->patscale;   /* PRQA S 4131 */ /* $Misra: #PERF_ARI
 418                             		.loc 1 251 10 is_stmt 1 view .LVU160
 419                             		.loc 1 251 31 is_stmt 0 view .LVU161
 420 01ea AB 0C                   		mov.L	52[r0], r4
 421                             		.loc 1 251 37 view .LVU162
 422 01ec 6C 44                   		shll	#4, r4
 423                             		.loc 1 251 48 view .LVU163
 424 01ee ED A3 34                		mov.L	208[r10], r3
 425                             		.loc 1 251 43 view .LVU164
 426 01f1 FC 23 34                		div	r3, r4
 427                             		.loc 1 251 21 view .LVU165
 428 01f4 E7 A4 20                		mov.L	r4, 128[r10]
 252:../src/smc_gen/r_drw2d_rx/src/tes/dave_line.c ****          grad->yadd = (-edge[1].xadd << 4) / ctx->patscale;  /* PRQA S 4131 */ /* $Misra: #PERF_ARI
 429                             		.loc 1 252 10 is_stmt 1 view .LVU166
 430                             		.loc 1 252 32 is_stmt 0 view .LVU167
 431 01f7 AB 04                   		mov.L	48[r0], r4
 432                             		.loc 1 252 24 view .LVU168
 433 01f9 7E 14                   		neg	r4
 434                             		.loc 1 252 38 view .LVU169
 435 01fb 6C 44                   		shll	#4, r4
 436                             		.loc 1 252 44 view .LVU170
 437 01fd FC 23 34                		div	r3, r4
 438                             		.loc 1 252 21 view .LVU171
 439 0200 E7 A4 21                		mov.L	r4, 132[r10]
 440                             	.L26:
 253:../src/smc_gen/r_drw2d_rx/src/tes/dave_line.c ****       }
 254:../src/smc_gen/r_drw2d_rx/src/tes/dave_line.c ****       else
 255:../src/smc_gen/r_drw2d_rx/src/tes/dave_line.c ****       {
 256:../src/smc_gen/r_drw2d_rx/src/tes/dave_line.c ****          grad->xadd = (edge[1].xadd << 4) / ctx->patscale;   /* PRQA S 4131 */ /* $Misra: #PERF_ARI
 257:../src/smc_gen/r_drw2d_rx/src/tes/dave_line.c ****          grad->yadd = (edge[1].yadd << 4) / ctx->patscale;   /* PRQA S 4131 */ /* $Misra: #PERF_ARI
 258:../src/smc_gen/r_drw2d_rx/src/tes/dave_line.c ****       }
 259:../src/smc_gen/r_drw2d_rx/src/tes/dave_line.c ****       grad->xadd2 = ctx->patoffset << (16 - 4);              /* PRQA S 4131 */ /* $Misra: #PERF_ARI
 441                             		.loc 1 259 7 is_stmt 1 view .LVU172
 442                             		.loc 1 259 24 is_stmt 0 view .LVU173
 443 0203 ED A4 33                		mov.L	204[r10], r4
 444                             		.loc 1 259 36 view .LVU174
 445 0206 FD CC 43                		shll	#12, r4, r3
 446                             		.loc 1 259 19 view .LVU175
 447 0209 E7 A3 22                		mov.L	r3, 136[r10]
 260:../src/smc_gen/r_drw2d_rx/src/tes/dave_line.c **** 
 261:../src/smc_gen/r_drw2d_rx/src/tes/dave_line.c ****       /* pattern auto advance */
 262:../src/smc_gen/r_drw2d_rx/src/tes/dave_line.c ****       if(0 != (ctx->patmode & d2_pm_advance))
 448                             		.loc 1 262 7 is_stmt 1 view .LVU176
 449                             		.loc 1 262 9 is_stmt 0 view .LVU177
 450 020c FD 74 C5 04             		tst	#4, r5
 451 0210 20 11                   		beq	.L24
 263:../src/smc_gen/r_drw2d_rx/src/tes/dave_line.c ****       {
 264:../src/smc_gen/r_drw2d_rx/src/tes/dave_line.c ****          ctx->patoffset += (len << 4) / ctx->patscale;       /* PRQA S 4131 */ /* $Misra: #PERF_ARI
 452                             		.loc 1 264 10 is_stmt 1 view .LVU178
 453                             		.loc 1 264 33 is_stmt 0 view .LVU179
 454 0212 AD 05                   		mov.L	80[r0], r5
 455 0214 6C 45                   		shll	#4, r5
 456                             		.loc 1 264 44 view .LVU180
 457 0216 ED A3 34                		mov.L	208[r10], r3
 458                             		.loc 1 264 39 view .LVU181
 459 0219 FC 23 35                		div	r3, r5
 460                             		.loc 1 264 25 view .LVU182
 461 021c 4B 54                   		add	r5, r4
 462 021e E7 A4 33                		mov.L	r4, 204[r10]
 463                             	.LVL41:
 464                             	.L24:
 465                             		.loc 1 264 25 view .LVU183
 466                             	.LBE269:
 265:../src/smc_gen/r_drw2d_rx/src/tes/dave_line.c ****       }
 266:../src/smc_gen/r_drw2d_rx/src/tes/dave_line.c ****    }
 267:../src/smc_gen/r_drw2d_rx/src/tes/dave_line.c **** 
 268:../src/smc_gen/r_drw2d_rx/src/tes/dave_line.c ****    /* output texture and pattern setup */
 269:../src/smc_gen/r_drw2d_rx/src/tes/dave_line.c ****    d2_setuppattern( handle, ctx, &bbox, flip );
 467                             		.loc 1 269 4 is_stmt 1 view .LVU184
 468 0221 AD 0C                   		mov.L	84[r0], r4
 469 0223 75 43 10                		mov.L	#16, r3
 470 0226 4B 03                   		add	r0, r3
 471 0228 EF A2                   		mov.L	r10, r2
 472 022a EF 71                   		mov.L	r7, r1
 473 022c 05 00 00 00             		bsr	_d2_setuppattern
 474                             	.LVL42:
 270:../src/smc_gen/r_drw2d_rx/src/tes/dave_line.c ****    d2_setuptexture( handle, ctx, &bbox, flip );
 475                             		.loc 1 270 4 view .LVU185
 476 0230 AD 0C                   		mov.L	84[r0], r4
 477 0232 75 43 10                		mov.L	#16, r3
 478 0235 4B 03                   		add	r0, r3
 479 0237 EF A2                   		mov.L	r10, r2
 480 0239 EF 71                   		mov.L	r7, r1
 481 023b 05 00 00 00             		bsr	_d2_setuptexture
 482                             	.LVL43:
 271:../src/smc_gen/r_drw2d_rx/src/tes/dave_line.c **** 
 272:../src/smc_gen/r_drw2d_rx/src/tes/dave_line.c ****    /* include first round end */
 273:../src/smc_gen/r_drw2d_rx/src/tes/dave_line.c ****    if(d2_lc_round == cap)
 483                             		.loc 1 273 4 view .LVU186
 484                             		.loc 1 273 6 is_stmt 0 view .LVU187
 485 023f 61 29                   		cmp	#2, r9
 486 0241 3A 7C 03                		beq	.L107
 274:../src/smc_gen/r_drw2d_rx/src/tes/dave_line.c ****    {
 275:../src/smc_gen/r_drw2d_rx/src/tes/dave_line.c ****       d2_point x,y;
 276:../src/smc_gen/r_drw2d_rx/src/tes/dave_line.c **** 
 277:../src/smc_gen/r_drw2d_rx/src/tes/dave_line.c ****       /* endpoint radius */
 278:../src/smc_gen/r_drw2d_rx/src/tes/dave_line.c ****       er = (d2_width)((w + D2_FIX4(1)) >> 1);           /* PRQA S 0502 */ /* $Misra: #PERF_ARITHMET
 279:../src/smc_gen/r_drw2d_rx/src/tes/dave_line.c **** 
 280:../src/smc_gen/r_drw2d_rx/src/tes/dave_line.c ****       if(0 != (flags & d2_le_exclude_start))
 281:../src/smc_gen/r_drw2d_rx/src/tes/dave_line.c ****       {
 282:../src/smc_gen/r_drw2d_rx/src/tes/dave_line.c ****          /* endpoint (no second part) */
 283:../src/smc_gen/r_drw2d_rx/src/tes/dave_line.c ****          if(0 != flip)
 284:../src/smc_gen/r_drw2d_rx/src/tes/dave_line.c ****          {
 285:../src/smc_gen/r_drw2d_rx/src/tes/dave_line.c ****             x = (d2_point)(x2 - bbox.xmin);
 286:../src/smc_gen/r_drw2d_rx/src/tes/dave_line.c ****             y = (d2_point)(bbox.ymax - y2);
 287:../src/smc_gen/r_drw2d_rx/src/tes/dave_line.c ****          }
 288:../src/smc_gen/r_drw2d_rx/src/tes/dave_line.c ****          else
 289:../src/smc_gen/r_drw2d_rx/src/tes/dave_line.c ****          {
 290:../src/smc_gen/r_drw2d_rx/src/tes/dave_line.c ****             x = (d2_point)(x2 - bbox.xmin);
 291:../src/smc_gen/r_drw2d_rx/src/tes/dave_line.c ****             y = (d2_point)(y2 - bbox.ymin);
 292:../src/smc_gen/r_drw2d_rx/src/tes/dave_line.c ****          }
 293:../src/smc_gen/r_drw2d_rx/src/tes/dave_line.c **** 
 294:../src/smc_gen/r_drw2d_rx/src/tes/dave_line.c ****          /* no need to consider round ends anymore */
 295:../src/smc_gen/r_drw2d_rx/src/tes/dave_line.c ****          cap = d2_lc_butt;
 296:../src/smc_gen/r_drw2d_rx/src/tes/dave_line.c ****          swt = 1;
 297:../src/smc_gen/r_drw2d_rx/src/tes/dave_line.c ****       }
 298:../src/smc_gen/r_drw2d_rx/src/tes/dave_line.c ****       else
 299:../src/smc_gen/r_drw2d_rx/src/tes/dave_line.c ****       {
 300:../src/smc_gen/r_drw2d_rx/src/tes/dave_line.c ****          /* startpoint */
 301:../src/smc_gen/r_drw2d_rx/src/tes/dave_line.c ****          if(0 != flip)
 302:../src/smc_gen/r_drw2d_rx/src/tes/dave_line.c ****          {
 303:../src/smc_gen/r_drw2d_rx/src/tes/dave_line.c ****             x = x1;
 304:../src/smc_gen/r_drw2d_rx/src/tes/dave_line.c ****             y = (d2_point)((bbox.ymax - bbox.ymin) - y1);
 305:../src/smc_gen/r_drw2d_rx/src/tes/dave_line.c ****          }
 306:../src/smc_gen/r_drw2d_rx/src/tes/dave_line.c ****          else
 307:../src/smc_gen/r_drw2d_rx/src/tes/dave_line.c ****          {
 308:../src/smc_gen/r_drw2d_rx/src/tes/dave_line.c ****             x = x1;
 309:../src/smc_gen/r_drw2d_rx/src/tes/dave_line.c ****             y = y1;
 310:../src/smc_gen/r_drw2d_rx/src/tes/dave_line.c ****          }
 311:../src/smc_gen/r_drw2d_rx/src/tes/dave_line.c **** 
 312:../src/smc_gen/r_drw2d_rx/src/tes/dave_line.c ****          if(0 != (flags & d2_le_exclude_end))
 313:../src/smc_gen/r_drw2d_rx/src/tes/dave_line.c ****          {
 314:../src/smc_gen/r_drw2d_rx/src/tes/dave_line.c ****             /* no second part */
 315:../src/smc_gen/r_drw2d_rx/src/tes/dave_line.c ****             cap = d2_lc_butt;
 316:../src/smc_gen/r_drw2d_rx/src/tes/dave_line.c ****          }
 317:../src/smc_gen/r_drw2d_rx/src/tes/dave_line.c ****          else
 318:../src/smc_gen/r_drw2d_rx/src/tes/dave_line.c ****          {
 319:../src/smc_gen/r_drw2d_rx/src/tes/dave_line.c ****             /* shared edge at endpoint (endpoint rendered as second part) */
 320:../src/smc_gen/r_drw2d_rx/src/tes/dave_line.c ****             control |= D2C_LIM5THRESHOLD;
 321:../src/smc_gen/r_drw2d_rx/src/tes/dave_line.c ****          }
 322:../src/smc_gen/r_drw2d_rx/src/tes/dave_line.c ****          swt = 0;
 323:../src/smc_gen/r_drw2d_rx/src/tes/dave_line.c ****       }
 324:../src/smc_gen/r_drw2d_rx/src/tes/dave_line.c **** 
 325:../src/smc_gen/r_drw2d_rx/src/tes/dave_line.c ****       /* check endpoint clipping to avoid 'far off' endpoints */
 326:../src/smc_gen/r_drw2d_rx/src/tes/dave_line.c ****       if( ((x + (er*2)) > 0) &&
 327:../src/smc_gen/r_drw2d_rx/src/tes/dave_line.c ****           ((y + (er*2)) > 0) &&
 328:../src/smc_gen/r_drw2d_rx/src/tes/dave_line.c ****           ((x - (er*2)) < (bbox.xmax - bbox.xmin)) &&
 329:../src/smc_gen/r_drw2d_rx/src/tes/dave_line.c ****           ((y - (er*2)) < (bbox.ymax - bbox.ymin))
 330:../src/smc_gen/r_drw2d_rx/src/tes/dave_line.c ****           )
 331:../src/smc_gen/r_drw2d_rx/src/tes/dave_line.c ****       {
 332:../src/smc_gen/r_drw2d_rx/src/tes/dave_line.c ****          /* round endpoint limiter setup */
 333:../src/smc_gen/r_drw2d_rx/src/tes/dave_line.c ****          d2_circlesetup_intern( handle, ctx, 2, x, y, er, 0, 0, 0);
 334:../src/smc_gen/r_drw2d_rx/src/tes/dave_line.c **** 
 335:../src/smc_gen/r_drw2d_rx/src/tes/dave_line.c ****          /* include l3/l4 */
 336:../src/smc_gen/r_drw2d_rx/src/tes/dave_line.c ****          control |= D2C_LIM3ENABLE | D2C_QUAD2ENABLE | D2C_UNIONAB | (tmask & D2C_LIM3THRESHOLD);
 337:../src/smc_gen/r_drw2d_rx/src/tes/dave_line.c ****          /* update cache for circular rendering */
 338:../src/smc_gen/r_drw2d_rx/src/tes/dave_line.c ****       }
 339:../src/smc_gen/r_drw2d_rx/src/tes/dave_line.c ****    }
 340:../src/smc_gen/r_drw2d_rx/src/tes/dave_line.c ****    else
 341:../src/smc_gen/r_drw2d_rx/src/tes/dave_line.c ****    {
 342:../src/smc_gen/r_drw2d_rx/src/tes/dave_line.c ****       swt = 0;
 487                             		.loc 1 342 11 view .LVU188
 488 0244 3E 88 00                		mov.L	#0, 96[r0]
 343:../src/smc_gen/r_drw2d_rx/src/tes/dave_line.c ****       /* just to shutup compiler */
 344:../src/smc_gen/r_drw2d_rx/src/tes/dave_line.c ****       er = 0;
 489                             		.loc 1 344 10 view .LVU189
 490 0247 F9 05 48 00             		mov.W	#0, 144[r0]
 491 024b 77 10 01 00 00          		.balign 8,3,6
 492                             	.L27:
 493                             	.LVL44:
 345:../src/smc_gen/r_drw2d_rx/src/tes/dave_line.c ****    }
 346:../src/smc_gen/r_drw2d_rx/src/tes/dave_line.c **** 
 347:../src/smc_gen/r_drw2d_rx/src/tes/dave_line.c ****    /* disable antialiasing for excluded endpoints */
 348:../src/smc_gen/r_drw2d_rx/src/tes/dave_line.c ****    if(0 != (flags & d2_le_exclude_start))
 494                             		.loc 1 348 4 is_stmt 1 view .LVU190
 495                             		.loc 1 348 6 is_stmt 0 view .LVU191
 496 0250 FD 74 CB 01             		tst	#1, r11
 497 0254 20 24                   		beq	.L32
 349:../src/smc_gen/r_drw2d_rx/src/tes/dave_line.c ****    {
 350:../src/smc_gen/r_drw2d_rx/src/tes/dave_line.c ****       if(0 == swt)
 498                             		.loc 1 350 7 is_stmt 1 view .LVU192
 499                             		.loc 1 350 9 is_stmt 0 view .LVU193
 500 0256 AE 03                   		mov.L	96[r0], r3
 501 0258 61 03                   		cmp	#0, r3
 502 025a 3B 47 04                		bne	.L33
 351:../src/smc_gen/r_drw2d_rx/src/tes/dave_line.c ****       {
 352:../src/smc_gen/r_drw2d_rx/src/tes/dave_line.c ****          control |= D2C_LIM2THRESHOLD;
 503                             		.loc 1 352 10 is_stmt 1 view .LVU194
 504                             		.loc 1 352 18 is_stmt 0 view .LVU195
 505 025d 78 AC                   		bset	#10, r12
 506                             	.LVL45:
 507                             	.L34:
 353:../src/smc_gen/r_drw2d_rx/src/tes/dave_line.c ****       }
 354:../src/smc_gen/r_drw2d_rx/src/tes/dave_line.c ****       else
 355:../src/smc_gen/r_drw2d_rx/src/tes/dave_line.c ****       {
 356:../src/smc_gen/r_drw2d_rx/src/tes/dave_line.c ****          control |= D2C_LIM5THRESHOLD;
 357:../src/smc_gen/r_drw2d_rx/src/tes/dave_line.c ****       }
 358:../src/smc_gen/r_drw2d_rx/src/tes/dave_line.c **** 
 359:../src/smc_gen/r_drw2d_rx/src/tes/dave_line.c ****       if(0 != (flags & d2_lei_ext_first_edge))
 508                             		.loc 1 359 7 is_stmt 1 view .LVU196
 509                             		.loc 1 359 9 is_stmt 0 view .LVU197
 510 025f FD 78 CB 00 02          		tst	#0x200, r11
 511 0264 3B 42 04                		bne	.L108
 360:../src/smc_gen/r_drw2d_rx/src/tes/dave_line.c ****       {
 361:../src/smc_gen/r_drw2d_rx/src/tes/dave_line.c ****          /* use external edge */
 362:../src/smc_gen/r_drw2d_rx/src/tes/dave_line.c ****          d2_triedge_setupnoaa_intern(&edge[1], x1, y1, connectors[0], connectors[1], 0 );
 363:../src/smc_gen/r_drw2d_rx/src/tes/dave_line.c ****          wh = (d2_width)(wh*2); /* expand span delay (experimental) */   /* PRQA S 4131 */ /* $Misr
 364:../src/smc_gen/r_drw2d_rx/src/tes/dave_line.c ****       }
 365:../src/smc_gen/r_drw2d_rx/src/tes/dave_line.c ****       else
 366:../src/smc_gen/r_drw2d_rx/src/tes/dave_line.c ****       {
 367:../src/smc_gen/r_drw2d_rx/src/tes/dave_line.c ****          /* keep original edge */
 368:../src/smc_gen/r_drw2d_rx/src/tes/dave_line.c ****          edge[1].start += D2_FIX16(1) >> 1;   /* PRQA S 0502 */ /* $Misra: #PERF_ARITHMETIC_SHIFT_R
 512                             		.loc 1 368 10 is_stmt 1 view .LVU198
 513                             		.loc 1 368 24 is_stmt 0 view .LVU199
 514 0267 AA 8D                   		mov.L	44[r0], r5
 515 0269 73 55 00 80 00          		add	#0x8000, r5
 516 026e A2 8D                   		mov.L	r5, 44[r0]
 369:../src/smc_gen/r_drw2d_rx/src/tes/dave_line.c ****          /* rightedge flags */
 370:../src/smc_gen/r_drw2d_rx/src/tes/dave_line.c ****          if(dy > 0)
 517                             		.loc 1 370 10 is_stmt 1 view .LVU200
 518                             		.loc 1 370 12 is_stmt 0 view .LVU201
 519 0270 61 06                   		cmp	#0, r6
 520 0272 2B 06                   		ble	.L32
 371:../src/smc_gen/r_drw2d_rx/src/tes/dave_line.c ****          {
 372:../src/smc_gen/r_drw2d_rx/src/tes/dave_line.c ****             edge[1].start += D2_EPSILON;
 521                             		.loc 1 372 13 is_stmt 1 view .LVU202
 522                             		.loc 1 372 27 is_stmt 0 view .LVU203
 523 0274 62 15                   		add	#1, r5
 524 0276 A2 8D                   		mov.L	r5, 44[r0]
 525                             	.LVL46:
 526                             		.balign 8,3,6
 527                             	.L32:
 373:../src/smc_gen/r_drw2d_rx/src/tes/dave_line.c ****          }
 374:../src/smc_gen/r_drw2d_rx/src/tes/dave_line.c ****       }
 375:../src/smc_gen/r_drw2d_rx/src/tes/dave_line.c ****    }
 376:../src/smc_gen/r_drw2d_rx/src/tes/dave_line.c **** 
 377:../src/smc_gen/r_drw2d_rx/src/tes/dave_line.c ****    if(0 != (flags & d2_le_exclude_end))
 528                             		.loc 1 377 4 is_stmt 1 view .LVU204
 529                             		.loc 1 377 6 is_stmt 0 view .LVU205
 530 0278 FD 74 CB 02             		tst	#2, r11
 531 027c 20 24                   		beq	.L36
 378:../src/smc_gen/r_drw2d_rx/src/tes/dave_line.c ****    {
 379:../src/smc_gen/r_drw2d_rx/src/tes/dave_line.c ****       if(0 != swt)
 532                             		.loc 1 379 7 is_stmt 1 view .LVU206
 533                             		.loc 1 379 9 is_stmt 0 view .LVU207
 534 027e AE 01                   		mov.L	96[r0], r1
 535 0280 61 01                   		cmp	#0, r1
 536 0282 3A 43 04                		beq	.L37
 380:../src/smc_gen/r_drw2d_rx/src/tes/dave_line.c ****       {
 381:../src/smc_gen/r_drw2d_rx/src/tes/dave_line.c ****          control |= D2C_LIM2THRESHOLD;
 537                             		.loc 1 381 10 is_stmt 1 view .LVU208
 538                             		.loc 1 381 18 is_stmt 0 view .LVU209
 539 0285 78 AC                   		bset	#10, r12
 540                             	.LVL47:
 541                             	.L38:
 382:../src/smc_gen/r_drw2d_rx/src/tes/dave_line.c ****       }
 383:../src/smc_gen/r_drw2d_rx/src/tes/dave_line.c ****       else
 384:../src/smc_gen/r_drw2d_rx/src/tes/dave_line.c ****       {
 385:../src/smc_gen/r_drw2d_rx/src/tes/dave_line.c ****          control |= D2C_LIM5THRESHOLD;
 386:../src/smc_gen/r_drw2d_rx/src/tes/dave_line.c ****       }
 387:../src/smc_gen/r_drw2d_rx/src/tes/dave_line.c **** 
 388:../src/smc_gen/r_drw2d_rx/src/tes/dave_line.c ****       if(0 != (flags & d2_lei_ext_last_edge))
 542                             		.loc 1 388 7 is_stmt 1 view .LVU210
 543                             		.loc 1 388 9 is_stmt 0 view .LVU211
 544 0287 FD 78 CB 00 04          		tst	#0x400, r11
 545 028c 3B 3E 04                		bne	.L109
 389:../src/smc_gen/r_drw2d_rx/src/tes/dave_line.c ****       {
 390:../src/smc_gen/r_drw2d_rx/src/tes/dave_line.c ****          /* use external edge */
 391:../src/smc_gen/r_drw2d_rx/src/tes/dave_line.c ****          d2_triedge_setupnoaa_intern(&edge[2], (d2_point)(x2 - bbox.xmin), (d2_point)(y2 - bbox.ymi
 392:../src/smc_gen/r_drw2d_rx/src/tes/dave_line.c ****          wh = (d2_width)(wh*2); /* expand span delay (experimental) */   /* PRQA S 4131 */ /* $Misr
 393:../src/smc_gen/r_drw2d_rx/src/tes/dave_line.c ****       }
 394:../src/smc_gen/r_drw2d_rx/src/tes/dave_line.c ****       else
 395:../src/smc_gen/r_drw2d_rx/src/tes/dave_line.c ****       {
 396:../src/smc_gen/r_drw2d_rx/src/tes/dave_line.c ****          /* keep original edge */
 397:../src/smc_gen/r_drw2d_rx/src/tes/dave_line.c ****          edge[2].start += D2_FIX16(1) >> 1;  /* PRQA S 0502 */ /* $Misra: #PERF_ARITHMETIC_SHIFT_RI
 546                             		.loc 1 397 10 is_stmt 1 view .LVU212
 547                             		.loc 1 397 24 is_stmt 0 view .LVU213
 548 028f AB 85                   		mov.L	56[r0], r5
 549 0291 73 55 00 80 00          		add	#0x8000, r5
 550 0296 A3 85                   		mov.L	r5, 56[r0]
 398:../src/smc_gen/r_drw2d_rx/src/tes/dave_line.c ****          /* rightedge flags */
 399:../src/smc_gen/r_drw2d_rx/src/tes/dave_line.c ****          if(dy <= 0)
 551                             		.loc 1 399 10 is_stmt 1 view .LVU214
 552                             		.loc 1 399 12 is_stmt 0 view .LVU215
 553 0298 61 06                   		cmp	#0, r6
 554 029a 2A 05 38 59 04          		ble	.L110
 555                             	.LVL48:
 556 029f 03                      		.balign 8,3,6
 557                             	.L36:
 400:../src/smc_gen/r_drw2d_rx/src/tes/dave_line.c ****          {
 401:../src/smc_gen/r_drw2d_rx/src/tes/dave_line.c ****             edge[2].start += D2_EPSILON;
 402:../src/smc_gen/r_drw2d_rx/src/tes/dave_line.c ****          }
 403:../src/smc_gen/r_drw2d_rx/src/tes/dave_line.c ****       }
 404:../src/smc_gen/r_drw2d_rx/src/tes/dave_line.c ****    }
 405:../src/smc_gen/r_drw2d_rx/src/tes/dave_line.c **** 
 406:../src/smc_gen/r_drw2d_rx/src/tes/dave_line.c ****    /* store edges if requested */
 407:../src/smc_gen/r_drw2d_rx/src/tes/dave_line.c ****    if(0 != (flags & (d2_lei_buffer_first_edge | d2_lei_buffer_last_edge)))
 558                             		.loc 1 407 4 is_stmt 1 view .LVU216
 559                             		.loc 1 407 6 is_stmt 0 view .LVU217
 560 02a0 FD 78 CB 00 18          		tst	#0x1800, r11
 561 02a5 20 38                   		beq	.L40
 408:../src/smc_gen/r_drw2d_rx/src/tes/dave_line.c ****    {
 409:../src/smc_gen/r_drw2d_rx/src/tes/dave_line.c ****       if(0 != (flags & d2_lei_buffer_first_edge))
 562                             		.loc 1 409 7 is_stmt 1 view .LVU218
 563                             		.loc 1 409 9 is_stmt 0 view .LVU219
 564 02a7 FD 78 CB 00 08          		tst	#0x800, r11
 565 02ac 20 13                   		beq	.L41
 410:../src/smc_gen/r_drw2d_rx/src/tes/dave_line.c ****       {
 411:../src/smc_gen/r_drw2d_rx/src/tes/dave_line.c ****          edge_buffer[0] = edge[1];
 566                             		.loc 1 411 10 is_stmt 1 view .LVU220
 567                             		.loc 1 411 25 is_stmt 0 view .LVU221
 568 02ae AF 0D                   		mov.L	116[r0], r5
 569 02b0 AA 89                   		mov.L	44[r0], r1
 570 02b2 FD 22 51                		mov.L	r1, [r5+]
 571 02b5 AF 0B                   		mov.L	116[r0], r3
 572 02b7 E5 03 0C 01             		mov.L	48[r0], 4[r3]
 573 02bb E5 05 0D 01             		mov.L	52[r0], 4[r5]
 574                             	.L41:
 412:../src/smc_gen/r_drw2d_rx/src/tes/dave_line.c ****       }
 413:../src/smc_gen/r_drw2d_rx/src/tes/dave_line.c **** 
 414:../src/smc_gen/r_drw2d_rx/src/tes/dave_line.c ****       if(0 != (flags & d2_lei_buffer_last_edge))
 575                             		.loc 1 414 7 is_stmt 1 view .LVU222
 576                             		.loc 1 414 9 is_stmt 0 view .LVU223
 577 02bf FD 78 CB 00 10          		tst	#0x1000, r11
 578 02c4 20 10                   		beq	.L42
 415:../src/smc_gen/r_drw2d_rx/src/tes/dave_line.c ****       {
 416:../src/smc_gen/r_drw2d_rx/src/tes/dave_line.c ****          edge_buffer[1] = edge[2];
 579                             		.loc 1 416 10 is_stmt 1 view .LVU224
 580                             		.loc 1 416 25 is_stmt 0 view .LVU225
 581 02c6 AF 0C                   		mov.L	116[r0], r4
 582 02c8 E5 04 0E 03             		mov.L	56[r0], 12[r4]
 583 02cc E5 04 0F 04             		mov.L	60[r0], 16[r4]
 584 02d0 E5 04 10 05             		mov.L	64[r0], 20[r4]
 585                             	.L42:
 417:../src/smc_gen/r_drw2d_rx/src/tes/dave_line.c ****       }
 418:../src/smc_gen/r_drw2d_rx/src/tes/dave_line.c **** 
 419:../src/smc_gen/r_drw2d_rx/src/tes/dave_line.c ****       *edge_bbox = bbox;
 586                             		.loc 1 419 7 is_stmt 1 view .LVU226
 587                             		.loc 1 419 18 is_stmt 0 view .LVU227
 588 02d4 AF 85                   		mov.L	120[r0], r5
 589 02d6 E1 05 04                		mov.L	16[r0], [r5]
 590 02d9 E5 05 05 01             		mov.L	20[r0], 4[r5]
 591                             	.L40:
 420:../src/smc_gen/r_drw2d_rx/src/tes/dave_line.c ****    }
 421:../src/smc_gen/r_drw2d_rx/src/tes/dave_line.c **** 
 422:../src/smc_gen/r_drw2d_rx/src/tes/dave_line.c ****    /* optimize for span abort / span store */
 423:../src/smc_gen/r_drw2d_rx/src/tes/dave_line.c ****    if(0 != flip)
 592                             		.loc 1 423 4 is_stmt 1 view .LVU228
 593                             		.loc 1 423 6 is_stmt 0 view .LVU229
 594 02dd AD 09                   		mov.L	84[r0], r1
 595 02df 61 01                   		cmp	#0, r1
 596 02e1 3B 1B 04                		bne	.L111
 424:../src/smc_gen/r_drw2d_rx/src/tes/dave_line.c ****    {
 425:../src/smc_gen/r_drw2d_rx/src/tes/dave_line.c ****       h = D2_INT4( bbox.ymax - bbox.ymin );   /* PRQA S 0502 */ /* $Misra: #PERF_ARITHMETIC_SHIFT_R
 426:../src/smc_gen/r_drw2d_rx/src/tes/dave_line.c ****       d2_invertlimiter_intern(&edge[0], h);
 427:../src/smc_gen/r_drw2d_rx/src/tes/dave_line.c ****       d2_invertlimiter_intern(&edge[1], h);
 428:../src/smc_gen/r_drw2d_rx/src/tes/dave_line.c ****       d2_invertlimiter_intern(&edge[2], h);
 429:../src/smc_gen/r_drw2d_rx/src/tes/dave_line.c ****    }
 430:../src/smc_gen/r_drw2d_rx/src/tes/dave_line.c ****    else
 431:../src/smc_gen/r_drw2d_rx/src/tes/dave_line.c ****    {
 432:../src/smc_gen/r_drw2d_rx/src/tes/dave_line.c ****       /* just to shutup compiler */
 433:../src/smc_gen/r_drw2d_rx/src/tes/dave_line.c ****       h = 0;
 597                             		.loc 1 433 9 view .LVU230
 598 02e4 ED 0D 15                		mov.L	84[r0], r13
 599                             	.L43:
 600                             	.LVL49:
 434:../src/smc_gen/r_drw2d_rx/src/tes/dave_line.c ****    }
 435:../src/smc_gen/r_drw2d_rx/src/tes/dave_line.c **** 
 436:../src/smc_gen/r_drw2d_rx/src/tes/dave_line.c ****    /* add miter edges if requested */
 437:../src/smc_gen/r_drw2d_rx/src/tes/dave_line.c ****    if(0 != (flags & d2_lei_miter_edge))
 601                             		.loc 1 437 4 is_stmt 1 view .LVU231
 602                             		.loc 1 437 6 is_stmt 0 view .LVU232
 603 02e7 AE 83                   		mov.L	104[r0], r3
 604 02e9 61 03                   		cmp	#0, r3
 605 02eb 20 3A                   		beq	.L44
 438:../src/smc_gen/r_drw2d_rx/src/tes/dave_line.c ****    {
 439:../src/smc_gen/r_drw2d_rx/src/tes/dave_line.c ****       /* miter outward shift to avoid line cutting into itself at 180 */
 440:../src/smc_gen/r_drw2d_rx/src/tes/dave_line.c ****       miter += D2_FIX16(1);
 606                             		.loc 1 440 7 is_stmt 1 view .LVU233
 607                             		.loc 1 440 13 is_stmt 0 view .LVU234
 608 02ed ED 06 23                		mov.L	140[r0], r6
 609                             	.LVL50:
 610                             		.loc 1 440 13 view .LVU235
 611 02f0 73 66 00 00 01          		add	#0x10000, r6
 612                             	.LVL51:
 441:../src/smc_gen/r_drw2d_rx/src/tes/dave_line.c **** 
 442:../src/smc_gen/r_drw2d_rx/src/tes/dave_line.c ****       if( (0 != (flags & d2_lei_ext_first_edge)) && (0 != (connectors[0] | connectors[1])) ) /* PRQ
 613                             		.loc 1 442 7 is_stmt 1 view .LVU236
 614                             		.loc 1 442 9 is_stmt 0 view .LVU237
 615 02f5 FD 78 CB 00 02          		tst	#0x200, r11
 616 02fa 20 16                   		beq	.L45
 617                             		.loc 1 442 70 discriminator 1 view .LVU238
 618 02fc AF 04                   		mov.L	112[r0], r4
 619 02fe EC 45                   		mov.L	[r4], r5
 620                             		.loc 1 442 86 discriminator 1 view .LVU239
 621 0300 A8 4C                   		mov.L	4[r4], r4
 622                             		.loc 1 442 74 discriminator 1 view .LVU240
 623 0302 FF 53 45                		or	r4, r5, r3
 624                             		.loc 1 442 50 discriminator 1 view .LVU241
 625 0305 61 03                   		cmp	#0, r3
 626 0307 3B 1C 04                		bne	.L112
 627 030a 74 10 01 00 00 00       		.balign 8,3,6
 628                             	.L45:
 443:../src/smc_gen/r_drw2d_rx/src/tes/dave_line.c ****       {
 444:../src/smc_gen/r_drw2d_rx/src/tes/dave_line.c ****          /* add first edge miter limit (L3) */
 445:../src/smc_gen/r_drw2d_rx/src/tes/dave_line.c ****          control |= D2C_LIM3ENABLE | (tmask & D2C_LIM3THRESHOLD);
 446:../src/smc_gen/r_drw2d_rx/src/tes/dave_line.c **** 
 447:../src/smc_gen/r_drw2d_rx/src/tes/dave_line.c ****          /* could be extracted from edge[1], but edge1 is not normalized */
 448:../src/smc_gen/r_drw2d_rx/src/tes/dave_line.c ****          d2_triedge_setupsqrt_intern(&edge[3], x1, y1, -connectors[1], connectors[0], 0 );
 449:../src/smc_gen/r_drw2d_rx/src/tes/dave_line.c **** 
 450:../src/smc_gen/r_drw2d_rx/src/tes/dave_line.c ****          if(0 != flip)
 451:../src/smc_gen/r_drw2d_rx/src/tes/dave_line.c ****          {
 452:../src/smc_gen/r_drw2d_rx/src/tes/dave_line.c ****             d2_invertlimiter_intern(&edge[3], h);
 453:../src/smc_gen/r_drw2d_rx/src/tes/dave_line.c ****          }
 454:../src/smc_gen/r_drw2d_rx/src/tes/dave_line.c **** 
 455:../src/smc_gen/r_drw2d_rx/src/tes/dave_line.c ****          if(0 == (flags & d2_lei_miter1_flip))
 456:../src/smc_gen/r_drw2d_rx/src/tes/dave_line.c ****          {
 457:../src/smc_gen/r_drw2d_rx/src/tes/dave_line.c ****             D2_DLISTWRITES( D2_L3START, edge[3].start + miter );
 458:../src/smc_gen/r_drw2d_rx/src/tes/dave_line.c ****             D2_DLISTWRITES( D2_L3XADD , edge[3].xadd );
 459:../src/smc_gen/r_drw2d_rx/src/tes/dave_line.c ****             D2_DLISTWRITES( D2_L3YADD , edge[3].yadd );
 460:../src/smc_gen/r_drw2d_rx/src/tes/dave_line.c ****          }
 461:../src/smc_gen/r_drw2d_rx/src/tes/dave_line.c ****          else
 462:../src/smc_gen/r_drw2d_rx/src/tes/dave_line.c ****          {
 463:../src/smc_gen/r_drw2d_rx/src/tes/dave_line.c ****             D2_DLISTWRITES( D2_L3START, -edge[3].start + miter );
 464:../src/smc_gen/r_drw2d_rx/src/tes/dave_line.c ****             D2_DLISTWRITES( D2_L3XADD , -edge[3].xadd );
 465:../src/smc_gen/r_drw2d_rx/src/tes/dave_line.c ****             D2_DLISTWRITES( D2_L3YADD , -edge[3].yadd );
 466:../src/smc_gen/r_drw2d_rx/src/tes/dave_line.c ****          }
 467:../src/smc_gen/r_drw2d_rx/src/tes/dave_line.c ****       }
 468:../src/smc_gen/r_drw2d_rx/src/tes/dave_line.c **** 
 469:../src/smc_gen/r_drw2d_rx/src/tes/dave_line.c ****       if( (0 != (flags & d2_lei_ext_last_edge)) && (0 != (connectors[2] | connectors[3])) ) /* PRQA
 629                             		.loc 1 469 7 is_stmt 1 view .LVU242
 630                             		.loc 1 469 9 is_stmt 0 view .LVU243
 631 0310 FD 78 CB 00 04          		tst	#0x400, r11
 632 0315 20 10                   		beq	.L44
 633                             		.loc 1 469 69 discriminator 1 view .LVU244
 634 0317 AF 04                   		mov.L	112[r0], r4
 635 0319 A8 C5                   		mov.L	8[r4], r5
 636                             		.loc 1 469 85 discriminator 1 view .LVU245
 637 031b A8 CC                   		mov.L	12[r4], r4
 638                             		.loc 1 469 73 discriminator 1 view .LVU246
 639 031d FF 53 45                		or	r4, r5, r3
 640                             		.loc 1 469 49 discriminator 1 view .LVU247
 641 0320 61 03                   		cmp	#0, r3
 642 0322 3B 2B 05                		bne	.L113
 643                             	.LVL52:
 644                             		.balign 8,3,1
 645                             	.L44:
 470:../src/smc_gen/r_drw2d_rx/src/tes/dave_line.c ****       {
 471:../src/smc_gen/r_drw2d_rx/src/tes/dave_line.c ****          /* add last edge miter limit (L4) */
 472:../src/smc_gen/r_drw2d_rx/src/tes/dave_line.c ****          control |= D2C_LIM4ENABLE | (tmask & D2C_LIM4THRESHOLD);
 473:../src/smc_gen/r_drw2d_rx/src/tes/dave_line.c **** 
 474:../src/smc_gen/r_drw2d_rx/src/tes/dave_line.c ****          /* could be extracted from edge[2], but edge2 is not normalized */
 475:../src/smc_gen/r_drw2d_rx/src/tes/dave_line.c ****          d2_triedge_setupsqrt_intern(&edge[3], (d2_point)(x2 - bbox.xmin), (d2_point)(y2 - bbox.ymi
 476:../src/smc_gen/r_drw2d_rx/src/tes/dave_line.c **** 
 477:../src/smc_gen/r_drw2d_rx/src/tes/dave_line.c ****          if(0 != flip)
 478:../src/smc_gen/r_drw2d_rx/src/tes/dave_line.c ****          {
 479:../src/smc_gen/r_drw2d_rx/src/tes/dave_line.c ****             d2_invertlimiter_intern(&edge[3], h);
 480:../src/smc_gen/r_drw2d_rx/src/tes/dave_line.c ****          }
 481:../src/smc_gen/r_drw2d_rx/src/tes/dave_line.c **** 
 482:../src/smc_gen/r_drw2d_rx/src/tes/dave_line.c ****          if(0 != (flags & d2_lei_miter2_flip))
 483:../src/smc_gen/r_drw2d_rx/src/tes/dave_line.c ****          {
 484:../src/smc_gen/r_drw2d_rx/src/tes/dave_line.c ****             D2_DLISTWRITES( D2_L4START, edge[3].start + miter );
 485:../src/smc_gen/r_drw2d_rx/src/tes/dave_line.c ****             D2_DLISTWRITES( D2_L4XADD , edge[3].xadd );
 486:../src/smc_gen/r_drw2d_rx/src/tes/dave_line.c ****             D2_DLISTWRITES( D2_L4YADD , edge[3].yadd );
 487:../src/smc_gen/r_drw2d_rx/src/tes/dave_line.c ****          }
 488:../src/smc_gen/r_drw2d_rx/src/tes/dave_line.c ****          else
 489:../src/smc_gen/r_drw2d_rx/src/tes/dave_line.c ****          {
 490:../src/smc_gen/r_drw2d_rx/src/tes/dave_line.c ****             D2_DLISTWRITES( D2_L4START, -edge[3].start + miter );
 491:../src/smc_gen/r_drw2d_rx/src/tes/dave_line.c ****             D2_DLISTWRITES( D2_L4XADD , -edge[3].xadd );
 492:../src/smc_gen/r_drw2d_rx/src/tes/dave_line.c ****             D2_DLISTWRITES( D2_L4YADD , -edge[3].yadd );
 493:../src/smc_gen/r_drw2d_rx/src/tes/dave_line.c ****          }
 494:../src/smc_gen/r_drw2d_rx/src/tes/dave_line.c ****       }
 495:../src/smc_gen/r_drw2d_rx/src/tes/dave_line.c ****    }
 496:../src/smc_gen/r_drw2d_rx/src/tes/dave_line.c **** 
 497:../src/smc_gen/r_drw2d_rx/src/tes/dave_line.c ****    /* set register values (geometric parameters) */
 498:../src/smc_gen/r_drw2d_rx/src/tes/dave_line.c ****    D2_DLISTWRITES( D2_L1START, edge[0].start );
 646                             		.loc 1 498 4 is_stmt 1 view .LVU248
 647 0325 AA 04                   		mov.L	32[r0], r4
 648                             	.LVL53:
 649                             	.LBB270:
 650                             	.LBI270:
 651                             		.file 2 "../src/smc_gen/r_drw2d_rx/src/tes/dave_intern.h"
   1:../src/smc_gen/r_drw2d_rx/src/tes/dave_intern.h **** /*--------------------------------------------------------------------------
   2:../src/smc_gen/r_drw2d_rx/src/tes/dave_intern.h ****  * Project: D/AVE
   3:../src/smc_gen/r_drw2d_rx/src/tes/dave_intern.h ****  * File:    dave_intern.h (%version: 29 %)
   4:../src/smc_gen/r_drw2d_rx/src/tes/dave_intern.h ****  *          created Tue Jan 11 12:57:48 2005 by hh04027
   5:../src/smc_gen/r_drw2d_rx/src/tes/dave_intern.h ****  *
   6:../src/smc_gen/r_drw2d_rx/src/tes/dave_intern.h ****  * Description:
   7:../src/smc_gen/r_drw2d_rx/src/tes/dave_intern.h ****  *  %date_modified: Thu Jan 25 18:12:54 2007 %  (%derived_by:  hh74026 %)
   8:../src/smc_gen/r_drw2d_rx/src/tes/dave_intern.h ****  *
   9:../src/smc_gen/r_drw2d_rx/src/tes/dave_intern.h ****  * Changes:
  10:../src/smc_gen/r_drw2d_rx/src/tes/dave_intern.h ****  *  2005-12-22 CSe  removed transfermode field, added flags field in _d2_devicedata
  11:../src/smc_gen/r_drw2d_rx/src/tes/dave_intern.h ****  *  2006-02-16 CSe  added performance counter support
  12:../src/smc_gen/r_drw2d_rx/src/tes/dave_intern.h ****  *  2006-10-30 CSe  removed waitdlist flag
  13:../src/smc_gen/r_drw2d_rx/src/tes/dave_intern.h ****  *  2006-11-07 CSe  removed waitdlist flag
  14:../src/smc_gen/r_drw2d_rx/src/tes/dave_intern.h ****  *  2006-11-07 CSe  added dlist_buffer to device struct for 'd2_df_low_localmem' mode
  15:../src/smc_gen/r_drw2d_rx/src/tes/dave_intern.h ****  *  2007-01-26 CSe  made 'low localmem' mode configurable
  16:../src/smc_gen/r_drw2d_rx/src/tes/dave_intern.h ****  *  2007-05-23 MGe  added delayed_errorcode to context
  17:../src/smc_gen/r_drw2d_rx/src/tes/dave_intern.h ****  *  2008-01-14 ASc  changed comments from C++ to C, removed tabs
  18:../src/smc_gen/r_drw2d_rx/src/tes/dave_intern.h ****  *  2008-11-24 AJ   Added support for IAR compiler
  19:../src/smc_gen/r_drw2d_rx/src/tes/dave_intern.h ****  *  2011-09-05 MRe  added cr2 register to device structure
  20:../src/smc_gen/r_drw2d_rx/src/tes/dave_intern.h ****  *  2012-09-25 BSp  MISRA cleanup
  21:../src/smc_gen/r_drw2d_rx/src/tes/dave_intern.h ****  *-------------------------------------------------------------------------- */
  22:../src/smc_gen/r_drw2d_rx/src/tes/dave_intern.h **** 
  23:../src/smc_gen/r_drw2d_rx/src/tes/dave_intern.h **** #ifndef __1_dave_intern_h_H
  24:../src/smc_gen/r_drw2d_rx/src/tes/dave_intern.h **** #define __1_dave_intern_h_H
  25:../src/smc_gen/r_drw2d_rx/src/tes/dave_intern.h **** /*---------------------------------------------------------------------------
  26:../src/smc_gen/r_drw2d_rx/src/tes/dave_intern.h ****  * define inline modifier if available */
  27:../src/smc_gen/r_drw2d_rx/src/tes/dave_intern.h **** #ifdef _MSC_VER
  28:../src/smc_gen/r_drw2d_rx/src/tes/dave_intern.h **** #define D2_INLINE __forceinline
  29:../src/smc_gen/r_drw2d_rx/src/tes/dave_intern.h **** #else
  30:../src/smc_gen/r_drw2d_rx/src/tes/dave_intern.h **** #ifdef __CA850__
  31:../src/smc_gen/r_drw2d_rx/src/tes/dave_intern.h **** #define D2_INLINE
  32:../src/smc_gen/r_drw2d_rx/src/tes/dave_intern.h **** #elif defined(__ICCV850__)
  33:../src/smc_gen/r_drw2d_rx/src/tes/dave_intern.h **** #define D2_INLINE _Pragma("inline")
  34:../src/smc_gen/r_drw2d_rx/src/tes/dave_intern.h **** #else
  35:../src/smc_gen/r_drw2d_rx/src/tes/dave_intern.h **** #define D2_INLINE inline
  36:../src/smc_gen/r_drw2d_rx/src/tes/dave_intern.h **** #endif
  37:../src/smc_gen/r_drw2d_rx/src/tes/dave_intern.h **** #endif
  38:../src/smc_gen/r_drw2d_rx/src/tes/dave_intern.h **** 
  39:../src/smc_gen/r_drw2d_rx/src/tes/dave_intern.h **** /*---------------------------------------------------------------------------
  40:../src/smc_gen/r_drw2d_rx/src/tes/dave_intern.h ****  * define null to become independent of stdlib */
  41:../src/smc_gen/r_drw2d_rx/src/tes/dave_intern.h **** #ifndef NULL
  42:../src/smc_gen/r_drw2d_rx/src/tes/dave_intern.h **** #ifdef __cplusplus
  43:../src/smc_gen/r_drw2d_rx/src/tes/dave_intern.h **** #define NULL    0
  44:../src/smc_gen/r_drw2d_rx/src/tes/dave_intern.h **** #else
  45:../src/smc_gen/r_drw2d_rx/src/tes/dave_intern.h **** #define NULL    ((void *)0)
  46:../src/smc_gen/r_drw2d_rx/src/tes/dave_intern.h **** #endif
  47:../src/smc_gen/r_drw2d_rx/src/tes/dave_intern.h **** #endif
  48:../src/smc_gen/r_drw2d_rx/src/tes/dave_intern.h **** 
  49:../src/smc_gen/r_drw2d_rx/src/tes/dave_intern.h **** /*---------------------------------------------------------------------------
  50:../src/smc_gen/r_drw2d_rx/src/tes/dave_intern.h ****  * internally used types */
  51:../src/smc_gen/r_drw2d_rx/src/tes/dave_intern.h **** 
  52:../src/smc_gen/r_drw2d_rx/src/tes/dave_intern.h **** #ifdef _MSC_VER
  53:../src/smc_gen/r_drw2d_rx/src/tes/dave_intern.h **** typedef __int64 d2_int64;
  54:../src/smc_gen/r_drw2d_rx/src/tes/dave_intern.h **** #elif (defined(__CA850__) || defined(__ICC850__))
  55:../src/smc_gen/r_drw2d_rx/src/tes/dave_intern.h **** #define _NO_LL_
  56:../src/smc_gen/r_drw2d_rx/src/tes/dave_intern.h **** typedef struct {
  57:../src/smc_gen/r_drw2d_rx/src/tes/dave_intern.h ****    d2_u32 low32;
  58:../src/smc_gen/r_drw2d_rx/src/tes/dave_intern.h ****    d2_s32 high32;
  59:../src/smc_gen/r_drw2d_rx/src/tes/dave_intern.h **** } d2_int64;
  60:../src/smc_gen/r_drw2d_rx/src/tes/dave_intern.h **** #else
  61:../src/smc_gen/r_drw2d_rx/src/tes/dave_intern.h **** typedef long long d2_int64;
  62:../src/smc_gen/r_drw2d_rx/src/tes/dave_intern.h **** #endif
  63:../src/smc_gen/r_drw2d_rx/src/tes/dave_intern.h **** 
  64:../src/smc_gen/r_drw2d_rx/src/tes/dave_intern.h **** /*---------------------------------------------------------------------------
  65:../src/smc_gen/r_drw2d_rx/src/tes/dave_intern.h ****  * use separate context for blit 
  66:../src/smc_gen/r_drw2d_rx/src/tes/dave_intern.h ****  see also d2_df_no_blitctxbackup and d2_bf_no_blitctxbackup*/
  67:../src/smc_gen/r_drw2d_rx/src/tes/dave_intern.h **** 
  68:../src/smc_gen/r_drw2d_rx/src/tes/dave_intern.h **** /*
  69:../src/smc_gen/r_drw2d_rx/src/tes/dave_intern.h **** #define D2_USEBLITBACKUPCONTEXT 
  70:../src/smc_gen/r_drw2d_rx/src/tes/dave_intern.h **** */
  71:../src/smc_gen/r_drw2d_rx/src/tes/dave_intern.h **** 
  72:../src/smc_gen/r_drw2d_rx/src/tes/dave_intern.h **** 
  73:../src/smc_gen/r_drw2d_rx/src/tes/dave_intern.h **** /*---------------------------------------------------------------------------
  74:../src/smc_gen/r_drw2d_rx/src/tes/dave_intern.h ****  * force register cache usage
  75:../src/smc_gen/r_drw2d_rx/src/tes/dave_intern.h ****  see also d2_df_no_registercaching */
  76:../src/smc_gen/r_drw2d_rx/src/tes/dave_intern.h **** 
  77:../src/smc_gen/r_drw2d_rx/src/tes/dave_intern.h **** #define D2_USEREGCACHE 
  78:../src/smc_gen/r_drw2d_rx/src/tes/dave_intern.h **** 
  79:../src/smc_gen/r_drw2d_rx/src/tes/dave_intern.h **** /*---------------------------------------------------------------------------
  80:../src/smc_gen/r_drw2d_rx/src/tes/dave_intern.h ****  * set initial size of list of dlist start address */
  81:../src/smc_gen/r_drw2d_rx/src/tes/dave_intern.h **** 
  82:../src/smc_gen/r_drw2d_rx/src/tes/dave_intern.h **** #define DLIST_ADRESSES_NUMBER 16
  83:../src/smc_gen/r_drw2d_rx/src/tes/dave_intern.h **** 
  84:../src/smc_gen/r_drw2d_rx/src/tes/dave_intern.h **** 
  85:../src/smc_gen/r_drw2d_rx/src/tes/dave_intern.h **** /*---------------------------------------------------------------------------
  86:../src/smc_gen/r_drw2d_rx/src/tes/dave_intern.h ****  * Register Cache */
  87:../src/smc_gen/r_drw2d_rx/src/tes/dave_intern.h **** 
  88:../src/smc_gen/r_drw2d_rx/src/tes/dave_intern.h **** #include "dave_registermap.h"
  89:../src/smc_gen/r_drw2d_rx/src/tes/dave_intern.h **** 
  90:../src/smc_gen/r_drw2d_rx/src/tes/dave_intern.h **** typedef struct _d2_cacheddata
  91:../src/smc_gen/r_drw2d_rx/src/tes/dave_intern.h **** {
  92:../src/smc_gen/r_drw2d_rx/src/tes/dave_intern.h ****    d2_s32    data[  D2_QUANTITY ];
  93:../src/smc_gen/r_drw2d_rx/src/tes/dave_intern.h ****    d2_s8     valid[ D2_QUANTITY ];
  94:../src/smc_gen/r_drw2d_rx/src/tes/dave_intern.h **** } d2_cacheddata;
  95:../src/smc_gen/r_drw2d_rx/src/tes/dave_intern.h **** 
  96:../src/smc_gen/r_drw2d_rx/src/tes/dave_intern.h **** #ifdef D2_USEREGCACHE
  97:../src/smc_gen/r_drw2d_rx/src/tes/dave_intern.h **** D2_EXTERN const d2_u8 d2_cacheableregs[D2_QUANTITY];
  98:../src/smc_gen/r_drw2d_rx/src/tes/dave_intern.h **** #endif
  99:../src/smc_gen/r_drw2d_rx/src/tes/dave_intern.h **** 
 100:../src/smc_gen/r_drw2d_rx/src/tes/dave_intern.h **** typedef void (*d2_fp_scratchfull)( void *handle );
 101:../src/smc_gen/r_drw2d_rx/src/tes/dave_intern.h **** 
 102:../src/smc_gen/r_drw2d_rx/src/tes/dave_intern.h **** /*--------------------------------------------------------------------------- */
 103:../src/smc_gen/r_drw2d_rx/src/tes/dave_intern.h **** #include "dave_base.h"
 104:../src/smc_gen/r_drw2d_rx/src/tes/dave_intern.h **** #include "dave_dlist.h"
 105:../src/smc_gen/r_drw2d_rx/src/tes/dave_intern.h **** #include "dave_rbuffer.h"
 106:../src/smc_gen/r_drw2d_rx/src/tes/dave_intern.h **** #include "dave_hardware.h"
 107:../src/smc_gen/r_drw2d_rx/src/tes/dave_intern.h **** #include "dave_context.h"
 108:../src/smc_gen/r_drw2d_rx/src/tes/dave_intern.h **** #include "dave_math.h"
 109:../src/smc_gen/r_drw2d_rx/src/tes/dave_intern.h **** 
 110:../src/smc_gen/r_drw2d_rx/src/tes/dave_intern.h **** /*---------------------------------------------------------------------------
 111:../src/smc_gen/r_drw2d_rx/src/tes/dave_intern.h ****  * use higher precision of qlimiters */
 112:../src/smc_gen/r_drw2d_rx/src/tes/dave_intern.h **** 
 113:../src/smc_gen/r_drw2d_rx/src/tes/dave_intern.h **** #define LIMITER_HIPRECISION 6 
 114:../src/smc_gen/r_drw2d_rx/src/tes/dave_intern.h **** 
 115:../src/smc_gen/r_drw2d_rx/src/tes/dave_intern.h **** 
 116:../src/smc_gen/r_drw2d_rx/src/tes/dave_intern.h **** /*---------------------------------------------------------------------------
 117:../src/smc_gen/r_drw2d_rx/src/tes/dave_intern.h ****  * These helper macros are used to stringify a given macro */
 118:../src/smc_gen/r_drw2d_rx/src/tes/dave_intern.h **** #define D2_STR(s)           # s
 119:../src/smc_gen/r_drw2d_rx/src/tes/dave_intern.h **** #define D2_XSTR(s)          D2_STR(s)  /* PRQA S 3453 */ /* $Misra: #MISRA_BUG_MACRO_HASH $*/
 120:../src/smc_gen/r_drw2d_rx/src/tes/dave_intern.h **** 
 121:../src/smc_gen/r_drw2d_rx/src/tes/dave_intern.h **** 
 122:../src/smc_gen/r_drw2d_rx/src/tes/dave_intern.h **** /*---------------------------------------------------------------------------
 123:../src/smc_gen/r_drw2d_rx/src/tes/dave_intern.h ****  * Define the D2_VERSION and D2_VERSION_STRING macros */
 124:../src/smc_gen/r_drw2d_rx/src/tes/dave_intern.h **** 
 125:../src/smc_gen/r_drw2d_rx/src/tes/dave_intern.h **** /* Build up the D2_VERSION macro */
 126:../src/smc_gen/r_drw2d_rx/src/tes/dave_intern.h **** #define D2_VERSION ((D2_VERSION_BRANCH << 24) | (D2_VERSION_MAJOR << 16) | D2_VERSION_MINOR )
 127:../src/smc_gen/r_drw2d_rx/src/tes/dave_intern.h **** 
 128:../src/smc_gen/r_drw2d_rx/src/tes/dave_intern.h **** /* Create the D2_VERSION_STRING macro */
 129:../src/smc_gen/r_drw2d_rx/src/tes/dave_intern.h **** #define D2_VERSION_STRING  D2_VERSION_BRANCH_STRING " V" D2_XSTR(D2_VERSION_MAJOR) "." D2_XSTR(D2_V
 130:../src/smc_gen/r_drw2d_rx/src/tes/dave_intern.h **** 
 131:../src/smc_gen/r_drw2d_rx/src/tes/dave_intern.h **** /*---------------------------------------------------------------------------
 132:../src/smc_gen/r_drw2d_rx/src/tes/dave_intern.h ****  * Internal device structure */
 133:../src/smc_gen/r_drw2d_rx/src/tes/dave_intern.h **** 
 134:../src/smc_gen/r_drw2d_rx/src/tes/dave_intern.h **** typedef struct _d2_devicedata
 135:../src/smc_gen/r_drw2d_rx/src/tes/dave_intern.h **** {
 136:../src/smc_gen/r_drw2d_rx/src/tes/dave_intern.h ****    struct _d2_devicedata *next;        /* to chain devices [must be index 0] */
 137:../src/smc_gen/r_drw2d_rx/src/tes/dave_intern.h **** 
 138:../src/smc_gen/r_drw2d_rx/src/tes/dave_intern.h ****    d2_dlist *readlist;                 /* read (executing) dlist */
 139:../src/smc_gen/r_drw2d_rx/src/tes/dave_intern.h ****    d2_dlist *writelist;                /* write (under construction) dlist */
 140:../src/smc_gen/r_drw2d_rx/src/tes/dave_intern.h ****    d2_rbuffer *selectedbuffer;         /* currently selected renderbuffer */
 141:../src/smc_gen/r_drw2d_rx/src/tes/dave_intern.h ****    d2_rbuffer *renderbuffer[2];        /* default renderbuffers */
 142:../src/smc_gen/r_drw2d_rx/src/tes/dave_intern.h **** 
 143:../src/smc_gen/r_drw2d_rx/src/tes/dave_intern.h ****    d1_device      *hwid;               /* lowlevel access handle */
 144:../src/smc_gen/r_drw2d_rx/src/tes/dave_intern.h ****    d2_contextdata *ctxchain;           /* context chain (list of all contexts for this device) */
 145:../src/smc_gen/r_drw2d_rx/src/tes/dave_intern.h ****    d2_contextdata *ctxdef;             /* default context (cannot be removed by application) */
 146:../src/smc_gen/r_drw2d_rx/src/tes/dave_intern.h ****    d2_contextdata *ctxselected;        /* selected context (used as target of context write/read op
 147:../src/smc_gen/r_drw2d_rx/src/tes/dave_intern.h ****    d2_contextdata *ctxsolid;           /* solid context (used as source for rendering solid geometr
 148:../src/smc_gen/r_drw2d_rx/src/tes/dave_intern.h ****    d2_contextdata *ctxoutline;         /* outline context (used as source for rendering outlines) *
 149:../src/smc_gen/r_drw2d_rx/src/tes/dave_intern.h **** #ifdef D2_USEBLITBACKUPCONTEXT
 150:../src/smc_gen/r_drw2d_rx/src/tes/dave_intern.h ****    d2_contextdata *blitcontext;        /* internal context used only for blits */
 151:../src/smc_gen/r_drw2d_rx/src/tes/dave_intern.h **** #else
 152:../src/smc_gen/r_drw2d_rx/src/tes/dave_intern.h ****    d2_contextdata_backup *blitcontext_b; /* internal context backup used only for blits */
 153:../src/smc_gen/r_drw2d_rx/src/tes/dave_intern.h **** #endif
 154:../src/smc_gen/r_drw2d_rx/src/tes/dave_intern.h ****    d2_contextdata *srccontext;         /* last context that acted as source for display list (for d
 155:../src/smc_gen/r_drw2d_rx/src/tes/dave_intern.h ****    d2_color       *srcclut;            /* last clut that was loaded  */
 156:../src/smc_gen/r_drw2d_rx/src/tes/dave_intern.h **** 
 157:../src/smc_gen/r_drw2d_rx/src/tes/dave_intern.h ****    void *   framebuffer;               /* rendering baseaddress */
 158:../src/smc_gen/r_drw2d_rx/src/tes/dave_intern.h ****    d2_s32   pitch, bpp;                /* framebuffer pitch and bytes per pixel */
 159:../src/smc_gen/r_drw2d_rx/src/tes/dave_intern.h ****    d2_s32   fbformat;                  /* framebuffer format */
 160:../src/smc_gen/r_drw2d_rx/src/tes/dave_intern.h ****    d2_u32   fbwidth,fbheight;          /* framebuffer size */
 161:../src/smc_gen/r_drw2d_rx/src/tes/dave_intern.h ****    d2_u32   fbstylemask;               /* dave ctrl1 bitmask for framebuffer format */
 162:../src/smc_gen/r_drw2d_rx/src/tes/dave_intern.h ****    d2_u32   cr2;                       /* control register 2 */
 163:../src/smc_gen/r_drw2d_rx/src/tes/dave_intern.h **** 
 164:../src/smc_gen/r_drw2d_rx/src/tes/dave_intern.h ****    d2_u32   cachectlmask;              /* dave cache ctrl register bitmask */
 165:../src/smc_gen/r_drw2d_rx/src/tes/dave_intern.h ****    d2_u32   perftriggermask;           /* dave performance counter trigger source register bitmask 
 166:../src/smc_gen/r_drw2d_rx/src/tes/dave_intern.h **** 
 167:../src/smc_gen/r_drw2d_rx/src/tes/dave_intern.h ****    d2_u32   rendermode;                /* see 'enum d2_rendermodes' */
 168:../src/smc_gen/r_drw2d_rx/src/tes/dave_intern.h ****    d2_u32   flags;                     /* see 'enum d2_deviceflags' */
 169:../src/smc_gen/r_drw2d_rx/src/tes/dave_intern.h ****    d2_width outlinewidth;
 170:../src/smc_gen/r_drw2d_rx/src/tes/dave_intern.h ****    d2_point soffx, soffy;
 171:../src/smc_gen/r_drw2d_rx/src/tes/dave_intern.h ****    d2_point clipxmin, clipymin;
 172:../src/smc_gen/r_drw2d_rx/src/tes/dave_intern.h ****    d2_point clipxmax, clipymax;
 173:../src/smc_gen/r_drw2d_rx/src/tes/dave_intern.h **** 
 174:../src/smc_gen/r_drw2d_rx/src/tes/dave_intern.h ****    d2_lowlocalmem_mode *lowlocalmem_mode;       /* only used in 'low localmem' mode */
 175:../src/smc_gen/r_drw2d_rx/src/tes/dave_intern.h **** 
 176:../src/smc_gen/r_drw2d_rx/src/tes/dave_intern.h ****    d2_u32 hwrevision;
 177:../src/smc_gen/r_drw2d_rx/src/tes/dave_intern.h ****    d2_u32 hwmemarchitecture;
 178:../src/smc_gen/r_drw2d_rx/src/tes/dave_intern.h **** 
 179:../src/smc_gen/r_drw2d_rx/src/tes/dave_intern.h ****    d2_u32 dlistblocksize;              /* specify number of entries to grow when dlist is full */
 180:../src/smc_gen/r_drw2d_rx/src/tes/dave_intern.h **** #ifdef D2_USEREGCACHE
 181:../src/smc_gen/r_drw2d_rx/src/tes/dave_intern.h ****    d2_cacheddata cache;                 /* register cache for this device */
 182:../src/smc_gen/r_drw2d_rx/src/tes/dave_intern.h **** #endif
 183:../src/smc_gen/r_drw2d_rx/src/tes/dave_intern.h ****    /* display list assembly buffer */
 184:../src/smc_gen/r_drw2d_rx/src/tes/dave_intern.h ****    d2_dlist_scratch_entry *dlscratch_base;
 185:../src/smc_gen/r_drw2d_rx/src/tes/dave_intern.h ****    d2_dlist_scratch_entry *dlscratch_pos;
 186:../src/smc_gen/r_drw2d_rx/src/tes/dave_intern.h ****    d2_s32                  dlscratch_cnt;
 187:../src/smc_gen/r_drw2d_rx/src/tes/dave_intern.h ****    d2_fp_scratchfull       dlscratch_hook;
 188:../src/smc_gen/r_drw2d_rx/src/tes/dave_intern.h **** 
 189:../src/smc_gen/r_drw2d_rx/src/tes/dave_intern.h ****    d2_s8   lasttextwasrle;               /* last texture format was RLE */
 190:../src/smc_gen/r_drw2d_rx/src/tes/dave_intern.h ****    d2_s8   maxpatlen;                    /* maximum size of pattern bitvector supported by the hard
 191:../src/smc_gen/r_drw2d_rx/src/tes/dave_intern.h ****    d2_s8   errorcode;                    /* last actions detaild result code */
 192:../src/smc_gen/r_drw2d_rx/src/tes/dave_intern.h ****    d2_s8   delayed_errorcode;            /* errorcondition that exists until the renderbuffer gets 
 193:../src/smc_gen/r_drw2d_rx/src/tes/dave_intern.h ****    d2_s8   hilimiterprecision_supported; /* is set to 1 when the hilimiterprecision feature is supp
 194:../src/smc_gen/r_drw2d_rx/src/tes/dave_intern.h **** 
 195:../src/smc_gen/r_drw2d_rx/src/tes/dave_intern.h ****    d2_s8   dlist_indirect_supported;     /* is set to 1 when lists of dlist addresses are supported
 196:../src/smc_gen/r_drw2d_rx/src/tes/dave_intern.h ****    d2_s32* dlist_list_single[2];         /* for d2_executedlist we need an extra dlist list with ju
 197:../src/smc_gen/r_drw2d_rx/src/tes/dave_intern.h **** 
 198:../src/smc_gen/r_drw2d_rx/src/tes/dave_intern.h **** } d2_devicedata;
 199:../src/smc_gen/r_drw2d_rx/src/tes/dave_intern.h **** 
 200:../src/smc_gen/r_drw2d_rx/src/tes/dave_intern.h **** /*--------------------------------------------------------------------------- */
 201:../src/smc_gen/r_drw2d_rx/src/tes/dave_intern.h **** 
 202:../src/smc_gen/r_drw2d_rx/src/tes/dave_intern.h **** typedef struct _d2_bbox
 203:../src/smc_gen/r_drw2d_rx/src/tes/dave_intern.h **** {
 204:../src/smc_gen/r_drw2d_rx/src/tes/dave_intern.h ****    d2_point xmin, ymin;
 205:../src/smc_gen/r_drw2d_rx/src/tes/dave_intern.h ****    d2_point xmax, ymax;
 206:../src/smc_gen/r_drw2d_rx/src/tes/dave_intern.h **** } d2_bbox;
 207:../src/smc_gen/r_drw2d_rx/src/tes/dave_intern.h **** 
 208:../src/smc_gen/r_drw2d_rx/src/tes/dave_intern.h **** typedef struct _d2_limdata
 209:../src/smc_gen/r_drw2d_rx/src/tes/dave_intern.h **** {
 210:../src/smc_gen/r_drw2d_rx/src/tes/dave_intern.h ****    d2_s32 start;
 211:../src/smc_gen/r_drw2d_rx/src/tes/dave_intern.h ****    d2_s32 xadd;
 212:../src/smc_gen/r_drw2d_rx/src/tes/dave_intern.h ****    d2_s32 yadd;
 213:../src/smc_gen/r_drw2d_rx/src/tes/dave_intern.h **** } d2_limdata;
 214:../src/smc_gen/r_drw2d_rx/src/tes/dave_intern.h **** 
 215:../src/smc_gen/r_drw2d_rx/src/tes/dave_intern.h **** /*---------------------------------------------------------------------------
 216:../src/smc_gen/r_drw2d_rx/src/tes/dave_intern.h ****  * Internal flags */
 217:../src/smc_gen/r_drw2d_rx/src/tes/dave_intern.h **** 
 218:../src/smc_gen/r_drw2d_rx/src/tes/dave_intern.h **** typedef d2_u32 d2_lineendflags_intern;
 219:../src/smc_gen/r_drw2d_rx/src/tes/dave_intern.h **** 
 220:../src/smc_gen/r_drw2d_rx/src/tes/dave_intern.h **** #define d2_lei_base                256u
 221:../src/smc_gen/r_drw2d_rx/src/tes/dave_intern.h **** 
 222:../src/smc_gen/r_drw2d_rx/src/tes/dave_intern.h **** #define d2_lei_ext_first_edge     (d2_lei_base *  2)
 223:../src/smc_gen/r_drw2d_rx/src/tes/dave_intern.h **** #define d2_lei_ext_last_edge      (d2_lei_base *  4)
 224:../src/smc_gen/r_drw2d_rx/src/tes/dave_intern.h **** #define d2_lei_buffer_first_edge  (d2_lei_base *  8)
 225:../src/smc_gen/r_drw2d_rx/src/tes/dave_intern.h **** #define d2_lei_buffer_last_edge   (d2_lei_base * 16)
 226:../src/smc_gen/r_drw2d_rx/src/tes/dave_intern.h **** #define d2_lei_miter_edge         (d2_lei_base * 32)
 227:../src/smc_gen/r_drw2d_rx/src/tes/dave_intern.h **** #define d2_lei_miter1_flip        (d2_lei_base * 64)
 228:../src/smc_gen/r_drw2d_rx/src/tes/dave_intern.h **** #define d2_lei_miter2_flip        (d2_lei_base *128)
 229:../src/smc_gen/r_drw2d_rx/src/tes/dave_intern.h **** 
 230:../src/smc_gen/r_drw2d_rx/src/tes/dave_intern.h **** /*---------------------------------------------------------------------------
 231:../src/smc_gen/r_drw2d_rx/src/tes/dave_intern.h ****  * Internal macros */
 232:../src/smc_gen/r_drw2d_rx/src/tes/dave_intern.h **** 
 233:../src/smc_gen/r_drw2d_rx/src/tes/dave_intern.h **** #define D2_DEV(d)           ((d2_devicedata *) (d))           /* PRQA S 3453 */ /* $Misra: #MACRO_T
 234:../src/smc_gen/r_drw2d_rx/src/tes/dave_intern.h **** #define D2_CTX(c)           ((d2_contextdata *) (c))          /* PRQA S 3453 */ /* $Misra: #MACRO_T
 235:../src/smc_gen/r_drw2d_rx/src/tes/dave_intern.h **** #define D2_FNC(r)           ((d2_renderfunctions *) (r))      /* PRQA S 3453 */ /* $Misra: #MACRO_T
 236:../src/smc_gen/r_drw2d_rx/src/tes/dave_intern.h **** #define D2_DRB(r)           ((d2_rbuffer *) (r))              /* PRQA S 3453 */ /* $Misra: #MACRO_T
 237:../src/smc_gen/r_drw2d_rx/src/tes/dave_intern.h **** 
 238:../src/smc_gen/r_drw2d_rx/src/tes/dave_intern.h **** static D2_INLINE d2_s32 d2_seterr(d2_device *handle, d2_s32 err); /* to satisfy MISRA rule 3450 */
 239:../src/smc_gen/r_drw2d_rx/src/tes/dave_intern.h **** static D2_INLINE d2_s32 d2_seterr(d2_device *handle, d2_s32 err) /* PRQA S 3219, 3480 */ /* $Misra:
 240:../src/smc_gen/r_drw2d_rx/src/tes/dave_intern.h **** {
 241:../src/smc_gen/r_drw2d_rx/src/tes/dave_intern.h ****    D2_DEV(handle)->errorcode = (d2_s8)(err);
 242:../src/smc_gen/r_drw2d_rx/src/tes/dave_intern.h **** 
 243:../src/smc_gen/r_drw2d_rx/src/tes/dave_intern.h ****    return err;
 244:../src/smc_gen/r_drw2d_rx/src/tes/dave_intern.h **** }
 245:../src/smc_gen/r_drw2d_rx/src/tes/dave_intern.h **** 
 246:../src/smc_gen/r_drw2d_rx/src/tes/dave_intern.h **** #define D2_SETERR(d,e)      d2_seterr(d, e)                   /* PRQA S 3453 */ /* $Misra: #MACRO_F
 247:../src/smc_gen/r_drw2d_rx/src/tes/dave_intern.h **** #define D2_SETOK(d)         D2_SETERR(d, D2_OK)               /* PRQA S 3453 */ /* $Misra: #MACRO_F
 248:../src/smc_gen/r_drw2d_rx/src/tes/dave_intern.h **** #define D2_RETERR(d,e)      return D2_SETERR(d,e)             /* PRQA S 3453 */ /* $Misra: #MISRA_B
 249:../src/smc_gen/r_drw2d_rx/src/tes/dave_intern.h **** #define D2_RETERRU(d,e)     return (d2_u32) (D2_SETERR(d,e))  /* PRQA S 3412 */ /* $Misra: #MACRO_R
 250:../src/smc_gen/r_drw2d_rx/src/tes/dave_intern.h **** #define D2_RETOK(d)         return D2_SETOK(d)                /* PRQA S 3412 */ /* $Misra: #MACRO_R
 251:../src/smc_gen/r_drw2d_rx/src/tes/dave_intern.h **** 
 252:../src/smc_gen/r_drw2d_rx/src/tes/dave_intern.h **** #ifdef _DEBUG
 253:../src/smc_gen/r_drw2d_rx/src/tes/dave_intern.h **** #define D2_VALIDATE(x,e)    if (0 == (x)) \
 254:../src/smc_gen/r_drw2d_rx/src/tes/dave_intern.h ****    {                                      \
 255:../src/smc_gen/r_drw2d_rx/src/tes/dave_intern.h ****       return (e);                         \
 256:../src/smc_gen/r_drw2d_rx/src/tes/dave_intern.h ****    }(void)0                                                   /* PRQA S 3412 */ /* $Misra: #COMPILE
 257:../src/smc_gen/r_drw2d_rx/src/tes/dave_intern.h **** #define D2_CHECKERR(x,e)    if (! (x))    \
 258:../src/smc_gen/r_drw2d_rx/src/tes/dave_intern.h ****    {                                      \
 259:../src/smc_gen/r_drw2d_rx/src/tes/dave_intern.h ****       D2_RETERR(handle, (e));             \
 260:../src/smc_gen/r_drw2d_rx/src/tes/dave_intern.h ****    }(void)0                                                   /* PRQA S 3412 */ /* $Misra: #COMPILE
 261:../src/smc_gen/r_drw2d_rx/src/tes/dave_intern.h **** #define D2_VALIDATEP(x,e)   if (0 == (x)) \
 262:../src/smc_gen/r_drw2d_rx/src/tes/dave_intern.h ****    {                                      \
 263:../src/smc_gen/r_drw2d_rx/src/tes/dave_intern.h ****       return 0;                           \
 264:../src/smc_gen/r_drw2d_rx/src/tes/dave_intern.h ****    }(void)0                                                   /* PRQA S 3412 */ /* $Misra: #COMPILE
 265:../src/smc_gen/r_drw2d_rx/src/tes/dave_intern.h **** #define D2_CHECKERRP(x,e)   if (! (x)) \
 266:../src/smc_gen/r_drw2d_rx/src/tes/dave_intern.h ****    {                                   \
 267:../src/smc_gen/r_drw2d_rx/src/tes/dave_intern.h ****       (void)D2_SETERR(handle, (e));    \
 268:../src/smc_gen/r_drw2d_rx/src/tes/dave_intern.h ****       return 0;                        \
 269:../src/smc_gen/r_drw2d_rx/src/tes/dave_intern.h ****    } (void)0                                                  /* PRQA S 3412 */ /* $Misra: #COMPILE
 270:../src/smc_gen/r_drw2d_rx/src/tes/dave_intern.h **** #define D2_CHECKRANGE( v, min, max ) if( ((min) > (v)) || ( (v) > (max)) ) \
 271:../src/smc_gen/r_drw2d_rx/src/tes/dave_intern.h ****    {                                                                       \
 272:../src/smc_gen/r_drw2d_rx/src/tes/dave_intern.h ****       (void)D2_SETERR( handle, D2_INVALIDINDEX);                           \
 273:../src/smc_gen/r_drw2d_rx/src/tes/dave_intern.h ****       return D2_INVALIDINDEX;                                              \
 274:../src/smc_gen/r_drw2d_rx/src/tes/dave_intern.h ****    }(void)0                                                   /* PRQA S 3412 */ /* $Misra: #COMPILE
 275:../src/smc_gen/r_drw2d_rx/src/tes/dave_intern.h **** #else
 276:../src/smc_gen/r_drw2d_rx/src/tes/dave_intern.h **** #define D2_VALIDATE(x,e)(void)0              /* PRQA S 4130, 3112, 3453 */ /* $Misra: #DEBUG_MACRO 
 277:../src/smc_gen/r_drw2d_rx/src/tes/dave_intern.h **** #define D2_CHECKERR(x,e)(void)0              /* PRQA S 4130, 3112, 3453 */ /* $Misra: #DEBUG_MACRO 
 278:../src/smc_gen/r_drw2d_rx/src/tes/dave_intern.h **** #define D2_VALIDATEP(x,e)(void)0             /* PRQA S 4130, 3112, 3453 */ /* $Misra: #DEBUG_MACRO 
 279:../src/smc_gen/r_drw2d_rx/src/tes/dave_intern.h **** #define D2_CHECKERRP(x,e)(void)0             /* PRQA S 4130, 3112, 3453 */ /* $Misra: #DEBUG_MACRO 
 280:../src/smc_gen/r_drw2d_rx/src/tes/dave_intern.h **** #define D2_CHECKRANGE( v, min, max )(void)0  /* PRQA S 4130, 3112, 3453 */ /* $Misra: #DEBUG_MACRO 
 281:../src/smc_gen/r_drw2d_rx/src/tes/dave_intern.h **** #endif
 282:../src/smc_gen/r_drw2d_rx/src/tes/dave_intern.h **** 
 283:../src/smc_gen/r_drw2d_rx/src/tes/dave_intern.h **** D2_EXTERN void d2_cast32to64(d2_s32 par, d2_int64 *res);
 284:../src/smc_gen/r_drw2d_rx/src/tes/dave_intern.h **** D2_EXTERN d2_s32  d2_cast64to32(const d2_int64 *par);
 285:../src/smc_gen/r_drw2d_rx/src/tes/dave_intern.h **** D2_EXTERN void d2_add64(const d2_int64 *a, const d2_int64 *b, d2_int64 *res);
 286:../src/smc_gen/r_drw2d_rx/src/tes/dave_intern.h **** D2_EXTERN void d2_sub64(const d2_int64 *a, const d2_int64 *b, d2_int64 *res);
 287:../src/smc_gen/r_drw2d_rx/src/tes/dave_intern.h **** D2_EXTERN void d2_mul3232to64(d2_s32 a, d2_s32 b, d2_int64 *res);
 288:../src/smc_gen/r_drw2d_rx/src/tes/dave_intern.h **** D2_EXTERN void d2_mul3264(d2_s32 a, d2_int64 *b, d2_int64 *res);
 289:../src/smc_gen/r_drw2d_rx/src/tes/dave_intern.h **** D2_EXTERN void d2_div6432(const d2_int64 *dividend, d2_s32 divisor, d2_int64 *res);
 290:../src/smc_gen/r_drw2d_rx/src/tes/dave_intern.h **** D2_EXTERN void d2_shiftleft64(const d2_int64 *var, d2_s32 index, d2_int64 *res);
 291:../src/smc_gen/r_drw2d_rx/src/tes/dave_intern.h **** D2_EXTERN void d2_shiftright64(const d2_int64 *var, d2_s32 index, d2_int64 *res);
 292:../src/smc_gen/r_drw2d_rx/src/tes/dave_intern.h **** 
 293:../src/smc_gen/r_drw2d_rx/src/tes/dave_intern.h **** #ifdef _NO_LL_
 294:../src/smc_gen/r_drw2d_rx/src/tes/dave_intern.h **** #define D2_CAST32TO64(PAR, RES)    d2_cast32to64(PAR, RES)     /* PRQA S 3453 */ /* $Misra: #MACRO_
 295:../src/smc_gen/r_drw2d_rx/src/tes/dave_intern.h **** #define D2_CAST64TO32(PAR)         d2_cast64to32(PAR)          /* PRQA S 3453 */ /* $Misra: #MACRO_
 296:../src/smc_gen/r_drw2d_rx/src/tes/dave_intern.h **** #define D2_ADD64(A, B, RES)        d2_add64(A, B, RES)         /* PRQA S 3453 */ /* $Misra: #MACRO_
 297:../src/smc_gen/r_drw2d_rx/src/tes/dave_intern.h **** #define D2_SUB64(A, B, RES)        d2_sub64(A, B, RES)         /* PRQA S 3453 */ /* $Misra: #MACRO_
 298:../src/smc_gen/r_drw2d_rx/src/tes/dave_intern.h **** #define D2_MUL3232TO64(A, B, RES)  d2_mul3232to64(A, B, RES)   /* PRQA S 3453 */ /* $Misra: #MACRO_
 299:../src/smc_gen/r_drw2d_rx/src/tes/dave_intern.h **** #define D2_MUL3264(A, B, RES)      d2_mul3264(A, B, RES)       /* PRQA S 3453 */ /* $Misra: #MACRO_
 300:../src/smc_gen/r_drw2d_rx/src/tes/dave_intern.h **** #define D2_DIV6432(DVD, DVS, RES)  d2_div6432(DVD, DVS, RES)   /* PRQA S 3453 */ /* $Misra: #MACRO_
 301:../src/smc_gen/r_drw2d_rx/src/tes/dave_intern.h **** #define D2_SHIFTLEFT64(V, I, RES)  d2_shiftleft64(V, I, RES)   /* PRQA S 3453 */ /* $Misra: #MACRO_
 302:../src/smc_gen/r_drw2d_rx/src/tes/dave_intern.h **** #define D2_SHIFTRIGHT64(V, I, RES) d2_shiftright64(V, I, RES)  /* PRQA S 3453 */ /* $Misra: #MACRO_
 303:../src/smc_gen/r_drw2d_rx/src/tes/dave_intern.h **** #else
 304:../src/smc_gen/r_drw2d_rx/src/tes/dave_intern.h **** #define D2_CAST32TO64(PAR, RES)    *(RES) = (PAR)              /* PRQA S 3453 */ /* $Misra: #MACRO_
 305:../src/smc_gen/r_drw2d_rx/src/tes/dave_intern.h **** #define D2_CAST64TO32(PAR)         ((d2_s32)*(PAR))            /* PRQA S 3453 */ /* $Misra: #MACRO_
 306:../src/smc_gen/r_drw2d_rx/src/tes/dave_intern.h **** #define D2_ADD64(A, B, RES)        *(RES) = (*(A)) + (*(B))    /* PRQA S 3453 */ /* $Misra: #MACRO_
 307:../src/smc_gen/r_drw2d_rx/src/tes/dave_intern.h **** #define D2_SUB64(A, B, RES)        *(RES) = (*(A)) - (*(B))    /* PRQA S 3453 */ /* $Misra: #MACRO_
 308:../src/smc_gen/r_drw2d_rx/src/tes/dave_intern.h **** #define D2_MUL3232TO64(A, B, RES)  *(RES) = ((A)) * (*(B))     /* PRQA S 3453 */ /* $Misra: #MACRO_
 309:../src/smc_gen/r_drw2d_rx/src/tes/dave_intern.h **** #define D2_MUL3264(A, B, RES)      *(RES) = ((A)) * (*(B))     /* PRQA S 3453 */ /* $Misra: #MACRO_
 310:../src/smc_gen/r_drw2d_rx/src/tes/dave_intern.h **** #define D2_DIV6432(DVD, DVS, RES)  *(RES) = (*(DVD)) / ((DVS)) /* PRQA S 3453 */ /* $Misra: #MACRO_
 311:../src/smc_gen/r_drw2d_rx/src/tes/dave_intern.h **** #define D2_SHIFTLEFT64(V, I, RES)  *(RES) = ((*(V)) << (I))    /* PRQA S 3453 */ /* $Misra: #MACRO_
 312:../src/smc_gen/r_drw2d_rx/src/tes/dave_intern.h **** #define D2_SHIFTRIGHT64(V, I, RES) *(RES) = ((*(V)) >> (I))    /* PRQA S 3453 */ /* $Misra: #MACRO_
 313:../src/smc_gen/r_drw2d_rx/src/tes/dave_intern.h **** #endif
 314:../src/smc_gen/r_drw2d_rx/src/tes/dave_intern.h **** 
 315:../src/smc_gen/r_drw2d_rx/src/tes/dave_intern.h **** 
 316:../src/smc_gen/r_drw2d_rx/src/tes/dave_intern.h **** /*---------------------------------------------------------------------------
 317:../src/smc_gen/r_drw2d_rx/src/tes/dave_intern.h ****  * Display List entry macro (moved from dlist.h because of include dependencies) */
 318:../src/smc_gen/r_drw2d_rx/src/tes/dave_intern.h **** 
 319:../src/smc_gen/r_drw2d_rx/src/tes/dave_intern.h **** static D2_INLINE void d2_add2dlist_intern( d2_devicedata *handle, d2_u32 regIdx, d2_s32 value )  /*
 652                             		.loc 2 319 23 view .LVU249
 653                             	.LBB271:
 320:../src/smc_gen/r_drw2d_rx/src/tes/dave_intern.h **** {
 321:../src/smc_gen/r_drw2d_rx/src/tes/dave_intern.h ****    d2_dlist_scratch_entry *entry = handle->dlscratch_pos;
 654                             		.loc 2 321 4 view .LVU250
 655                             		.loc 2 321 28 is_stmt 0 view .LVU251
 656 0327 ED 75 6E                		mov.L	440[r7], r5
 657                             	.LVL54:
 322:../src/smc_gen/r_drw2d_rx/src/tes/dave_intern.h ****    handle->dlscratch_pos++;
 658                             		.loc 2 322 4 is_stmt 1 view .LVU252
 659                             		.loc 2 322 25 is_stmt 0 view .LVU253
 660 032a 71 53 08                		add	#8, r5, r3
 661 032d E7 73 6E                		mov.L	r3, 440[r7]
 323:../src/smc_gen/r_drw2d_rx/src/tes/dave_intern.h **** 
 324:../src/smc_gen/r_drw2d_rx/src/tes/dave_intern.h ****    entry->reg   = regIdx;
 662                             		.loc 2 324 4 is_stmt 1 view .LVU254
 663                             		.loc 2 324 17 is_stmt 0 view .LVU255
 664 0330 F8 56 04                		mov.L	#4, [r5]
 325:../src/smc_gen/r_drw2d_rx/src/tes/dave_intern.h ****    entry->value = value;
 665                             		.loc 2 325 4 is_stmt 1 view .LVU256
 666                             		.loc 2 325 17 is_stmt 0 view .LVU257
 667 0333 A0 5C                   		mov.L	r4, 4[r5]
 326:../src/smc_gen/r_drw2d_rx/src/tes/dave_intern.h **** 
 327:../src/smc_gen/r_drw2d_rx/src/tes/dave_intern.h ****    --handle->dlscratch_cnt;
 668                             		.loc 2 327 4 is_stmt 1 view .LVU258
 669                             		.loc 2 327 12 is_stmt 0 view .LVU259
 670 0335 ED 75 6F                		mov.L	444[r7], r5
 671                             	.LVL55:
 672                             		.loc 2 327 4 view .LVU260
 673 0338 60 15                   		sub	#1, r5
 674 033a E7 75 6F                		mov.L	r5, 444[r7]
 328:../src/smc_gen/r_drw2d_rx/src/tes/dave_intern.h ****    if(handle->dlscratch_cnt <= 0)
 675                             		.loc 2 328 4 is_stmt 1 view .LVU261
 676                             		.loc 2 328 6 is_stmt 0 view .LVU262
 677 033d 61 05                   		cmp	#0, r5
 678 033f 2A 05 38 3D 06          		ble	.L114
 679                             	.LVL56:
 680                             	.L58:
 681                             		.loc 2 328 6 view .LVU263
 682                             	.LBE271:
 683                             	.LBE270:
 499:../src/smc_gen/r_drw2d_rx/src/tes/dave_line.c ****    D2_DLISTWRITES( D2_L1XADD , edge[0].xadd );
 684                             		.loc 1 499 4 is_stmt 1 view .LVU264
 685 0344 AA 0C                   		mov.L	36[r0], r4
 686                             	.LVL57:
 687                             	.LBB275:
 688                             	.LBI275:
 319:../src/smc_gen/r_drw2d_rx/src/tes/dave_intern.h **** {
 689                             		.loc 2 319 23 view .LVU265
 690                             	.LBB276:
 321:../src/smc_gen/r_drw2d_rx/src/tes/dave_intern.h ****    handle->dlscratch_pos++;
 691                             		.loc 2 321 4 view .LVU266
 321:../src/smc_gen/r_drw2d_rx/src/tes/dave_intern.h ****    handle->dlscratch_pos++;
 692                             		.loc 2 321 28 is_stmt 0 view .LVU267
 693 0346 ED 75 6E                		mov.L	440[r7], r5
 694                             	.LVL58:
 322:../src/smc_gen/r_drw2d_rx/src/tes/dave_intern.h **** 
 695                             		.loc 2 322 4 is_stmt 1 view .LVU268
 322:../src/smc_gen/r_drw2d_rx/src/tes/dave_intern.h **** 
 696                             		.loc 2 322 25 is_stmt 0 view .LVU269
 697 0349 71 53 08                		add	#8, r5, r3
 698 034c E7 73 6E                		mov.L	r3, 440[r7]
 324:../src/smc_gen/r_drw2d_rx/src/tes/dave_intern.h ****    entry->value = value;
 699                             		.loc 2 324 4 is_stmt 1 view .LVU270
 324:../src/smc_gen/r_drw2d_rx/src/tes/dave_intern.h ****    entry->value = value;
 700                             		.loc 2 324 17 is_stmt 0 view .LVU271
 701 034f F8 56 0A                		mov.L	#10, [r5]
 325:../src/smc_gen/r_drw2d_rx/src/tes/dave_intern.h **** 
 702                             		.loc 2 325 4 is_stmt 1 view .LVU272
 325:../src/smc_gen/r_drw2d_rx/src/tes/dave_intern.h **** 
 703                             		.loc 2 325 17 is_stmt 0 view .LVU273
 704 0352 A0 5C                   		mov.L	r4, 4[r5]
 327:../src/smc_gen/r_drw2d_rx/src/tes/dave_intern.h ****    if(handle->dlscratch_cnt <= 0)
 705                             		.loc 2 327 4 is_stmt 1 view .LVU274
 327:../src/smc_gen/r_drw2d_rx/src/tes/dave_intern.h ****    if(handle->dlscratch_cnt <= 0)
 706                             		.loc 2 327 12 is_stmt 0 view .LVU275
 707 0354 ED 75 6F                		mov.L	444[r7], r5
 708                             	.LVL59:
 327:../src/smc_gen/r_drw2d_rx/src/tes/dave_intern.h ****    if(handle->dlscratch_cnt <= 0)
 709                             		.loc 2 327 4 view .LVU276
 710 0357 60 15                   		sub	#1, r5
 711 0359 E7 75 6F                		mov.L	r5, 444[r7]
 712                             		.loc 2 328 4 is_stmt 1 view .LVU277
 713                             		.loc 2 328 6 is_stmt 0 view .LVU278
 714 035c 61 05                   		cmp	#0, r5
 715 035e 2A 05 38 28 06          		ble	.L115
 716                             	.LVL60:
 717                             	.L59:
 718                             		.loc 2 328 6 view .LVU279
 719                             	.LBE276:
 720                             	.LBE275:
 500:../src/smc_gen/r_drw2d_rx/src/tes/dave_line.c ****    D2_DLISTWRITES( D2_L1YADD , edge[0].yadd );
 721                             		.loc 1 500 4 is_stmt 1 view .LVU280
 722 0363 AA 84                   		mov.L	40[r0], r4
 723                             	.LVL61:
 724                             	.LBB280:
 725                             	.LBI280:
 319:../src/smc_gen/r_drw2d_rx/src/tes/dave_intern.h **** {
 726                             		.loc 2 319 23 view .LVU281
 727                             	.LBB281:
 321:../src/smc_gen/r_drw2d_rx/src/tes/dave_intern.h ****    handle->dlscratch_pos++;
 728                             		.loc 2 321 4 view .LVU282
 321:../src/smc_gen/r_drw2d_rx/src/tes/dave_intern.h ****    handle->dlscratch_pos++;
 729                             		.loc 2 321 28 is_stmt 0 view .LVU283
 730 0365 ED 75 6E                		mov.L	440[r7], r5
 731                             	.LVL62:
 322:../src/smc_gen/r_drw2d_rx/src/tes/dave_intern.h **** 
 732                             		.loc 2 322 4 is_stmt 1 view .LVU284
 322:../src/smc_gen/r_drw2d_rx/src/tes/dave_intern.h **** 
 733                             		.loc 2 322 25 is_stmt 0 view .LVU285
 734 0368 71 53 08                		add	#8, r5, r3
 735 036b E7 73 6E                		mov.L	r3, 440[r7]
 324:../src/smc_gen/r_drw2d_rx/src/tes/dave_intern.h ****    entry->value = value;
 736                             		.loc 2 324 4 is_stmt 1 view .LVU286
 324:../src/smc_gen/r_drw2d_rx/src/tes/dave_intern.h ****    entry->value = value;
 737                             		.loc 2 324 17 is_stmt 0 view .LVU287
 738 036e F8 56 10                		mov.L	#16, [r5]
 325:../src/smc_gen/r_drw2d_rx/src/tes/dave_intern.h **** 
 739                             		.loc 2 325 4 is_stmt 1 view .LVU288
 325:../src/smc_gen/r_drw2d_rx/src/tes/dave_intern.h **** 
 740                             		.loc 2 325 17 is_stmt 0 view .LVU289
 741 0371 A0 5C                   		mov.L	r4, 4[r5]
 327:../src/smc_gen/r_drw2d_rx/src/tes/dave_intern.h ****    if(handle->dlscratch_cnt <= 0)
 742                             		.loc 2 327 4 is_stmt 1 view .LVU290
 327:../src/smc_gen/r_drw2d_rx/src/tes/dave_intern.h ****    if(handle->dlscratch_cnt <= 0)
 743                             		.loc 2 327 12 is_stmt 0 view .LVU291
 744 0373 ED 75 6F                		mov.L	444[r7], r5
 745                             	.LVL63:
 327:../src/smc_gen/r_drw2d_rx/src/tes/dave_intern.h ****    if(handle->dlscratch_cnt <= 0)
 746                             		.loc 2 327 4 view .LVU292
 747 0376 60 15                   		sub	#1, r5
 748 0378 E7 75 6F                		mov.L	r5, 444[r7]
 749                             		.loc 2 328 4 is_stmt 1 view .LVU293
 750                             		.loc 2 328 6 is_stmt 0 view .LVU294
 751 037b 61 05                   		cmp	#0, r5
 752 037d 2A 05 38 13 06          		ble	.L116
 753                             	.LVL64:
 754                             	.L60:
 755                             		.loc 2 328 6 view .LVU295
 756                             	.LBE281:
 757                             	.LBE280:
 501:../src/smc_gen/r_drw2d_rx/src/tes/dave_line.c **** 
 502:../src/smc_gen/r_drw2d_rx/src/tes/dave_line.c ****    if(0 != swt)
 758                             		.loc 1 502 4 is_stmt 1 view .LVU296
 759                             		.loc 1 502 6 is_stmt 0 view .LVU297
 760 0382 AE 04                   		mov.L	96[r0], r4
 761 0384 61 04                   		cmp	#0, r4
 762 0386 3A 52 06                		beq	.L61
 503:../src/smc_gen/r_drw2d_rx/src/tes/dave_line.c ****    {
 504:../src/smc_gen/r_drw2d_rx/src/tes/dave_line.c ****       /* endpoint limiter must be in first group */
 505:../src/smc_gen/r_drw2d_rx/src/tes/dave_line.c ****       D2_DLISTWRITES( D2_L5START, edge[1].start );
 763                             		.loc 1 505 7 is_stmt 1 view .LVU298
 764 0389 AA 8C                   		mov.L	44[r0], r4
 765                             	.LVL65:
 766                             	.LBB285:
 767                             	.LBI285:
 319:../src/smc_gen/r_drw2d_rx/src/tes/dave_intern.h **** {
 768                             		.loc 2 319 23 view .LVU299
 769                             	.LBB286:
 321:../src/smc_gen/r_drw2d_rx/src/tes/dave_intern.h ****    handle->dlscratch_pos++;
 770                             		.loc 2 321 4 view .LVU300
 321:../src/smc_gen/r_drw2d_rx/src/tes/dave_intern.h ****    handle->dlscratch_pos++;
 771                             		.loc 2 321 28 is_stmt 0 view .LVU301
 772 038b ED 75 6E                		mov.L	440[r7], r5
 773                             	.LVL66:
 322:../src/smc_gen/r_drw2d_rx/src/tes/dave_intern.h **** 
 774                             		.loc 2 322 4 is_stmt 1 view .LVU302
 322:../src/smc_gen/r_drw2d_rx/src/tes/dave_intern.h **** 
 775                             		.loc 2 322 25 is_stmt 0 view .LVU303
 776 038e 71 53 08                		add	#8, r5, r3
 777 0391 E7 73 6E                		mov.L	r3, 440[r7]
 324:../src/smc_gen/r_drw2d_rx/src/tes/dave_intern.h ****    entry->value = value;
 778                             		.loc 2 324 4 is_stmt 1 view .LVU304
 324:../src/smc_gen/r_drw2d_rx/src/tes/dave_intern.h ****    entry->value = value;
 779                             		.loc 2 324 17 is_stmt 0 view .LVU305
 780 0394 F8 56 08                		mov.L	#8, [r5]
 325:../src/smc_gen/r_drw2d_rx/src/tes/dave_intern.h **** 
 781                             		.loc 2 325 4 is_stmt 1 view .LVU306
 325:../src/smc_gen/r_drw2d_rx/src/tes/dave_intern.h **** 
 782                             		.loc 2 325 17 is_stmt 0 view .LVU307
 783 0397 A0 5C                   		mov.L	r4, 4[r5]
 327:../src/smc_gen/r_drw2d_rx/src/tes/dave_intern.h ****    if(handle->dlscratch_cnt <= 0)
 784                             		.loc 2 327 4 is_stmt 1 view .LVU308
 327:../src/smc_gen/r_drw2d_rx/src/tes/dave_intern.h ****    if(handle->dlscratch_cnt <= 0)
 785                             		.loc 2 327 12 is_stmt 0 view .LVU309
 786 0399 ED 75 6F                		mov.L	444[r7], r5
 787                             	.LVL67:
 327:../src/smc_gen/r_drw2d_rx/src/tes/dave_intern.h ****    if(handle->dlscratch_cnt <= 0)
 788                             		.loc 2 327 4 view .LVU310
 789 039c 60 15                   		sub	#1, r5
 790 039e E7 75 6F                		mov.L	r5, 444[r7]
 791                             		.loc 2 328 4 is_stmt 1 view .LVU311
 792                             		.loc 2 328 6 is_stmt 0 view .LVU312
 793 03a1 61 05                   		cmp	#0, r5
 794 03a3 2A 05 38 F7 05          		ble	.L117
 795                             	.LVL68:
 796                             	.L62:
 797                             		.loc 2 328 6 view .LVU313
 798                             	.LBE286:
 799                             	.LBE285:
 506:../src/smc_gen/r_drw2d_rx/src/tes/dave_line.c ****       D2_DLISTWRITES( D2_L5XADD , edge[1].xadd );
 800                             		.loc 1 506 7 is_stmt 1 view .LVU314
 801 03a8 AB 04                   		mov.L	48[r0], r4
 802                             	.LVL69:
 803                             	.LBB290:
 804                             	.LBI290:
 319:../src/smc_gen/r_drw2d_rx/src/tes/dave_intern.h **** {
 805                             		.loc 2 319 23 view .LVU315
 806                             	.LBB291:
 321:../src/smc_gen/r_drw2d_rx/src/tes/dave_intern.h ****    handle->dlscratch_pos++;
 807                             		.loc 2 321 4 view .LVU316
 321:../src/smc_gen/r_drw2d_rx/src/tes/dave_intern.h ****    handle->dlscratch_pos++;
 808                             		.loc 2 321 28 is_stmt 0 view .LVU317
 809 03aa ED 75 6E                		mov.L	440[r7], r5
 810                             	.LVL70:
 322:../src/smc_gen/r_drw2d_rx/src/tes/dave_intern.h **** 
 811                             		.loc 2 322 4 is_stmt 1 view .LVU318
 322:../src/smc_gen/r_drw2d_rx/src/tes/dave_intern.h **** 
 812                             		.loc 2 322 25 is_stmt 0 view .LVU319
 813 03ad 71 53 08                		add	#8, r5, r3
 814 03b0 E7 73 6E                		mov.L	r3, 440[r7]
 324:../src/smc_gen/r_drw2d_rx/src/tes/dave_intern.h ****    entry->value = value;
 815                             		.loc 2 324 4 is_stmt 1 view .LVU320
 324:../src/smc_gen/r_drw2d_rx/src/tes/dave_intern.h ****    entry->value = value;
 816                             		.loc 2 324 17 is_stmt 0 view .LVU321
 817 03b3 F8 56 0E                		mov.L	#14, [r5]
 325:../src/smc_gen/r_drw2d_rx/src/tes/dave_intern.h **** 
 818                             		.loc 2 325 4 is_stmt 1 view .LVU322
 325:../src/smc_gen/r_drw2d_rx/src/tes/dave_intern.h **** 
 819                             		.loc 2 325 17 is_stmt 0 view .LVU323
 820 03b6 A0 5C                   		mov.L	r4, 4[r5]
 327:../src/smc_gen/r_drw2d_rx/src/tes/dave_intern.h ****    if(handle->dlscratch_cnt <= 0)
 821                             		.loc 2 327 4 is_stmt 1 view .LVU324
 327:../src/smc_gen/r_drw2d_rx/src/tes/dave_intern.h ****    if(handle->dlscratch_cnt <= 0)
 822                             		.loc 2 327 12 is_stmt 0 view .LVU325
 823 03b8 ED 75 6F                		mov.L	444[r7], r5
 824                             	.LVL71:
 327:../src/smc_gen/r_drw2d_rx/src/tes/dave_intern.h ****    if(handle->dlscratch_cnt <= 0)
 825                             		.loc 2 327 4 view .LVU326
 826 03bb 60 15                   		sub	#1, r5
 827 03bd E7 75 6F                		mov.L	r5, 444[r7]
 828                             		.loc 2 328 4 is_stmt 1 view .LVU327
 829                             		.loc 2 328 6 is_stmt 0 view .LVU328
 830 03c0 61 05                   		cmp	#0, r5
 831 03c2 2A 05 38 E2 05          		ble	.L118
 832                             	.LVL72:
 833                             	.L63:
 834                             		.loc 2 328 6 view .LVU329
 835                             	.LBE291:
 836                             	.LBE290:
 507:../src/smc_gen/r_drw2d_rx/src/tes/dave_line.c ****       D2_DLISTWRITES( D2_L5YADD , edge[1].yadd );
 837                             		.loc 1 507 7 is_stmt 1 view .LVU330
 838 03c7 AB 0C                   		mov.L	52[r0], r4
 839                             	.LVL73:
 840                             	.LBB295:
 841                             	.LBI295:
 319:../src/smc_gen/r_drw2d_rx/src/tes/dave_intern.h **** {
 842                             		.loc 2 319 23 view .LVU331
 843                             	.LBB296:
 321:../src/smc_gen/r_drw2d_rx/src/tes/dave_intern.h ****    handle->dlscratch_pos++;
 844                             		.loc 2 321 4 view .LVU332
 321:../src/smc_gen/r_drw2d_rx/src/tes/dave_intern.h ****    handle->dlscratch_pos++;
 845                             		.loc 2 321 28 is_stmt 0 view .LVU333
 846 03c9 ED 75 6E                		mov.L	440[r7], r5
 847                             	.LVL74:
 322:../src/smc_gen/r_drw2d_rx/src/tes/dave_intern.h **** 
 848                             		.loc 2 322 4 is_stmt 1 view .LVU334
 322:../src/smc_gen/r_drw2d_rx/src/tes/dave_intern.h **** 
 849                             		.loc 2 322 25 is_stmt 0 view .LVU335
 850 03cc 71 53 08                		add	#8, r5, r3
 851 03cf E7 73 6E                		mov.L	r3, 440[r7]
 324:../src/smc_gen/r_drw2d_rx/src/tes/dave_intern.h ****    entry->value = value;
 852                             		.loc 2 324 4 is_stmt 1 view .LVU336
 324:../src/smc_gen/r_drw2d_rx/src/tes/dave_intern.h ****    entry->value = value;
 853                             		.loc 2 324 17 is_stmt 0 view .LVU337
 854 03d2 F8 56 14                		mov.L	#20, [r5]
 325:../src/smc_gen/r_drw2d_rx/src/tes/dave_intern.h **** 
 855                             		.loc 2 325 4 is_stmt 1 view .LVU338
 325:../src/smc_gen/r_drw2d_rx/src/tes/dave_intern.h **** 
 856                             		.loc 2 325 17 is_stmt 0 view .LVU339
 857 03d5 A0 5C                   		mov.L	r4, 4[r5]
 327:../src/smc_gen/r_drw2d_rx/src/tes/dave_intern.h ****    if(handle->dlscratch_cnt <= 0)
 858                             		.loc 2 327 4 is_stmt 1 view .LVU340
 327:../src/smc_gen/r_drw2d_rx/src/tes/dave_intern.h ****    if(handle->dlscratch_cnt <= 0)
 859                             		.loc 2 327 12 is_stmt 0 view .LVU341
 860 03d7 ED 75 6F                		mov.L	444[r7], r5
 861                             	.LVL75:
 327:../src/smc_gen/r_drw2d_rx/src/tes/dave_intern.h ****    if(handle->dlscratch_cnt <= 0)
 862                             		.loc 2 327 4 view .LVU342
 863 03da 60 15                   		sub	#1, r5
 864 03dc E7 75 6F                		mov.L	r5, 444[r7]
 865                             		.loc 2 328 4 is_stmt 1 view .LVU343
 866                             		.loc 2 328 6 is_stmt 0 view .LVU344
 867 03df 61 05                   		cmp	#0, r5
 868 03e1 2A 05 38 CD 05          		ble	.L119
 869                             	.LVL76:
 870                             	.L64:
 871                             		.loc 2 328 6 view .LVU345
 872                             	.LBE296:
 873                             	.LBE295:
 508:../src/smc_gen/r_drw2d_rx/src/tes/dave_line.c ****       D2_DLISTWRITES( D2_L2START, edge[2].start );
 874                             		.loc 1 508 7 is_stmt 1 view .LVU346
 875 03e6 AB 84                   		mov.L	56[r0], r4
 876                             	.LVL77:
 877                             	.LBB300:
 878                             	.LBI300:
 319:../src/smc_gen/r_drw2d_rx/src/tes/dave_intern.h **** {
 879                             		.loc 2 319 23 view .LVU347
 880                             	.LBB301:
 321:../src/smc_gen/r_drw2d_rx/src/tes/dave_intern.h ****    handle->dlscratch_pos++;
 881                             		.loc 2 321 4 view .LVU348
 321:../src/smc_gen/r_drw2d_rx/src/tes/dave_intern.h ****    handle->dlscratch_pos++;
 882                             		.loc 2 321 28 is_stmt 0 view .LVU349
 883 03e8 ED 75 6E                		mov.L	440[r7], r5
 884                             	.LVL78:
 322:../src/smc_gen/r_drw2d_rx/src/tes/dave_intern.h **** 
 885                             		.loc 2 322 4 is_stmt 1 view .LVU350
 322:../src/smc_gen/r_drw2d_rx/src/tes/dave_intern.h **** 
 886                             		.loc 2 322 25 is_stmt 0 view .LVU351
 887 03eb 71 53 08                		add	#8, r5, r3
 888 03ee E7 73 6E                		mov.L	r3, 440[r7]
 324:../src/smc_gen/r_drw2d_rx/src/tes/dave_intern.h ****    entry->value = value;
 889                             		.loc 2 324 4 is_stmt 1 view .LVU352
 324:../src/smc_gen/r_drw2d_rx/src/tes/dave_intern.h ****    entry->value = value;
 890                             		.loc 2 324 17 is_stmt 0 view .LVU353
 891 03f1 F8 56 05                		mov.L	#5, [r5]
 325:../src/smc_gen/r_drw2d_rx/src/tes/dave_intern.h **** 
 892                             		.loc 2 325 4 is_stmt 1 view .LVU354
 325:../src/smc_gen/r_drw2d_rx/src/tes/dave_intern.h **** 
 893                             		.loc 2 325 17 is_stmt 0 view .LVU355
 894 03f4 A0 5C                   		mov.L	r4, 4[r5]
 327:../src/smc_gen/r_drw2d_rx/src/tes/dave_intern.h ****    if(handle->dlscratch_cnt <= 0)
 895                             		.loc 2 327 4 is_stmt 1 view .LVU356
 327:../src/smc_gen/r_drw2d_rx/src/tes/dave_intern.h ****    if(handle->dlscratch_cnt <= 0)
 896                             		.loc 2 327 12 is_stmt 0 view .LVU357
 897 03f6 ED 75 6F                		mov.L	444[r7], r5
 898                             	.LVL79:
 327:../src/smc_gen/r_drw2d_rx/src/tes/dave_intern.h ****    if(handle->dlscratch_cnt <= 0)
 899                             		.loc 2 327 4 view .LVU358
 900 03f9 60 15                   		sub	#1, r5
 901 03fb E7 75 6F                		mov.L	r5, 444[r7]
 902                             		.loc 2 328 4 is_stmt 1 view .LVU359
 903                             		.loc 2 328 6 is_stmt 0 view .LVU360
 904 03fe 61 05                   		cmp	#0, r5
 905 0400 2A 05 38 B8 05          		ble	.L120
 906                             	.LVL80:
 907                             	.L65:
 908                             		.loc 2 328 6 view .LVU361
 909                             	.LBE301:
 910                             	.LBE300:
 509:../src/smc_gen/r_drw2d_rx/src/tes/dave_line.c ****       D2_DLISTWRITES( D2_L2XADD , edge[2].xadd );
 911                             		.loc 1 509 7 is_stmt 1 view .LVU362
 912 0405 AB 8C                   		mov.L	60[r0], r4
 913                             	.LVL81:
 914                             	.LBB305:
 915                             	.LBI305:
 319:../src/smc_gen/r_drw2d_rx/src/tes/dave_intern.h **** {
 916                             		.loc 2 319 23 view .LVU363
 917                             	.LBB306:
 321:../src/smc_gen/r_drw2d_rx/src/tes/dave_intern.h ****    handle->dlscratch_pos++;
 918                             		.loc 2 321 4 view .LVU364
 321:../src/smc_gen/r_drw2d_rx/src/tes/dave_intern.h ****    handle->dlscratch_pos++;
 919                             		.loc 2 321 28 is_stmt 0 view .LVU365
 920 0407 ED 75 6E                		mov.L	440[r7], r5
 921                             	.LVL82:
 322:../src/smc_gen/r_drw2d_rx/src/tes/dave_intern.h **** 
 922                             		.loc 2 322 4 is_stmt 1 view .LVU366
 322:../src/smc_gen/r_drw2d_rx/src/tes/dave_intern.h **** 
 923                             		.loc 2 322 25 is_stmt 0 view .LVU367
 924 040a 71 53 08                		add	#8, r5, r3
 925 040d E7 73 6E                		mov.L	r3, 440[r7]
 324:../src/smc_gen/r_drw2d_rx/src/tes/dave_intern.h ****    entry->value = value;
 926                             		.loc 2 324 4 is_stmt 1 view .LVU368
 324:../src/smc_gen/r_drw2d_rx/src/tes/dave_intern.h ****    entry->value = value;
 927                             		.loc 2 324 17 is_stmt 0 view .LVU369
 928 0410 F8 56 0B                		mov.L	#11, [r5]
 325:../src/smc_gen/r_drw2d_rx/src/tes/dave_intern.h **** 
 929                             		.loc 2 325 4 is_stmt 1 view .LVU370
 325:../src/smc_gen/r_drw2d_rx/src/tes/dave_intern.h **** 
 930                             		.loc 2 325 17 is_stmt 0 view .LVU371
 931 0413 A0 5C                   		mov.L	r4, 4[r5]
 327:../src/smc_gen/r_drw2d_rx/src/tes/dave_intern.h ****    if(handle->dlscratch_cnt <= 0)
 932                             		.loc 2 327 4 is_stmt 1 view .LVU372
 327:../src/smc_gen/r_drw2d_rx/src/tes/dave_intern.h ****    if(handle->dlscratch_cnt <= 0)
 933                             		.loc 2 327 12 is_stmt 0 view .LVU373
 934 0415 ED 75 6F                		mov.L	444[r7], r5
 935                             	.LVL83:
 327:../src/smc_gen/r_drw2d_rx/src/tes/dave_intern.h ****    if(handle->dlscratch_cnt <= 0)
 936                             		.loc 2 327 4 view .LVU374
 937 0418 60 15                   		sub	#1, r5
 938 041a E7 75 6F                		mov.L	r5, 444[r7]
 939                             		.loc 2 328 4 is_stmt 1 view .LVU375
 940                             		.loc 2 328 6 is_stmt 0 view .LVU376
 941 041d 61 05                   		cmp	#0, r5
 942 041f 2A 05 38 A3 05          		ble	.L121
 943                             	.LVL84:
 944                             	.L66:
 945                             		.loc 2 328 6 view .LVU377
 946                             	.LBE306:
 947                             	.LBE305:
 510:../src/smc_gen/r_drw2d_rx/src/tes/dave_line.c ****       D2_DLISTWRITES( D2_L2YADD , edge[2].yadd );
 948                             		.loc 1 510 7 is_stmt 1 view .LVU378
 949 0424 AC 04                   		mov.L	64[r0], r4
 950                             	.LVL85:
 951                             	.LBB310:
 952                             	.LBI310:
 319:../src/smc_gen/r_drw2d_rx/src/tes/dave_intern.h **** {
 953                             		.loc 2 319 23 view .LVU379
 954                             	.LBB311:
 321:../src/smc_gen/r_drw2d_rx/src/tes/dave_intern.h ****    handle->dlscratch_pos++;
 955                             		.loc 2 321 4 view .LVU380
 321:../src/smc_gen/r_drw2d_rx/src/tes/dave_intern.h ****    handle->dlscratch_pos++;
 956                             		.loc 2 321 28 is_stmt 0 view .LVU381
 957 0426 ED 75 6E                		mov.L	440[r7], r5
 958                             	.LVL86:
 322:../src/smc_gen/r_drw2d_rx/src/tes/dave_intern.h **** 
 959                             		.loc 2 322 4 is_stmt 1 view .LVU382
 322:../src/smc_gen/r_drw2d_rx/src/tes/dave_intern.h **** 
 960                             		.loc 2 322 25 is_stmt 0 view .LVU383
 961 0429 71 53 08                		add	#8, r5, r3
 962 042c E7 73 6E                		mov.L	r3, 440[r7]
 324:../src/smc_gen/r_drw2d_rx/src/tes/dave_intern.h ****    entry->value = value;
 963                             		.loc 2 324 4 is_stmt 1 view .LVU384
 324:../src/smc_gen/r_drw2d_rx/src/tes/dave_intern.h ****    entry->value = value;
 964                             		.loc 2 324 17 is_stmt 0 view .LVU385
 965 042f F8 56 11                		mov.L	#17, [r5]
 325:../src/smc_gen/r_drw2d_rx/src/tes/dave_intern.h **** 
 966                             		.loc 2 325 4 is_stmt 1 view .LVU386
 325:../src/smc_gen/r_drw2d_rx/src/tes/dave_intern.h **** 
 967                             		.loc 2 325 17 is_stmt 0 view .LVU387
 968 0432 A0 5C                   		mov.L	r4, 4[r5]
 327:../src/smc_gen/r_drw2d_rx/src/tes/dave_intern.h ****    if(handle->dlscratch_cnt <= 0)
 969                             		.loc 2 327 4 is_stmt 1 view .LVU388
 327:../src/smc_gen/r_drw2d_rx/src/tes/dave_intern.h ****    if(handle->dlscratch_cnt <= 0)
 970                             		.loc 2 327 12 is_stmt 0 view .LVU389
 971 0434 ED 75 6F                		mov.L	444[r7], r5
 972                             	.LVL87:
 327:../src/smc_gen/r_drw2d_rx/src/tes/dave_intern.h ****    if(handle->dlscratch_cnt <= 0)
 973                             		.loc 2 327 4 view .LVU390
 974 0437 60 15                   		sub	#1, r5
 975 0439 E7 75 6F                		mov.L	r5, 444[r7]
 976                             		.loc 2 328 4 is_stmt 1 view .LVU391
 977                             		.loc 2 328 6 is_stmt 0 view .LVU392
 978 043c 61 05                   		cmp	#0, r5
 979 043e 2A 05 38 8E 05          		ble	.L122
 980                             	.LVL88:
 981                             		.balign 8,3,2
 982                             	.L67:
 983                             		.loc 2 328 6 view .LVU393
 984                             	.LBE311:
 985                             	.LBE310:
 511:../src/smc_gen/r_drw2d_rx/src/tes/dave_line.c ****    }
 512:../src/smc_gen/r_drw2d_rx/src/tes/dave_line.c ****    else
 513:../src/smc_gen/r_drw2d_rx/src/tes/dave_line.c ****    {
 514:../src/smc_gen/r_drw2d_rx/src/tes/dave_line.c ****       /* startpoint limiter must be in first group */
 515:../src/smc_gen/r_drw2d_rx/src/tes/dave_line.c ****       D2_DLISTWRITES( D2_L2START, edge[1].start );
 516:../src/smc_gen/r_drw2d_rx/src/tes/dave_line.c ****       D2_DLISTWRITES( D2_L2XADD , edge[1].xadd );
 517:../src/smc_gen/r_drw2d_rx/src/tes/dave_line.c ****       D2_DLISTWRITES( D2_L2YADD , edge[1].yadd );
 518:../src/smc_gen/r_drw2d_rx/src/tes/dave_line.c ****       D2_DLISTWRITES( D2_L5START, edge[2].start );
 519:../src/smc_gen/r_drw2d_rx/src/tes/dave_line.c ****       D2_DLISTWRITES( D2_L5XADD , edge[2].xadd );
 520:../src/smc_gen/r_drw2d_rx/src/tes/dave_line.c ****       D2_DLISTWRITES( D2_L5YADD , edge[2].yadd );
 521:../src/smc_gen/r_drw2d_rx/src/tes/dave_line.c ****    }
 522:../src/smc_gen/r_drw2d_rx/src/tes/dave_line.c **** 
 523:../src/smc_gen/r_drw2d_rx/src/tes/dave_line.c ****    D2_DLISTWRITES( D2_L1BAND , w16 );
 986                             		.loc 1 523 4 is_stmt 1 view .LVU394
 987                             	.LBB315:
 988                             	.LBI315:
 319:../src/smc_gen/r_drw2d_rx/src/tes/dave_intern.h **** {
 989                             		.loc 2 319 23 view .LVU395
 990                             	.LBB316:
 321:../src/smc_gen/r_drw2d_rx/src/tes/dave_intern.h ****    handle->dlscratch_pos++;
 991                             		.loc 2 321 4 view .LVU396
 321:../src/smc_gen/r_drw2d_rx/src/tes/dave_intern.h ****    handle->dlscratch_pos++;
 992                             		.loc 2 321 28 is_stmt 0 view .LVU397
 993 0443 ED 75 6E                		mov.L	440[r7], r5
 994                             	.LVL89:
 322:../src/smc_gen/r_drw2d_rx/src/tes/dave_intern.h **** 
 995                             		.loc 2 322 4 is_stmt 1 view .LVU398
 322:../src/smc_gen/r_drw2d_rx/src/tes/dave_intern.h **** 
 996                             		.loc 2 322 25 is_stmt 0 view .LVU399
 997 0446 71 54 08                		add	#8, r5, r4
 998 0449 E7 74 6E                		mov.L	r4, 440[r7]
 324:../src/smc_gen/r_drw2d_rx/src/tes/dave_intern.h ****    entry->value = value;
 999                             		.loc 2 324 4 is_stmt 1 view .LVU400
 324:../src/smc_gen/r_drw2d_rx/src/tes/dave_intern.h ****    entry->value = value;
 1000                             		.loc 2 324 17 is_stmt 0 view .LVU401
 1001 044c F8 56 16                		mov.L	#22, [r5]
 325:../src/smc_gen/r_drw2d_rx/src/tes/dave_intern.h **** 
 1002                             		.loc 2 325 4 is_stmt 1 view .LVU402
 325:../src/smc_gen/r_drw2d_rx/src/tes/dave_intern.h **** 
 1003                             		.loc 2 325 17 is_stmt 0 view .LVU403
 1004 044f E5 05 19 01             		mov.L	100[r0], 4[r5]
 327:../src/smc_gen/r_drw2d_rx/src/tes/dave_intern.h ****    if(handle->dlscratch_cnt <= 0)
 1005                             		.loc 2 327 4 is_stmt 1 view .LVU404
 327:../src/smc_gen/r_drw2d_rx/src/tes/dave_intern.h ****    if(handle->dlscratch_cnt <= 0)
 1006                             		.loc 2 327 12 is_stmt 0 view .LVU405
 1007 0453 ED 75 6F                		mov.L	444[r7], r5
 1008                             	.LVL90:
 327:../src/smc_gen/r_drw2d_rx/src/tes/dave_intern.h ****    if(handle->dlscratch_cnt <= 0)
 1009                             		.loc 2 327 4 view .LVU406
 1010 0456 60 15                   		sub	#1, r5
 1011 0458 E7 75 6F                		mov.L	r5, 444[r7]
 1012                             		.loc 2 328 4 is_stmt 1 view .LVU407
 1013                             		.loc 2 328 6 is_stmt 0 view .LVU408
 1014 045b 61 05                   		cmp	#0, r5
 1015 045d 2A 05 38 63 06          		ble	.L123
 1016                             	.LVL91:
 1017                             	.L73:
 1018                             		.loc 2 328 6 view .LVU409
 1019                             	.LBE316:
 1020                             	.LBE315:
 524:../src/smc_gen/r_drw2d_rx/src/tes/dave_line.c **** 
 525:../src/smc_gen/r_drw2d_rx/src/tes/dave_line.c ****    D2_DLISTWRITEU( D2_CONTROL, control );
 1021                             		.loc 1 525 4 is_stmt 1 view .LVU410
 1022                             	.LBB320:
 1023                             	.LBI320:
 319:../src/smc_gen/r_drw2d_rx/src/tes/dave_intern.h **** {
 1024                             		.loc 2 319 23 view .LVU411
 1025                             	.LBB321:
 321:../src/smc_gen/r_drw2d_rx/src/tes/dave_intern.h ****    handle->dlscratch_pos++;
 1026                             		.loc 2 321 4 view .LVU412
 321:../src/smc_gen/r_drw2d_rx/src/tes/dave_intern.h ****    handle->dlscratch_pos++;
 1027                             		.loc 2 321 28 is_stmt 0 view .LVU413
 1028 0462 ED 75 6E                		mov.L	440[r7], r5
 1029                             	.LVL92:
 322:../src/smc_gen/r_drw2d_rx/src/tes/dave_intern.h **** 
 1030                             		.loc 2 322 4 is_stmt 1 view .LVU414
 322:../src/smc_gen/r_drw2d_rx/src/tes/dave_intern.h **** 
 1031                             		.loc 2 322 25 is_stmt 0 view .LVU415
 1032 0465 71 54 08                		add	#8, r5, r4
 1033 0468 E7 74 6E                		mov.L	r4, 440[r7]
 324:../src/smc_gen/r_drw2d_rx/src/tes/dave_intern.h ****    entry->value = value;
 1034                             		.loc 2 324 4 is_stmt 1 view .LVU416
 324:../src/smc_gen/r_drw2d_rx/src/tes/dave_intern.h ****    entry->value = value;
 1035                             		.loc 2 324 17 is_stmt 0 view .LVU417
 1036 046b F8 56 00                		mov.L	#0, [r5]
 325:../src/smc_gen/r_drw2d_rx/src/tes/dave_intern.h **** 
 1037                             		.loc 2 325 4 is_stmt 1 view .LVU418
 325:../src/smc_gen/r_drw2d_rx/src/tes/dave_intern.h **** 
 1038                             		.loc 2 325 17 is_stmt 0 view .LVU419
 1039 046e E7 5C 01                		mov.L	r12, 4[r5]
 327:../src/smc_gen/r_drw2d_rx/src/tes/dave_intern.h ****    if(handle->dlscratch_cnt <= 0)
 1040                             		.loc 2 327 4 is_stmt 1 view .LVU420
 327:../src/smc_gen/r_drw2d_rx/src/tes/dave_intern.h ****    if(handle->dlscratch_cnt <= 0)
 1041                             		.loc 2 327 12 is_stmt 0 view .LVU421
 1042 0471 ED 75 6F                		mov.L	444[r7], r5
 1043                             	.LVL93:
 327:../src/smc_gen/r_drw2d_rx/src/tes/dave_intern.h ****    if(handle->dlscratch_cnt <= 0)
 1044                             		.loc 2 327 4 view .LVU422
 1045 0474 60 15                   		sub	#1, r5
 1046 0476 E7 75 6F                		mov.L	r5, 444[r7]
 1047                             		.loc 2 328 4 is_stmt 1 view .LVU423
 1048                             		.loc 2 328 6 is_stmt 0 view .LVU424
 1049 0479 61 05                   		cmp	#0, r5
 1050 047b 2A 05 38 4F 06          		ble	.L124
 1051                             	.LVL94:
 1052                             	.L74:
 1053                             		.loc 2 328 6 view .LVU425
 1054                             	.LBE321:
 1055                             	.LBE320:
 526:../src/smc_gen/r_drw2d_rx/src/tes/dave_line.c **** 
 527:../src/smc_gen/r_drw2d_rx/src/tes/dave_line.c ****    /* span delay height is approximated by linewidth */
 528:../src/smc_gen/r_drw2d_rx/src/tes/dave_line.c ****    w = (d2_width)(D2_INT4((wh + ((w + 15) >> 1)) + 15));   /* PRQA S 0502 */ /* $Misra: #PERF_ARITH
 1056                             		.loc 1 528 4 is_stmt 1 view .LVU426
 1057                             		.loc 1 528 19 is_stmt 0 view .LVU427
 1058 0480 DF 86                   		mov.W	r8, r6
 1059 0482 06 89 06 1B             		add	108[r0], r6
 1060 0486 62 F6                   		add	#15, r6
 1061 0488 6A 46                   		shar	#4, r6
 1062                             	.LVL95:
 529:../src/smc_gen/r_drw2d_rx/src/tes/dave_line.c **** 
 530:../src/smc_gen/r_drw2d_rx/src/tes/dave_line.c ****    if(0 != flip)
 1063                             		.loc 1 530 4 is_stmt 1 view .LVU428
 1064                             		.loc 1 530 6 is_stmt 0 view .LVU429
 1065 048a AD 0D                   		mov.L	84[r0], r5
 1066 048c 61 05                   		cmp	#0, r5
 1067 048e 3A 48 06                		beq	.L75
 531:../src/smc_gen/r_drw2d_rx/src/tes/dave_line.c ****    {
 532:../src/smc_gen/r_drw2d_rx/src/tes/dave_line.c ****       d2_startrender_bottom_intern( handle, &bbox, (d2_u32)w );
 1068                             		.loc 1 532 7 is_stmt 1 view .LVU430
 1069 0491 EF 63                   		mov.L	r6, r3
 1070 0493 75 42 10                		mov.L	#16, r2
 1071 0496 4B 02                   		add	r0, r2
 1072 0498 EF 71                   		mov.L	r7, r1
 1073 049a 05 00 00 00             		bsr	_d2_startrender_bottom_intern
 1074                             	.LVL96:
 1075                             	.L76:
 533:../src/smc_gen/r_drw2d_rx/src/tes/dave_line.c ****    }
 534:../src/smc_gen/r_drw2d_rx/src/tes/dave_line.c ****    else
 535:../src/smc_gen/r_drw2d_rx/src/tes/dave_line.c ****    {
 536:../src/smc_gen/r_drw2d_rx/src/tes/dave_line.c ****       d2_startrender_intern( handle, &bbox, (d2_u32)w );
 537:../src/smc_gen/r_drw2d_rx/src/tes/dave_line.c ****    }
 538:../src/smc_gen/r_drw2d_rx/src/tes/dave_line.c **** 
 539:../src/smc_gen/r_drw2d_rx/src/tes/dave_line.c ****    /* include second round end */
 540:../src/smc_gen/r_drw2d_rx/src/tes/dave_line.c ****    if(d2_lc_round == cap)
 1076                             		.loc 1 540 4 view .LVU431
 1077                             		.loc 1 540 6 is_stmt 0 view .LVU432
 1078 049e 61 29                   		cmp	#2, r9
 1079 04a0 3A 46 06                		beq	.L125
 541:../src/smc_gen/r_drw2d_rx/src/tes/dave_line.c ****    {
 542:../src/smc_gen/r_drw2d_rx/src/tes/dave_line.c ****       /* new bbox */
 543:../src/smc_gen/r_drw2d_rx/src/tes/dave_line.c ****       bbox2.xmin = (d2_point) D2_FLOOR4( x2 - er );
 544:../src/smc_gen/r_drw2d_rx/src/tes/dave_line.c ****       bbox2.ymin = (d2_point) D2_FLOOR4( y2 - er );
 545:../src/smc_gen/r_drw2d_rx/src/tes/dave_line.c ****       bbox2.xmax = (d2_point) D2_CEIL4( x2 + er );
 546:../src/smc_gen/r_drw2d_rx/src/tes/dave_line.c ****       bbox2.ymax = (d2_point) D2_CEIL4( y2 + er );
 547:../src/smc_gen/r_drw2d_rx/src/tes/dave_line.c **** 
 548:../src/smc_gen/r_drw2d_rx/src/tes/dave_line.c ****       /* clip endpoint bbox */
 549:../src/smc_gen/r_drw2d_rx/src/tes/dave_line.c ****       if(0 == d2_clipbbox_intern( handle, &bbox2 ))
 550:../src/smc_gen/r_drw2d_rx/src/tes/dave_line.c ****       {
 551:../src/smc_gen/r_drw2d_rx/src/tes/dave_line.c ****          return 1;
 552:../src/smc_gen/r_drw2d_rx/src/tes/dave_line.c ****       }
 553:../src/smc_gen/r_drw2d_rx/src/tes/dave_line.c **** 
 554:../src/smc_gen/r_drw2d_rx/src/tes/dave_line.c ****       /* make relative */
 555:../src/smc_gen/r_drw2d_rx/src/tes/dave_line.c ****       x2 = (d2_point)(x2 - bbox2.xmin);
 556:../src/smc_gen/r_drw2d_rx/src/tes/dave_line.c ****       y2 = (d2_point)(y2 - bbox2.ymin);
 557:../src/smc_gen/r_drw2d_rx/src/tes/dave_line.c **** 
 558:../src/smc_gen/r_drw2d_rx/src/tes/dave_line.c ****       /* circle limiters */
 559:../src/smc_gen/r_drw2d_rx/src/tes/dave_line.c ****       d2_circlesetup_intern(handle, ctx, 0, x2, y2, er, 0, 0, 0);
 560:../src/smc_gen/r_drw2d_rx/src/tes/dave_line.c **** 
 561:../src/smc_gen/r_drw2d_rx/src/tes/dave_line.c ****       /* new control word */
 562:../src/smc_gen/r_drw2d_rx/src/tes/dave_line.c ****       control = 
 563:../src/smc_gen/r_drw2d_rx/src/tes/dave_line.c ****          D2C_LIM1ENABLE              | 
 564:../src/smc_gen/r_drw2d_rx/src/tes/dave_line.c ****          D2C_QUAD1ENABLE             | 
 565:../src/smc_gen/r_drw2d_rx/src/tes/dave_line.c ****          D2C_LIM3ENABLE              | 
 566:../src/smc_gen/r_drw2d_rx/src/tes/dave_line.c ****          (tmask & D2C_LIM1THRESHOLD) | 
 567:../src/smc_gen/r_drw2d_rx/src/tes/dave_line.c ****          D2C_LIM3THRESHOLD           | 
 568:../src/smc_gen/r_drw2d_rx/src/tes/dave_line.c ****          D2C_SPANABORT               ;
 569:../src/smc_gen/r_drw2d_rx/src/tes/dave_line.c **** 
 570:../src/smc_gen/r_drw2d_rx/src/tes/dave_line.c ****       /* restore UV and alpha limiters to fit new bbox */
 571:../src/smc_gen/r_drw2d_rx/src/tes/dave_line.c ****       d2_setuppattern( handle, ctx, &bbox2, 0 );
 572:../src/smc_gen/r_drw2d_rx/src/tes/dave_line.c ****       d2_setuptexture( handle, ctx, &bbox2, 0 );
 573:../src/smc_gen/r_drw2d_rx/src/tes/dave_line.c **** 
 574:../src/smc_gen/r_drw2d_rx/src/tes/dave_line.c ****       if(0 != (ctx->alphamode & (d2_am_gradient1 | d2_am_gradient2)))
 575:../src/smc_gen/r_drw2d_rx/src/tes/dave_line.c ****       {
 576:../src/smc_gen/r_drw2d_rx/src/tes/dave_line.c ****          control = d2_initgradients_intern( handle, ctx, &bbox2, 3, control );
 577:../src/smc_gen/r_drw2d_rx/src/tes/dave_line.c ****       }
 578:../src/smc_gen/r_drw2d_rx/src/tes/dave_line.c **** 
 579:../src/smc_gen/r_drw2d_rx/src/tes/dave_line.c ****       /* restore seperation limiter to fit new bbox */
 580:../src/smc_gen/r_drw2d_rx/src/tes/dave_line.c ****       if(0 != flip)
 581:../src/smc_gen/r_drw2d_rx/src/tes/dave_line.c ****       {
 582:../src/smc_gen/r_drw2d_rx/src/tes/dave_line.c ****          dx = D2_INT4(bbox2.xmin - bbox.xmin);       /* PRQA S 0502 */ /* $Misra: #PERF_ARITHMETIC_
 583:../src/smc_gen/r_drw2d_rx/src/tes/dave_line.c ****          dy = D2_INT4(bbox2.ymin - bbox.ymin) - h;   /* PRQA S 0502 */ /* $Misra: #PERF_ARITHMETIC_
 584:../src/smc_gen/r_drw2d_rx/src/tes/dave_line.c ****          edge[2].yadd = -edge[2].yadd;
 585:../src/smc_gen/r_drw2d_rx/src/tes/dave_line.c ****       }
 586:../src/smc_gen/r_drw2d_rx/src/tes/dave_line.c ****       else
 587:../src/smc_gen/r_drw2d_rx/src/tes/dave_line.c ****       {
 588:../src/smc_gen/r_drw2d_rx/src/tes/dave_line.c ****          dx = D2_INT4(bbox2.xmin - bbox.xmin);       /* PRQA S 0502 */ /* $Misra: #PERF_ARITHMETIC_
 589:../src/smc_gen/r_drw2d_rx/src/tes/dave_line.c ****          dy = D2_INT4(bbox2.ymin - bbox.ymin);       /* PRQA S 0502 */ /* $Misra: #PERF_ARITHMETIC_
 590:../src/smc_gen/r_drw2d_rx/src/tes/dave_line.c ****       }
 591:../src/smc_gen/r_drw2d_rx/src/tes/dave_line.c **** 
 592:../src/smc_gen/r_drw2d_rx/src/tes/dave_line.c ****       /* D2_DLISTWRITES( D2_L3START, -edge[2].start - (dx * edge[2].xadd) - (dy * edge[2].yadd) + D
 593:../src/smc_gen/r_drw2d_rx/src/tes/dave_line.c ****       D2_DLISTWRITES( D2_L3START, 
 594:../src/smc_gen/r_drw2d_rx/src/tes/dave_line.c ****                       (
 595:../src/smc_gen/r_drw2d_rx/src/tes/dave_line.c ****                          (
 596:../src/smc_gen/r_drw2d_rx/src/tes/dave_line.c ****                             (-edge[2].start - (dx * edge[2].xadd))
 597:../src/smc_gen/r_drw2d_rx/src/tes/dave_line.c ****                             - (dy * edge[2].yadd)
 598:../src/smc_gen/r_drw2d_rx/src/tes/dave_line.c ****                           )
 599:../src/smc_gen/r_drw2d_rx/src/tes/dave_line.c ****                          + D2_FIX16(1)              /* PRQA S 4131 */ /* $Misra: #PERF_ARITHMETIC_S
 600:../src/smc_gen/r_drw2d_rx/src/tes/dave_line.c ****                        )
 601:../src/smc_gen/r_drw2d_rx/src/tes/dave_line.c ****                       + D2_EPSILON
 602:../src/smc_gen/r_drw2d_rx/src/tes/dave_line.c ****                       );
 603:../src/smc_gen/r_drw2d_rx/src/tes/dave_line.c ****       D2_DLISTWRITES( D2_L3XADD , -edge[2].xadd );
 604:../src/smc_gen/r_drw2d_rx/src/tes/dave_line.c ****       D2_DLISTWRITES( D2_L3YADD , -edge[2].yadd );
 605:../src/smc_gen/r_drw2d_rx/src/tes/dave_line.c **** 
 606:../src/smc_gen/r_drw2d_rx/src/tes/dave_line.c ****       D2_DLISTWRITEU( D2_CONTROL, control );
 607:../src/smc_gen/r_drw2d_rx/src/tes/dave_line.c **** 
 608:../src/smc_gen/r_drw2d_rx/src/tes/dave_line.c ****       d2_startrender_intern( handle, &bbox2, (d2_u32) (w >> 4) );  /* PRQA S 0502 */ /* $Misra: #PE
 609:../src/smc_gen/r_drw2d_rx/src/tes/dave_line.c ****    }
 610:../src/smc_gen/r_drw2d_rx/src/tes/dave_line.c **** 
 611:../src/smc_gen/r_drw2d_rx/src/tes/dave_line.c ****    return 1;
 1080                             		.loc 1 611 11 view .LVU433
 1081 04a3 66 11                   		mov.L	#1, r1
 1082                             	.LVL97:
 1083                             		.balign 8,3,2
 1084                             	.L1:
 612:../src/smc_gen/r_drw2d_rx/src/tes/dave_line.c **** }
 1085                             		.loc 1 612 1 view .LVU434
 1086 04a5 3F 6D 33                		rtsd	#204, r6-r13
 1087                             	.LVL98:
 1088                             	.L6:
  93:../src/smc_gen/r_drw2d_rx/src/tes/dave_line.c ****       bbox.xmax = (d2_point) D2_CEIL4( x1 + wh );
 1089                             		.loc 1 93 7 is_stmt 1 view .LVU435
  93:../src/smc_gen/r_drw2d_rx/src/tes/dave_line.c ****       bbox.xmax = (d2_point) D2_CEIL4( x1 + wh );
 1090                             		.loc 1 93 30 is_stmt 0 view .LVU436
 1091 04a8 DD 07 2C                		mov.W	88[r0], r7
 1092 04ab 43 87                   		sub	r8, r7
  93:../src/smc_gen/r_drw2d_rx/src/tes/dave_line.c ****       bbox.xmax = (d2_point) D2_CEIL4( x1 + wh );
 1093                             		.loc 1 93 19 view .LVU437
 1094 04ad 75 27 F0                		and #-16, r7
  93:../src/smc_gen/r_drw2d_rx/src/tes/dave_line.c ****       bbox.xmax = (d2_point) D2_CEIL4( x1 + wh );
 1095                             		.loc 1 93 17 view .LVU438
 1096 04b0 92 07                   		mov.W	r7, 16[r0]
  94:../src/smc_gen/r_drw2d_rx/src/tes/dave_line.c ****    }
 1097                             		.loc 1 94 7 is_stmt 1 view .LVU439
  94:../src/smc_gen/r_drw2d_rx/src/tes/dave_line.c ****    }
 1098                             		.loc 1 94 30 is_stmt 0 view .LVU440
 1099 04b2 FF 27 83                		add	r8, r3, r7
 1100 04b5 62 F7                   		add	#15, r7
  94:../src/smc_gen/r_drw2d_rx/src/tes/dave_line.c ****    }
 1101                             		.loc 1 94 19 view .LVU441
 1102 04b7 75 27 F0                		and #-16, r7
  94:../src/smc_gen/r_drw2d_rx/src/tes/dave_line.c ****    }
 1103                             		.loc 1 94 17 view .LVU442
 1104 04ba 92 87                   		mov.W	r7, 20[r0]
 1105 04bc 38 04 FC                		bra	.L7
 1106                             	.L8:
 104:../src/smc_gen/r_drw2d_rx/src/tes/dave_line.c ****       bbox.ymax = (d2_point) D2_CEIL4( y1 + wh );
 1107                             		.loc 1 104 7 is_stmt 1 view .LVU443
 104:../src/smc_gen/r_drw2d_rx/src/tes/dave_line.c ****       bbox.ymax = (d2_point) D2_CEIL4( y1 + wh );
 1108                             		.loc 1 104 30 is_stmt 0 view .LVU444
 1109 04bf DD 07 2E                		mov.W	92[r0], r7
 1110 04c2 43 87                   		sub	r8, r7
 104:../src/smc_gen/r_drw2d_rx/src/tes/dave_line.c ****       bbox.ymax = (d2_point) D2_CEIL4( y1 + wh );
 1111                             		.loc 1 104 19 view .LVU445
 1112 04c4 75 27 F0                		and #-16, r7
 104:../src/smc_gen/r_drw2d_rx/src/tes/dave_line.c ****       bbox.ymax = (d2_point) D2_CEIL4( y1 + wh );
 1113                             		.loc 1 104 17 view .LVU446
 1114 04c7 92 0F                   		mov.W	r7, 18[r0]
 105:../src/smc_gen/r_drw2d_rx/src/tes/dave_line.c ****    }
 1115                             		.loc 1 105 7 is_stmt 1 view .LVU447
 105:../src/smc_gen/r_drw2d_rx/src/tes/dave_line.c ****    }
 1116                             		.loc 1 105 30 is_stmt 0 view .LVU448
 1117 04c9 FF 27 84                		add	r8, r4, r7
 1118 04cc 62 F7                   		add	#15, r7
 105:../src/smc_gen/r_drw2d_rx/src/tes/dave_line.c ****    }
 1119                             		.loc 1 105 19 view .LVU449
 1120 04ce 75 27 F0                		and #-16, r7
 105:../src/smc_gen/r_drw2d_rx/src/tes/dave_line.c ****    }
 1121                             		.loc 1 105 17 view .LVU450
 1122 04d1 92 8F                   		mov.W	r7, 22[r0]
 1123 04d3 38 08 FC                		bra	.L9
 1124                             	.LVL99:
 1125                             	.L102:
 123:../src/smc_gen/r_drw2d_rx/src/tes/dave_line.c ****       }
 1126                             		.loc 1 123 14 view .LVU451
 1127 04d6 66 19                   		mov.L	#1, r9
 1128                             	.LVL100:
 123:../src/smc_gen/r_drw2d_rx/src/tes/dave_line.c ****       }
 1129                             		.loc 1 123 14 view .LVU452
 1130 04d8 38 42 FC                		bra	.L10
 1131                             	.LVL101:
 1132                             	.L103:
 130:../src/smc_gen/r_drw2d_rx/src/tes/dave_line.c ****    }
 1133                             		.loc 1 130 11 view .LVU453
 1134 04db 66 09                   		mov.L	#0, r9
 1135                             	.LVL102:
 130:../src/smc_gen/r_drw2d_rx/src/tes/dave_line.c ****    }
 1136                             		.loc 1 130 11 view .LVU454
 1137 04dd 38 46 FC                		bra	.L11
 1138                             	.LVL103:
 1139                             	.L104:
 137:../src/smc_gen/r_drw2d_rx/src/tes/dave_line.c ****       w16 = (w * (d2_s32)ctx->invblur) >> 4;         /* PRQA S 0502 */ /* $Misra: #PERF_ARITHMETIC_
 1140                             		.loc 1 137 7 is_stmt 1 view .LVU455
 1141 04e0 71 05 50                		add	#0x50, r0, r5
 1142 04e3 A0 8D                   		mov.L	r5, 12[r0]
 1143 04e5 E7 0A 02                		mov.L	r10, 8[r0]
 1144 04e8 E7 0B 01                		mov.L	r11, 4[r0]
 1145 04eb E3 06                   		mov.L	r6, [r0]
 1146 04ed EF C4                   		mov.L	r12, r4
 1147 04ef ED 05 20                		mov.L	128[r0], r5
 1148 04f2 DF 53                   		mov.W	r5, r3
 1149                             	.LVL104:
 137:../src/smc_gen/r_drw2d_rx/src/tes/dave_line.c ****       w16 = (w * (d2_s32)ctx->invblur) >> 4;         /* PRQA S 0502 */ /* $Misra: #PERF_ARITHMETIC_
 1150                             		.loc 1 137 7 is_stmt 0 view .LVU456
 1151 04f4 AF 89                   		mov.L	124[r0], r1
 1152                             	.LVL105:
 137:../src/smc_gen/r_drw2d_rx/src/tes/dave_line.c ****       w16 = (w * (d2_s32)ctx->invblur) >> 4;         /* PRQA S 0502 */ /* $Misra: #PERF_ARITHMETIC_
 1153                             		.loc 1 137 7 view .LVU457
 1154 04f6 DF 12                   		mov.W	r1, r2
 1155 04f8 71 01 20                		add	#32, r0, r1
 1156 04fb 05 00 00 00             		bsr	_d2_lineedge_setup3blur_intern
 1157                             	.LVL106:
 138:../src/smc_gen/r_drw2d_rx/src/tes/dave_line.c ****       edge[0].start += w16 >> 1;             /* PRQA S 0502 */ /* $Misra: #PERF_ARITHMETIC_SHIFT_RI
 1158                             		.loc 1 138 7 is_stmt 1 view .LVU458
 138:../src/smc_gen/r_drw2d_rx/src/tes/dave_line.c ****       edge[0].start += w16 >> 1;             /* PRQA S 0502 */ /* $Misra: #PERF_ARITHMETIC_SHIFT_RI
 1159                             		.loc 1 138 29 is_stmt 0 view .LVU459
 1160 04ff ED A5 44                		mov.L	272[r10], r5
 138:../src/smc_gen/r_drw2d_rx/src/tes/dave_line.c ****       edge[0].start += w16 >> 1;             /* PRQA S 0502 */ /* $Misra: #PERF_ARITHMETIC_SHIFT_RI
 1161                             		.loc 1 138 16 view .LVU460
 1162 0502 FF 34 5D                		mul	r5, r13, r4
 138:../src/smc_gen/r_drw2d_rx/src/tes/dave_line.c ****       edge[0].start += w16 >> 1;             /* PRQA S 0502 */ /* $Misra: #PERF_ARITHMETIC_SHIFT_RI
 1163                             		.loc 1 138 11 view .LVU461
 1164 0505 FD A4 42                		shar	#4, r4, r2
 1165                             	.LVL107:
 139:../src/smc_gen/r_drw2d_rx/src/tes/dave_line.c **** 
 1166                             		.loc 1 139 7 is_stmt 1 view .LVU462
 139:../src/smc_gen/r_drw2d_rx/src/tes/dave_line.c **** 
 1167                             		.loc 1 139 28 is_stmt 0 view .LVU463
 1168 0508 6A 54                   		shar	#5, r4
 139:../src/smc_gen/r_drw2d_rx/src/tes/dave_line.c **** 
 1169                             		.loc 1 139 21 view .LVU464
 1170 050a AA 03                   		mov.L	32[r0], r3
 1171 050c 4B 43                   		add	r4, r3
 1172 050e A2 03                   		mov.L	r3, 32[r0]
 142:../src/smc_gen/r_drw2d_rx/src/tes/dave_line.c ****       {
 1173                             		.loc 1 142 7 is_stmt 1 view .LVU465
 142:../src/smc_gen/r_drw2d_rx/src/tes/dave_line.c ****       {
 1174                             		.loc 1 142 9 is_stmt 0 view .LVU466
 1175 0510 61 19                   		cmp	#1, r9
 1176 0512 20 10                   		beq	.L126
 1177                             	.L13:
 155:../src/smc_gen/r_drw2d_rx/src/tes/dave_line.c ****    }
 1178                             		.loc 1 155 7 is_stmt 1 view .LVU467
 155:../src/smc_gen/r_drw2d_rx/src/tes/dave_line.c ****    }
 1179                             		.loc 1 155 36 is_stmt 0 view .LVU468
 1180 0514 68 15                   		shlr	#1, r5
 155:../src/smc_gen/r_drw2d_rx/src/tes/dave_line.c ****    }
 1181                             		.loc 1 155 42 view .LVU469
 1182 0516 73 55 00 00 FF          		add	#-65536, r5
 155:../src/smc_gen/r_drw2d_rx/src/tes/dave_line.c ****    }
 1183                             		.loc 1 155 11 view .LVU470
 1184 051b 4B 52                   		add	r5, r2
 1185                             	.LVL108:
 155:../src/smc_gen/r_drw2d_rx/src/tes/dave_line.c ****    }
 1186                             		.loc 1 155 11 view .LVU471
 1187 051d A6 0A                   		mov.L	r2, 100[r0]
 1188                             	.LVL109:
 155:../src/smc_gen/r_drw2d_rx/src/tes/dave_line.c ****    }
 1189                             		.loc 1 155 11 view .LVU472
 1190 051f 38 49 FC                		bra	.L15
 1191                             	.L126:
 144:../src/smc_gen/r_drw2d_rx/src/tes/dave_line.c ****          {
 1192                             		.loc 1 144 10 is_stmt 1 view .LVU473
 144:../src/smc_gen/r_drw2d_rx/src/tes/dave_line.c ****          {
 1193                             		.loc 1 144 12 is_stmt 0 view .LVU474
 1194 0522 FD 74 CB 01             		tst	#1, r11
 1195 0526 1F                      		bne	.L14
 146:../src/smc_gen/r_drw2d_rx/src/tes/dave_line.c ****          }
 1196                             		.loc 1 146 13 is_stmt 1 view .LVU475
 146:../src/smc_gen/r_drw2d_rx/src/tes/dave_line.c ****          }
 1197                             		.loc 1 146 27 is_stmt 0 view .LVU476
 1198 0527 AA 8B                   		mov.L	44[r0], r3
 1199 0529 4B 43                   		add	r4, r3
 1200 052b A2 8B                   		mov.L	r3, 44[r0]
 1201                             	.L14:
 149:../src/smc_gen/r_drw2d_rx/src/tes/dave_line.c ****          {
 1202                             		.loc 1 149 10 is_stmt 1 view .LVU477
 149:../src/smc_gen/r_drw2d_rx/src/tes/dave_line.c ****          {
 1203                             		.loc 1 149 12 is_stmt 0 view .LVU478
 1204 052d FD 74 CB 02             		tst	#2, r11
 1205 0531 21 E3                   		bne	.L13
 151:../src/smc_gen/r_drw2d_rx/src/tes/dave_line.c ****          }
 1206                             		.loc 1 151 13 is_stmt 1 view .LVU479
 151:../src/smc_gen/r_drw2d_rx/src/tes/dave_line.c ****          }
 1207                             		.loc 1 151 27 is_stmt 0 view .LVU480
 1208 0533 06 89 04 0E             		add	56[r0], r4
 1209 0537 A3 84                   		mov.L	r4, 56[r0]
 1210 0539 2E DB                   		bra	.L13
 1211                             	.LVL110:
 1212                             	.L16:
 166:../src/smc_gen/r_drw2d_rx/src/tes/dave_line.c ****       }
 1213                             		.loc 1 166 10 is_stmt 1 view .LVU481
 1214 053b 71 05 50                		add	#0x50, r0, r5
 1215 053e A0 85                   		mov.L	r5, 8[r0]
 1216 0540 E7 0B 01                		mov.L	r11, 4[r0]
 1217 0543 E3 06                   		mov.L	r6, [r0]
 1218 0545 EF C4                   		mov.L	r12, r4
 1219 0547 ED 05 20                		mov.L	128[r0], r5
 1220 054a DF 53                   		mov.W	r5, r3
 1221                             	.LVL111:
 166:../src/smc_gen/r_drw2d_rx/src/tes/dave_line.c ****       }
 1222                             		.loc 1 166 10 is_stmt 0 view .LVU482
 1223 054c AF 89                   		mov.L	124[r0], r1
 1224                             	.LVL112:
 166:../src/smc_gen/r_drw2d_rx/src/tes/dave_line.c ****       }
 1225                             		.loc 1 166 10 view .LVU483
 1226 054e DF 12                   		mov.W	r1, r2
 1227 0550 71 01 20                		add	#32, r0, r1
 1228 0553 05 00 00 00             		bsr	_d2_lineedge_setup3sqrt_intern
 1229                             	.LVL113:
 1230 0557 38 FD FB                		bra	.L17
 1231                             	.LVL114:
 1232                             	.L105:
 175:../src/smc_gen/r_drw2d_rx/src/tes/dave_line.c ****          {
 1233                             		.loc 1 175 10 is_stmt 1 view .LVU484
 175:../src/smc_gen/r_drw2d_rx/src/tes/dave_line.c ****          {
 1234                             		.loc 1 175 12 is_stmt 0 view .LVU485
 1235 055a FD 74 CB 01             		tst	#1, r11
 1236 055e 21 11                   		bne	.L18
 177:../src/smc_gen/r_drw2d_rx/src/tes/dave_line.c ****          }
 1237                             		.loc 1 177 13 is_stmt 1 view .LVU486
 177:../src/smc_gen/r_drw2d_rx/src/tes/dave_line.c ****          }
 1238                             		.loc 1 177 35 is_stmt 0 view .LVU487
 1239 0560 EF 35                   		mov.L	r3, r5
 1240 0562 73 55 00 00 FF          		add	#-65536, r5
 177:../src/smc_gen/r_drw2d_rx/src/tes/dave_line.c ****          }
 1241                             		.loc 1 177 50 view .LVU488
 1242 0567 6A 15                   		shar	#1, r5
 177:../src/smc_gen/r_drw2d_rx/src/tes/dave_line.c ****          }
 1243                             		.loc 1 177 27 view .LVU489
 1244 0569 06 89 05 0B             		add	44[r0], r5
 1245 056d A2 8D                   		mov.L	r5, 44[r0]
 1246                             	.L18:
 180:../src/smc_gen/r_drw2d_rx/src/tes/dave_line.c ****          {
 1247                             		.loc 1 180 10 is_stmt 1 view .LVU490
 180:../src/smc_gen/r_drw2d_rx/src/tes/dave_line.c ****          {
 1248                             		.loc 1 180 12 is_stmt 0 view .LVU491
 1249 056f FD 74 CB 02             		tst	#2, r11
 1250 0573 3B F5 FB                		bne	.L15
 182:../src/smc_gen/r_drw2d_rx/src/tes/dave_line.c ****          }
 1251                             		.loc 1 182 13 is_stmt 1 view .LVU492
 182:../src/smc_gen/r_drw2d_rx/src/tes/dave_line.c ****          }
 1252                             		.loc 1 182 35 is_stmt 0 view .LVU493
 1253 0576 AE 0D                   		mov.L	100[r0], r5
 1254 0578 73 55 00 00 FF          		add	#-65536, r5
 182:../src/smc_gen/r_drw2d_rx/src/tes/dave_line.c ****          }
 1255                             		.loc 1 182 50 view .LVU494
 1256 057d 6A 15                   		shar	#1, r5
 182:../src/smc_gen/r_drw2d_rx/src/tes/dave_line.c ****          }
 1257                             		.loc 1 182 27 view .LVU495
 1258 057f 06 89 05 0E             		add	56[r0], r5
 1259 0583 A3 85                   		mov.L	r5, 56[r0]
 1260 0585 38 E3 FB                		bra	.L15
 1261                             	.LVL115:
 1262                             	.L106:
 192:../src/smc_gen/r_drw2d_rx/src/tes/dave_line.c ****    {
 1263                             		.loc 1 192 44 discriminator 4 view .LVU496
 1264 0588 61 0C                   		cmp	#0, r12
 1265 058a 2B 08                   		ble	.L127
 194:../src/smc_gen/r_drw2d_rx/src/tes/dave_line.c ****    }
 1266                             		.loc 1 194 12 view .LVU497
 1267 058c 3E 85 01                		mov.L	#1, 84[r0]
 1268 058f 38 FA FB                		bra	.L20
 1269                             	.L127:
 198:../src/smc_gen/r_drw2d_rx/src/tes/dave_line.c ****    }
 1270                             		.loc 1 198 12 view .LVU498
 1271 0592 3E 85 00                		mov.L	#0, 84[r0]
 1272 0595 38 F4 FB                		bra	.L20
 1273                             	.L87:
 194:../src/smc_gen/r_drw2d_rx/src/tes/dave_line.c ****    }
 1274                             		.loc 1 194 12 view .LVU499
 1275 0598 3E 85 01                		mov.L	#1, 84[r0]
 1276 059b 38 EE FB                		bra	.L20
 1277                             	.LVL116:
 1278                             	.L90:
 1279                             	.LBB325:
 221:../src/smc_gen/r_drw2d_rx/src/tes/dave_line.c ****       }
 1280                             		.loc 1 221 15 view .LVU500
 1281 059e 66 54                   		mov.L	#5, r4
 1282 05a0 38 04 FC                		bra	.L22
 1283                             	.LVL117:
 1284                             	.L25:
 221:../src/smc_gen/r_drw2d_rx/src/tes/dave_line.c ****       }
 1285                             		.loc 1 221 15 view .LVU501
 1286                             	.LBE325:
 1287                             	.LBB326:
 256:../src/smc_gen/r_drw2d_rx/src/tes/dave_line.c ****          grad->yadd = (edge[1].yadd << 4) / ctx->patscale;   /* PRQA S 4131 */ /* $Misra: #PERF_ARI
 1288                             		.loc 1 256 10 is_stmt 1 view .LVU502
 256:../src/smc_gen/r_drw2d_rx/src/tes/dave_line.c ****          grad->yadd = (edge[1].yadd << 4) / ctx->patscale;   /* PRQA S 4131 */ /* $Misra: #PERF_ARI
 1289                             		.loc 1 256 31 is_stmt 0 view .LVU503
 1290 05a3 AB 04                   		mov.L	48[r0], r4
 256:../src/smc_gen/r_drw2d_rx/src/tes/dave_line.c ****          grad->yadd = (edge[1].yadd << 4) / ctx->patscale;   /* PRQA S 4131 */ /* $Misra: #PERF_ARI
 1291                             		.loc 1 256 37 view .LVU504
 1292 05a5 6C 44                   		shll	#4, r4
 256:../src/smc_gen/r_drw2d_rx/src/tes/dave_line.c ****          grad->yadd = (edge[1].yadd << 4) / ctx->patscale;   /* PRQA S 4131 */ /* $Misra: #PERF_ARI
 1293                             		.loc 1 256 48 view .LVU505
 1294 05a7 ED A3 34                		mov.L	208[r10], r3
 256:../src/smc_gen/r_drw2d_rx/src/tes/dave_line.c ****          grad->yadd = (edge[1].yadd << 4) / ctx->patscale;   /* PRQA S 4131 */ /* $Misra: #PERF_ARI
 1295                             		.loc 1 256 43 view .LVU506
 1296 05aa FC 23 34                		div	r3, r4
 256:../src/smc_gen/r_drw2d_rx/src/tes/dave_line.c ****          grad->yadd = (edge[1].yadd << 4) / ctx->patscale;   /* PRQA S 4131 */ /* $Misra: #PERF_ARI
 1297                             		.loc 1 256 21 view .LVU507
 1298 05ad E7 A4 20                		mov.L	r4, 128[r10]
 257:../src/smc_gen/r_drw2d_rx/src/tes/dave_line.c ****       }
 1299                             		.loc 1 257 10 is_stmt 1 view .LVU508
 257:../src/smc_gen/r_drw2d_rx/src/tes/dave_line.c ****       }
 1300                             		.loc 1 257 31 is_stmt 0 view .LVU509
 1301 05b0 AB 0C                   		mov.L	52[r0], r4
 257:../src/smc_gen/r_drw2d_rx/src/tes/dave_line.c ****       }
 1302                             		.loc 1 257 37 view .LVU510
 1303 05b2 6C 44                   		shll	#4, r4
 257:../src/smc_gen/r_drw2d_rx/src/tes/dave_line.c ****       }
 1304                             		.loc 1 257 43 view .LVU511
 1305 05b4 FC 23 34                		div	r3, r4
 257:../src/smc_gen/r_drw2d_rx/src/tes/dave_line.c ****       }
 1306                             		.loc 1 257 21 view .LVU512
 1307 05b7 E7 A4 21                		mov.L	r4, 132[r10]
 1308 05ba 38 49 FC                		bra	.L26
 1309                             	.LVL118:
 1310                             	.L107:
 257:../src/smc_gen/r_drw2d_rx/src/tes/dave_line.c ****       }
 1311                             		.loc 1 257 21 view .LVU513
 1312                             	.LBE326:
 1313                             	.LBB327:
 275:../src/smc_gen/r_drw2d_rx/src/tes/dave_line.c **** 
 1314                             		.loc 1 275 7 is_stmt 1 view .LVU514
 278:../src/smc_gen/r_drw2d_rx/src/tes/dave_line.c **** 
 1315                             		.loc 1 278 7 view .LVU515
 278:../src/smc_gen/r_drw2d_rx/src/tes/dave_line.c **** 
 1316                             		.loc 1 278 26 is_stmt 0 view .LVU516
 1317 05bd 71 DD 10                		add	#16, r13
 278:../src/smc_gen/r_drw2d_rx/src/tes/dave_line.c **** 
 1318                             		.loc 1 278 40 view .LVU517
 1319 05c0 6A 1D                   		shar	#1, r13
 278:../src/smc_gen/r_drw2d_rx/src/tes/dave_line.c **** 
 1320                             		.loc 1 278 10 view .LVU518
 1321 05c2 D7 0D 48                		mov.W	r13, 144[r0]
 1322                             	.LVL119:
 280:../src/smc_gen/r_drw2d_rx/src/tes/dave_line.c ****       {
 1323                             		.loc 1 280 7 is_stmt 1 view .LVU519
 280:../src/smc_gen/r_drw2d_rx/src/tes/dave_line.c ****       {
 1324                             		.loc 1 280 22 is_stmt 0 view .LVU520
 1325 05c5 66 15                   		mov.L	#1, r5
 1326 05c7 53 B5                   		and	r11, r5
 280:../src/smc_gen/r_drw2d_rx/src/tes/dave_line.c ****       {
 1327                             		.loc 1 280 9 view .LVU521
 1328 05c9 3A 9B 00                		beq	.L28
 283:../src/smc_gen/r_drw2d_rx/src/tes/dave_line.c ****          {
 1329                             		.loc 1 283 10 is_stmt 1 view .LVU522
 283:../src/smc_gen/r_drw2d_rx/src/tes/dave_line.c ****          {
 1330                             		.loc 1 283 12 is_stmt 0 view .LVU523
 1331 05cc AD 0C                   		mov.L	84[r0], r4
 1332 05ce 61 04                   		cmp	#0, r4
 1333 05d0 20 7C                   		beq	.L29
 285:../src/smc_gen/r_drw2d_rx/src/tes/dave_line.c ****             y = (d2_point)(bbox.ymax - y2);
 1334                             		.loc 1 285 13 is_stmt 1 view .LVU524
 285:../src/smc_gen/r_drw2d_rx/src/tes/dave_line.c ****             y = (d2_point)(bbox.ymax - y2);
 1335                             		.loc 1 285 37 is_stmt 0 view .LVU525
 1336 05d2 9A 04                   		mov.W	16[r0], r4
 285:../src/smc_gen/r_drw2d_rx/src/tes/dave_line.c ****             y = (d2_point)(bbox.ymax - y2);
 1337                             		.loc 1 285 15 view .LVU526
 1338 05d4 DD 05 2C                		mov.W	88[r0], r5
 1339 05d7 FF 04 45                		sub	r4, r5, r4
 1340                             	.LVL120:
 286:../src/smc_gen/r_drw2d_rx/src/tes/dave_line.c ****          }
 1341                             		.loc 1 286 13 is_stmt 1 view .LVU527
 286:../src/smc_gen/r_drw2d_rx/src/tes/dave_line.c ****          }
 1342                             		.loc 1 286 32 is_stmt 0 view .LVU528
 1343 05da DD 0F 0B                		mov.W	22[r0], r15
 286:../src/smc_gen/r_drw2d_rx/src/tes/dave_line.c ****          }
 1344                             		.loc 1 286 15 view .LVU529
 1345 05dd DD 01 2E                		mov.W	92[r0], r1
 1346 05e0 43 1F                   		sub	r1, r15
 1347                             	.LVL121:
 296:../src/smc_gen/r_drw2d_rx/src/tes/dave_line.c ****       }
 1348                             		.loc 1 296 14 view .LVU530
 1349 05e2 E5 00 15 18             		mov.L	84[r0], 96[r0]
 295:../src/smc_gen/r_drw2d_rx/src/tes/dave_line.c ****          swt = 1;
 1350                             		.loc 1 295 14 view .LVU531
 1351 05e6 66 09                   		mov.L	#0, r9
 1352                             	.LVL122:
 1353                             		.balign 8,3,1
 1354                             	.L30:
 326:../src/smc_gen/r_drw2d_rx/src/tes/dave_line.c ****           ((y + (er*2)) > 0) &&
 1355                             		.loc 1 326 7 is_stmt 1 view .LVU532
 326:../src/smc_gen/r_drw2d_rx/src/tes/dave_line.c ****           ((y + (er*2)) > 0) &&
 1356                             		.loc 1 326 15 is_stmt 0 view .LVU533
 1357 05e8 DF 43                   		mov.W	r4, r3
 326:../src/smc_gen/r_drw2d_rx/src/tes/dave_line.c ****           ((y + (er*2)) > 0) &&
 1358                             		.loc 1 326 20 view .LVU534
 1359 05ea FD C1 D5                		shll	#1, r13, r5
 326:../src/smc_gen/r_drw2d_rx/src/tes/dave_line.c ****           ((y + (er*2)) > 0) &&
 1360                             		.loc 1 326 15 view .LVU535
 1361 05ed FF 22 53                		add	r5, r3, r2
 326:../src/smc_gen/r_drw2d_rx/src/tes/dave_line.c ****           ((y + (er*2)) > 0) &&
 1362                             		.loc 1 326 9 view .LVU536
 1363 05f0 61 02                   		cmp	#0, r2
 1364 05f2 2A 05 38 5C FC          		ble	.L27
 327:../src/smc_gen/r_drw2d_rx/src/tes/dave_line.c ****           ((x - (er*2)) < (bbox.xmax - bbox.xmin)) &&
 1365                             		.loc 1 327 15 discriminator 1 view .LVU537
 1366 05f7 DF F2                   		mov.W	r15, r2
 1367 05f9 FF 21 25                		add	r2, r5, r1
 326:../src/smc_gen/r_drw2d_rx/src/tes/dave_line.c ****           ((y + (er*2)) > 0) &&
 1368                             		.loc 1 326 30 discriminator 1 view .LVU538
 1369 05fc 61 01                   		cmp	#0, r1
 1370 05fe 2A 05 38 50 FC          		ble	.L27
 328:../src/smc_gen/r_drw2d_rx/src/tes/dave_line.c ****           ((y - (er*2)) < (bbox.ymax - bbox.ymin))
 1371                             		.loc 1 328 15 view .LVU539
 1372 0603 43 53                   		sub	r5, r3
 328:../src/smc_gen/r_drw2d_rx/src/tes/dave_line.c ****           ((y - (er*2)) < (bbox.ymax - bbox.ymin))
 1373                             		.loc 1 328 32 view .LVU540
 1374 0605 9A 81                   		mov.W	20[r0], r1
 328:../src/smc_gen/r_drw2d_rx/src/tes/dave_line.c ****           ((y - (er*2)) < (bbox.ymax - bbox.ymin))
 1375                             		.loc 1 328 44 view .LVU541
 1376 0607 DD 0E 08                		mov.W	16[r0], r14
 328:../src/smc_gen/r_drw2d_rx/src/tes/dave_line.c ****           ((y - (er*2)) < (bbox.ymax - bbox.ymin))
 1377                             		.loc 1 328 38 view .LVU542
 1378 060a 43 E1                   		sub	r14, r1
 327:../src/smc_gen/r_drw2d_rx/src/tes/dave_line.c ****           ((x - (er*2)) < (bbox.xmax - bbox.xmin)) &&
 1379                             		.loc 1 327 30 view .LVU543
 1380 060c 47 13                   		cmp	r1, r3
 1381 060e 29 05 38 40 FC          		bge	.L27
 329:../src/smc_gen/r_drw2d_rx/src/tes/dave_line.c ****           )
 1382                             		.loc 1 329 15 view .LVU544
 1383 0613 FF 05 52                		sub	r5, r2, r5
 329:../src/smc_gen/r_drw2d_rx/src/tes/dave_line.c ****           )
 1384                             		.loc 1 329 32 view .LVU545
 1385 0616 9A 8B                   		mov.W	22[r0], r3
 329:../src/smc_gen/r_drw2d_rx/src/tes/dave_line.c ****           )
 1386                             		.loc 1 329 38 view .LVU546
 1387 0618 06 41 03 09             		sub	18[r0].W, r3
 328:../src/smc_gen/r_drw2d_rx/src/tes/dave_line.c ****           ((y - (er*2)) < (bbox.ymax - bbox.ymin))
 1388                             		.loc 1 328 52 view .LVU547
 1389 061c 47 35                   		cmp	r3, r5
 1390 061e 29 05 38 30 FC          		bge	.L27
 333:../src/smc_gen/r_drw2d_rx/src/tes/dave_line.c **** 
 1391                             		.loc 1 333 10 is_stmt 1 view .LVU548
 1392 0623 3E 03 00                		mov.L	#0, 12[r0]
 1393 0626 3E 02 00                		mov.L	#0, 8[r0]
 1394 0629 3E 01 00                		mov.L	#0, 4[r0]
 1395 062c D7 0D 01                		mov.W	r13, 2[r0]
 1396 062f D3 0F                   		mov.W	r15, [r0]
 1397 0631 66 23                   		mov.L	#2, r3
 1398 0633 EF A2                   		mov.L	r10, r2
 1399 0635 EF 71                   		mov.L	r7, r1
 1400 0637 05 00 00 00             		bsr	_d2_circlesetup_intern
 1401                             	.LVL123:
 336:../src/smc_gen/r_drw2d_rx/src/tes/dave_line.c ****          /* update cache for circular rendering */
 1402                             		.loc 1 336 10 view .LVU549
 336:../src/smc_gen/r_drw2d_rx/src/tes/dave_line.c ****          /* update cache for circular rendering */
 1403                             		.loc 1 336 18 is_stmt 0 view .LVU550
 1404 063b ED 05 21                		mov.L	132[r0], r5
 1405 063e 76 25 00 08             		and #0x800, r5
 1406 0642 57 5C                   		or	r5, r12
 1407                             	.LVL124:
 336:../src/smc_gen/r_drw2d_rx/src/tes/dave_line.c ****          /* update cache for circular rendering */
 1408                             		.loc 1 336 18 view .LVU551
 1409 0644 77 3C 84 00 10          		or	#0x100084, r12
 1410                             	.LVL125:
 336:../src/smc_gen/r_drw2d_rx/src/tes/dave_line.c ****          /* update cache for circular rendering */
 1411                             		.loc 1 336 18 view .LVU552
 1412 0649 38 07 FC                		bra	.L27
 1413                             	.LVL126:
 1414                             	.L29:
 290:../src/smc_gen/r_drw2d_rx/src/tes/dave_line.c ****             y = (d2_point)(y2 - bbox.ymin);
 1415                             		.loc 1 290 13 is_stmt 1 view .LVU553
 290:../src/smc_gen/r_drw2d_rx/src/tes/dave_line.c ****             y = (d2_point)(y2 - bbox.ymin);
 1416                             		.loc 1 290 37 is_stmt 0 view .LVU554
 1417 064c 9A 04                   		mov.W	16[r0], r4
 290:../src/smc_gen/r_drw2d_rx/src/tes/dave_line.c ****             y = (d2_point)(y2 - bbox.ymin);
 1418                             		.loc 1 290 15 view .LVU555
 1419 064e DD 03 2C                		mov.W	88[r0], r3
 1420 0651 FF 04 43                		sub	r4, r3, r4
 1421                             	.LVL127:
 291:../src/smc_gen/r_drw2d_rx/src/tes/dave_line.c ****          }
 1422                             		.loc 1 291 13 is_stmt 1 view .LVU556
 291:../src/smc_gen/r_drw2d_rx/src/tes/dave_line.c ****          }
 1423                             		.loc 1 291 37 is_stmt 0 view .LVU557
 1424 0654 DD 0F 09                		mov.W	18[r0], r15
 291:../src/smc_gen/r_drw2d_rx/src/tes/dave_line.c ****          }
 1425                             		.loc 1 291 15 view .LVU558
 1426 0657 DD 05 2E                		mov.W	92[r0], r5
 1427 065a FF 0F F5                		sub	r15, r5, r15
 1428                             	.LVL128:
 295:../src/smc_gen/r_drw2d_rx/src/tes/dave_line.c ****          swt = 1;
 1429                             		.loc 1 295 14 view .LVU559
 1430 065d 66 09                   		mov.L	#0, r9
 1431                             	.LVL129:
 296:../src/smc_gen/r_drw2d_rx/src/tes/dave_line.c ****       }
 1432                             		.loc 1 296 14 view .LVU560
 1433 065f 3E 88 01                		mov.L	#1, 96[r0]
 1434 0662 2E 86                   		bra	.L30
 1435                             	.LVL130:
 1436                             	.L28:
 301:../src/smc_gen/r_drw2d_rx/src/tes/dave_line.c ****          {
 1437                             		.loc 1 301 10 is_stmt 1 view .LVU561
 301:../src/smc_gen/r_drw2d_rx/src/tes/dave_line.c ****          {
 1438                             		.loc 1 301 12 is_stmt 0 view .LVU562
 1439 0664 AD 09                   		mov.L	84[r0], r1
 1440 0666 61 01                   		cmp	#0, r1
 1441 0668 20 26                   		beq	.L94
 303:../src/smc_gen/r_drw2d_rx/src/tes/dave_line.c ****             y = (d2_point)((bbox.ymax - bbox.ymin) - y1);
 1442                             		.loc 1 303 13 is_stmt 1 view .LVU563
 1443                             	.LVL131:
 304:../src/smc_gen/r_drw2d_rx/src/tes/dave_line.c ****          }
 1444                             		.loc 1 304 13 view .LVU564
 304:../src/smc_gen/r_drw2d_rx/src/tes/dave_line.c ****          }
 1445                             		.loc 1 304 33 is_stmt 0 view .LVU565
 1446 066a DD 0F 0B                		mov.W	22[r0], r15
 304:../src/smc_gen/r_drw2d_rx/src/tes/dave_line.c ****          }
 1447                             		.loc 1 304 45 view .LVU566
 1448 066d 9A 0C                   		mov.W	18[r0], r4
 304:../src/smc_gen/r_drw2d_rx/src/tes/dave_line.c ****          }
 1449                             		.loc 1 304 39 view .LVU567
 1450 066f FF 04 4F                		sub	r4, r15, r4
 304:../src/smc_gen/r_drw2d_rx/src/tes/dave_line.c ****          }
 1451                             		.loc 1 304 52 view .LVU568
 1452 0672 DD 0F 44                		mov.W	136[r0], r15
 1453 0675 DD 03 30                		mov.W	96[r0], r3
 1454 0678 43 3F                   		sub	r3, r15
 304:../src/smc_gen/r_drw2d_rx/src/tes/dave_line.c ****          }
 1455                             		.loc 1 304 15 view .LVU569
 1456 067a 4B 4F                   		add	r4, r15
 1457                             	.LVL132:
 1458                             	.L31:
 312:../src/smc_gen/r_drw2d_rx/src/tes/dave_line.c ****          {
 1459                             		.loc 1 312 10 is_stmt 1 view .LVU570
 312:../src/smc_gen/r_drw2d_rx/src/tes/dave_line.c ****          {
 1460                             		.loc 1 312 12 is_stmt 0 view .LVU571
 1461 067c FD 74 CB 02             		tst	#2, r11
 1462 0680 21 15                   		bne	.L95
 320:../src/smc_gen/r_drw2d_rx/src/tes/dave_line.c ****          }
 1463                             		.loc 1 320 13 is_stmt 1 view .LVU572
 320:../src/smc_gen/r_drw2d_rx/src/tes/dave_line.c ****          }
 1464                             		.loc 1 320 21 is_stmt 0 view .LVU573
 1465 0682 78 DC                   		bset	#13, r12
 1466                             	.LVL133:
 320:../src/smc_gen/r_drw2d_rx/src/tes/dave_line.c ****          }
 1467                             		.loc 1 320 21 view .LVU574
 1468 0684 AF 8D                   		mov.L	124[r0], r5
 1469 0686 DF 54                   		mov.W	r5, r4
 322:../src/smc_gen/r_drw2d_rx/src/tes/dave_line.c ****       }
 1470                             		.loc 1 322 14 view .LVU575
 1471 0688 3E 88 00                		mov.L	#0, 96[r0]
 1472 068b 38 5D FF                		bra	.L30
 1473                             	.LVL134:
 1474                             	.L94:
 309:../src/smc_gen/r_drw2d_rx/src/tes/dave_line.c ****          }
 1475                             		.loc 1 309 15 view .LVU576
 1476 068e ED 04 20                		mov.L	128[r0], r4
 1477 0691 DF 4F                   		mov.W	r4, r15
 1478 0693 2E E9                   		bra	.L31
 1479                             	.LVL135:
 1480                             	.L95:
 309:../src/smc_gen/r_drw2d_rx/src/tes/dave_line.c ****          }
 1481                             		.loc 1 309 15 view .LVU577
 1482 0695 AF 89                   		mov.L	124[r0], r1
 1483 0697 DF 14                   		mov.W	r1, r4
 315:../src/smc_gen/r_drw2d_rx/src/tes/dave_line.c ****          }
 1484                             		.loc 1 315 17 view .LVU578
 1485 0699 EF 59                   		mov.L	r5, r9
 1486                             	.LVL136:
 322:../src/smc_gen/r_drw2d_rx/src/tes/dave_line.c ****       }
 1487                             		.loc 1 322 14 view .LVU579
 1488 069b 3E 88 00                		mov.L	#0, 96[r0]
 1489 069e 38 4A FF                		bra	.L30
 1490                             	.LVL137:
 1491                             	.L33:
 322:../src/smc_gen/r_drw2d_rx/src/tes/dave_line.c ****       }
 1492                             		.loc 1 322 14 view .LVU580
 1493                             	.LBE327:
 356:../src/smc_gen/r_drw2d_rx/src/tes/dave_line.c ****       }
 1494                             		.loc 1 356 10 is_stmt 1 view .LVU581
 356:../src/smc_gen/r_drw2d_rx/src/tes/dave_line.c ****       }
 1495                             		.loc 1 356 18 is_stmt 0 view .LVU582
 1496 06a1 78 DC                   		bset	#13, r12
 1497                             	.LVL138:
 356:../src/smc_gen/r_drw2d_rx/src/tes/dave_line.c ****       }
 1498                             		.loc 1 356 18 view .LVU583
 1499 06a3 38 BC FB                		bra	.L34
 1500                             	.L108:
 362:../src/smc_gen/r_drw2d_rx/src/tes/dave_line.c ****          wh = (d2_width)(wh*2); /* expand span delay (experimental) */   /* PRQA S 4131 */ /* $Misr
 1501                             		.loc 1 362 10 is_stmt 1 view .LVU584
 1502 06a6 3E 01 00                		mov.L	#0, 4[r0]
 1503 06a9 AF 04                   		mov.L	112[r0], r4
 1504 06ab E1 40 01                		mov.L	4[r4], [r0]
 1505 06ae EC 44                   		mov.L	[r4], r4
 1506 06b0 ED 01 20                		mov.L	128[r0], r1
 1507 06b3 DF 13                   		mov.W	r1, r3
 1508                             	.LVL139:
 362:../src/smc_gen/r_drw2d_rx/src/tes/dave_line.c ****          wh = (d2_width)(wh*2); /* expand span delay (experimental) */   /* PRQA S 4131 */ /* $Misr
 1509                             		.loc 1 362 10 is_stmt 0 view .LVU585
 1510 06b5 AF 8D                   		mov.L	124[r0], r5
 1511 06b7 DF 52                   		mov.W	r5, r2
 1512 06b9 71 01 2C                		add	#44, r0, r1
 1513 06bc 05 00 00 00             		bsr	_d2_triedge_setupnoaa_intern
 1514                             	.LVL140:
 363:../src/smc_gen/r_drw2d_rx/src/tes/dave_line.c ****       }
 1515                             		.loc 1 363 10 is_stmt 1 view .LVU586
 363:../src/smc_gen/r_drw2d_rx/src/tes/dave_line.c ****       }
 1516                             		.loc 1 363 13 is_stmt 0 view .LVU587
 1517 06c0 4B 88                   		add	r8, r8
 1518                             	.LVL141:
 363:../src/smc_gen/r_drw2d_rx/src/tes/dave_line.c ****       }
 1519                             		.loc 1 363 13 view .LVU588
 1520 06c2 38 B6 FB                		bra	.L32
 1521                             	.LVL142:
 1522                             	.L37:
 385:../src/smc_gen/r_drw2d_rx/src/tes/dave_line.c ****       }
 1523                             		.loc 1 385 10 is_stmt 1 view .LVU589
 385:../src/smc_gen/r_drw2d_rx/src/tes/dave_line.c ****       }
 1524                             		.loc 1 385 18 is_stmt 0 view .LVU590
 1525 06c5 78 DC                   		bset	#13, r12
 1526                             	.LVL143:
 385:../src/smc_gen/r_drw2d_rx/src/tes/dave_line.c ****       }
 1527                             		.loc 1 385 18 view .LVU591
 1528 06c7 38 C0 FB                		bra	.L38
 1529                             	.L109:
 391:../src/smc_gen/r_drw2d_rx/src/tes/dave_line.c ****          wh = (d2_width)(wh*2); /* expand span delay (experimental) */   /* PRQA S 4131 */ /* $Misr
 1530                             		.loc 1 391 10 is_stmt 1 view .LVU592
 391:../src/smc_gen/r_drw2d_rx/src/tes/dave_line.c ****          wh = (d2_width)(wh*2); /* expand span delay (experimental) */   /* PRQA S 4131 */ /* $Misr
 1531                             		.loc 1 391 68 is_stmt 0 view .LVU593
 1532 06ca 9A 02                   		mov.W	16[r0], r2
 391:../src/smc_gen/r_drw2d_rx/src/tes/dave_line.c ****          wh = (d2_width)(wh*2); /* expand span delay (experimental) */   /* PRQA S 4131 */ /* $Misr
 1533                             		.loc 1 391 96 view .LVU594
 1534 06cc 9A 0B                   		mov.W	18[r0], r3
 391:../src/smc_gen/r_drw2d_rx/src/tes/dave_line.c ****          wh = (d2_width)(wh*2); /* expand span delay (experimental) */   /* PRQA S 4131 */ /* $Misr
 1535                             		.loc 1 391 115 view .LVU595
 1536 06ce AF 05                   		mov.L	112[r0], r5
 1537 06d0 A8 D4                   		mov.L	8[r5], r4
 391:../src/smc_gen/r_drw2d_rx/src/tes/dave_line.c ****          wh = (d2_width)(wh*2); /* expand span delay (experimental) */   /* PRQA S 4131 */ /* $Misr
 1538                             		.loc 1 391 131 view .LVU596
 1539 06d2 A8 DD                   		mov.L	12[r5], r5
 391:../src/smc_gen/r_drw2d_rx/src/tes/dave_line.c ****          wh = (d2_width)(wh*2); /* expand span delay (experimental) */   /* PRQA S 4131 */ /* $Misr
 1540                             		.loc 1 391 10 view .LVU597
 1541 06d4 3E 01 01                		mov.L	#1, 4[r0]
 1542 06d7 7E 15                   		neg	r5
 1543 06d9 E3 05                   		mov.L	r5, [r0]
 1544 06db 7E 14                   		neg	r4
 1545 06dd DD 01 2E                		mov.W	92[r0], r1
 1546 06e0 FF 03 31                		sub	r3, r1, r3
 1547 06e3 DD 05 2C                		mov.W	88[r0], r5
 1548 06e6 FF 02 25                		sub	r2, r5, r2
 1549 06e9 71 01 38                		add	#56, r0, r1
 1550 06ec 05 00 00 00             		bsr	_d2_triedge_setupnoaa_intern
 1551                             	.LVL144:
 392:../src/smc_gen/r_drw2d_rx/src/tes/dave_line.c ****       }
 1552                             		.loc 1 392 10 is_stmt 1 view .LVU598
 392:../src/smc_gen/r_drw2d_rx/src/tes/dave_line.c ****       }
 1553                             		.loc 1 392 13 is_stmt 0 view .LVU599
 1554 06f0 4B 88                   		add	r8, r8
 1555                             	.LVL145:
 392:../src/smc_gen/r_drw2d_rx/src/tes/dave_line.c ****       }
 1556                             		.loc 1 392 13 view .LVU600
 1557 06f2 38 AE FB                		bra	.L36
 1558                             	.LVL146:
 1559                             	.L110:
 401:../src/smc_gen/r_drw2d_rx/src/tes/dave_line.c ****          }
 1560                             		.loc 1 401 13 is_stmt 1 view .LVU601
 401:../src/smc_gen/r_drw2d_rx/src/tes/dave_line.c ****          }
 1561                             		.loc 1 401 27 is_stmt 0 view .LVU602
 1562 06f5 62 15                   		add	#1, r5
 1563 06f7 A3 85                   		mov.L	r5, 56[r0]
 1564 06f9 38 A7 FB                		bra	.L36
 1565                             	.L111:
 425:../src/smc_gen/r_drw2d_rx/src/tes/dave_line.c ****       d2_invertlimiter_intern(&edge[0], h);
 1566                             		.loc 1 425 7 is_stmt 1 view .LVU603
 425:../src/smc_gen/r_drw2d_rx/src/tes/dave_line.c ****       d2_invertlimiter_intern(&edge[0], h);
 1567                             		.loc 1 425 11 is_stmt 0 view .LVU604
 1568 06fc DD 0D 0B                		mov.W	22[r0], r13
 1569 06ff 06 41 0D 09             		sub	18[r0].W, r13
 425:../src/smc_gen/r_drw2d_rx/src/tes/dave_line.c ****       d2_invertlimiter_intern(&edge[0], h);
 1570                             		.loc 1 425 9 view .LVU605
 1571 0703 6A 4D                   		shar	#4, r13
 1572                             	.LVL147:
 426:../src/smc_gen/r_drw2d_rx/src/tes/dave_line.c ****       d2_invertlimiter_intern(&edge[1], h);
 1573                             		.loc 1 426 7 is_stmt 1 view .LVU606
 1574 0705 EF D2                   		mov.L	r13, r2
 1575 0707 71 01 20                		add	#32, r0, r1
 1576 070a 05 00 00 00             		bsr	_d2_invertlimiter_intern
 1577                             	.LVL148:
 427:../src/smc_gen/r_drw2d_rx/src/tes/dave_line.c ****       d2_invertlimiter_intern(&edge[2], h);
 1578                             		.loc 1 427 7 view .LVU607
 1579 070e EF D2                   		mov.L	r13, r2
 1580 0710 71 01 2C                		add	#44, r0, r1
 1581 0713 05 00 00 00             		bsr	_d2_invertlimiter_intern
 1582                             	.LVL149:
 428:../src/smc_gen/r_drw2d_rx/src/tes/dave_line.c ****    }
 1583                             		.loc 1 428 7 view .LVU608
 1584 0717 EF D2                   		mov.L	r13, r2
 1585 0719 71 01 38                		add	#56, r0, r1
 1586 071c 05 00 00 00             		bsr	_d2_invertlimiter_intern
 1587                             	.LVL150:
 1588 0720 38 C7 FB                		bra	.L43
 1589                             	.LVL151:
 1590                             	.L112:
 445:../src/smc_gen/r_drw2d_rx/src/tes/dave_line.c **** 
 1591                             		.loc 1 445 10 view .LVU609
 445:../src/smc_gen/r_drw2d_rx/src/tes/dave_line.c **** 
 1592                             		.loc 1 445 18 is_stmt 0 view .LVU610
 1593 0723 ED 03 21                		mov.L	132[r0], r3
 1594 0726 76 23 00 08             		and #0x800, r3
 1595 072a 57 3C                   		or	r3, r12
 1596                             	.LVL152:
 445:../src/smc_gen/r_drw2d_rx/src/tes/dave_line.c **** 
 1597                             		.loc 1 445 18 view .LVU611
 1598 072c 78 2C                   		bset	#2, r12
 1599                             	.LVL153:
 448:../src/smc_gen/r_drw2d_rx/src/tes/dave_line.c **** 
 1600                             		.loc 1 448 10 is_stmt 1 view .LVU612
 1601 072e 3E 01 00                		mov.L	#0, 4[r0]
 1602 0731 E3 05                   		mov.L	r5, [r0]
 1603 0733 7E 14                   		neg	r4
 1604 0735 ED 05 20                		mov.L	128[r0], r5
 1605 0738 DF 53                   		mov.W	r5, r3
 1606 073a AF 89                   		mov.L	124[r0], r1
 1607 073c DF 12                   		mov.W	r1, r2
 1608 073e 71 01 44                		add	#0x44, r0, r1
 1609 0741 05 00 00 00             		bsr	_d2_triedge_setupsqrt_intern
 1610                             	.LVL154:
 450:../src/smc_gen/r_drw2d_rx/src/tes/dave_line.c ****          {
 1611                             		.loc 1 450 10 view .LVU613
 450:../src/smc_gen/r_drw2d_rx/src/tes/dave_line.c ****          {
 1612                             		.loc 1 450 12 is_stmt 0 view .LVU614
 1613 0745 AD 0B                   		mov.L	84[r0], r3
 1614 0747 61 03                   		cmp	#0, r3
 1615 0749 21 6D                   		bne	.L128
 1616                             	.L46:
 455:../src/smc_gen/r_drw2d_rx/src/tes/dave_line.c ****          {
 1617                             		.loc 1 455 10 is_stmt 1 view .LVU615
 455:../src/smc_gen/r_drw2d_rx/src/tes/dave_line.c ****          {
 1618                             		.loc 1 455 12 is_stmt 0 view .LVU616
 1619 074b FD 78 CB 00 40          		tst	#0x4000, r11
 1620 0750 3B 83 00                		bne	.L47
 457:../src/smc_gen/r_drw2d_rx/src/tes/dave_line.c ****             D2_DLISTWRITES( D2_L3XADD , edge[3].xadd );
 1621                             		.loc 1 457 13 is_stmt 1 view .LVU617
 1622 0753 AC 0C                   		mov.L	68[r0], r4
 1623 0755 4B 64                   		add	r6, r4
 1624                             	.LVL155:
 1625                             	.LBB328:
 1626                             	.LBI328:
 319:../src/smc_gen/r_drw2d_rx/src/tes/dave_intern.h **** {
 1627                             		.loc 2 319 23 view .LVU618
 1628                             	.LBB329:
 321:../src/smc_gen/r_drw2d_rx/src/tes/dave_intern.h ****    handle->dlscratch_pos++;
 1629                             		.loc 2 321 4 view .LVU619
 321:../src/smc_gen/r_drw2d_rx/src/tes/dave_intern.h ****    handle->dlscratch_pos++;
 1630                             		.loc 2 321 28 is_stmt 0 view .LVU620
 1631 0757 ED 75 6E                		mov.L	440[r7], r5
 1632                             	.LVL156:
 322:../src/smc_gen/r_drw2d_rx/src/tes/dave_intern.h **** 
 1633                             		.loc 2 322 4 is_stmt 1 view .LVU621
 322:../src/smc_gen/r_drw2d_rx/src/tes/dave_intern.h **** 
 1634                             		.loc 2 322 25 is_stmt 0 view .LVU622
 1635 075a 71 53 08                		add	#8, r5, r3
 1636 075d E7 73 6E                		mov.L	r3, 440[r7]
 324:../src/smc_gen/r_drw2d_rx/src/tes/dave_intern.h ****    entry->value = value;
 1637                             		.loc 2 324 4 is_stmt 1 view .LVU623
 324:../src/smc_gen/r_drw2d_rx/src/tes/dave_intern.h ****    entry->value = value;
 1638                             		.loc 2 324 17 is_stmt 0 view .LVU624
 1639 0760 F8 56 06                		mov.L	#6, [r5]
 325:../src/smc_gen/r_drw2d_rx/src/tes/dave_intern.h **** 
 1640                             		.loc 2 325 4 is_stmt 1 view .LVU625
 325:../src/smc_gen/r_drw2d_rx/src/tes/dave_intern.h **** 
 1641                             		.loc 2 325 17 is_stmt 0 view .LVU626
 1642 0763 A0 5C                   		mov.L	r4, 4[r5]
 327:../src/smc_gen/r_drw2d_rx/src/tes/dave_intern.h ****    if(handle->dlscratch_cnt <= 0)
 1643                             		.loc 2 327 4 is_stmt 1 view .LVU627
 327:../src/smc_gen/r_drw2d_rx/src/tes/dave_intern.h ****    if(handle->dlscratch_cnt <= 0)
 1644                             		.loc 2 327 12 is_stmt 0 view .LVU628
 1645 0765 ED 75 6F                		mov.L	444[r7], r5
 1646                             	.LVL157:
 327:../src/smc_gen/r_drw2d_rx/src/tes/dave_intern.h ****    if(handle->dlscratch_cnt <= 0)
 1647                             		.loc 2 327 4 view .LVU629
 1648 0768 60 15                   		sub	#1, r5
 1649 076a E7 75 6F                		mov.L	r5, 444[r7]
 1650                             		.loc 2 328 4 is_stmt 1 view .LVU630
 1651                             		.loc 2 328 6 is_stmt 0 view .LVU631
 1652 076d 61 05                   		cmp	#0, r5
 1653 076f 2B 52                   		ble	.L129
 1654                             	.LVL158:
 1655                             	.L48:
 1656                             		.loc 2 328 6 view .LVU632
 1657                             	.LBE329:
 1658                             	.LBE328:
 458:../src/smc_gen/r_drw2d_rx/src/tes/dave_line.c ****             D2_DLISTWRITES( D2_L3YADD , edge[3].yadd );
 1659                             		.loc 1 458 13 is_stmt 1 view .LVU633
 1660 0771 AC 84                   		mov.L	72[r0], r4
 1661                             	.LVL159:
 1662                             	.LBB333:
 1663                             	.LBI333:
 319:../src/smc_gen/r_drw2d_rx/src/tes/dave_intern.h **** {
 1664                             		.loc 2 319 23 view .LVU634
 1665                             	.LBB334:
 321:../src/smc_gen/r_drw2d_rx/src/tes/dave_intern.h ****    handle->dlscratch_pos++;
 1666                             		.loc 2 321 4 view .LVU635
 321:../src/smc_gen/r_drw2d_rx/src/tes/dave_intern.h ****    handle->dlscratch_pos++;
 1667                             		.loc 2 321 28 is_stmt 0 view .LVU636
 1668 0773 ED 75 6E                		mov.L	440[r7], r5
 1669                             	.LVL160:
 322:../src/smc_gen/r_drw2d_rx/src/tes/dave_intern.h **** 
 1670                             		.loc 2 322 4 is_stmt 1 view .LVU637
 322:../src/smc_gen/r_drw2d_rx/src/tes/dave_intern.h **** 
 1671                             		.loc 2 322 25 is_stmt 0 view .LVU638
 1672 0776 71 53 08                		add	#8, r5, r3
 1673 0779 E7 73 6E                		mov.L	r3, 440[r7]
 324:../src/smc_gen/r_drw2d_rx/src/tes/dave_intern.h ****    entry->value = value;
 1674                             		.loc 2 324 4 is_stmt 1 view .LVU639
 324:../src/smc_gen/r_drw2d_rx/src/tes/dave_intern.h ****    entry->value = value;
 1675                             		.loc 2 324 17 is_stmt 0 view .LVU640
 1676 077c F8 56 0C                		mov.L	#12, [r5]
 325:../src/smc_gen/r_drw2d_rx/src/tes/dave_intern.h **** 
 1677                             		.loc 2 325 4 is_stmt 1 view .LVU641
 325:../src/smc_gen/r_drw2d_rx/src/tes/dave_intern.h **** 
 1678                             		.loc 2 325 17 is_stmt 0 view .LVU642
 1679 077f A0 5C                   		mov.L	r4, 4[r5]
 327:../src/smc_gen/r_drw2d_rx/src/tes/dave_intern.h ****    if(handle->dlscratch_cnt <= 0)
 1680                             		.loc 2 327 4 is_stmt 1 view .LVU643
 327:../src/smc_gen/r_drw2d_rx/src/tes/dave_intern.h ****    if(handle->dlscratch_cnt <= 0)
 1681                             		.loc 2 327 12 is_stmt 0 view .LVU644
 1682 0781 ED 75 6F                		mov.L	444[r7], r5
 1683                             	.LVL161:
 327:../src/smc_gen/r_drw2d_rx/src/tes/dave_intern.h ****    if(handle->dlscratch_cnt <= 0)
 1684                             		.loc 2 327 4 view .LVU645
 1685 0784 60 15                   		sub	#1, r5
 1686 0786 E7 75 6F                		mov.L	r5, 444[r7]
 1687                             		.loc 2 328 4 is_stmt 1 view .LVU646
 1688                             		.loc 2 328 6 is_stmt 0 view .LVU647
 1689 0789 61 05                   		cmp	#0, r5
 1690 078b 2B 3F                   		ble	.L130
 1691                             	.LVL162:
 1692                             	.L49:
 1693                             		.loc 2 328 6 view .LVU648
 1694                             	.LBE334:
 1695                             	.LBE333:
 459:../src/smc_gen/r_drw2d_rx/src/tes/dave_line.c ****          }
 1696                             		.loc 1 459 13 is_stmt 1 view .LVU649
 1697 078d AC 8C                   		mov.L	76[r0], r4
 1698                             	.LVL163:
 1699                             	.LBB338:
 1700                             	.LBI338:
 319:../src/smc_gen/r_drw2d_rx/src/tes/dave_intern.h **** {
 1701                             		.loc 2 319 23 view .LVU650
 1702                             	.LBB339:
 321:../src/smc_gen/r_drw2d_rx/src/tes/dave_intern.h ****    handle->dlscratch_pos++;
 1703                             		.loc 2 321 4 view .LVU651
 321:../src/smc_gen/r_drw2d_rx/src/tes/dave_intern.h ****    handle->dlscratch_pos++;
 1704                             		.loc 2 321 28 is_stmt 0 view .LVU652
 1705 078f ED 75 6E                		mov.L	440[r7], r5
 1706                             	.LVL164:
 322:../src/smc_gen/r_drw2d_rx/src/tes/dave_intern.h **** 
 1707                             		.loc 2 322 4 is_stmt 1 view .LVU653
 322:../src/smc_gen/r_drw2d_rx/src/tes/dave_intern.h **** 
 1708                             		.loc 2 322 25 is_stmt 0 view .LVU654
 1709 0792 71 53 08                		add	#8, r5, r3
 1710 0795 E7 73 6E                		mov.L	r3, 440[r7]
 324:../src/smc_gen/r_drw2d_rx/src/tes/dave_intern.h ****    entry->value = value;
 1711                             		.loc 2 324 4 is_stmt 1 view .LVU655
 324:../src/smc_gen/r_drw2d_rx/src/tes/dave_intern.h ****    entry->value = value;
 1712                             		.loc 2 324 17 is_stmt 0 view .LVU656
 1713 0798 F8 56 12                		mov.L	#18, [r5]
 325:../src/smc_gen/r_drw2d_rx/src/tes/dave_intern.h **** 
 1714                             		.loc 2 325 4 is_stmt 1 view .LVU657
 325:../src/smc_gen/r_drw2d_rx/src/tes/dave_intern.h **** 
 1715                             		.loc 2 325 17 is_stmt 0 view .LVU658
 1716 079b A0 5C                   		mov.L	r4, 4[r5]
 327:../src/smc_gen/r_drw2d_rx/src/tes/dave_intern.h ****    if(handle->dlscratch_cnt <= 0)
 1717                             		.loc 2 327 4 is_stmt 1 view .LVU659
 327:../src/smc_gen/r_drw2d_rx/src/tes/dave_intern.h ****    if(handle->dlscratch_cnt <= 0)
 1718                             		.loc 2 327 12 is_stmt 0 view .LVU660
 1719 079d ED 75 6F                		mov.L	444[r7], r5
 1720                             	.LVL165:
 327:../src/smc_gen/r_drw2d_rx/src/tes/dave_intern.h ****    if(handle->dlscratch_cnt <= 0)
 1721                             		.loc 2 327 4 view .LVU661
 1722 07a0 60 15                   		sub	#1, r5
 1723 07a2 E7 75 6F                		mov.L	r5, 444[r7]
 1724                             		.loc 2 328 4 is_stmt 1 view .LVU662
 1725                             		.loc 2 328 6 is_stmt 0 view .LVU663
 1726 07a5 61 05                   		cmp	#0, r5
 1727 07a7 2B 05 38 67 FB          		bgt	.L45
 1728                             	.LVL166:
 1729                             	.LBB340:
 1730                             	.LBI340:
 319:../src/smc_gen/r_drw2d_rx/src/tes/dave_intern.h **** {
 1731                             		.loc 2 319 23 is_stmt 1 view .LVU664
 1732                             	.LBB341:
 329:../src/smc_gen/r_drw2d_rx/src/tes/dave_intern.h ****    {
 330:../src/smc_gen/r_drw2d_rx/src/tes/dave_intern.h ****       handle->dlscratch_hook( (d2_device*) handle );
 1733                             		.loc 2 330 7 view .LVU665
 1734                             		.loc 2 330 13 is_stmt 0 view .LVU666
 1735 07ac ED 75 70                		mov.L	448[r7], r5
 1736                             		.loc 2 330 7 view .LVU667
 1737 07af EF 71                   		mov.L	r7, r1
 1738 07b1 7F 15                   		jsr	r5
 1739                             	.LVL167:
 1740                             		.loc 2 330 7 view .LVU668
 1741 07b3 38 5D FB                		bra	.L45
 1742                             	.LVL168:
 1743                             	.L128:
 1744                             		.loc 2 330 7 view .LVU669
 1745                             	.LBE341:
 1746                             	.LBE340:
 1747                             	.LBE339:
 1748                             	.LBE338:
 452:../src/smc_gen/r_drw2d_rx/src/tes/dave_line.c ****          }
 1749                             		.loc 1 452 13 is_stmt 1 view .LVU670
 1750 07b6 EF D2                   		mov.L	r13, r2
 1751 07b8 71 01 44                		add	#0x44, r0, r1
 1752 07bb 05 00 00 00             		bsr	_d2_invertlimiter_intern
 1753                             	.LVL169:
 1754 07bf 2E 8C                   		bra	.L46
 1755                             	.LVL170:
 1756                             	.L129:
 1757                             	.LBB342:
 1758                             	.LBB332:
 1759                             	.LBB330:
 1760                             	.LBI330:
 319:../src/smc_gen/r_drw2d_rx/src/tes/dave_intern.h **** {
 1761                             		.loc 2 319 23 view .LVU671
 1762                             	.LBB331:
 1763                             		.loc 2 330 7 view .LVU672
 1764                             		.loc 2 330 13 is_stmt 0 view .LVU673
 1765 07c1 ED 75 70                		mov.L	448[r7], r5
 1766                             		.loc 2 330 7 view .LVU674
 1767 07c4 EF 71                   		mov.L	r7, r1
 1768 07c6 7F 15                   		jsr	r5
 1769                             	.LVL171:
 1770                             		.loc 2 330 7 view .LVU675
 1771 07c8 2E A9                   		bra	.L48
 1772                             	.LVL172:
 1773                             	.L130:
 1774                             		.loc 2 330 7 view .LVU676
 1775                             	.LBE331:
 1776                             	.LBE330:
 1777                             	.LBE332:
 1778                             	.LBE342:
 1779                             	.LBB343:
 1780                             	.LBB337:
 1781                             	.LBB335:
 1782                             	.LBI335:
 319:../src/smc_gen/r_drw2d_rx/src/tes/dave_intern.h **** {
 1783                             		.loc 2 319 23 is_stmt 1 view .LVU677
 1784                             	.LBB336:
 1785                             		.loc 2 330 7 view .LVU678
 1786                             		.loc 2 330 13 is_stmt 0 view .LVU679
 1787 07ca ED 75 70                		mov.L	448[r7], r5
 1788                             		.loc 2 330 7 view .LVU680
 1789 07cd EF 71                   		mov.L	r7, r1
 1790 07cf 7F 15                   		jsr	r5
 1791                             	.LVL173:
 1792                             		.loc 2 330 7 view .LVU681
 1793 07d1 2E BC                   		bra	.L49
 1794                             	.LVL174:
 1795                             	.L47:
 1796                             		.loc 2 330 7 view .LVU682
 1797                             	.LBE336:
 1798                             	.LBE335:
 1799                             	.LBE337:
 1800                             	.LBE343:
 463:../src/smc_gen/r_drw2d_rx/src/tes/dave_line.c ****             D2_DLISTWRITES( D2_L3XADD , -edge[3].xadd );
 1801                             		.loc 1 463 13 is_stmt 1 view .LVU683
 1802 07d3 AC 0C                   		mov.L	68[r0], r4
 1803 07d5 FF 04 46                		sub	r4, r6, r4
 1804                             	.LVL175:
 1805                             	.LBB344:
 1806                             	.LBI344:
 319:../src/smc_gen/r_drw2d_rx/src/tes/dave_intern.h **** {
 1807                             		.loc 2 319 23 view .LVU684
 1808                             	.LBB345:
 321:../src/smc_gen/r_drw2d_rx/src/tes/dave_intern.h ****    handle->dlscratch_pos++;
 1809                             		.loc 2 321 4 view .LVU685
 321:../src/smc_gen/r_drw2d_rx/src/tes/dave_intern.h ****    handle->dlscratch_pos++;
 1810                             		.loc 2 321 28 is_stmt 0 view .LVU686
 1811 07d8 ED 75 6E                		mov.L	440[r7], r5
 1812                             	.LVL176:
 322:../src/smc_gen/r_drw2d_rx/src/tes/dave_intern.h **** 
 1813                             		.loc 2 322 4 is_stmt 1 view .LVU687
 322:../src/smc_gen/r_drw2d_rx/src/tes/dave_intern.h **** 
 1814                             		.loc 2 322 25 is_stmt 0 view .LVU688
 1815 07db 71 53 08                		add	#8, r5, r3
 1816 07de E7 73 6E                		mov.L	r3, 440[r7]
 324:../src/smc_gen/r_drw2d_rx/src/tes/dave_intern.h ****    entry->value = value;
 1817                             		.loc 2 324 4 is_stmt 1 view .LVU689
 324:../src/smc_gen/r_drw2d_rx/src/tes/dave_intern.h ****    entry->value = value;
 1818                             		.loc 2 324 17 is_stmt 0 view .LVU690
 1819 07e1 F8 56 06                		mov.L	#6, [r5]
 325:../src/smc_gen/r_drw2d_rx/src/tes/dave_intern.h **** 
 1820                             		.loc 2 325 4 is_stmt 1 view .LVU691
 325:../src/smc_gen/r_drw2d_rx/src/tes/dave_intern.h **** 
 1821                             		.loc 2 325 17 is_stmt 0 view .LVU692
 1822 07e4 A0 5C                   		mov.L	r4, 4[r5]
 327:../src/smc_gen/r_drw2d_rx/src/tes/dave_intern.h ****    if(handle->dlscratch_cnt <= 0)
 1823                             		.loc 2 327 4 is_stmt 1 view .LVU693
 327:../src/smc_gen/r_drw2d_rx/src/tes/dave_intern.h ****    if(handle->dlscratch_cnt <= 0)
 1824                             		.loc 2 327 12 is_stmt 0 view .LVU694
 1825 07e6 ED 75 6F                		mov.L	444[r7], r5
 1826                             	.LVL177:
 327:../src/smc_gen/r_drw2d_rx/src/tes/dave_intern.h ****    if(handle->dlscratch_cnt <= 0)
 1827                             		.loc 2 327 4 view .LVU695
 1828 07e9 60 15                   		sub	#1, r5
 1829 07eb E7 75 6F                		mov.L	r5, 444[r7]
 328:../src/smc_gen/r_drw2d_rx/src/tes/dave_intern.h ****    {
 1830                             		.loc 2 328 4 is_stmt 1 view .LVU696
 328:../src/smc_gen/r_drw2d_rx/src/tes/dave_intern.h ****    {
 1831                             		.loc 2 328 6 is_stmt 0 view .LVU697
 1832 07ee 61 05                   		cmp	#0, r5
 1833 07f0 2B 4B                   		ble	.L131
 1834                             	.LVL178:
 1835                             	.L50:
 328:../src/smc_gen/r_drw2d_rx/src/tes/dave_intern.h ****    {
 1836                             		.loc 2 328 6 view .LVU698
 1837                             	.LBE345:
 1838                             	.LBE344:
 464:../src/smc_gen/r_drw2d_rx/src/tes/dave_line.c ****             D2_DLISTWRITES( D2_L3YADD , -edge[3].yadd );
 1839                             		.loc 1 464 13 is_stmt 1 view .LVU699
 1840 07f2 AC 84                   		mov.L	72[r0], r4
 1841 07f4 7E 14                   		neg	r4
 1842                             	.LVL179:
 1843                             	.LBB349:
 1844                             	.LBI349:
 319:../src/smc_gen/r_drw2d_rx/src/tes/dave_intern.h **** {
 1845                             		.loc 2 319 23 view .LVU700
 1846                             	.LBB350:
 321:../src/smc_gen/r_drw2d_rx/src/tes/dave_intern.h ****    handle->dlscratch_pos++;
 1847                             		.loc 2 321 4 view .LVU701
 321:../src/smc_gen/r_drw2d_rx/src/tes/dave_intern.h ****    handle->dlscratch_pos++;
 1848                             		.loc 2 321 28 is_stmt 0 view .LVU702
 1849 07f6 ED 75 6E                		mov.L	440[r7], r5
 1850                             	.LVL180:
 322:../src/smc_gen/r_drw2d_rx/src/tes/dave_intern.h **** 
 1851                             		.loc 2 322 4 is_stmt 1 view .LVU703
 322:../src/smc_gen/r_drw2d_rx/src/tes/dave_intern.h **** 
 1852                             		.loc 2 322 25 is_stmt 0 view .LVU704
 1853 07f9 71 53 08                		add	#8, r5, r3
 1854 07fc E7 73 6E                		mov.L	r3, 440[r7]
 324:../src/smc_gen/r_drw2d_rx/src/tes/dave_intern.h ****    entry->value = value;
 1855                             		.loc 2 324 4 is_stmt 1 view .LVU705
 324:../src/smc_gen/r_drw2d_rx/src/tes/dave_intern.h ****    entry->value = value;
 1856                             		.loc 2 324 17 is_stmt 0 view .LVU706
 1857 07ff F8 56 0C                		mov.L	#12, [r5]
 325:../src/smc_gen/r_drw2d_rx/src/tes/dave_intern.h **** 
 1858                             		.loc 2 325 4 is_stmt 1 view .LVU707
 325:../src/smc_gen/r_drw2d_rx/src/tes/dave_intern.h **** 
 1859                             		.loc 2 325 17 is_stmt 0 view .LVU708
 1860 0802 A0 5C                   		mov.L	r4, 4[r5]
 327:../src/smc_gen/r_drw2d_rx/src/tes/dave_intern.h ****    if(handle->dlscratch_cnt <= 0)
 1861                             		.loc 2 327 4 is_stmt 1 view .LVU709
 327:../src/smc_gen/r_drw2d_rx/src/tes/dave_intern.h ****    if(handle->dlscratch_cnt <= 0)
 1862                             		.loc 2 327 12 is_stmt 0 view .LVU710
 1863 0804 ED 75 6F                		mov.L	444[r7], r5
 1864                             	.LVL181:
 327:../src/smc_gen/r_drw2d_rx/src/tes/dave_intern.h ****    if(handle->dlscratch_cnt <= 0)
 1865                             		.loc 2 327 4 view .LVU711
 1866 0807 60 15                   		sub	#1, r5
 1867 0809 E7 75 6F                		mov.L	r5, 444[r7]
 328:../src/smc_gen/r_drw2d_rx/src/tes/dave_intern.h ****    {
 1868                             		.loc 2 328 4 is_stmt 1 view .LVU712
 328:../src/smc_gen/r_drw2d_rx/src/tes/dave_intern.h ****    {
 1869                             		.loc 2 328 6 is_stmt 0 view .LVU713
 1870 080c 61 05                   		cmp	#0, r5
 1871 080e 2B 36                   		ble	.L132
 1872                             	.LVL182:
 1873                             	.L51:
 328:../src/smc_gen/r_drw2d_rx/src/tes/dave_intern.h ****    {
 1874                             		.loc 2 328 6 view .LVU714
 1875                             	.LBE350:
 1876                             	.LBE349:
 465:../src/smc_gen/r_drw2d_rx/src/tes/dave_line.c ****          }
 1877                             		.loc 1 465 13 is_stmt 1 view .LVU715
 1878 0810 AC 8C                   		mov.L	76[r0], r4
 1879 0812 7E 14                   		neg	r4
 1880                             	.LVL183:
 1881                             	.LBB354:
 1882                             	.LBI354:
 319:../src/smc_gen/r_drw2d_rx/src/tes/dave_intern.h **** {
 1883                             		.loc 2 319 23 view .LVU716
 1884                             	.LBB355:
 321:../src/smc_gen/r_drw2d_rx/src/tes/dave_intern.h ****    handle->dlscratch_pos++;
 1885                             		.loc 2 321 4 view .LVU717
 321:../src/smc_gen/r_drw2d_rx/src/tes/dave_intern.h ****    handle->dlscratch_pos++;
 1886                             		.loc 2 321 28 is_stmt 0 view .LVU718
 1887 0814 ED 75 6E                		mov.L	440[r7], r5
 1888                             	.LVL184:
 322:../src/smc_gen/r_drw2d_rx/src/tes/dave_intern.h **** 
 1889                             		.loc 2 322 4 is_stmt 1 view .LVU719
 322:../src/smc_gen/r_drw2d_rx/src/tes/dave_intern.h **** 
 1890                             		.loc 2 322 25 is_stmt 0 view .LVU720
 1891 0817 71 53 08                		add	#8, r5, r3
 1892 081a E7 73 6E                		mov.L	r3, 440[r7]
 324:../src/smc_gen/r_drw2d_rx/src/tes/dave_intern.h ****    entry->value = value;
 1893                             		.loc 2 324 4 is_stmt 1 view .LVU721
 324:../src/smc_gen/r_drw2d_rx/src/tes/dave_intern.h ****    entry->value = value;
 1894                             		.loc 2 324 17 is_stmt 0 view .LVU722
 1895 081d F8 56 12                		mov.L	#18, [r5]
 325:../src/smc_gen/r_drw2d_rx/src/tes/dave_intern.h **** 
 1896                             		.loc 2 325 4 is_stmt 1 view .LVU723
 325:../src/smc_gen/r_drw2d_rx/src/tes/dave_intern.h **** 
 1897                             		.loc 2 325 17 is_stmt 0 view .LVU724
 1898 0820 A0 5C                   		mov.L	r4, 4[r5]
 327:../src/smc_gen/r_drw2d_rx/src/tes/dave_intern.h ****    if(handle->dlscratch_cnt <= 0)
 1899                             		.loc 2 327 4 is_stmt 1 view .LVU725
 327:../src/smc_gen/r_drw2d_rx/src/tes/dave_intern.h ****    if(handle->dlscratch_cnt <= 0)
 1900                             		.loc 2 327 12 is_stmt 0 view .LVU726
 1901 0822 ED 75 6F                		mov.L	444[r7], r5
 1902                             	.LVL185:
 327:../src/smc_gen/r_drw2d_rx/src/tes/dave_intern.h ****    if(handle->dlscratch_cnt <= 0)
 1903                             		.loc 2 327 4 view .LVU727
 1904 0825 60 15                   		sub	#1, r5
 1905 0827 E7 75 6F                		mov.L	r5, 444[r7]
 328:../src/smc_gen/r_drw2d_rx/src/tes/dave_intern.h ****    {
 1906                             		.loc 2 328 4 is_stmt 1 view .LVU728
 328:../src/smc_gen/r_drw2d_rx/src/tes/dave_intern.h ****    {
 1907                             		.loc 2 328 6 is_stmt 0 view .LVU729
 1908 082a 61 05                   		cmp	#0, r5
 1909 082c 2B 05 38 E2 FA          		bgt	.L45
 1910                             	.LVL186:
 1911                             	.LBB356:
 1912                             	.LBI356:
 319:../src/smc_gen/r_drw2d_rx/src/tes/dave_intern.h **** {
 1913                             		.loc 2 319 23 is_stmt 1 view .LVU730
 1914                             	.LBB357:
 1915                             		.loc 2 330 7 view .LVU731
 1916                             		.loc 2 330 13 is_stmt 0 view .LVU732
 1917 0831 ED 75 70                		mov.L	448[r7], r5
 1918                             		.loc 2 330 7 view .LVU733
 1919 0834 EF 71                   		mov.L	r7, r1
 1920 0836 7F 15                   		jsr	r5
 1921                             	.LVL187:
 1922                             		.loc 2 330 7 view .LVU734
 1923 0838 38 D8 FA                		bra	.L45
 1924                             	.LVL188:
 1925                             	.L131:
 1926                             		.loc 2 330 7 view .LVU735
 1927                             	.LBE357:
 1928                             	.LBE356:
 1929                             	.LBE355:
 1930                             	.LBE354:
 1931                             	.LBB358:
 1932                             	.LBB348:
 1933                             	.LBB346:
 1934                             	.LBI346:
 319:../src/smc_gen/r_drw2d_rx/src/tes/dave_intern.h **** {
 1935                             		.loc 2 319 23 is_stmt 1 view .LVU736
 1936                             	.LBB347:
 1937                             		.loc 2 330 7 view .LVU737
 1938                             		.loc 2 330 13 is_stmt 0 view .LVU738
 1939 083b ED 75 70                		mov.L	448[r7], r5
 1940                             		.loc 2 330 7 view .LVU739
 1941 083e EF 71                   		mov.L	r7, r1
 1942 0840 7F 15                   		jsr	r5
 1943                             	.LVL189:
 1944                             		.loc 2 330 7 view .LVU740
 1945 0842 2E B0                   		bra	.L50
 1946                             	.LVL190:
 1947                             	.L132:
 1948                             		.loc 2 330 7 view .LVU741
 1949                             	.LBE347:
 1950                             	.LBE346:
 1951                             	.LBE348:
 1952                             	.LBE358:
 1953                             	.LBB359:
 1954                             	.LBB353:
 1955                             	.LBB351:
 1956                             	.LBI351:
 319:../src/smc_gen/r_drw2d_rx/src/tes/dave_intern.h **** {
 1957                             		.loc 2 319 23 is_stmt 1 view .LVU742
 1958                             	.LBB352:
 1959                             		.loc 2 330 7 view .LVU743
 1960                             		.loc 2 330 13 is_stmt 0 view .LVU744
 1961 0844 ED 75 70                		mov.L	448[r7], r5
 1962                             		.loc 2 330 7 view .LVU745
 1963 0847 EF 71                   		mov.L	r7, r1
 1964 0849 7F 15                   		jsr	r5
 1965                             	.LVL191:
 1966                             		.loc 2 330 7 view .LVU746
 1967 084b 2E C5                   		bra	.L51
 1968                             	.LVL192:
 1969                             	.L113:
 1970                             		.loc 2 330 7 view .LVU747
 1971                             	.LBE352:
 1972                             	.LBE351:
 1973                             	.LBE353:
 1974                             	.LBE359:
 472:../src/smc_gen/r_drw2d_rx/src/tes/dave_line.c **** 
 1975                             		.loc 1 472 10 is_stmt 1 view .LVU748
 472:../src/smc_gen/r_drw2d_rx/src/tes/dave_line.c **** 
 1976                             		.loc 1 472 18 is_stmt 0 view .LVU749
 1977 084d ED 03 21                		mov.L	132[r0], r3
 1978 0850 76 23 00 10             		and #0x1000, r3
 1979 0854 57 3C                   		or	r3, r12
 1980                             	.LVL193:
 472:../src/smc_gen/r_drw2d_rx/src/tes/dave_line.c **** 
 1981                             		.loc 1 472 18 view .LVU750
 1982 0856 78 3C                   		bset	#3, r12
 1983                             	.LVL194:
 475:../src/smc_gen/r_drw2d_rx/src/tes/dave_line.c **** 
 1984                             		.loc 1 475 10 is_stmt 1 view .LVU751
 475:../src/smc_gen/r_drw2d_rx/src/tes/dave_line.c **** 
 1985                             		.loc 1 475 68 is_stmt 0 view .LVU752
 1986 0858 9A 02                   		mov.W	16[r0], r2
 475:../src/smc_gen/r_drw2d_rx/src/tes/dave_line.c **** 
 1987                             		.loc 1 475 96 view .LVU753
 1988 085a 9A 0B                   		mov.W	18[r0], r3
 475:../src/smc_gen/r_drw2d_rx/src/tes/dave_line.c **** 
 1989                             		.loc 1 475 10 view .LVU754
 1990 085c 3E 01 00                		mov.L	#0, 4[r0]
 1991 085f E3 05                   		mov.L	r5, [r0]
 1992 0861 7E 14                   		neg	r4
 1993 0863 DD 05 2E                		mov.W	92[r0], r5
 1994 0866 FF 03 35                		sub	r3, r5, r3
 1995 0869 DD 01 2C                		mov.W	88[r0], r1
 1996 086c FF 02 21                		sub	r2, r1, r2
 1997 086f 71 01 44                		add	#0x44, r0, r1
 1998 0872 05 00 00 00             		bsr	_d2_triedge_setupsqrt_intern
 1999                             	.LVL195:
 477:../src/smc_gen/r_drw2d_rx/src/tes/dave_line.c ****          {
 2000                             		.loc 1 477 10 is_stmt 1 view .LVU755
 477:../src/smc_gen/r_drw2d_rx/src/tes/dave_line.c ****          {
 2001                             		.loc 1 477 12 is_stmt 0 view .LVU756
 2002 0876 AD 0B                   		mov.L	84[r0], r3
 2003 0878 61 03                   		cmp	#0, r3
 2004 087a 21 6E                   		bne	.L133
 2005                             	.L52:
 482:../src/smc_gen/r_drw2d_rx/src/tes/dave_line.c ****          {
 2006                             		.loc 1 482 10 is_stmt 1 view .LVU757
 482:../src/smc_gen/r_drw2d_rx/src/tes/dave_line.c ****          {
 2007                             		.loc 1 482 12 is_stmt 0 view .LVU758
 2008 087c FD 7C CB 00 80 00       		tst	#0x8000, r11
 2009 0882 3A 83 00                		beq	.L53
 484:../src/smc_gen/r_drw2d_rx/src/tes/dave_line.c ****             D2_DLISTWRITES( D2_L4XADD , edge[3].xadd );
 2010                             		.loc 1 484 13 is_stmt 1 view .LVU759
 2011 0885 06 89 06 11             		add	68[r0], r6
 2012                             	.LVL196:
 2013                             	.LBB360:
 2014                             	.LBI360:
 319:../src/smc_gen/r_drw2d_rx/src/tes/dave_intern.h **** {
 2015                             		.loc 2 319 23 view .LVU760
 2016                             	.LBB361:
 321:../src/smc_gen/r_drw2d_rx/src/tes/dave_intern.h ****    handle->dlscratch_pos++;
 2017                             		.loc 2 321 4 view .LVU761
 321:../src/smc_gen/r_drw2d_rx/src/tes/dave_intern.h ****    handle->dlscratch_pos++;
 2018                             		.loc 2 321 28 is_stmt 0 view .LVU762
 2019 0889 ED 75 6E                		mov.L	440[r7], r5
 2020                             	.LVL197:
 322:../src/smc_gen/r_drw2d_rx/src/tes/dave_intern.h **** 
 2021                             		.loc 2 322 4 is_stmt 1 view .LVU763
 322:../src/smc_gen/r_drw2d_rx/src/tes/dave_intern.h **** 
 2022                             		.loc 2 322 25 is_stmt 0 view .LVU764
 2023 088c 71 54 08                		add	#8, r5, r4
 2024 088f E7 74 6E                		mov.L	r4, 440[r7]
 324:../src/smc_gen/r_drw2d_rx/src/tes/dave_intern.h ****    entry->value = value;
 2025                             		.loc 2 324 4 is_stmt 1 view .LVU765
 324:../src/smc_gen/r_drw2d_rx/src/tes/dave_intern.h ****    entry->value = value;
 2026                             		.loc 2 324 17 is_stmt 0 view .LVU766
 2027 0892 F8 56 07                		mov.L	#7, [r5]
 325:../src/smc_gen/r_drw2d_rx/src/tes/dave_intern.h **** 
 2028                             		.loc 2 325 4 is_stmt 1 view .LVU767
 325:../src/smc_gen/r_drw2d_rx/src/tes/dave_intern.h **** 
 2029                             		.loc 2 325 17 is_stmt 0 view .LVU768
 2030 0895 A0 5E                   		mov.L	r6, 4[r5]
 327:../src/smc_gen/r_drw2d_rx/src/tes/dave_intern.h ****    if(handle->dlscratch_cnt <= 0)
 2031                             		.loc 2 327 4 is_stmt 1 view .LVU769
 327:../src/smc_gen/r_drw2d_rx/src/tes/dave_intern.h ****    if(handle->dlscratch_cnt <= 0)
 2032                             		.loc 2 327 12 is_stmt 0 view .LVU770
 2033 0897 ED 75 6F                		mov.L	444[r7], r5
 2034                             	.LVL198:
 327:../src/smc_gen/r_drw2d_rx/src/tes/dave_intern.h ****    if(handle->dlscratch_cnt <= 0)
 2035                             		.loc 2 327 4 view .LVU771
 2036 089a 60 15                   		sub	#1, r5
 2037 089c E7 75 6F                		mov.L	r5, 444[r7]
 328:../src/smc_gen/r_drw2d_rx/src/tes/dave_intern.h ****    {
 2038                             		.loc 2 328 4 is_stmt 1 view .LVU772
 328:../src/smc_gen/r_drw2d_rx/src/tes/dave_intern.h ****    {
 2039                             		.loc 2 328 6 is_stmt 0 view .LVU773
 2040 089f 61 05                   		cmp	#0, r5
 2041 08a1 2B 52                   		ble	.L134
 2042                             	.LVL199:
 2043                             	.L54:
 328:../src/smc_gen/r_drw2d_rx/src/tes/dave_intern.h ****    {
 2044                             		.loc 2 328 6 view .LVU774
 2045                             	.LBE361:
 2046                             	.LBE360:
 485:../src/smc_gen/r_drw2d_rx/src/tes/dave_line.c ****             D2_DLISTWRITES( D2_L4YADD , edge[3].yadd );
 2047                             		.loc 1 485 13 is_stmt 1 view .LVU775
 2048 08a3 AC 84                   		mov.L	72[r0], r4
 2049                             	.LVL200:
 2050                             	.LBB365:
 2051                             	.LBI365:
 319:../src/smc_gen/r_drw2d_rx/src/tes/dave_intern.h **** {
 2052                             		.loc 2 319 23 view .LVU776
 2053                             	.LBB366:
 321:../src/smc_gen/r_drw2d_rx/src/tes/dave_intern.h ****    handle->dlscratch_pos++;
 2054                             		.loc 2 321 4 view .LVU777
 321:../src/smc_gen/r_drw2d_rx/src/tes/dave_intern.h ****    handle->dlscratch_pos++;
 2055                             		.loc 2 321 28 is_stmt 0 view .LVU778
 2056 08a5 ED 75 6E                		mov.L	440[r7], r5
 2057                             	.LVL201:
 322:../src/smc_gen/r_drw2d_rx/src/tes/dave_intern.h **** 
 2058                             		.loc 2 322 4 is_stmt 1 view .LVU779
 322:../src/smc_gen/r_drw2d_rx/src/tes/dave_intern.h **** 
 2059                             		.loc 2 322 25 is_stmt 0 view .LVU780
 2060 08a8 71 53 08                		add	#8, r5, r3
 2061 08ab E7 73 6E                		mov.L	r3, 440[r7]
 324:../src/smc_gen/r_drw2d_rx/src/tes/dave_intern.h ****    entry->value = value;
 2062                             		.loc 2 324 4 is_stmt 1 view .LVU781
 324:../src/smc_gen/r_drw2d_rx/src/tes/dave_intern.h ****    entry->value = value;
 2063                             		.loc 2 324 17 is_stmt 0 view .LVU782
 2064 08ae F8 56 0D                		mov.L	#13, [r5]
 325:../src/smc_gen/r_drw2d_rx/src/tes/dave_intern.h **** 
 2065                             		.loc 2 325 4 is_stmt 1 view .LVU783
 325:../src/smc_gen/r_drw2d_rx/src/tes/dave_intern.h **** 
 2066                             		.loc 2 325 17 is_stmt 0 view .LVU784
 2067 08b1 A0 5C                   		mov.L	r4, 4[r5]
 327:../src/smc_gen/r_drw2d_rx/src/tes/dave_intern.h ****    if(handle->dlscratch_cnt <= 0)
 2068                             		.loc 2 327 4 is_stmt 1 view .LVU785
 327:../src/smc_gen/r_drw2d_rx/src/tes/dave_intern.h ****    if(handle->dlscratch_cnt <= 0)
 2069                             		.loc 2 327 12 is_stmt 0 view .LVU786
 2070 08b3 ED 75 6F                		mov.L	444[r7], r5
 2071                             	.LVL202:
 327:../src/smc_gen/r_drw2d_rx/src/tes/dave_intern.h ****    if(handle->dlscratch_cnt <= 0)
 2072                             		.loc 2 327 4 view .LVU787
 2073 08b6 60 15                   		sub	#1, r5
 2074 08b8 E7 75 6F                		mov.L	r5, 444[r7]
 328:../src/smc_gen/r_drw2d_rx/src/tes/dave_intern.h ****    {
 2075                             		.loc 2 328 4 is_stmt 1 view .LVU788
 328:../src/smc_gen/r_drw2d_rx/src/tes/dave_intern.h ****    {
 2076                             		.loc 2 328 6 is_stmt 0 view .LVU789
 2077 08bb 61 05                   		cmp	#0, r5
 2078 08bd 2B 3F                   		ble	.L135
 2079                             	.LVL203:
 2080                             	.L55:
 328:../src/smc_gen/r_drw2d_rx/src/tes/dave_intern.h ****    {
 2081                             		.loc 2 328 6 view .LVU790
 2082                             	.LBE366:
 2083                             	.LBE365:
 486:../src/smc_gen/r_drw2d_rx/src/tes/dave_line.c ****          }
 2084                             		.loc 1 486 13 is_stmt 1 view .LVU791
 2085 08bf AC 8C                   		mov.L	76[r0], r4
 2086                             	.LVL204:
 2087                             	.LBB370:
 2088                             	.LBI370:
 319:../src/smc_gen/r_drw2d_rx/src/tes/dave_intern.h **** {
 2089                             		.loc 2 319 23 view .LVU792
 2090                             	.LBB371:
 321:../src/smc_gen/r_drw2d_rx/src/tes/dave_intern.h ****    handle->dlscratch_pos++;
 2091                             		.loc 2 321 4 view .LVU793
 321:../src/smc_gen/r_drw2d_rx/src/tes/dave_intern.h ****    handle->dlscratch_pos++;
 2092                             		.loc 2 321 28 is_stmt 0 view .LVU794
 2093 08c1 ED 75 6E                		mov.L	440[r7], r5
 2094                             	.LVL205:
 322:../src/smc_gen/r_drw2d_rx/src/tes/dave_intern.h **** 
 2095                             		.loc 2 322 4 is_stmt 1 view .LVU795
 322:../src/smc_gen/r_drw2d_rx/src/tes/dave_intern.h **** 
 2096                             		.loc 2 322 25 is_stmt 0 view .LVU796
 2097 08c4 71 53 08                		add	#8, r5, r3
 2098 08c7 E7 73 6E                		mov.L	r3, 440[r7]
 324:../src/smc_gen/r_drw2d_rx/src/tes/dave_intern.h ****    entry->value = value;
 2099                             		.loc 2 324 4 is_stmt 1 view .LVU797
 324:../src/smc_gen/r_drw2d_rx/src/tes/dave_intern.h ****    entry->value = value;
 2100                             		.loc 2 324 17 is_stmt 0 view .LVU798
 2101 08ca F8 56 13                		mov.L	#19, [r5]
 325:../src/smc_gen/r_drw2d_rx/src/tes/dave_intern.h **** 
 2102                             		.loc 2 325 4 is_stmt 1 view .LVU799
 325:../src/smc_gen/r_drw2d_rx/src/tes/dave_intern.h **** 
 2103                             		.loc 2 325 17 is_stmt 0 view .LVU800
 2104 08cd A0 5C                   		mov.L	r4, 4[r5]
 327:../src/smc_gen/r_drw2d_rx/src/tes/dave_intern.h ****    if(handle->dlscratch_cnt <= 0)
 2105                             		.loc 2 327 4 is_stmt 1 view .LVU801
 327:../src/smc_gen/r_drw2d_rx/src/tes/dave_intern.h ****    if(handle->dlscratch_cnt <= 0)
 2106                             		.loc 2 327 12 is_stmt 0 view .LVU802
 2107 08cf ED 75 6F                		mov.L	444[r7], r5
 2108                             	.LVL206:
 327:../src/smc_gen/r_drw2d_rx/src/tes/dave_intern.h ****    if(handle->dlscratch_cnt <= 0)
 2109                             		.loc 2 327 4 view .LVU803
 2110 08d2 60 15                   		sub	#1, r5
 2111 08d4 E7 75 6F                		mov.L	r5, 444[r7]
 328:../src/smc_gen/r_drw2d_rx/src/tes/dave_intern.h ****    {
 2112                             		.loc 2 328 4 is_stmt 1 view .LVU804
 328:../src/smc_gen/r_drw2d_rx/src/tes/dave_intern.h ****    {
 2113                             		.loc 2 328 6 is_stmt 0 view .LVU805
 2114 08d7 61 05                   		cmp	#0, r5
 2115 08d9 2B 05 38 4A FA          		bgt	.L44
 2116                             	.LVL207:
 2117                             	.LBB372:
 2118                             	.LBI372:
 319:../src/smc_gen/r_drw2d_rx/src/tes/dave_intern.h **** {
 2119                             		.loc 2 319 23 is_stmt 1 view .LVU806
 2120                             	.LBB373:
 2121                             		.loc 2 330 7 view .LVU807
 2122                             		.loc 2 330 13 is_stmt 0 view .LVU808
 2123 08de ED 75 70                		mov.L	448[r7], r5
 2124                             		.loc 2 330 7 view .LVU809
 2125 08e1 EF 71                   		mov.L	r7, r1
 2126 08e3 7F 15                   		jsr	r5
 2127                             	.LVL208:
 2128                             		.loc 2 330 7 view .LVU810
 2129 08e5 38 40 FA                		bra	.L44
 2130                             	.LVL209:
 2131                             	.L133:
 2132                             		.loc 2 330 7 view .LVU811
 2133                             	.LBE373:
 2134                             	.LBE372:
 2135                             	.LBE371:
 2136                             	.LBE370:
 479:../src/smc_gen/r_drw2d_rx/src/tes/dave_line.c ****          }
 2137                             		.loc 1 479 13 is_stmt 1 view .LVU812
 2138 08e8 EF D2                   		mov.L	r13, r2
 2139 08ea 71 01 44                		add	#0x44, r0, r1
 2140 08ed 05 00 00 00             		bsr	_d2_invertlimiter_intern
 2141                             	.LVL210:
 2142 08f1 2E 8B                   		bra	.L52
 2143                             	.LVL211:
 2144                             	.L134:
 2145                             	.LBB374:
 2146                             	.LBB364:
 2147                             	.LBB362:
 2148                             	.LBI362:
 319:../src/smc_gen/r_drw2d_rx/src/tes/dave_intern.h **** {
 2149                             		.loc 2 319 23 view .LVU813
 2150                             	.LBB363:
 2151                             		.loc 2 330 7 view .LVU814
 2152                             		.loc 2 330 13 is_stmt 0 view .LVU815
 2153 08f3 ED 75 70                		mov.L	448[r7], r5
 2154                             		.loc 2 330 7 view .LVU816
 2155 08f6 EF 71                   		mov.L	r7, r1
 2156 08f8 7F 15                   		jsr	r5
 2157                             	.LVL212:
 2158                             		.loc 2 330 7 view .LVU817
 2159 08fa 2E A9                   		bra	.L54
 2160                             	.LVL213:
 2161                             	.L135:
 2162                             		.loc 2 330 7 view .LVU818
 2163                             	.LBE363:
 2164                             	.LBE362:
 2165                             	.LBE364:
 2166                             	.LBE374:
 2167                             	.LBB375:
 2168                             	.LBB369:
 2169                             	.LBB367:
 2170                             	.LBI367:
 319:../src/smc_gen/r_drw2d_rx/src/tes/dave_intern.h **** {
 2171                             		.loc 2 319 23 is_stmt 1 view .LVU819
 2172                             	.LBB368:
 2173                             		.loc 2 330 7 view .LVU820
 2174                             		.loc 2 330 13 is_stmt 0 view .LVU821
 2175 08fc ED 75 70                		mov.L	448[r7], r5
 2176                             		.loc 2 330 7 view .LVU822
 2177 08ff EF 71                   		mov.L	r7, r1
 2178 0901 7F 15                   		jsr	r5
 2179                             	.LVL214:
 2180                             		.loc 2 330 7 view .LVU823
 2181 0903 2E BC                   		bra	.L55
 2182                             	.LVL215:
 2183                             	.L53:
 2184                             		.loc 2 330 7 view .LVU824
 2185                             	.LBE368:
 2186                             	.LBE367:
 2187                             	.LBE369:
 2188                             	.LBE375:
 490:../src/smc_gen/r_drw2d_rx/src/tes/dave_line.c ****             D2_DLISTWRITES( D2_L4XADD , -edge[3].xadd );
 2189                             		.loc 1 490 13 is_stmt 1 view .LVU825
 2190 0905 AC 0D                   		mov.L	68[r0], r5
 2191 0907 43 56                   		sub	r5, r6
 2192                             	.LVL216:
 2193                             	.LBB376:
 2194                             	.LBI376:
 319:../src/smc_gen/r_drw2d_rx/src/tes/dave_intern.h **** {
 2195                             		.loc 2 319 23 view .LVU826
 2196                             	.LBB377:
 321:../src/smc_gen/r_drw2d_rx/src/tes/dave_intern.h ****    handle->dlscratch_pos++;
 2197                             		.loc 2 321 4 view .LVU827
 321:../src/smc_gen/r_drw2d_rx/src/tes/dave_intern.h ****    handle->dlscratch_pos++;
 2198                             		.loc 2 321 28 is_stmt 0 view .LVU828
 2199 0909 ED 75 6E                		mov.L	440[r7], r5
 2200                             	.LVL217:
 322:../src/smc_gen/r_drw2d_rx/src/tes/dave_intern.h **** 
 2201                             		.loc 2 322 4 is_stmt 1 view .LVU829
 322:../src/smc_gen/r_drw2d_rx/src/tes/dave_intern.h **** 
 2202                             		.loc 2 322 25 is_stmt 0 view .LVU830
 2203 090c 71 54 08                		add	#8, r5, r4
 2204 090f E7 74 6E                		mov.L	r4, 440[r7]
 324:../src/smc_gen/r_drw2d_rx/src/tes/dave_intern.h ****    entry->value = value;
 2205                             		.loc 2 324 4 is_stmt 1 view .LVU831
 324:../src/smc_gen/r_drw2d_rx/src/tes/dave_intern.h ****    entry->value = value;
 2206                             		.loc 2 324 17 is_stmt 0 view .LVU832
 2207 0912 F8 56 07                		mov.L	#7, [r5]
 325:../src/smc_gen/r_drw2d_rx/src/tes/dave_intern.h **** 
 2208                             		.loc 2 325 4 is_stmt 1 view .LVU833
 325:../src/smc_gen/r_drw2d_rx/src/tes/dave_intern.h **** 
 2209                             		.loc 2 325 17 is_stmt 0 view .LVU834
 2210 0915 A0 5E                   		mov.L	r6, 4[r5]
 327:../src/smc_gen/r_drw2d_rx/src/tes/dave_intern.h ****    if(handle->dlscratch_cnt <= 0)
 2211                             		.loc 2 327 4 is_stmt 1 view .LVU835
 327:../src/smc_gen/r_drw2d_rx/src/tes/dave_intern.h ****    if(handle->dlscratch_cnt <= 0)
 2212                             		.loc 2 327 12 is_stmt 0 view .LVU836
 2213 0917 ED 75 6F                		mov.L	444[r7], r5
 2214                             	.LVL218:
 327:../src/smc_gen/r_drw2d_rx/src/tes/dave_intern.h ****    if(handle->dlscratch_cnt <= 0)
 2215                             		.loc 2 327 4 view .LVU837
 2216 091a 60 15                   		sub	#1, r5
 2217 091c E7 75 6F                		mov.L	r5, 444[r7]
 328:../src/smc_gen/r_drw2d_rx/src/tes/dave_intern.h ****    {
 2218                             		.loc 2 328 4 is_stmt 1 view .LVU838
 328:../src/smc_gen/r_drw2d_rx/src/tes/dave_intern.h ****    {
 2219                             		.loc 2 328 6 is_stmt 0 view .LVU839
 2220 091f 61 05                   		cmp	#0, r5
 2221 0921 2B 4B                   		ble	.L136
 2222                             	.LVL219:
 2223                             	.L56:
 328:../src/smc_gen/r_drw2d_rx/src/tes/dave_intern.h ****    {
 2224                             		.loc 2 328 6 view .LVU840
 2225                             	.LBE377:
 2226                             	.LBE376:
 491:../src/smc_gen/r_drw2d_rx/src/tes/dave_line.c ****             D2_DLISTWRITES( D2_L4YADD , -edge[3].yadd );
 2227                             		.loc 1 491 13 is_stmt 1 view .LVU841
 2228 0923 AC 84                   		mov.L	72[r0], r4
 2229 0925 7E 14                   		neg	r4
 2230                             	.LVL220:
 2231                             	.LBB381:
 2232                             	.LBI381:
 319:../src/smc_gen/r_drw2d_rx/src/tes/dave_intern.h **** {
 2233                             		.loc 2 319 23 view .LVU842
 2234                             	.LBB382:
 321:../src/smc_gen/r_drw2d_rx/src/tes/dave_intern.h ****    handle->dlscratch_pos++;
 2235                             		.loc 2 321 4 view .LVU843
 321:../src/smc_gen/r_drw2d_rx/src/tes/dave_intern.h ****    handle->dlscratch_pos++;
 2236                             		.loc 2 321 28 is_stmt 0 view .LVU844
 2237 0927 ED 75 6E                		mov.L	440[r7], r5
 2238                             	.LVL221:
 322:../src/smc_gen/r_drw2d_rx/src/tes/dave_intern.h **** 
 2239                             		.loc 2 322 4 is_stmt 1 view .LVU845
 322:../src/smc_gen/r_drw2d_rx/src/tes/dave_intern.h **** 
 2240                             		.loc 2 322 25 is_stmt 0 view .LVU846
 2241 092a 71 53 08                		add	#8, r5, r3
 2242 092d E7 73 6E                		mov.L	r3, 440[r7]
 324:../src/smc_gen/r_drw2d_rx/src/tes/dave_intern.h ****    entry->value = value;
 2243                             		.loc 2 324 4 is_stmt 1 view .LVU847
 324:../src/smc_gen/r_drw2d_rx/src/tes/dave_intern.h ****    entry->value = value;
 2244                             		.loc 2 324 17 is_stmt 0 view .LVU848
 2245 0930 F8 56 0D                		mov.L	#13, [r5]
 325:../src/smc_gen/r_drw2d_rx/src/tes/dave_intern.h **** 
 2246                             		.loc 2 325 4 is_stmt 1 view .LVU849
 325:../src/smc_gen/r_drw2d_rx/src/tes/dave_intern.h **** 
 2247                             		.loc 2 325 17 is_stmt 0 view .LVU850
 2248 0933 A0 5C                   		mov.L	r4, 4[r5]
 327:../src/smc_gen/r_drw2d_rx/src/tes/dave_intern.h ****    if(handle->dlscratch_cnt <= 0)
 2249                             		.loc 2 327 4 is_stmt 1 view .LVU851
 327:../src/smc_gen/r_drw2d_rx/src/tes/dave_intern.h ****    if(handle->dlscratch_cnt <= 0)
 2250                             		.loc 2 327 12 is_stmt 0 view .LVU852
 2251 0935 ED 75 6F                		mov.L	444[r7], r5
 2252                             	.LVL222:
 327:../src/smc_gen/r_drw2d_rx/src/tes/dave_intern.h ****    if(handle->dlscratch_cnt <= 0)
 2253                             		.loc 2 327 4 view .LVU853
 2254 0938 60 15                   		sub	#1, r5
 2255 093a E7 75 6F                		mov.L	r5, 444[r7]
 328:../src/smc_gen/r_drw2d_rx/src/tes/dave_intern.h ****    {
 2256                             		.loc 2 328 4 is_stmt 1 view .LVU854
 328:../src/smc_gen/r_drw2d_rx/src/tes/dave_intern.h ****    {
 2257                             		.loc 2 328 6 is_stmt 0 view .LVU855
 2258 093d 61 05                   		cmp	#0, r5
 2259 093f 2B 36                   		ble	.L137
 2260                             	.LVL223:
 2261                             	.L57:
 328:../src/smc_gen/r_drw2d_rx/src/tes/dave_intern.h ****    {
 2262                             		.loc 2 328 6 view .LVU856
 2263                             	.LBE382:
 2264                             	.LBE381:
 492:../src/smc_gen/r_drw2d_rx/src/tes/dave_line.c ****          }
 2265                             		.loc 1 492 13 is_stmt 1 view .LVU857
 2266 0941 AC 8C                   		mov.L	76[r0], r4
 2267 0943 7E 14                   		neg	r4
 2268                             	.LVL224:
 2269                             	.LBB386:
 2270                             	.LBI386:
 319:../src/smc_gen/r_drw2d_rx/src/tes/dave_intern.h **** {
 2271                             		.loc 2 319 23 view .LVU858
 2272                             	.LBB387:
 321:../src/smc_gen/r_drw2d_rx/src/tes/dave_intern.h ****    handle->dlscratch_pos++;
 2273                             		.loc 2 321 4 view .LVU859
 321:../src/smc_gen/r_drw2d_rx/src/tes/dave_intern.h ****    handle->dlscratch_pos++;
 2274                             		.loc 2 321 28 is_stmt 0 view .LVU860
 2275 0945 ED 75 6E                		mov.L	440[r7], r5
 2276                             	.LVL225:
 322:../src/smc_gen/r_drw2d_rx/src/tes/dave_intern.h **** 
 2277                             		.loc 2 322 4 is_stmt 1 view .LVU861
 322:../src/smc_gen/r_drw2d_rx/src/tes/dave_intern.h **** 
 2278                             		.loc 2 322 25 is_stmt 0 view .LVU862
 2279 0948 71 53 08                		add	#8, r5, r3
 2280 094b E7 73 6E                		mov.L	r3, 440[r7]
 324:../src/smc_gen/r_drw2d_rx/src/tes/dave_intern.h ****    entry->value = value;
 2281                             		.loc 2 324 4 is_stmt 1 view .LVU863
 324:../src/smc_gen/r_drw2d_rx/src/tes/dave_intern.h ****    entry->value = value;
 2282                             		.loc 2 324 17 is_stmt 0 view .LVU864
 2283 094e F8 56 13                		mov.L	#19, [r5]
 325:../src/smc_gen/r_drw2d_rx/src/tes/dave_intern.h **** 
 2284                             		.loc 2 325 4 is_stmt 1 view .LVU865
 325:../src/smc_gen/r_drw2d_rx/src/tes/dave_intern.h **** 
 2285                             		.loc 2 325 17 is_stmt 0 view .LVU866
 2286 0951 A0 5C                   		mov.L	r4, 4[r5]
 327:../src/smc_gen/r_drw2d_rx/src/tes/dave_intern.h ****    if(handle->dlscratch_cnt <= 0)
 2287                             		.loc 2 327 4 is_stmt 1 view .LVU867
 327:../src/smc_gen/r_drw2d_rx/src/tes/dave_intern.h ****    if(handle->dlscratch_cnt <= 0)
 2288                             		.loc 2 327 12 is_stmt 0 view .LVU868
 2289 0953 ED 75 6F                		mov.L	444[r7], r5
 2290                             	.LVL226:
 327:../src/smc_gen/r_drw2d_rx/src/tes/dave_intern.h ****    if(handle->dlscratch_cnt <= 0)
 2291                             		.loc 2 327 4 view .LVU869
 2292 0956 60 15                   		sub	#1, r5
 2293 0958 E7 75 6F                		mov.L	r5, 444[r7]
 328:../src/smc_gen/r_drw2d_rx/src/tes/dave_intern.h ****    {
 2294                             		.loc 2 328 4 is_stmt 1 view .LVU870
 328:../src/smc_gen/r_drw2d_rx/src/tes/dave_intern.h ****    {
 2295                             		.loc 2 328 6 is_stmt 0 view .LVU871
 2296 095b 61 05                   		cmp	#0, r5
 2297 095d 2B 05 38 C6 F9          		bgt	.L44
 2298                             	.LVL227:
 2299                             	.LBB388:
 2300                             	.LBI388:
 319:../src/smc_gen/r_drw2d_rx/src/tes/dave_intern.h **** {
 2301                             		.loc 2 319 23 is_stmt 1 view .LVU872
 2302                             	.LBB389:
 2303                             		.loc 2 330 7 view .LVU873
 2304                             		.loc 2 330 13 is_stmt 0 view .LVU874
 2305 0962 ED 75 70                		mov.L	448[r7], r5
 2306                             		.loc 2 330 7 view .LVU875
 2307 0965 EF 71                   		mov.L	r7, r1
 2308 0967 7F 15                   		jsr	r5
 2309                             	.LVL228:
 2310                             		.loc 2 330 7 view .LVU876
 2311 0969 38 BC F9                		bra	.L44
 2312                             	.LVL229:
 2313                             	.L136:
 2314                             		.loc 2 330 7 view .LVU877
 2315                             	.LBE389:
 2316                             	.LBE388:
 2317                             	.LBE387:
 2318                             	.LBE386:
 2319                             	.LBB390:
 2320                             	.LBB380:
 2321                             	.LBB378:
 2322                             	.LBI378:
 319:../src/smc_gen/r_drw2d_rx/src/tes/dave_intern.h **** {
 2323                             		.loc 2 319 23 is_stmt 1 view .LVU878
 2324                             	.LBB379:
 2325                             		.loc 2 330 7 view .LVU879
 2326                             		.loc 2 330 13 is_stmt 0 view .LVU880
 2327 096c ED 75 70                		mov.L	448[r7], r5
 2328                             		.loc 2 330 7 view .LVU881
 2329 096f EF 71                   		mov.L	r7, r1
 2330 0971 7F 15                   		jsr	r5
 2331                             	.LVL230:
 2332                             		.loc 2 330 7 view .LVU882
 2333 0973 2E B0                   		bra	.L56
 2334                             	.LVL231:
 2335                             	.L137:
 2336                             		.loc 2 330 7 view .LVU883
 2337                             	.LBE379:
 2338                             	.LBE378:
 2339                             	.LBE380:
 2340                             	.LBE390:
 2341                             	.LBB391:
 2342                             	.LBB385:
 2343                             	.LBB383:
 2344                             	.LBI383:
 319:../src/smc_gen/r_drw2d_rx/src/tes/dave_intern.h **** {
 2345                             		.loc 2 319 23 is_stmt 1 view .LVU884
 2346                             	.LBB384:
 2347                             		.loc 2 330 7 view .LVU885
 2348                             		.loc 2 330 13 is_stmt 0 view .LVU886
 2349 0975 ED 75 70                		mov.L	448[r7], r5
 2350                             		.loc 2 330 7 view .LVU887
 2351 0978 EF 71                   		mov.L	r7, r1
 2352 097a 7F 15                   		jsr	r5
 2353                             	.LVL232:
 2354                             		.loc 2 330 7 view .LVU888
 2355 097c 2E C5                   		bra	.L57
 2356                             	.LVL233:
 2357                             	.L114:
 2358                             		.loc 2 330 7 view .LVU889
 2359                             	.LBE384:
 2360                             	.LBE383:
 2361                             	.LBE385:
 2362                             	.LBE391:
 2363                             	.LBB392:
 2364                             	.LBB274:
 2365                             	.LBB272:
 2366                             	.LBI272:
 319:../src/smc_gen/r_drw2d_rx/src/tes/dave_intern.h **** {
 2367                             		.loc 2 319 23 is_stmt 1 view .LVU890
 2368                             	.LBB273:
 2369                             		.loc 2 330 7 view .LVU891
 2370                             		.loc 2 330 13 is_stmt 0 view .LVU892
 2371 097e ED 75 70                		mov.L	448[r7], r5
 2372                             		.loc 2 330 7 view .LVU893
 2373 0981 EF 71                   		mov.L	r7, r1
 2374 0983 7F 15                   		jsr	r5
 2375                             	.LVL234:
 2376                             		.loc 2 330 7 view .LVU894
 2377 0985 38 BF F9                		bra	.L58
 2378                             	.LVL235:
 2379                             	.L115:
 2380                             		.loc 2 330 7 view .LVU895
 2381                             	.LBE273:
 2382                             	.LBE272:
 2383                             	.LBE274:
 2384                             	.LBE392:
 2385                             	.LBB393:
 2386                             	.LBB279:
 2387                             	.LBB277:
 2388                             	.LBI277:
 319:../src/smc_gen/r_drw2d_rx/src/tes/dave_intern.h **** {
 2389                             		.loc 2 319 23 is_stmt 1 view .LVU896
 2390                             	.LBB278:
 2391                             		.loc 2 330 7 view .LVU897
 2392                             		.loc 2 330 13 is_stmt 0 view .LVU898
 2393 0988 ED 75 70                		mov.L	448[r7], r5
 2394                             		.loc 2 330 7 view .LVU899
 2395 098b EF 71                   		mov.L	r7, r1
 2396 098d 7F 15                   		jsr	r5
 2397                             	.LVL236:
 2398                             		.loc 2 330 7 view .LVU900
 2399 098f 38 D4 F9                		bra	.L59
 2400                             	.LVL237:
 2401                             	.L116:
 2402                             		.loc 2 330 7 view .LVU901
 2403                             	.LBE278:
 2404                             	.LBE277:
 2405                             	.LBE279:
 2406                             	.LBE393:
 2407                             	.LBB394:
 2408                             	.LBB284:
 2409                             	.LBB282:
 2410                             	.LBI282:
 319:../src/smc_gen/r_drw2d_rx/src/tes/dave_intern.h **** {
 2411                             		.loc 2 319 23 is_stmt 1 view .LVU902
 2412                             	.LBB283:
 2413                             		.loc 2 330 7 view .LVU903
 2414                             		.loc 2 330 13 is_stmt 0 view .LVU904
 2415 0992 ED 75 70                		mov.L	448[r7], r5
 2416                             		.loc 2 330 7 view .LVU905
 2417 0995 EF 71                   		mov.L	r7, r1
 2418 0997 7F 15                   		jsr	r5
 2419                             	.LVL238:
 2420                             		.loc 2 330 7 view .LVU906
 2421 0999 38 E9 F9                		bra	.L60
 2422                             	.LVL239:
 2423                             	.L117:
 2424                             		.loc 2 330 7 view .LVU907
 2425                             	.LBE283:
 2426                             	.LBE282:
 2427                             	.LBE284:
 2428                             	.LBE394:
 2429                             	.LBB395:
 2430                             	.LBB289:
 2431                             	.LBB287:
 2432                             	.LBI287:
 319:../src/smc_gen/r_drw2d_rx/src/tes/dave_intern.h **** {
 2433                             		.loc 2 319 23 is_stmt 1 view .LVU908
 2434                             	.LBB288:
 2435                             		.loc 2 330 7 view .LVU909
 2436                             		.loc 2 330 13 is_stmt 0 view .LVU910
 2437 099c ED 75 70                		mov.L	448[r7], r5
 2438                             		.loc 2 330 7 view .LVU911
 2439 099f EF 71                   		mov.L	r7, r1
 2440 09a1 7F 15                   		jsr	r5
 2441                             	.LVL240:
 2442                             		.loc 2 330 7 view .LVU912
 2443 09a3 38 05 FA                		bra	.L62
 2444                             	.LVL241:
 2445                             	.L118:
 2446                             		.loc 2 330 7 view .LVU913
 2447                             	.LBE288:
 2448                             	.LBE287:
 2449                             	.LBE289:
 2450                             	.LBE395:
 2451                             	.LBB396:
 2452                             	.LBB294:
 2453                             	.LBB292:
 2454                             	.LBI292:
 319:../src/smc_gen/r_drw2d_rx/src/tes/dave_intern.h **** {
 2455                             		.loc 2 319 23 is_stmt 1 view .LVU914
 2456                             	.LBB293:
 2457                             		.loc 2 330 7 view .LVU915
 2458                             		.loc 2 330 13 is_stmt 0 view .LVU916
 2459 09a6 ED 75 70                		mov.L	448[r7], r5
 2460                             		.loc 2 330 7 view .LVU917
 2461 09a9 EF 71                   		mov.L	r7, r1
 2462 09ab 7F 15                   		jsr	r5
 2463                             	.LVL242:
 2464                             		.loc 2 330 7 view .LVU918
 2465 09ad 38 1A FA                		bra	.L63
 2466                             	.LVL243:
 2467                             	.L119:
 2468                             		.loc 2 330 7 view .LVU919
 2469                             	.LBE293:
 2470                             	.LBE292:
 2471                             	.LBE294:
 2472                             	.LBE396:
 2473                             	.LBB397:
 2474                             	.LBB299:
 2475                             	.LBB297:
 2476                             	.LBI297:
 319:../src/smc_gen/r_drw2d_rx/src/tes/dave_intern.h **** {
 2477                             		.loc 2 319 23 is_stmt 1 view .LVU920
 2478                             	.LBB298:
 2479                             		.loc 2 330 7 view .LVU921
 2480                             		.loc 2 330 13 is_stmt 0 view .LVU922
 2481 09b0 ED 75 70                		mov.L	448[r7], r5
 2482                             		.loc 2 330 7 view .LVU923
 2483 09b3 EF 71                   		mov.L	r7, r1
 2484 09b5 7F 15                   		jsr	r5
 2485                             	.LVL244:
 2486                             		.loc 2 330 7 view .LVU924
 2487 09b7 38 2F FA                		bra	.L64
 2488                             	.LVL245:
 2489                             	.L120:
 2490                             		.loc 2 330 7 view .LVU925
 2491                             	.LBE298:
 2492                             	.LBE297:
 2493                             	.LBE299:
 2494                             	.LBE397:
 2495                             	.LBB398:
 2496                             	.LBB304:
 2497                             	.LBB302:
 2498                             	.LBI302:
 319:../src/smc_gen/r_drw2d_rx/src/tes/dave_intern.h **** {
 2499                             		.loc 2 319 23 is_stmt 1 view .LVU926
 2500                             	.LBB303:
 2501                             		.loc 2 330 7 view .LVU927
 2502                             		.loc 2 330 13 is_stmt 0 view .LVU928
 2503 09ba ED 75 70                		mov.L	448[r7], r5
 2504                             		.loc 2 330 7 view .LVU929
 2505 09bd EF 71                   		mov.L	r7, r1
 2506 09bf 7F 15                   		jsr	r5
 2507                             	.LVL246:
 2508                             		.loc 2 330 7 view .LVU930
 2509 09c1 38 44 FA                		bra	.L65
 2510                             	.LVL247:
 2511                             	.L121:
 2512                             		.loc 2 330 7 view .LVU931
 2513                             	.LBE303:
 2514                             	.LBE302:
 2515                             	.LBE304:
 2516                             	.LBE398:
 2517                             	.LBB399:
 2518                             	.LBB309:
 2519                             	.LBB307:
 2520                             	.LBI307:
 319:../src/smc_gen/r_drw2d_rx/src/tes/dave_intern.h **** {
 2521                             		.loc 2 319 23 is_stmt 1 view .LVU932
 2522                             	.LBB308:
 2523                             		.loc 2 330 7 view .LVU933
 2524                             		.loc 2 330 13 is_stmt 0 view .LVU934
 2525 09c4 ED 75 70                		mov.L	448[r7], r5
 2526                             		.loc 2 330 7 view .LVU935
 2527 09c7 EF 71                   		mov.L	r7, r1
 2528 09c9 7F 15                   		jsr	r5
 2529                             	.LVL248:
 2530                             		.loc 2 330 7 view .LVU936
 2531 09cb 38 59 FA                		bra	.L66
 2532                             	.LVL249:
 2533                             	.L122:
 2534                             		.loc 2 330 7 view .LVU937
 2535                             	.LBE308:
 2536                             	.LBE307:
 2537                             	.LBE309:
 2538                             	.LBE399:
 2539                             	.LBB400:
 2540                             	.LBB314:
 2541                             	.LBB312:
 2542                             	.LBI312:
 319:../src/smc_gen/r_drw2d_rx/src/tes/dave_intern.h **** {
 2543                             		.loc 2 319 23 is_stmt 1 view .LVU938
 2544                             	.LBB313:
 2545                             		.loc 2 330 7 view .LVU939
 2546                             		.loc 2 330 13 is_stmt 0 view .LVU940
 2547 09ce ED 75 70                		mov.L	448[r7], r5
 2548                             		.loc 2 330 7 view .LVU941
 2549 09d1 EF 71                   		mov.L	r7, r1
 2550 09d3 7F 15                   		jsr	r5
 2551                             	.LVL250:
 2552                             		.loc 2 330 7 view .LVU942
 2553 09d5 38 6E FA                		bra	.L67
 2554                             	.LVL251:
 2555                             	.L61:
 2556                             		.loc 2 330 7 view .LVU943
 2557                             	.LBE313:
 2558                             	.LBE312:
 2559                             	.LBE314:
 2560                             	.LBE400:
 515:../src/smc_gen/r_drw2d_rx/src/tes/dave_line.c ****       D2_DLISTWRITES( D2_L2XADD , edge[1].xadd );
 2561                             		.loc 1 515 7 is_stmt 1 view .LVU944
 2562 09d8 AA 8C                   		mov.L	44[r0], r4
 2563                             	.LVL252:
 2564                             	.LBB401:
 2565                             	.LBI401:
 319:../src/smc_gen/r_drw2d_rx/src/tes/dave_intern.h **** {
 2566                             		.loc 2 319 23 view .LVU945
 2567                             	.LBB402:
 321:../src/smc_gen/r_drw2d_rx/src/tes/dave_intern.h ****    handle->dlscratch_pos++;
 2568                             		.loc 2 321 4 view .LVU946
 321:../src/smc_gen/r_drw2d_rx/src/tes/dave_intern.h ****    handle->dlscratch_pos++;
 2569                             		.loc 2 321 28 is_stmt 0 view .LVU947
 2570 09da ED 75 6E                		mov.L	440[r7], r5
 2571                             	.LVL253:
 322:../src/smc_gen/r_drw2d_rx/src/tes/dave_intern.h **** 
 2572                             		.loc 2 322 4 is_stmt 1 view .LVU948
 322:../src/smc_gen/r_drw2d_rx/src/tes/dave_intern.h **** 
 2573                             		.loc 2 322 25 is_stmt 0 view .LVU949
 2574 09dd 71 53 08                		add	#8, r5, r3
 2575 09e0 E7 73 6E                		mov.L	r3, 440[r7]
 324:../src/smc_gen/r_drw2d_rx/src/tes/dave_intern.h ****    entry->value = value;
 2576                             		.loc 2 324 4 is_stmt 1 view .LVU950
 324:../src/smc_gen/r_drw2d_rx/src/tes/dave_intern.h ****    entry->value = value;
 2577                             		.loc 2 324 17 is_stmt 0 view .LVU951
 2578 09e3 F8 56 05                		mov.L	#5, [r5]
 325:../src/smc_gen/r_drw2d_rx/src/tes/dave_intern.h **** 
 2579                             		.loc 2 325 4 is_stmt 1 view .LVU952
 325:../src/smc_gen/r_drw2d_rx/src/tes/dave_intern.h **** 
 2580                             		.loc 2 325 17 is_stmt 0 view .LVU953
 2581 09e6 A0 5C                   		mov.L	r4, 4[r5]
 327:../src/smc_gen/r_drw2d_rx/src/tes/dave_intern.h ****    if(handle->dlscratch_cnt <= 0)
 2582                             		.loc 2 327 4 is_stmt 1 view .LVU954
 327:../src/smc_gen/r_drw2d_rx/src/tes/dave_intern.h ****    if(handle->dlscratch_cnt <= 0)
 2583                             		.loc 2 327 12 is_stmt 0 view .LVU955
 2584 09e8 ED 75 6F                		mov.L	444[r7], r5
 2585                             	.LVL254:
 327:../src/smc_gen/r_drw2d_rx/src/tes/dave_intern.h ****    if(handle->dlscratch_cnt <= 0)
 2586                             		.loc 2 327 4 view .LVU956
 2587 09eb 60 15                   		sub	#1, r5
 2588 09ed E7 75 6F                		mov.L	r5, 444[r7]
 328:../src/smc_gen/r_drw2d_rx/src/tes/dave_intern.h ****    {
 2589                             		.loc 2 328 4 is_stmt 1 view .LVU957
 328:../src/smc_gen/r_drw2d_rx/src/tes/dave_intern.h ****    {
 2590                             		.loc 2 328 6 is_stmt 0 view .LVU958
 2591 09f0 61 05                   		cmp	#0, r5
 2592 09f2 2A 05 38 9F 00          		ble	.L138
 2593                             	.LVL255:
 2594                             	.L68:
 328:../src/smc_gen/r_drw2d_rx/src/tes/dave_intern.h ****    {
 2595                             		.loc 2 328 6 view .LVU959
 2596                             	.LBE402:
 2597                             	.LBE401:
 516:../src/smc_gen/r_drw2d_rx/src/tes/dave_line.c ****       D2_DLISTWRITES( D2_L2YADD , edge[1].yadd );
 2598                             		.loc 1 516 7 is_stmt 1 view .LVU960
 2599 09f7 AB 04                   		mov.L	48[r0], r4
 2600                             	.LVL256:
 2601                             	.LBB406:
 2602                             	.LBI406:
 319:../src/smc_gen/r_drw2d_rx/src/tes/dave_intern.h **** {
 2603                             		.loc 2 319 23 view .LVU961
 2604                             	.LBB407:
 321:../src/smc_gen/r_drw2d_rx/src/tes/dave_intern.h ****    handle->dlscratch_pos++;
 2605                             		.loc 2 321 4 view .LVU962
 321:../src/smc_gen/r_drw2d_rx/src/tes/dave_intern.h ****    handle->dlscratch_pos++;
 2606                             		.loc 2 321 28 is_stmt 0 view .LVU963
 2607 09f9 ED 75 6E                		mov.L	440[r7], r5
 2608                             	.LVL257:
 322:../src/smc_gen/r_drw2d_rx/src/tes/dave_intern.h **** 
 2609                             		.loc 2 322 4 is_stmt 1 view .LVU964
 322:../src/smc_gen/r_drw2d_rx/src/tes/dave_intern.h **** 
 2610                             		.loc 2 322 25 is_stmt 0 view .LVU965
 2611 09fc 71 53 08                		add	#8, r5, r3
 2612 09ff E7 73 6E                		mov.L	r3, 440[r7]
 324:../src/smc_gen/r_drw2d_rx/src/tes/dave_intern.h ****    entry->value = value;
 2613                             		.loc 2 324 4 is_stmt 1 view .LVU966
 324:../src/smc_gen/r_drw2d_rx/src/tes/dave_intern.h ****    entry->value = value;
 2614                             		.loc 2 324 17 is_stmt 0 view .LVU967
 2615 0a02 F8 56 0B                		mov.L	#11, [r5]
 325:../src/smc_gen/r_drw2d_rx/src/tes/dave_intern.h **** 
 2616                             		.loc 2 325 4 is_stmt 1 view .LVU968
 325:../src/smc_gen/r_drw2d_rx/src/tes/dave_intern.h **** 
 2617                             		.loc 2 325 17 is_stmt 0 view .LVU969
 2618 0a05 A0 5C                   		mov.L	r4, 4[r5]
 327:../src/smc_gen/r_drw2d_rx/src/tes/dave_intern.h ****    if(handle->dlscratch_cnt <= 0)
 2619                             		.loc 2 327 4 is_stmt 1 view .LVU970
 327:../src/smc_gen/r_drw2d_rx/src/tes/dave_intern.h ****    if(handle->dlscratch_cnt <= 0)
 2620                             		.loc 2 327 12 is_stmt 0 view .LVU971
 2621 0a07 ED 75 6F                		mov.L	444[r7], r5
 2622                             	.LVL258:
 327:../src/smc_gen/r_drw2d_rx/src/tes/dave_intern.h ****    if(handle->dlscratch_cnt <= 0)
 2623                             		.loc 2 327 4 view .LVU972
 2624 0a0a 60 15                   		sub	#1, r5
 2625 0a0c E7 75 6F                		mov.L	r5, 444[r7]
 328:../src/smc_gen/r_drw2d_rx/src/tes/dave_intern.h ****    {
 2626                             		.loc 2 328 4 is_stmt 1 view .LVU973
 328:../src/smc_gen/r_drw2d_rx/src/tes/dave_intern.h ****    {
 2627                             		.loc 2 328 6 is_stmt 0 view .LVU974
 2628 0a0f 61 05                   		cmp	#0, r5
 2629 0a11 2A 05 38 8A 00          		ble	.L139
 2630                             	.LVL259:
 2631                             	.L69:
 328:../src/smc_gen/r_drw2d_rx/src/tes/dave_intern.h ****    {
 2632                             		.loc 2 328 6 view .LVU975
 2633                             	.LBE407:
 2634                             	.LBE406:
 517:../src/smc_gen/r_drw2d_rx/src/tes/dave_line.c ****       D2_DLISTWRITES( D2_L5START, edge[2].start );
 2635                             		.loc 1 517 7 is_stmt 1 view .LVU976
 2636 0a16 AB 0C                   		mov.L	52[r0], r4
 2637                             	.LVL260:
 2638                             	.LBB411:
 2639                             	.LBI411:
 319:../src/smc_gen/r_drw2d_rx/src/tes/dave_intern.h **** {
 2640                             		.loc 2 319 23 view .LVU977
 2641                             	.LBB412:
 321:../src/smc_gen/r_drw2d_rx/src/tes/dave_intern.h ****    handle->dlscratch_pos++;
 2642                             		.loc 2 321 4 view .LVU978
 321:../src/smc_gen/r_drw2d_rx/src/tes/dave_intern.h ****    handle->dlscratch_pos++;
 2643                             		.loc 2 321 28 is_stmt 0 view .LVU979
 2644 0a18 ED 75 6E                		mov.L	440[r7], r5
 2645                             	.LVL261:
 322:../src/smc_gen/r_drw2d_rx/src/tes/dave_intern.h **** 
 2646                             		.loc 2 322 4 is_stmt 1 view .LVU980
 322:../src/smc_gen/r_drw2d_rx/src/tes/dave_intern.h **** 
 2647                             		.loc 2 322 25 is_stmt 0 view .LVU981
 2648 0a1b 71 53 08                		add	#8, r5, r3
 2649 0a1e E7 73 6E                		mov.L	r3, 440[r7]
 324:../src/smc_gen/r_drw2d_rx/src/tes/dave_intern.h ****    entry->value = value;
 2650                             		.loc 2 324 4 is_stmt 1 view .LVU982
 324:../src/smc_gen/r_drw2d_rx/src/tes/dave_intern.h ****    entry->value = value;
 2651                             		.loc 2 324 17 is_stmt 0 view .LVU983
 2652 0a21 F8 56 11                		mov.L	#17, [r5]
 325:../src/smc_gen/r_drw2d_rx/src/tes/dave_intern.h **** 
 2653                             		.loc 2 325 4 is_stmt 1 view .LVU984
 325:../src/smc_gen/r_drw2d_rx/src/tes/dave_intern.h **** 
 2654                             		.loc 2 325 17 is_stmt 0 view .LVU985
 2655 0a24 A0 5C                   		mov.L	r4, 4[r5]
 327:../src/smc_gen/r_drw2d_rx/src/tes/dave_intern.h ****    if(handle->dlscratch_cnt <= 0)
 2656                             		.loc 2 327 4 is_stmt 1 view .LVU986
 327:../src/smc_gen/r_drw2d_rx/src/tes/dave_intern.h ****    if(handle->dlscratch_cnt <= 0)
 2657                             		.loc 2 327 12 is_stmt 0 view .LVU987
 2658 0a26 ED 75 6F                		mov.L	444[r7], r5
 2659                             	.LVL262:
 327:../src/smc_gen/r_drw2d_rx/src/tes/dave_intern.h ****    if(handle->dlscratch_cnt <= 0)
 2660                             		.loc 2 327 4 view .LVU988
 2661 0a29 60 15                   		sub	#1, r5
 2662 0a2b E7 75 6F                		mov.L	r5, 444[r7]
 328:../src/smc_gen/r_drw2d_rx/src/tes/dave_intern.h ****    {
 2663                             		.loc 2 328 4 is_stmt 1 view .LVU989
 328:../src/smc_gen/r_drw2d_rx/src/tes/dave_intern.h ****    {
 2664                             		.loc 2 328 6 is_stmt 0 view .LVU990
 2665 0a2e 61 05                   		cmp	#0, r5
 2666 0a30 2B 77                   		ble	.L140
 2667                             	.LVL263:
 2668                             	.L70:
 328:../src/smc_gen/r_drw2d_rx/src/tes/dave_intern.h ****    {
 2669                             		.loc 2 328 6 view .LVU991
 2670                             	.LBE412:
 2671                             	.LBE411:
 518:../src/smc_gen/r_drw2d_rx/src/tes/dave_line.c ****       D2_DLISTWRITES( D2_L5XADD , edge[2].xadd );
 2672                             		.loc 1 518 7 is_stmt 1 view .LVU992
 2673 0a32 AB 84                   		mov.L	56[r0], r4
 2674                             	.LVL264:
 2675                             	.LBB416:
 2676                             	.LBI416:
 319:../src/smc_gen/r_drw2d_rx/src/tes/dave_intern.h **** {
 2677                             		.loc 2 319 23 view .LVU993
 2678                             	.LBB417:
 321:../src/smc_gen/r_drw2d_rx/src/tes/dave_intern.h ****    handle->dlscratch_pos++;
 2679                             		.loc 2 321 4 view .LVU994
 321:../src/smc_gen/r_drw2d_rx/src/tes/dave_intern.h ****    handle->dlscratch_pos++;
 2680                             		.loc 2 321 28 is_stmt 0 view .LVU995
 2681 0a34 ED 75 6E                		mov.L	440[r7], r5
 2682                             	.LVL265:
 322:../src/smc_gen/r_drw2d_rx/src/tes/dave_intern.h **** 
 2683                             		.loc 2 322 4 is_stmt 1 view .LVU996
 322:../src/smc_gen/r_drw2d_rx/src/tes/dave_intern.h **** 
 2684                             		.loc 2 322 25 is_stmt 0 view .LVU997
 2685 0a37 71 53 08                		add	#8, r5, r3
 2686 0a3a E7 73 6E                		mov.L	r3, 440[r7]
 324:../src/smc_gen/r_drw2d_rx/src/tes/dave_intern.h ****    entry->value = value;
 2687                             		.loc 2 324 4 is_stmt 1 view .LVU998
 324:../src/smc_gen/r_drw2d_rx/src/tes/dave_intern.h ****    entry->value = value;
 2688                             		.loc 2 324 17 is_stmt 0 view .LVU999
 2689 0a3d F8 56 08                		mov.L	#8, [r5]
 325:../src/smc_gen/r_drw2d_rx/src/tes/dave_intern.h **** 
 2690                             		.loc 2 325 4 is_stmt 1 view .LVU1000
 325:../src/smc_gen/r_drw2d_rx/src/tes/dave_intern.h **** 
 2691                             		.loc 2 325 17 is_stmt 0 view .LVU1001
 2692 0a40 A0 5C                   		mov.L	r4, 4[r5]
 327:../src/smc_gen/r_drw2d_rx/src/tes/dave_intern.h ****    if(handle->dlscratch_cnt <= 0)
 2693                             		.loc 2 327 4 is_stmt 1 view .LVU1002
 327:../src/smc_gen/r_drw2d_rx/src/tes/dave_intern.h ****    if(handle->dlscratch_cnt <= 0)
 2694                             		.loc 2 327 12 is_stmt 0 view .LVU1003
 2695 0a42 ED 75 6F                		mov.L	444[r7], r5
 2696                             	.LVL266:
 327:../src/smc_gen/r_drw2d_rx/src/tes/dave_intern.h ****    if(handle->dlscratch_cnt <= 0)
 2697                             		.loc 2 327 4 view .LVU1004
 2698 0a45 60 15                   		sub	#1, r5
 2699 0a47 E7 75 6F                		mov.L	r5, 444[r7]
 328:../src/smc_gen/r_drw2d_rx/src/tes/dave_intern.h ****    {
 2700                             		.loc 2 328 4 is_stmt 1 view .LVU1005
 328:../src/smc_gen/r_drw2d_rx/src/tes/dave_intern.h ****    {
 2701                             		.loc 2 328 6 is_stmt 0 view .LVU1006
 2702 0a4a 61 05                   		cmp	#0, r5
 2703 0a4c 2B 64                   		ble	.L141
 2704                             	.LVL267:
 2705                             	.L71:
 328:../src/smc_gen/r_drw2d_rx/src/tes/dave_intern.h ****    {
 2706                             		.loc 2 328 6 view .LVU1007
 2707                             	.LBE417:
 2708                             	.LBE416:
 519:../src/smc_gen/r_drw2d_rx/src/tes/dave_line.c ****       D2_DLISTWRITES( D2_L5YADD , edge[2].yadd );
 2709                             		.loc 1 519 7 is_stmt 1 view .LVU1008
 2710 0a4e AB 8C                   		mov.L	60[r0], r4
 2711                             	.LVL268:
 2712                             	.LBB421:
 2713                             	.LBI421:
 319:../src/smc_gen/r_drw2d_rx/src/tes/dave_intern.h **** {
 2714                             		.loc 2 319 23 view .LVU1009
 2715                             	.LBB422:
 321:../src/smc_gen/r_drw2d_rx/src/tes/dave_intern.h ****    handle->dlscratch_pos++;
 2716                             		.loc 2 321 4 view .LVU1010
 321:../src/smc_gen/r_drw2d_rx/src/tes/dave_intern.h ****    handle->dlscratch_pos++;
 2717                             		.loc 2 321 28 is_stmt 0 view .LVU1011
 2718 0a50 ED 75 6E                		mov.L	440[r7], r5
 2719                             	.LVL269:
 322:../src/smc_gen/r_drw2d_rx/src/tes/dave_intern.h **** 
 2720                             		.loc 2 322 4 is_stmt 1 view .LVU1012
 322:../src/smc_gen/r_drw2d_rx/src/tes/dave_intern.h **** 
 2721                             		.loc 2 322 25 is_stmt 0 view .LVU1013
 2722 0a53 71 53 08                		add	#8, r5, r3
 2723 0a56 E7 73 6E                		mov.L	r3, 440[r7]
 324:../src/smc_gen/r_drw2d_rx/src/tes/dave_intern.h ****    entry->value = value;
 2724                             		.loc 2 324 4 is_stmt 1 view .LVU1014
 324:../src/smc_gen/r_drw2d_rx/src/tes/dave_intern.h ****    entry->value = value;
 2725                             		.loc 2 324 17 is_stmt 0 view .LVU1015
 2726 0a59 F8 56 0E                		mov.L	#14, [r5]
 325:../src/smc_gen/r_drw2d_rx/src/tes/dave_intern.h **** 
 2727                             		.loc 2 325 4 is_stmt 1 view .LVU1016
 325:../src/smc_gen/r_drw2d_rx/src/tes/dave_intern.h **** 
 2728                             		.loc 2 325 17 is_stmt 0 view .LVU1017
 2729 0a5c A0 5C                   		mov.L	r4, 4[r5]
 327:../src/smc_gen/r_drw2d_rx/src/tes/dave_intern.h ****    if(handle->dlscratch_cnt <= 0)
 2730                             		.loc 2 327 4 is_stmt 1 view .LVU1018
 327:../src/smc_gen/r_drw2d_rx/src/tes/dave_intern.h ****    if(handle->dlscratch_cnt <= 0)
 2731                             		.loc 2 327 12 is_stmt 0 view .LVU1019
 2732 0a5e ED 75 6F                		mov.L	444[r7], r5
 2733                             	.LVL270:
 327:../src/smc_gen/r_drw2d_rx/src/tes/dave_intern.h ****    if(handle->dlscratch_cnt <= 0)
 2734                             		.loc 2 327 4 view .LVU1020
 2735 0a61 60 15                   		sub	#1, r5
 2736 0a63 E7 75 6F                		mov.L	r5, 444[r7]
 328:../src/smc_gen/r_drw2d_rx/src/tes/dave_intern.h ****    {
 2737                             		.loc 2 328 4 is_stmt 1 view .LVU1021
 328:../src/smc_gen/r_drw2d_rx/src/tes/dave_intern.h ****    {
 2738                             		.loc 2 328 6 is_stmt 0 view .LVU1022
 2739 0a66 61 05                   		cmp	#0, r5
 2740 0a68 2B 51                   		ble	.L142
 2741                             	.LVL271:
 2742                             	.L72:
 328:../src/smc_gen/r_drw2d_rx/src/tes/dave_intern.h ****    {
 2743                             		.loc 2 328 6 view .LVU1023
 2744                             	.LBE422:
 2745                             	.LBE421:
 520:../src/smc_gen/r_drw2d_rx/src/tes/dave_line.c ****    }
 2746                             		.loc 1 520 7 is_stmt 1 view .LVU1024
 2747 0a6a AC 04                   		mov.L	64[r0], r4
 2748                             	.LVL272:
 2749                             	.LBB426:
 2750                             	.LBI426:
 319:../src/smc_gen/r_drw2d_rx/src/tes/dave_intern.h **** {
 2751                             		.loc 2 319 23 view .LVU1025
 2752                             	.LBB427:
 321:../src/smc_gen/r_drw2d_rx/src/tes/dave_intern.h ****    handle->dlscratch_pos++;
 2753                             		.loc 2 321 4 view .LVU1026
 321:../src/smc_gen/r_drw2d_rx/src/tes/dave_intern.h ****    handle->dlscratch_pos++;
 2754                             		.loc 2 321 28 is_stmt 0 view .LVU1027
 2755 0a6c ED 75 6E                		mov.L	440[r7], r5
 2756                             	.LVL273:
 322:../src/smc_gen/r_drw2d_rx/src/tes/dave_intern.h **** 
 2757                             		.loc 2 322 4 is_stmt 1 view .LVU1028
 322:../src/smc_gen/r_drw2d_rx/src/tes/dave_intern.h **** 
 2758                             		.loc 2 322 25 is_stmt 0 view .LVU1029
 2759 0a6f 71 53 08                		add	#8, r5, r3
 2760 0a72 E7 73 6E                		mov.L	r3, 440[r7]
 324:../src/smc_gen/r_drw2d_rx/src/tes/dave_intern.h ****    entry->value = value;
 2761                             		.loc 2 324 4 is_stmt 1 view .LVU1030
 324:../src/smc_gen/r_drw2d_rx/src/tes/dave_intern.h ****    entry->value = value;
 2762                             		.loc 2 324 17 is_stmt 0 view .LVU1031
 2763 0a75 F8 56 14                		mov.L	#20, [r5]
 325:../src/smc_gen/r_drw2d_rx/src/tes/dave_intern.h **** 
 2764                             		.loc 2 325 4 is_stmt 1 view .LVU1032
 325:../src/smc_gen/r_drw2d_rx/src/tes/dave_intern.h **** 
 2765                             		.loc 2 325 17 is_stmt 0 view .LVU1033
 2766 0a78 A0 5C                   		mov.L	r4, 4[r5]
 327:../src/smc_gen/r_drw2d_rx/src/tes/dave_intern.h ****    if(handle->dlscratch_cnt <= 0)
 2767                             		.loc 2 327 4 is_stmt 1 view .LVU1034
 327:../src/smc_gen/r_drw2d_rx/src/tes/dave_intern.h ****    if(handle->dlscratch_cnt <= 0)
 2768                             		.loc 2 327 12 is_stmt 0 view .LVU1035
 2769 0a7a ED 75 6F                		mov.L	444[r7], r5
 2770                             	.LVL274:
 327:../src/smc_gen/r_drw2d_rx/src/tes/dave_intern.h ****    if(handle->dlscratch_cnt <= 0)
 2771                             		.loc 2 327 4 view .LVU1036
 2772 0a7d 60 15                   		sub	#1, r5
 2773 0a7f E7 75 6F                		mov.L	r5, 444[r7]
 328:../src/smc_gen/r_drw2d_rx/src/tes/dave_intern.h ****    {
 2774                             		.loc 2 328 4 is_stmt 1 view .LVU1037
 328:../src/smc_gen/r_drw2d_rx/src/tes/dave_intern.h ****    {
 2775                             		.loc 2 328 6 is_stmt 0 view .LVU1038
 2776 0a82 61 05                   		cmp	#0, r5
 2777 0a84 2B 05 38 BD F9          		bgt	.L67
 2778                             	.LVL275:
 2779                             	.LBB428:
 2780                             	.LBI428:
 319:../src/smc_gen/r_drw2d_rx/src/tes/dave_intern.h **** {
 2781                             		.loc 2 319 23 is_stmt 1 view .LVU1039
 2782                             	.LBB429:
 2783                             		.loc 2 330 7 view .LVU1040
 2784                             		.loc 2 330 13 is_stmt 0 view .LVU1041
 2785 0a89 ED 75 70                		mov.L	448[r7], r5
 2786                             		.loc 2 330 7 view .LVU1042
 2787 0a8c EF 71                   		mov.L	r7, r1
 2788 0a8e 7F 15                   		jsr	r5
 2789                             	.LVL276:
 2790                             		.loc 2 330 7 view .LVU1043
 2791 0a90 38 B3 F9                		bra	.L67
 2792                             	.LVL277:
 2793                             	.L138:
 2794                             		.loc 2 330 7 view .LVU1044
 2795                             	.LBE429:
 2796                             	.LBE428:
 2797                             	.LBE427:
 2798                             	.LBE426:
 2799                             	.LBB430:
 2800                             	.LBB405:
 2801                             	.LBB403:
 2802                             	.LBI403:
 319:../src/smc_gen/r_drw2d_rx/src/tes/dave_intern.h **** {
 2803                             		.loc 2 319 23 is_stmt 1 view .LVU1045
 2804                             	.LBB404:
 2805                             		.loc 2 330 7 view .LVU1046
 2806                             		.loc 2 330 13 is_stmt 0 view .LVU1047
 2807 0a93 ED 75 70                		mov.L	448[r7], r5
 2808                             		.loc 2 330 7 view .LVU1048
 2809 0a96 EF 71                   		mov.L	r7, r1
 2810 0a98 7F 15                   		jsr	r5
 2811                             	.LVL278:
 2812                             		.loc 2 330 7 view .LVU1049
 2813 0a9a 38 5D FF                		bra	.L68
 2814                             	.LVL279:
 2815                             	.L139:
 2816                             		.loc 2 330 7 view .LVU1050
 2817                             	.LBE404:
 2818                             	.LBE403:
 2819                             	.LBE405:
 2820                             	.LBE430:
 2821                             	.LBB431:
 2822                             	.LBB410:
 2823                             	.LBB408:
 2824                             	.LBI408:
 319:../src/smc_gen/r_drw2d_rx/src/tes/dave_intern.h **** {
 2825                             		.loc 2 319 23 is_stmt 1 view .LVU1051
 2826                             	.LBB409:
 2827                             		.loc 2 330 7 view .LVU1052
 2828                             		.loc 2 330 13 is_stmt 0 view .LVU1053
 2829 0a9d ED 75 70                		mov.L	448[r7], r5
 2830                             		.loc 2 330 7 view .LVU1054
 2831 0aa0 EF 71                   		mov.L	r7, r1
 2832 0aa2 7F 15                   		jsr	r5
 2833                             	.LVL280:
 2834                             		.loc 2 330 7 view .LVU1055
 2835 0aa4 38 72 FF                		bra	.L69
 2836                             	.LVL281:
 2837                             	.L140:
 2838                             		.loc 2 330 7 view .LVU1056
 2839                             	.LBE409:
 2840                             	.LBE408:
 2841                             	.LBE410:
 2842                             	.LBE431:
 2843                             	.LBB432:
 2844                             	.LBB415:
 2845                             	.LBB413:
 2846                             	.LBI413:
 319:../src/smc_gen/r_drw2d_rx/src/tes/dave_intern.h **** {
 2847                             		.loc 2 319 23 is_stmt 1 view .LVU1057
 2848                             	.LBB414:
 2849                             		.loc 2 330 7 view .LVU1058
 2850                             		.loc 2 330 13 is_stmt 0 view .LVU1059
 2851 0aa7 ED 75 70                		mov.L	448[r7], r5
 2852                             		.loc 2 330 7 view .LVU1060
 2853 0aaa EF 71                   		mov.L	r7, r1
 2854 0aac 7F 15                   		jsr	r5
 2855                             	.LVL282:
 2856                             		.loc 2 330 7 view .LVU1061
 2857 0aae 2E 84                   		bra	.L70
 2858                             	.LVL283:
 2859                             	.L141:
 2860                             		.loc 2 330 7 view .LVU1062
 2861                             	.LBE414:
 2862                             	.LBE413:
 2863                             	.LBE415:
 2864                             	.LBE432:
 2865                             	.LBB433:
 2866                             	.LBB420:
 2867                             	.LBB418:
 2868                             	.LBI418:
 319:../src/smc_gen/r_drw2d_rx/src/tes/dave_intern.h **** {
 2869                             		.loc 2 319 23 is_stmt 1 view .LVU1063
 2870                             	.LBB419:
 2871                             		.loc 2 330 7 view .LVU1064
 2872                             		.loc 2 330 13 is_stmt 0 view .LVU1065
 2873 0ab0 ED 75 70                		mov.L	448[r7], r5
 2874                             		.loc 2 330 7 view .LVU1066
 2875 0ab3 EF 71                   		mov.L	r7, r1
 2876 0ab5 7F 15                   		jsr	r5
 2877                             	.LVL284:
 2878                             		.loc 2 330 7 view .LVU1067
 2879 0ab7 2E 97                   		bra	.L71
 2880                             	.LVL285:
 2881                             	.L142:
 2882                             		.loc 2 330 7 view .LVU1068
 2883                             	.LBE419:
 2884                             	.LBE418:
 2885                             	.LBE420:
 2886                             	.LBE433:
 2887                             	.LBB434:
 2888                             	.LBB425:
 2889                             	.LBB423:
 2890                             	.LBI423:
 319:../src/smc_gen/r_drw2d_rx/src/tes/dave_intern.h **** {
 2891                             		.loc 2 319 23 is_stmt 1 view .LVU1069
 2892                             	.LBB424:
 2893                             		.loc 2 330 7 view .LVU1070
 2894                             		.loc 2 330 13 is_stmt 0 view .LVU1071
 2895 0ab9 ED 75 70                		mov.L	448[r7], r5
 2896                             		.loc 2 330 7 view .LVU1072
 2897 0abc EF 71                   		mov.L	r7, r1
 2898 0abe 7F 15                   		jsr	r5
 2899                             	.LVL286:
 2900                             		.loc 2 330 7 view .LVU1073
 2901 0ac0 2E AA                   		bra	.L72
 2902                             	.LVL287:
 2903                             	.L123:
 2904                             		.loc 2 330 7 view .LVU1074
 2905                             	.LBE424:
 2906                             	.LBE423:
 2907                             	.LBE425:
 2908                             	.LBE434:
 2909                             	.LBB435:
 2910                             	.LBB319:
 2911                             	.LBB317:
 2912                             	.LBI317:
 319:../src/smc_gen/r_drw2d_rx/src/tes/dave_intern.h **** {
 2913                             		.loc 2 319 23 is_stmt 1 view .LVU1075
 2914                             	.LBB318:
 2915                             		.loc 2 330 7 view .LVU1076
 2916                             		.loc 2 330 13 is_stmt 0 view .LVU1077
 2917 0ac2 ED 75 70                		mov.L	448[r7], r5
 2918                             		.loc 2 330 7 view .LVU1078
 2919 0ac5 EF 71                   		mov.L	r7, r1
 2920 0ac7 7F 15                   		jsr	r5
 2921                             	.LVL288:
 2922                             		.loc 2 330 7 view .LVU1079
 2923 0ac9 38 99 F9                		bra	.L73
 2924                             	.LVL289:
 2925                             	.L124:
 2926                             		.loc 2 330 7 view .LVU1080
 2927                             	.LBE318:
 2928                             	.LBE317:
 2929                             	.LBE319:
 2930                             	.LBE435:
 2931                             	.LBB436:
 2932                             	.LBB324:
 2933                             	.LBB322:
 2934                             	.LBI322:
 319:../src/smc_gen/r_drw2d_rx/src/tes/dave_intern.h **** {
 2935                             		.loc 2 319 23 is_stmt 1 view .LVU1081
 2936                             	.LBB323:
 2937                             		.loc 2 330 7 view .LVU1082
 2938                             		.loc 2 330 13 is_stmt 0 view .LVU1083
 2939 0acc ED 75 70                		mov.L	448[r7], r5
 2940                             		.loc 2 330 7 view .LVU1084
 2941 0acf EF 71                   		mov.L	r7, r1
 2942 0ad1 7F 15                   		jsr	r5
 2943                             	.LVL290:
 2944                             		.loc 2 330 7 view .LVU1085
 2945 0ad3 38 AD F9                		bra	.L74
 2946                             	.LVL291:
 2947                             	.L75:
 2948                             		.loc 2 330 7 view .LVU1086
 2949                             	.LBE323:
 2950                             	.LBE322:
 2951                             	.LBE324:
 2952                             	.LBE436:
 536:../src/smc_gen/r_drw2d_rx/src/tes/dave_line.c ****    }
 2953                             		.loc 1 536 7 is_stmt 1 view .LVU1087
 2954 0ad6 EF 63                   		mov.L	r6, r3
 2955 0ad8 75 42 10                		mov.L	#16, r2
 2956 0adb 4B 02                   		add	r0, r2
 2957 0add EF 71                   		mov.L	r7, r1
 2958 0adf 05 00 00 00             		bsr	_d2_startrender_intern
 2959                             	.LVL292:
 2960 0ae3 38 BB F9                		bra	.L76
 2961                             	.L125:
 543:../src/smc_gen/r_drw2d_rx/src/tes/dave_line.c ****       bbox2.ymin = (d2_point) D2_FLOOR4( y2 - er );
 2962                             		.loc 1 543 7 view .LVU1088
 543:../src/smc_gen/r_drw2d_rx/src/tes/dave_line.c ****       bbox2.ymin = (d2_point) D2_FLOOR4( y2 - er );
 2963                             		.loc 1 543 31 is_stmt 0 view .LVU1089
 2964 0ae6 DD 05 2C                		mov.W	88[r0], r5
 2965 0ae9 DD 01 48                		mov.W	144[r0], r1
 2966 0aec 43 15                   		sub	r1, r5
 543:../src/smc_gen/r_drw2d_rx/src/tes/dave_line.c ****       bbox2.ymin = (d2_point) D2_FLOOR4( y2 - er );
 2967                             		.loc 1 543 20 view .LVU1090
 2968 0aee 75 25 F0                		and #-16, r5
 543:../src/smc_gen/r_drw2d_rx/src/tes/dave_line.c ****       bbox2.ymin = (d2_point) D2_FLOOR4( y2 - er );
 2969                             		.loc 1 543 18 view .LVU1091
 2970 0af1 93 05                   		mov.W	r5, 24[r0]
 544:../src/smc_gen/r_drw2d_rx/src/tes/dave_line.c ****       bbox2.xmax = (d2_point) D2_CEIL4( x2 + er );
 2971                             		.loc 1 544 7 is_stmt 1 view .LVU1092
 544:../src/smc_gen/r_drw2d_rx/src/tes/dave_line.c ****       bbox2.xmax = (d2_point) D2_CEIL4( x2 + er );
 2972                             		.loc 1 544 31 is_stmt 0 view .LVU1093
 2973 0af3 DD 05 2E                		mov.W	92[r0], r5
 2974 0af6 43 15                   		sub	r1, r5
 544:../src/smc_gen/r_drw2d_rx/src/tes/dave_line.c ****       bbox2.xmax = (d2_point) D2_CEIL4( x2 + er );
 2975                             		.loc 1 544 20 view .LVU1094
 2976 0af8 75 25 F0                		and #-16, r5
 544:../src/smc_gen/r_drw2d_rx/src/tes/dave_line.c ****       bbox2.xmax = (d2_point) D2_CEIL4( x2 + er );
 2977                             		.loc 1 544 18 view .LVU1095
 2978 0afb 93 0D                   		mov.W	r5, 26[r0]
 545:../src/smc_gen/r_drw2d_rx/src/tes/dave_line.c ****       bbox2.ymax = (d2_point) D2_CEIL4( y2 + er );
 2979                             		.loc 1 545 7 is_stmt 1 view .LVU1096
 545:../src/smc_gen/r_drw2d_rx/src/tes/dave_line.c ****       bbox2.ymax = (d2_point) D2_CEIL4( y2 + er );
 2980                             		.loc 1 545 31 is_stmt 0 view .LVU1097
 2981 0afd DD 05 2C                		mov.W	88[r0], r5
 2982 0b00 4B 15                   		add	r1, r5
 2983 0b02 62 F5                   		add	#15, r5
 545:../src/smc_gen/r_drw2d_rx/src/tes/dave_line.c ****       bbox2.ymax = (d2_point) D2_CEIL4( y2 + er );
 2984                             		.loc 1 545 20 view .LVU1098
 2985 0b04 75 25 F0                		and #-16, r5
 545:../src/smc_gen/r_drw2d_rx/src/tes/dave_line.c ****       bbox2.ymax = (d2_point) D2_CEIL4( y2 + er );
 2986                             		.loc 1 545 18 view .LVU1099
 2987 0b07 93 85                   		mov.W	r5, 28[r0]
 546:../src/smc_gen/r_drw2d_rx/src/tes/dave_line.c **** 
 2988                             		.loc 1 546 7 is_stmt 1 view .LVU1100
 546:../src/smc_gen/r_drw2d_rx/src/tes/dave_line.c **** 
 2989                             		.loc 1 546 31 is_stmt 0 view .LVU1101
 2990 0b09 DF 15                   		mov.W	r1, r5
 2991 0b0b DD 03 2E                		mov.W	92[r0], r3
 2992 0b0e 4B 35                   		add	r3, r5
 2993 0b10 62 F5                   		add	#15, r5
 546:../src/smc_gen/r_drw2d_rx/src/tes/dave_line.c **** 
 2994                             		.loc 1 546 20 view .LVU1102
 2995 0b12 75 25 F0                		and #-16, r5
 546:../src/smc_gen/r_drw2d_rx/src/tes/dave_line.c **** 
 2996                             		.loc 1 546 18 view .LVU1103
 2997 0b15 93 8D                   		mov.W	r5, 30[r0]
 549:../src/smc_gen/r_drw2d_rx/src/tes/dave_line.c ****       {
 2998                             		.loc 1 549 7 is_stmt 1 view .LVU1104
 549:../src/smc_gen/r_drw2d_rx/src/tes/dave_line.c ****       {
 2999                             		.loc 1 549 15 is_stmt 0 view .LVU1105
 3000 0b17 71 02 18                		add	#24, r0, r2
 3001 0b1a EF 71                   		mov.L	r7, r1
 3002 0b1c 05 00 00 00             		bsr	_d2_clipbbox_intern
 3003                             	.LVL293:
 549:../src/smc_gen/r_drw2d_rx/src/tes/dave_line.c ****       {
 3004                             		.loc 1 549 9 view .LVU1106
 3005 0b20 61 01                   		cmp	#0, r1
 3006 0b22 1E                      		bne	.L143
 551:../src/smc_gen/r_drw2d_rx/src/tes/dave_line.c ****       }
 3007                             		.loc 1 551 17 view .LVU1107
 3008 0b23 66 11                   		mov.L	#1, r1
 3009 0b25 38 80 F9                		bra	.L1
 3010                             	.L143:
 555:../src/smc_gen/r_drw2d_rx/src/tes/dave_line.c ****       y2 = (d2_point)(y2 - bbox2.ymin);
 3011                             		.loc 1 555 7 is_stmt 1 view .LVU1108
 555:../src/smc_gen/r_drw2d_rx/src/tes/dave_line.c ****       y2 = (d2_point)(y2 - bbox2.ymin);
 3012                             		.loc 1 555 33 is_stmt 0 view .LVU1109
 3013 0b28 9B 04                   		mov.W	24[r0], r4
 3014                             	.LVL294:
 556:../src/smc_gen/r_drw2d_rx/src/tes/dave_line.c **** 
 3015                             		.loc 1 556 7 is_stmt 1 view .LVU1110
 556:../src/smc_gen/r_drw2d_rx/src/tes/dave_line.c **** 
 3016                             		.loc 1 556 33 is_stmt 0 view .LVU1111
 3017 0b2a 9B 0D                   		mov.W	26[r0], r5
 556:../src/smc_gen/r_drw2d_rx/src/tes/dave_line.c **** 
 3018                             		.loc 1 556 26 view .LVU1112
 3019 0b2c DD 01 2E                		mov.W	92[r0], r1
 3020 0b2f FF 05 51                		sub	r5, r1, r5
 3021                             	.LVL295:
 559:../src/smc_gen/r_drw2d_rx/src/tes/dave_line.c **** 
 3022                             		.loc 1 559 7 is_stmt 1 view .LVU1113
 3023 0b32 3E 03 00                		mov.L	#0, 12[r0]
 3024 0b35 3E 02 00                		mov.L	#0, 8[r0]
 3025 0b38 3E 01 00                		mov.L	#0, 4[r0]
 3026 0b3b D5 00 48 01             		mov.W	144[r0], 2[r0]
 3027 0b3f D3 05                   		mov.W	r5, [r0]
 3028 0b41 DD 03 2C                		mov.W	88[r0], r3
 3029 0b44 FF 04 43                		sub	r4, r3, r4
 3030                             	.LVL296:
 559:../src/smc_gen/r_drw2d_rx/src/tes/dave_line.c **** 
 3031                             		.loc 1 559 7 is_stmt 0 view .LVU1114
 3032 0b47 66 03                   		mov.L	#0, r3
 3033 0b49 EF A2                   		mov.L	r10, r2
 3034 0b4b EF 71                   		mov.L	r7, r1
 3035 0b4d 05 00 00 00             		bsr	_d2_circlesetup_intern
 3036                             	.LVL297:
 562:../src/smc_gen/r_drw2d_rx/src/tes/dave_line.c ****          D2C_LIM1ENABLE              | 
 3037                             		.loc 1 562 7 is_stmt 1 view .LVU1115
 566:../src/smc_gen/r_drw2d_rx/src/tes/dave_line.c ****          D2C_LIM3THRESHOLD           | 
 3038                             		.loc 1 566 17 is_stmt 0 view .LVU1116
 3039 0b51 ED 0B 21                		mov.L	132[r0], r11
 3040 0b54 76 2B 00 02             		and #0x200, r11
 562:../src/smc_gen/r_drw2d_rx/src/tes/dave_line.c ****          D2C_LIM1ENABLE              | 
 3041                             		.loc 1 562 15 view .LVU1117
 3042 0b58 77 3B 45 08 40          		or	#0x400845, r11
 3043                             	.LVL298:
 571:../src/smc_gen/r_drw2d_rx/src/tes/dave_line.c ****       d2_setuptexture( handle, ctx, &bbox2, 0 );
 3044                             		.loc 1 571 7 is_stmt 1 view .LVU1118
 3045 0b5d 66 04                   		mov.L	#0, r4
 3046 0b5f 75 43 18                		mov.L	#24, r3
 3047 0b62 4B 03                   		add	r0, r3
 3048 0b64 EF A2                   		mov.L	r10, r2
 3049 0b66 EF 71                   		mov.L	r7, r1
 3050 0b68 05 00 00 00             		bsr	_d2_setuppattern
 3051                             	.LVL299:
 572:../src/smc_gen/r_drw2d_rx/src/tes/dave_line.c **** 
 3052                             		.loc 1 572 7 view .LVU1119
 3053 0b6c 66 04                   		mov.L	#0, r4
 3054 0b6e 75 43 18                		mov.L	#24, r3
 3055 0b71 4B 03                   		add	r0, r3
 3056 0b73 EF A2                   		mov.L	r10, r2
 3057 0b75 EF 71                   		mov.L	r7, r1
 3058 0b77 05 00 00 00             		bsr	_d2_setuptexture
 3059                             	.LVL300:
 574:../src/smc_gen/r_drw2d_rx/src/tes/dave_line.c ****       {
 3060                             		.loc 1 574 7 view .LVU1120
 574:../src/smc_gen/r_drw2d_rx/src/tes/dave_line.c ****       {
 3061                             		.loc 1 574 19 is_stmt 0 view .LVU1121
 3062 0b7b CD A5 16                		mov.B	22[r10], r5
 574:../src/smc_gen/r_drw2d_rx/src/tes/dave_line.c ****       {
 3063                             		.loc 1 574 9 view .LVU1122
 3064 0b7e 64 65                   		and	#6, r5
 3065 0b80 3B C9 00                		bne	.L144
 3066                             	.L77:
 580:../src/smc_gen/r_drw2d_rx/src/tes/dave_line.c ****       {
 3067                             		.loc 1 580 7 is_stmt 1 view .LVU1123
 580:../src/smc_gen/r_drw2d_rx/src/tes/dave_line.c ****       {
 3068                             		.loc 1 580 9 is_stmt 0 view .LVU1124
 3069 0b83 ED 0A 15                		mov.L	84[r0], r10
 3070                             	.LVL301:
 580:../src/smc_gen/r_drw2d_rx/src/tes/dave_line.c ****       {
 3071                             		.loc 1 580 9 view .LVU1125
 3072 0b86 61 0A                   		cmp	#0, r10
 3073 0b88 3A D5 00                		beq	.L78
 582:../src/smc_gen/r_drw2d_rx/src/tes/dave_line.c ****          dy = D2_INT4(bbox2.ymin - bbox.ymin) - h;   /* PRQA S 0502 */ /* $Misra: #PERF_ARITHMETIC_
 3074                             		.loc 1 582 10 is_stmt 1 view .LVU1126
 582:../src/smc_gen/r_drw2d_rx/src/tes/dave_line.c ****          dy = D2_INT4(bbox2.ymin - bbox.ymin) - h;   /* PRQA S 0502 */ /* $Misra: #PERF_ARITHMETIC_
 3075                             		.loc 1 582 15 is_stmt 0 view .LVU1127
 3076 0b8b 9B 05                   		mov.W	24[r0], r5
 3077 0b8d DD 0A 08                		mov.W	16[r0], r10
 3078 0b90 43 A5                   		sub	r10, r5
 582:../src/smc_gen/r_drw2d_rx/src/tes/dave_line.c ****          dy = D2_INT4(bbox2.ymin - bbox.ymin) - h;   /* PRQA S 0502 */ /* $Misra: #PERF_ARITHMETIC_
 3079                             		.loc 1 582 13 view .LVU1128
 3080 0b92 6A 45                   		shar	#4, r5
 3081                             	.LVL302:
 583:../src/smc_gen/r_drw2d_rx/src/tes/dave_line.c ****          edge[2].yadd = -edge[2].yadd;
 3082                             		.loc 1 583 10 is_stmt 1 view .LVU1129
 583:../src/smc_gen/r_drw2d_rx/src/tes/dave_line.c ****          edge[2].yadd = -edge[2].yadd;
 3083                             		.loc 1 583 15 is_stmt 0 view .LVU1130
 3084 0b94 DD 0A 0D                		mov.W	26[r0], r10
 3085 0b97 06 41 0A 09             		sub	18[r0].W, r10
 3086 0b9b 6A 4A                   		shar	#4, r10
 583:../src/smc_gen/r_drw2d_rx/src/tes/dave_line.c ****          edge[2].yadd = -edge[2].yadd;
 3087                             		.loc 1 583 13 view .LVU1131
 3088 0b9d FF 0D DA                		sub	r13, r10, r13
 3089                             	.LVL303:
 584:../src/smc_gen/r_drw2d_rx/src/tes/dave_line.c ****       }
 3090                             		.loc 1 584 10 is_stmt 1 view .LVU1132
 584:../src/smc_gen/r_drw2d_rx/src/tes/dave_line.c ****       }
 3091                             		.loc 1 584 33 is_stmt 0 view .LVU1133
 3092 0ba0 ED 0A 10                		mov.L	64[r0], r10
 584:../src/smc_gen/r_drw2d_rx/src/tes/dave_line.c ****       }
 3093                             		.loc 1 584 25 view .LVU1134
 3094 0ba3 7E 1A                   		neg	r10
 584:../src/smc_gen/r_drw2d_rx/src/tes/dave_line.c ****       }
 3095                             		.loc 1 584 23 view .LVU1135
 3096 0ba5 E7 0A 10                		mov.L	r10, 64[r0]
 3097                             	.L79:
 593:../src/smc_gen/r_drw2d_rx/src/tes/dave_line.c ****                       (
 3098                             		.loc 1 593 7 is_stmt 1 view .LVU1136
 3099 0ba8 ED 0A 0E                		mov.L	56[r0], r10
 3100 0bab 7E 1A                   		neg	r10
 3101 0bad AB 8C                   		mov.L	60[r0], r4
 3102 0baf 4F 45                   		mul	r4, r5
 3103                             	.LVL304:
 593:../src/smc_gen/r_drw2d_rx/src/tes/dave_line.c ****                       (
 3104                             		.loc 1 593 7 is_stmt 0 view .LVU1137
 3105 0bb1 43 5A                   		sub	r5, r10
 3106 0bb3 AC 05                   		mov.L	64[r0], r5
 3107 0bb5 4F 5D                   		mul	r5, r13
 3108                             	.LVL305:
 593:../src/smc_gen/r_drw2d_rx/src/tes/dave_line.c ****                       (
 3109                             		.loc 1 593 7 view .LVU1138
 3110 0bb7 43 DA                   		sub	r13, r10
 3111 0bb9 73 AA 01 00 01          		add	#0x10001, r10
 3112                             	.LVL306:
 3113                             	.LBB437:
 3114                             	.LBI437:
 319:../src/smc_gen/r_drw2d_rx/src/tes/dave_intern.h **** {
 3115                             		.loc 2 319 23 is_stmt 1 view .LVU1139
 3116                             	.LBB438:
 321:../src/smc_gen/r_drw2d_rx/src/tes/dave_intern.h ****    handle->dlscratch_pos++;
 3117                             		.loc 2 321 4 view .LVU1140
 321:../src/smc_gen/r_drw2d_rx/src/tes/dave_intern.h ****    handle->dlscratch_pos++;
 3118                             		.loc 2 321 28 is_stmt 0 view .LVU1141
 3119 0bbe ED 75 6E                		mov.L	440[r7], r5
 3120                             	.LVL307:
 322:../src/smc_gen/r_drw2d_rx/src/tes/dave_intern.h **** 
 3121                             		.loc 2 322 4 is_stmt 1 view .LVU1142
 322:../src/smc_gen/r_drw2d_rx/src/tes/dave_intern.h **** 
 3122                             		.loc 2 322 25 is_stmt 0 view .LVU1143
 3123 0bc1 71 54 08                		add	#8, r5, r4
 3124 0bc4 E7 74 6E                		mov.L	r4, 440[r7]
 324:../src/smc_gen/r_drw2d_rx/src/tes/dave_intern.h ****    entry->value = value;
 3125                             		.loc 2 324 4 is_stmt 1 view .LVU1144
 324:../src/smc_gen/r_drw2d_rx/src/tes/dave_intern.h ****    entry->value = value;
 3126                             		.loc 2 324 17 is_stmt 0 view .LVU1145
 3127 0bc7 F8 56 06                		mov.L	#6, [r5]
 325:../src/smc_gen/r_drw2d_rx/src/tes/dave_intern.h **** 
 3128                             		.loc 2 325 4 is_stmt 1 view .LVU1146
 325:../src/smc_gen/r_drw2d_rx/src/tes/dave_intern.h **** 
 3129                             		.loc 2 325 17 is_stmt 0 view .LVU1147
 3130 0bca E7 5A 01                		mov.L	r10, 4[r5]
 327:../src/smc_gen/r_drw2d_rx/src/tes/dave_intern.h ****    if(handle->dlscratch_cnt <= 0)
 3131                             		.loc 2 327 4 is_stmt 1 view .LVU1148
 327:../src/smc_gen/r_drw2d_rx/src/tes/dave_intern.h ****    if(handle->dlscratch_cnt <= 0)
 3132                             		.loc 2 327 12 is_stmt 0 view .LVU1149
 3133 0bcd ED 7A 6F                		mov.L	444[r7], r10
 3134                             	.LVL308:
 327:../src/smc_gen/r_drw2d_rx/src/tes/dave_intern.h ****    if(handle->dlscratch_cnt <= 0)
 3135                             		.loc 2 327 4 view .LVU1150
 3136 0bd0 60 1A                   		sub	#1, r10
 3137 0bd2 E7 7A 6F                		mov.L	r10, 444[r7]
 3138                             	.LVL309:
 328:../src/smc_gen/r_drw2d_rx/src/tes/dave_intern.h ****    {
 3139                             		.loc 2 328 4 is_stmt 1 view .LVU1151
 328:../src/smc_gen/r_drw2d_rx/src/tes/dave_intern.h ****    {
 3140                             		.loc 2 328 6 is_stmt 0 view .LVU1152
 3141 0bd5 61 0A                   		cmp	#0, r10
 3142 0bd7 2A 05 38 99 00          		ble	.L145
 3143                             	.LVL310:
 3144                             	.L80:
 328:../src/smc_gen/r_drw2d_rx/src/tes/dave_intern.h ****    {
 3145                             		.loc 2 328 6 view .LVU1153
 3146                             	.LBE438:
 3147                             	.LBE437:
 603:../src/smc_gen/r_drw2d_rx/src/tes/dave_line.c ****       D2_DLISTWRITES( D2_L3YADD , -edge[2].yadd );
 3148                             		.loc 1 603 7 is_stmt 1 view .LVU1154
 3149 0bdc AB 8D                   		mov.L	60[r0], r5
 3150 0bde 7E 15                   		neg	r5
 3151                             	.LVL311:
 3152                             	.LBB442:
 3153                             	.LBI442:
 319:../src/smc_gen/r_drw2d_rx/src/tes/dave_intern.h **** {
 3154                             		.loc 2 319 23 view .LVU1155
 3155                             	.LBB443:
 321:../src/smc_gen/r_drw2d_rx/src/tes/dave_intern.h ****    handle->dlscratch_pos++;
 3156                             		.loc 2 321 4 view .LVU1156
 321:../src/smc_gen/r_drw2d_rx/src/tes/dave_intern.h ****    handle->dlscratch_pos++;
 3157                             		.loc 2 321 28 is_stmt 0 view .LVU1157
 3158 0be0 ED 7A 6E                		mov.L	440[r7], r10
 3159                             	.LVL312:
 322:../src/smc_gen/r_drw2d_rx/src/tes/dave_intern.h **** 
 3160                             		.loc 2 322 4 is_stmt 1 view .LVU1158
 322:../src/smc_gen/r_drw2d_rx/src/tes/dave_intern.h **** 
 3161                             		.loc 2 322 25 is_stmt 0 view .LVU1159
 3162 0be3 71 A4 08                		add	#8, r10, r4
 3163 0be6 E7 74 6E                		mov.L	r4, 440[r7]
 324:../src/smc_gen/r_drw2d_rx/src/tes/dave_intern.h ****    entry->value = value;
 3164                             		.loc 2 324 4 is_stmt 1 view .LVU1160
 324:../src/smc_gen/r_drw2d_rx/src/tes/dave_intern.h ****    entry->value = value;
 3165                             		.loc 2 324 17 is_stmt 0 view .LVU1161
 3166 0be9 F8 A6 0C                		mov.L	#12, [r10]
 325:../src/smc_gen/r_drw2d_rx/src/tes/dave_intern.h **** 
 3167                             		.loc 2 325 4 is_stmt 1 view .LVU1162
 325:../src/smc_gen/r_drw2d_rx/src/tes/dave_intern.h **** 
 3168                             		.loc 2 325 17 is_stmt 0 view .LVU1163
 3169 0bec E7 A5 01                		mov.L	r5, 4[r10]
 327:../src/smc_gen/r_drw2d_rx/src/tes/dave_intern.h ****    if(handle->dlscratch_cnt <= 0)
 3170                             		.loc 2 327 4 is_stmt 1 view .LVU1164
 327:../src/smc_gen/r_drw2d_rx/src/tes/dave_intern.h ****    if(handle->dlscratch_cnt <= 0)
 3171                             		.loc 2 327 12 is_stmt 0 view .LVU1165
 3172 0bef ED 7A 6F                		mov.L	444[r7], r10
 3173                             	.LVL313:
 327:../src/smc_gen/r_drw2d_rx/src/tes/dave_intern.h ****    if(handle->dlscratch_cnt <= 0)
 3174                             		.loc 2 327 4 view .LVU1166
 3175 0bf2 60 1A                   		sub	#1, r10
 3176 0bf4 E7 7A 6F                		mov.L	r10, 444[r7]
 328:../src/smc_gen/r_drw2d_rx/src/tes/dave_intern.h ****    {
 3177                             		.loc 2 328 4 is_stmt 1 view .LVU1167
 328:../src/smc_gen/r_drw2d_rx/src/tes/dave_intern.h ****    {
 3178                             		.loc 2 328 6 is_stmt 0 view .LVU1168
 3179 0bf7 61 0A                   		cmp	#0, r10
 3180 0bf9 2A 05 38 81 00          		ble	.L146
 3181                             	.LVL314:
 3182                             	.L81:
 328:../src/smc_gen/r_drw2d_rx/src/tes/dave_intern.h ****    {
 3183                             		.loc 2 328 6 view .LVU1169
 3184                             	.LBE443:
 3185                             	.LBE442:
 604:../src/smc_gen/r_drw2d_rx/src/tes/dave_line.c **** 
 3186                             		.loc 1 604 7 is_stmt 1 view .LVU1170
 3187 0bfe AC 05                   		mov.L	64[r0], r5
 3188 0c00 7E 15                   		neg	r5
 3189                             	.LVL315:
 3190                             	.LBB447:
 3191                             	.LBI447:
 319:../src/smc_gen/r_drw2d_rx/src/tes/dave_intern.h **** {
 3192                             		.loc 2 319 23 view .LVU1171
 3193                             	.LBB448:
 321:../src/smc_gen/r_drw2d_rx/src/tes/dave_intern.h ****    handle->dlscratch_pos++;
 3194                             		.loc 2 321 4 view .LVU1172
 321:../src/smc_gen/r_drw2d_rx/src/tes/dave_intern.h ****    handle->dlscratch_pos++;
 3195                             		.loc 2 321 28 is_stmt 0 view .LVU1173
 3196 0c02 ED 7A 6E                		mov.L	440[r7], r10
 3197                             	.LVL316:
 322:../src/smc_gen/r_drw2d_rx/src/tes/dave_intern.h **** 
 3198                             		.loc 2 322 4 is_stmt 1 view .LVU1174
 322:../src/smc_gen/r_drw2d_rx/src/tes/dave_intern.h **** 
 3199                             		.loc 2 322 25 is_stmt 0 view .LVU1175
 3200 0c05 71 A4 08                		add	#8, r10, r4
 3201 0c08 E7 74 6E                		mov.L	r4, 440[r7]
 324:../src/smc_gen/r_drw2d_rx/src/tes/dave_intern.h ****    entry->value = value;
 3202                             		.loc 2 324 4 is_stmt 1 view .LVU1176
 324:../src/smc_gen/r_drw2d_rx/src/tes/dave_intern.h ****    entry->value = value;
 3203                             		.loc 2 324 17 is_stmt 0 view .LVU1177
 3204 0c0b F8 A6 12                		mov.L	#18, [r10]
 325:../src/smc_gen/r_drw2d_rx/src/tes/dave_intern.h **** 
 3205                             		.loc 2 325 4 is_stmt 1 view .LVU1178
 325:../src/smc_gen/r_drw2d_rx/src/tes/dave_intern.h **** 
 3206                             		.loc 2 325 17 is_stmt 0 view .LVU1179
 3207 0c0e E7 A5 01                		mov.L	r5, 4[r10]
 327:../src/smc_gen/r_drw2d_rx/src/tes/dave_intern.h ****    if(handle->dlscratch_cnt <= 0)
 3208                             		.loc 2 327 4 is_stmt 1 view .LVU1180
 327:../src/smc_gen/r_drw2d_rx/src/tes/dave_intern.h ****    if(handle->dlscratch_cnt <= 0)
 3209                             		.loc 2 327 12 is_stmt 0 view .LVU1181
 3210 0c11 ED 7A 6F                		mov.L	444[r7], r10
 3211                             	.LVL317:
 327:../src/smc_gen/r_drw2d_rx/src/tes/dave_intern.h ****    if(handle->dlscratch_cnt <= 0)
 3212                             		.loc 2 327 4 view .LVU1182
 3213 0c14 60 1A                   		sub	#1, r10
 3214 0c16 E7 7A 6F                		mov.L	r10, 444[r7]
 328:../src/smc_gen/r_drw2d_rx/src/tes/dave_intern.h ****    {
 3215                             		.loc 2 328 4 is_stmt 1 view .LVU1183
 328:../src/smc_gen/r_drw2d_rx/src/tes/dave_intern.h ****    {
 3216                             		.loc 2 328 6 is_stmt 0 view .LVU1184
 3217 0c19 61 0A                   		cmp	#0, r10
 3218 0c1b 2B 6B                   		ble	.L147
 3219                             	.LVL318:
 3220                             	.L82:
 328:../src/smc_gen/r_drw2d_rx/src/tes/dave_intern.h ****    {
 3221                             		.loc 2 328 6 view .LVU1185
 3222                             	.LBE448:
 3223                             	.LBE447:
 606:../src/smc_gen/r_drw2d_rx/src/tes/dave_line.c **** 
 3224                             		.loc 1 606 7 is_stmt 1 view .LVU1186
 3225                             	.LBB452:
 3226                             	.LBI452:
 319:../src/smc_gen/r_drw2d_rx/src/tes/dave_intern.h **** {
 3227                             		.loc 2 319 23 view .LVU1187
 3228                             	.LBB453:
 321:../src/smc_gen/r_drw2d_rx/src/tes/dave_intern.h ****    handle->dlscratch_pos++;
 3229                             		.loc 2 321 4 view .LVU1188
 321:../src/smc_gen/r_drw2d_rx/src/tes/dave_intern.h ****    handle->dlscratch_pos++;
 3230                             		.loc 2 321 28 is_stmt 0 view .LVU1189
 3231 0c1d ED 7A 6E                		mov.L	440[r7], r10
 3232                             	.LVL319:
 322:../src/smc_gen/r_drw2d_rx/src/tes/dave_intern.h **** 
 3233                             		.loc 2 322 4 is_stmt 1 view .LVU1190
 322:../src/smc_gen/r_drw2d_rx/src/tes/dave_intern.h **** 
 3234                             		.loc 2 322 25 is_stmt 0 view .LVU1191
 3235 0c20 71 A5 08                		add	#8, r10, r5
 3236 0c23 E7 75 6E                		mov.L	r5, 440[r7]
 324:../src/smc_gen/r_drw2d_rx/src/tes/dave_intern.h ****    entry->value = value;
 3237                             		.loc 2 324 4 is_stmt 1 view .LVU1192
 324:../src/smc_gen/r_drw2d_rx/src/tes/dave_intern.h ****    entry->value = value;
 3238                             		.loc 2 324 17 is_stmt 0 view .LVU1193
 3239 0c26 F8 A6 00                		mov.L	#0, [r10]
 325:../src/smc_gen/r_drw2d_rx/src/tes/dave_intern.h **** 
 3240                             		.loc 2 325 4 is_stmt 1 view .LVU1194
 325:../src/smc_gen/r_drw2d_rx/src/tes/dave_intern.h **** 
 3241                             		.loc 2 325 17 is_stmt 0 view .LVU1195
 3242 0c29 E7 AB 01                		mov.L	r11, 4[r10]
 327:../src/smc_gen/r_drw2d_rx/src/tes/dave_intern.h ****    if(handle->dlscratch_cnt <= 0)
 3243                             		.loc 2 327 4 is_stmt 1 view .LVU1196
 327:../src/smc_gen/r_drw2d_rx/src/tes/dave_intern.h ****    if(handle->dlscratch_cnt <= 0)
 3244                             		.loc 2 327 12 is_stmt 0 view .LVU1197
 3245 0c2c ED 7A 6F                		mov.L	444[r7], r10
 3246                             	.LVL320:
 327:../src/smc_gen/r_drw2d_rx/src/tes/dave_intern.h ****    if(handle->dlscratch_cnt <= 0)
 3247                             		.loc 2 327 4 view .LVU1198
 3248 0c2f 60 1A                   		sub	#1, r10
 3249 0c31 E7 7A 6F                		mov.L	r10, 444[r7]
 328:../src/smc_gen/r_drw2d_rx/src/tes/dave_intern.h ****    {
 3250                             		.loc 2 328 4 is_stmt 1 view .LVU1199
 328:../src/smc_gen/r_drw2d_rx/src/tes/dave_intern.h ****    {
 3251                             		.loc 2 328 6 is_stmt 0 view .LVU1200
 3252 0c34 61 0A                   		cmp	#0, r10
 3253 0c36 2B 59                   		ble	.L148
 3254                             	.LVL321:
 3255                             	.L83:
 328:../src/smc_gen/r_drw2d_rx/src/tes/dave_intern.h ****    {
 3256                             		.loc 2 328 6 view .LVU1201
 3257                             	.LBE453:
 3258                             	.LBE452:
 608:../src/smc_gen/r_drw2d_rx/src/tes/dave_line.c ****    }
 3259                             		.loc 1 608 7 is_stmt 1 view .LVU1202
 3260 0c38 FD A4 63                		shar	#4, r6, r3
 3261 0c3b 71 02 18                		add	#24, r0, r2
 3262 0c3e EF 71                   		mov.L	r7, r1
 3263 0c40 05 00 00 00             		bsr	_d2_startrender_intern
 3264                             	.LVL322:
 611:../src/smc_gen/r_drw2d_rx/src/tes/dave_line.c **** }
 3265                             		.loc 1 611 11 is_stmt 0 view .LVU1203
 3266 0c44 66 11                   		mov.L	#1, r1
 3267 0c46 38 5F F8                		bra	.L1
 3268                             	.LVL323:
 3269                             	.L144:
 576:../src/smc_gen/r_drw2d_rx/src/tes/dave_line.c ****       }
 3270                             		.loc 1 576 10 is_stmt 1 view .LVU1204
 576:../src/smc_gen/r_drw2d_rx/src/tes/dave_line.c ****       }
 3271                             		.loc 1 576 20 is_stmt 0 view .LVU1205
 3272 0c49 E3 0B                   		mov.L	r11, [r0]
 3273 0c4b 66 34                   		mov.L	#3, r4
 3274 0c4d 71 03 18                		add	#24, r0, r3
 3275 0c50 EF A2                   		mov.L	r10, r2
 3276 0c52 EF 71                   		mov.L	r7, r1
 3277 0c54 05 00 00 00             		bsr	_d2_initgradients_intern
 3278                             	.LVL324:
 3279 0c58 EF 1B                   		mov.L	r1, r11
 3280                             	.LVL325:
 576:../src/smc_gen/r_drw2d_rx/src/tes/dave_line.c ****       }
 3281                             		.loc 1 576 20 view .LVU1206
 3282 0c5a 38 29 FF                		bra	.L77
 3283                             	.LVL326:
 3284                             	.L78:
 588:../src/smc_gen/r_drw2d_rx/src/tes/dave_line.c ****          dy = D2_INT4(bbox2.ymin - bbox.ymin);       /* PRQA S 0502 */ /* $Misra: #PERF_ARITHMETIC_
 3285                             		.loc 1 588 10 is_stmt 1 view .LVU1207
 588:../src/smc_gen/r_drw2d_rx/src/tes/dave_line.c ****          dy = D2_INT4(bbox2.ymin - bbox.ymin);       /* PRQA S 0502 */ /* $Misra: #PERF_ARITHMETIC_
 3286                             		.loc 1 588 15 is_stmt 0 view .LVU1208
 3287 0c5d 9B 05                   		mov.W	24[r0], r5
 3288 0c5f DD 0A 08                		mov.W	16[r0], r10
 3289 0c62 43 A5                   		sub	r10, r5
 588:../src/smc_gen/r_drw2d_rx/src/tes/dave_line.c ****          dy = D2_INT4(bbox2.ymin - bbox.ymin);       /* PRQA S 0502 */ /* $Misra: #PERF_ARITHMETIC_
 3290                             		.loc 1 588 13 view .LVU1209
 3291 0c64 6A 45                   		shar	#4, r5
 3292                             	.LVL327:
 589:../src/smc_gen/r_drw2d_rx/src/tes/dave_line.c ****       }
 3293                             		.loc 1 589 10 is_stmt 1 view .LVU1210
 589:../src/smc_gen/r_drw2d_rx/src/tes/dave_line.c ****       }
 3294                             		.loc 1 589 15 is_stmt 0 view .LVU1211
 3295 0c66 DD 0D 0D                		mov.W	26[r0], r13
 3296                             	.LVL328:
 589:../src/smc_gen/r_drw2d_rx/src/tes/dave_line.c ****       }
 3297                             		.loc 1 589 15 view .LVU1212
 3298 0c69 06 41 0D 09             		sub	18[r0].W, r13
 589:../src/smc_gen/r_drw2d_rx/src/tes/dave_line.c ****       }
 3299                             		.loc 1 589 13 view .LVU1213
 3300 0c6d 6A 4D                   		shar	#4, r13
 3301                             	.LVL329:
 589:../src/smc_gen/r_drw2d_rx/src/tes/dave_line.c ****       }
 3302                             		.loc 1 589 13 view .LVU1214
 3303 0c6f 38 39 FF                		bra	.L79
 3304                             	.LVL330:
 3305                             	.L145:
 3306                             	.LBB457:
 3307                             	.LBB441:
 3308                             	.LBB439:
 3309                             	.LBI439:
 319:../src/smc_gen/r_drw2d_rx/src/tes/dave_intern.h **** {
 3310                             		.loc 2 319 23 is_stmt 1 view .LVU1215
 3311                             	.LBB440:
 3312                             		.loc 2 330 7 view .LVU1216
 3313                             		.loc 2 330 13 is_stmt 0 view .LVU1217
 3314 0c72 ED 7A 70                		mov.L	448[r7], r10
 3315                             		.loc 2 330 7 view .LVU1218
 3316 0c75 EF 71                   		mov.L	r7, r1
 3317 0c77 7F 1A                   		jsr	r10
 3318                             	.LVL331:
 3319                             		.loc 2 330 7 view .LVU1219
 3320 0c79 38 63 FF                		bra	.L80
 3321                             	.LVL332:
 3322                             	.L146:
 3323                             		.loc 2 330 7 view .LVU1220
 3324                             	.LBE440:
 3325                             	.LBE439:
 3326                             	.LBE441:
 3327                             	.LBE457:
 3328                             	.LBB458:
 3329                             	.LBB446:
 3330                             	.LBB444:
 3331                             	.LBI444:
 319:../src/smc_gen/r_drw2d_rx/src/tes/dave_intern.h **** {
 3332                             		.loc 2 319 23 is_stmt 1 view .LVU1221
 3333                             	.LBB445:
 3334                             		.loc 2 330 7 view .LVU1222
 3335                             		.loc 2 330 13 is_stmt 0 view .LVU1223
 3336 0c7c ED 7A 70                		mov.L	448[r7], r10
 3337                             		.loc 2 330 7 view .LVU1224
 3338 0c7f EF 71                   		mov.L	r7, r1
 3339 0c81 7F 1A                   		jsr	r10
 3340                             	.LVL333:
 3341                             		.loc 2 330 7 view .LVU1225
 3342 0c83 38 7B FF                		bra	.L81
 3343                             	.LVL334:
 3344                             	.L147:
 3345                             		.loc 2 330 7 view .LVU1226
 3346                             	.LBE445:
 3347                             	.LBE444:
 3348                             	.LBE446:
 3349                             	.LBE458:
 3350                             	.LBB459:
 3351                             	.LBB451:
 3352                             	.LBB449:
 3353                             	.LBI449:
 319:../src/smc_gen/r_drw2d_rx/src/tes/dave_intern.h **** {
 3354                             		.loc 2 319 23 is_stmt 1 view .LVU1227
 3355                             	.LBB450:
 3356                             		.loc 2 330 7 view .LVU1228
 3357                             		.loc 2 330 13 is_stmt 0 view .LVU1229
 3358 0c86 ED 7A 70                		mov.L	448[r7], r10
 3359                             		.loc 2 330 7 view .LVU1230
 3360 0c89 EF 71                   		mov.L	r7, r1
 3361 0c8b 7F 1A                   		jsr	r10
 3362                             	.LVL335:
 3363                             		.loc 2 330 7 view .LVU1231
 3364 0c8d 2E 90                   		bra	.L82
 3365                             	.LVL336:
 3366                             	.L148:
 3367                             		.loc 2 330 7 view .LVU1232
 3368                             	.LBE450:
 3369                             	.LBE449:
 3370                             	.LBE451:
 3371                             	.LBE459:
 3372                             	.LBB460:
 3373                             	.LBB456:
 3374                             	.LBB454:
 3375                             	.LBI454:
 319:../src/smc_gen/r_drw2d_rx/src/tes/dave_intern.h **** {
 3376                             		.loc 2 319 23 is_stmt 1 view .LVU1233
 3377                             	.LBB455:
 3378                             		.loc 2 330 7 view .LVU1234
 3379                             		.loc 2 330 13 is_stmt 0 view .LVU1235
 3380 0c8f ED 7A 70                		mov.L	448[r7], r10
 3381                             		.loc 2 330 7 view .LVU1236
 3382 0c92 EF 71                   		mov.L	r7, r1
 3383 0c94 7F 1A                   		jsr	r10
 3384                             	.LVL337:
 3385                             		.loc 2 330 7 view .LVU1237
 3386 0c96 2E A2                   		bra	.L83
 3387                             	.LBE455:
 3388                             	.LBE454:
 3389                             	.LBE456:
 3390                             	.LBE460:
 3391                             	.LFE6:
 3393                             		.section	.text.d2_renderlinedot_intern,"ax",@progbits
 3394                             		.global	_d2_renderlinedot_intern
 3396                             	_d2_renderlinedot_intern:
 3397                             	.LVL338:
 3398                             	.LFB8:
 613:../src/smc_gen/r_drw2d_rx/src/tes/dave_line.c **** 
 614:../src/smc_gen/r_drw2d_rx/src/tes/dave_line.c **** /*--------------------------------------------------------------------------
 615:../src/smc_gen/r_drw2d_rx/src/tes/dave_line.c ****  *
 616:../src/smc_gen/r_drw2d_rx/src/tes/dave_line.c ****  * */
 617:../src/smc_gen/r_drw2d_rx/src/tes/dave_line.c **** d2_s32 d2_renderline2_intern( d2_devicedata *handle, d2_contextdata *ctx, d2_point x1, d2_point y1,
 618:../src/smc_gen/r_drw2d_rx/src/tes/dave_line.c **** {
 619:../src/smc_gen/r_drw2d_rx/src/tes/dave_line.c ****    d2_bbox bbox, bbox2;
 620:../src/smc_gen/r_drw2d_rx/src/tes/dave_line.c ****    d2_limdata edge[4];
 621:../src/smc_gen/r_drw2d_rx/src/tes/dave_line.c ****    d2_s32 r, l, dlx, dly, nx, ny, h;
 622:../src/smc_gen/r_drw2d_rx/src/tes/dave_line.c ****    d2_s32 w1x, w1y, w2x, w2y, xs, ys, xe, ye, xp, yp;
 623:../src/smc_gen/r_drw2d_rx/src/tes/dave_line.c ****    d2_s32 ax, ay, bx, by, cx, cy, dx, dy;
 624:../src/smc_gen/r_drw2d_rx/src/tes/dave_line.c ****    d2_s32 t1, t2, flip, cap2;
 625:../src/smc_gen/r_drw2d_rx/src/tes/dave_line.c ****    d2_u32 delay;
 626:../src/smc_gen/r_drw2d_rx/src/tes/dave_line.c ****    d2_u32 cap;
 627:../src/smc_gen/r_drw2d_rx/src/tes/dave_line.c ****    d2_u32 control;
 628:../src/smc_gen/r_drw2d_rx/src/tes/dave_line.c ****    d2_u32 tmask;
 629:../src/smc_gen/r_drw2d_rx/src/tes/dave_line.c **** 
 630:../src/smc_gen/r_drw2d_rx/src/tes/dave_line.c ****    /* check for parallel lines
 631:../src/smc_gen/r_drw2d_rx/src/tes/dave_line.c ****     *if (w1 == w2) return d2_renderline_intern( handle, ctx, x1,y1, x2,y2, w1, d2_include_both ); *
 632:../src/smc_gen/r_drw2d_rx/src/tes/dave_line.c **** 
 633:../src/smc_gen/r_drw2d_rx/src/tes/dave_line.c ****    /* find deltas */
 634:../src/smc_gen/r_drw2d_rx/src/tes/dave_line.c ****    dlx = x2 - x1;
 635:../src/smc_gen/r_drw2d_rx/src/tes/dave_line.c ****    dly = y2 - y1;
 636:../src/smc_gen/r_drw2d_rx/src/tes/dave_line.c ****    if(0 == (dlx | dly))    /* PRQA S 4130 */ /* $Misra: #PERF_BITWISE $*/
 637:../src/smc_gen/r_drw2d_rx/src/tes/dave_line.c ****    {
 638:../src/smc_gen/r_drw2d_rx/src/tes/dave_line.c ****       return 0;
 639:../src/smc_gen/r_drw2d_rx/src/tes/dave_line.c ****    }
 640:../src/smc_gen/r_drw2d_rx/src/tes/dave_line.c **** 
 641:../src/smc_gen/r_drw2d_rx/src/tes/dave_line.c ****    cap = ctx->linecap;
 642:../src/smc_gen/r_drw2d_rx/src/tes/dave_line.c **** 
 643:../src/smc_gen/r_drw2d_rx/src/tes/dave_line.c ****    l = (65536 * 256) / d2_sqrt( (d2_u32) ( (dlx * dlx) + (dly * dly) ) );
 644:../src/smc_gen/r_drw2d_rx/src/tes/dave_line.c **** 
 645:../src/smc_gen/r_drw2d_rx/src/tes/dave_line.c ****    nx = (-dly * l) >> 8;   /* PRQA S 0502 */ /* $Misra: #PERF_ARITHMETIC_SHIFT_RIGHT $*/ 
 646:../src/smc_gen/r_drw2d_rx/src/tes/dave_line.c ****    ny = ( dlx * l) >> 8;   /* PRQA S 0502 */ /* $Misra: #PERF_ARITHMETIC_SHIFT_RIGHT $*/
 647:../src/smc_gen/r_drw2d_rx/src/tes/dave_line.c **** 
 648:../src/smc_gen/r_drw2d_rx/src/tes/dave_line.c ****    /*
 649:../src/smc_gen/r_drw2d_rx/src/tes/dave_line.c ****      {
 650:../src/smc_gen/r_drw2d_rx/src/tes/dave_line.c ****      // accurate calculation
 651:../src/smc_gen/r_drw2d_rx/src/tes/dave_line.c ****      l = d2_sqrt( dlx*dlx + dly*dly );
 652:../src/smc_gen/r_drw2d_rx/src/tes/dave_line.c ****      nx = (int) (((d2_int64)-dly * 65536) / l);
 653:../src/smc_gen/r_drw2d_rx/src/tes/dave_line.c ****      ny = (int) (((d2_int64) dlx * 65536) / l);
 654:../src/smc_gen/r_drw2d_rx/src/tes/dave_line.c ****      }
 655:../src/smc_gen/r_drw2d_rx/src/tes/dave_line.c ****    */
 656:../src/smc_gen/r_drw2d_rx/src/tes/dave_line.c **** 
 657:../src/smc_gen/r_drw2d_rx/src/tes/dave_line.c ****    /* find outer endpoints */
 658:../src/smc_gen/r_drw2d_rx/src/tes/dave_line.c ****    w1x = ((nx * w1) >> 1) >> 16;  /* PRQA S 0502 */ /* $Misra: #PERF_ARITHMETIC_SHIFT_RIGHT $*/
 659:../src/smc_gen/r_drw2d_rx/src/tes/dave_line.c ****    w1y = ((ny * w1) >> 1) >> 16;  /* PRQA S 0502 */ /* $Misra: #PERF_ARITHMETIC_SHIFT_RIGHT $*/
 660:../src/smc_gen/r_drw2d_rx/src/tes/dave_line.c ****    w2x = ((nx * w2) >> 1) >> 16;  /* PRQA S 0502 */ /* $Misra: #PERF_ARITHMETIC_SHIFT_RIGHT $*/
 661:../src/smc_gen/r_drw2d_rx/src/tes/dave_line.c ****    w2y = ((ny * w2) >> 1) >> 16;  /* PRQA S 0502 */ /* $Misra: #PERF_ARITHMETIC_SHIFT_RIGHT $*/
 662:../src/smc_gen/r_drw2d_rx/src/tes/dave_line.c **** 
 663:../src/smc_gen/r_drw2d_rx/src/tes/dave_line.c ****    ax = x1 + w1x;
 664:../src/smc_gen/r_drw2d_rx/src/tes/dave_line.c ****    ay = y1 + w1y;
 665:../src/smc_gen/r_drw2d_rx/src/tes/dave_line.c ****    bx = x2 + w2x;
 666:../src/smc_gen/r_drw2d_rx/src/tes/dave_line.c ****    by = y2 + w2y;
 667:../src/smc_gen/r_drw2d_rx/src/tes/dave_line.c ****    cx = x2 - w2x;
 668:../src/smc_gen/r_drw2d_rx/src/tes/dave_line.c ****    cy = y2 - w2y;
 669:../src/smc_gen/r_drw2d_rx/src/tes/dave_line.c ****    dx = x1 - w1x;
 670:../src/smc_gen/r_drw2d_rx/src/tes/dave_line.c ****    dy = y1 - w1y;
 671:../src/smc_gen/r_drw2d_rx/src/tes/dave_line.c **** 
 672:../src/smc_gen/r_drw2d_rx/src/tes/dave_line.c ****    /* don't render round endpoints on small lines */
 673:../src/smc_gen/r_drw2d_rx/src/tes/dave_line.c ****    if(d2_lc_round == cap)
 674:../src/smc_gen/r_drw2d_rx/src/tes/dave_line.c ****    {
 675:../src/smc_gen/r_drw2d_rx/src/tes/dave_line.c ****       if(w1 < D2_FIX4(3))        /* PRQA S 4131 */ /* $Misra: #PERF_ARITHMETIC_SHIFT_LEFT $*/
 676:../src/smc_gen/r_drw2d_rx/src/tes/dave_line.c ****       {
 677:../src/smc_gen/r_drw2d_rx/src/tes/dave_line.c ****          flags |= d2_le_exclude_start;
 678:../src/smc_gen/r_drw2d_rx/src/tes/dave_line.c ****       }
 679:../src/smc_gen/r_drw2d_rx/src/tes/dave_line.c **** 
 680:../src/smc_gen/r_drw2d_rx/src/tes/dave_line.c ****       if(w2 < D2_FIX4(3))        /* PRQA S 4131 */ /* $Misra: #PERF_ARITHMETIC_SHIFT_LEFT $*/
 681:../src/smc_gen/r_drw2d_rx/src/tes/dave_line.c ****       {
 682:../src/smc_gen/r_drw2d_rx/src/tes/dave_line.c ****          flags |= d2_le_exclude_end;
 683:../src/smc_gen/r_drw2d_rx/src/tes/dave_line.c ****       }
 684:../src/smc_gen/r_drw2d_rx/src/tes/dave_line.c ****    }
 685:../src/smc_gen/r_drw2d_rx/src/tes/dave_line.c **** 
 686:../src/smc_gen/r_drw2d_rx/src/tes/dave_line.c ****    /* simplify caps if no endpoints */
 687:../src/smc_gen/r_drw2d_rx/src/tes/dave_line.c ****    if(d2_le_exclude_both == (flags & d2_le_exclude_both))
 688:../src/smc_gen/r_drw2d_rx/src/tes/dave_line.c ****    {
 689:../src/smc_gen/r_drw2d_rx/src/tes/dave_line.c ****       cap = d2_lc_butt;
 690:../src/smc_gen/r_drw2d_rx/src/tes/dave_line.c ****    }
 691:../src/smc_gen/r_drw2d_rx/src/tes/dave_line.c **** 
 692:../src/smc_gen/r_drw2d_rx/src/tes/dave_line.c ****    /* expand bbox to contain caps */
 693:../src/smc_gen/r_drw2d_rx/src/tes/dave_line.c ****    if(d2_lc_square == cap)
 694:../src/smc_gen/r_drw2d_rx/src/tes/dave_line.c ****    {
 695:../src/smc_gen/r_drw2d_rx/src/tes/dave_line.c ****       if(0 == (flags & d2_le_exclude_start))
 696:../src/smc_gen/r_drw2d_rx/src/tes/dave_line.c ****       {
 697:../src/smc_gen/r_drw2d_rx/src/tes/dave_line.c ****          ax -= w1y;  ay -= -w1x;
 698:../src/smc_gen/r_drw2d_rx/src/tes/dave_line.c ****          dx -= w1y;  dy -= -w1x;
 699:../src/smc_gen/r_drw2d_rx/src/tes/dave_line.c ****       }
 700:../src/smc_gen/r_drw2d_rx/src/tes/dave_line.c **** 
 701:../src/smc_gen/r_drw2d_rx/src/tes/dave_line.c ****       if(0 == (flags & d2_le_exclude_end))
 702:../src/smc_gen/r_drw2d_rx/src/tes/dave_line.c ****       {
 703:../src/smc_gen/r_drw2d_rx/src/tes/dave_line.c ****          bx += w2y;  by += -w2x;
 704:../src/smc_gen/r_drw2d_rx/src/tes/dave_line.c ****          cx += w2y;  cy += -w2x;
 705:../src/smc_gen/r_drw2d_rx/src/tes/dave_line.c ****       }
 706:../src/smc_gen/r_drw2d_rx/src/tes/dave_line.c ****    }
 707:../src/smc_gen/r_drw2d_rx/src/tes/dave_line.c **** 
 708:../src/smc_gen/r_drw2d_rx/src/tes/dave_line.c ****    /* find bounding box */
 709:../src/smc_gen/r_drw2d_rx/src/tes/dave_line.c ****    t1 = (ax < bx) ? ax : bx;
 710:../src/smc_gen/r_drw2d_rx/src/tes/dave_line.c ****    t2 = (cx < dx) ? cx : dx;
 711:../src/smc_gen/r_drw2d_rx/src/tes/dave_line.c ****    bbox.xmin = (d2_point) D2_FLOOR4( (t1 < t2) ? t1 : t2 );
 712:../src/smc_gen/r_drw2d_rx/src/tes/dave_line.c ****    t1 = (ax > bx) ? ax : bx;
 713:../src/smc_gen/r_drw2d_rx/src/tes/dave_line.c ****    t2 = (cx > dx) ? cx : dx;
 714:../src/smc_gen/r_drw2d_rx/src/tes/dave_line.c ****    bbox.xmax = (d2_point) D2_CEIL4( (t1 > t2) ? t1 : t2 );
 715:../src/smc_gen/r_drw2d_rx/src/tes/dave_line.c ****    t1 = (ay < by) ? ay : by;
 716:../src/smc_gen/r_drw2d_rx/src/tes/dave_line.c ****    t2 = (cy < dy) ? cy : dy;
 717:../src/smc_gen/r_drw2d_rx/src/tes/dave_line.c ****    bbox.ymin = (d2_point) D2_FLOOR4( (t1 < t2) ? t1 : t2 );
 718:../src/smc_gen/r_drw2d_rx/src/tes/dave_line.c ****    t1 = (ay > by) ? ay : by;
 719:../src/smc_gen/r_drw2d_rx/src/tes/dave_line.c ****    t2 = (cy > dy) ? cy : dy;
 720:../src/smc_gen/r_drw2d_rx/src/tes/dave_line.c ****    bbox.ymax = (d2_point) D2_CEIL4( (t1 > t2) ?  t1 : t2 );
 721:../src/smc_gen/r_drw2d_rx/src/tes/dave_line.c **** 
 722:../src/smc_gen/r_drw2d_rx/src/tes/dave_line.c ****    /* clipping */
 723:../src/smc_gen/r_drw2d_rx/src/tes/dave_line.c ****    if(0 == d2_clipbbox_intern( handle, &bbox ))
 724:../src/smc_gen/r_drw2d_rx/src/tes/dave_line.c ****    {
 725:../src/smc_gen/r_drw2d_rx/src/tes/dave_line.c ****       return 0;
 726:../src/smc_gen/r_drw2d_rx/src/tes/dave_line.c ****    }
 727:../src/smc_gen/r_drw2d_rx/src/tes/dave_line.c **** 
 728:../src/smc_gen/r_drw2d_rx/src/tes/dave_line.c ****    /* store original endpoints */
 729:../src/smc_gen/r_drw2d_rx/src/tes/dave_line.c ****    xs = x1; ys = y1;
 730:../src/smc_gen/r_drw2d_rx/src/tes/dave_line.c ****    xe = x2; ye = y2;
 731:../src/smc_gen/r_drw2d_rx/src/tes/dave_line.c **** 
 732:../src/smc_gen/r_drw2d_rx/src/tes/dave_line.c ****    /* make relative */
 733:../src/smc_gen/r_drw2d_rx/src/tes/dave_line.c ****    x1 = (d2_point)(x1 - bbox.xmin);
 734:../src/smc_gen/r_drw2d_rx/src/tes/dave_line.c ****    y1 = (d2_point)(y1 - bbox.ymin);
 735:../src/smc_gen/r_drw2d_rx/src/tes/dave_line.c ****    x2 = (d2_point)(x2 - bbox.xmin);
 736:../src/smc_gen/r_drw2d_rx/src/tes/dave_line.c ****    y2 = (d2_point)(y2 - bbox.ymin);
 737:../src/smc_gen/r_drw2d_rx/src/tes/dave_line.c **** 
 738:../src/smc_gen/r_drw2d_rx/src/tes/dave_line.c ****    /* calc edge interpolation parameters */
 739:../src/smc_gen/r_drw2d_rx/src/tes/dave_line.c ****    edge[0].start = (( (y1 * nx) - (x1 * ny) ) >> 4) + D2_FIX16(1);   /* PRQA S 0502 */ /* $Misra: #
 740:../src/smc_gen/r_drw2d_rx/src/tes/dave_line.c ****    edge[0].xadd  = ny;
 741:../src/smc_gen/r_drw2d_rx/src/tes/dave_line.c ****    edge[0].yadd  = -nx;
 742:../src/smc_gen/r_drw2d_rx/src/tes/dave_line.c ****    edge[1].start = (( (x2 * ny) - (y2 * nx) ) >> 4) + (D2_FIX16(1) >> 1);  /* PRQA S 0502 */ /* $Mi
 743:../src/smc_gen/r_drw2d_rx/src/tes/dave_line.c ****    edge[1].xadd  = -ny;
 744:../src/smc_gen/r_drw2d_rx/src/tes/dave_line.c ****    edge[1].yadd  = nx;
 745:../src/smc_gen/r_drw2d_rx/src/tes/dave_line.c **** 
 746:../src/smc_gen/r_drw2d_rx/src/tes/dave_line.c ****    /* side parameters */
 747:../src/smc_gen/r_drw2d_rx/src/tes/dave_line.c ****    if((ctx->features & (d2_feat_blur | d2_feat_aa)) == (d2_feat_blur | d2_feat_aa))
 748:../src/smc_gen/r_drw2d_rx/src/tes/dave_line.c ****    {
 749:../src/smc_gen/r_drw2d_rx/src/tes/dave_line.c ****       d2_triedge_setupblur_intern( &edge[2], (d2_point)(ax - bbox.xmin), (d2_point)(ay - bbox.ymin)
 750:../src/smc_gen/r_drw2d_rx/src/tes/dave_line.c ****       d2_triedge_setupblur_intern( &edge[3], (d2_point)(dx - bbox.xmin), (d2_point)(dy - bbox.ymin)
 751:../src/smc_gen/r_drw2d_rx/src/tes/dave_line.c ****    }
 752:../src/smc_gen/r_drw2d_rx/src/tes/dave_line.c ****    else
 753:../src/smc_gen/r_drw2d_rx/src/tes/dave_line.c ****    {
 754:../src/smc_gen/r_drw2d_rx/src/tes/dave_line.c ****       d2_triedge_setup_intern( &edge[2], (d2_point)(ax - bbox.xmin), (d2_point)(ay - bbox.ymin), (a
 755:../src/smc_gen/r_drw2d_rx/src/tes/dave_line.c ****       d2_triedge_setup_intern( &edge[3], (d2_point)(dx - bbox.xmin), (d2_point)(dy - bbox.ymin), (c
 756:../src/smc_gen/r_drw2d_rx/src/tes/dave_line.c ****       edge[2].start += (D2_FIX16(1) >> 1);  /* PRQA S 0502 */ /* $Misra: #PERF_ARITHMETIC_SHIFT_RIG
 757:../src/smc_gen/r_drw2d_rx/src/tes/dave_line.c ****       edge[3].start += (D2_FIX16(1) >> 1);  /* PRQA S 0502 */ /* $Misra: #PERF_ARITHMETIC_SHIFT_RIG
 758:../src/smc_gen/r_drw2d_rx/src/tes/dave_line.c ****    }
 759:../src/smc_gen/r_drw2d_rx/src/tes/dave_line.c **** 
 760:../src/smc_gen/r_drw2d_rx/src/tes/dave_line.c ****    /* apply linecap */
 761:../src/smc_gen/r_drw2d_rx/src/tes/dave_line.c ****    if(d2_lc_square == cap)
 762:../src/smc_gen/r_drw2d_rx/src/tes/dave_line.c ****    {
 763:../src/smc_gen/r_drw2d_rx/src/tes/dave_line.c ****       if(0 == (flags & d2_le_exclude_start))
 764:../src/smc_gen/r_drw2d_rx/src/tes/dave_line.c ****       {
 765:../src/smc_gen/r_drw2d_rx/src/tes/dave_line.c ****          edge[0].start += ((w1 << (16 - 4)) - D2_FIX16(1)) >> 1;  /* PRQA S 0502 */ /* $Misra: #PER
 766:../src/smc_gen/r_drw2d_rx/src/tes/dave_line.c ****       }
 767:../src/smc_gen/r_drw2d_rx/src/tes/dave_line.c **** 
 768:../src/smc_gen/r_drw2d_rx/src/tes/dave_line.c ****       if(0 == (flags & d2_le_exclude_end))
 769:../src/smc_gen/r_drw2d_rx/src/tes/dave_line.c ****       {
 770:../src/smc_gen/r_drw2d_rx/src/tes/dave_line.c ****          edge[1].start += ((w2 << (16 - 4)) - D2_FIX16(1)) >> 1;  /* PRQA S 0502 */ /* $Misra: #PER
 771:../src/smc_gen/r_drw2d_rx/src/tes/dave_line.c ****       }
 772:../src/smc_gen/r_drw2d_rx/src/tes/dave_line.c ****    }
 773:../src/smc_gen/r_drw2d_rx/src/tes/dave_line.c **** 
 774:../src/smc_gen/r_drw2d_rx/src/tes/dave_line.c ****    /* set register values (material parameters) */
 775:../src/smc_gen/r_drw2d_rx/src/tes/dave_line.c ****    d2_setupmaterial_intern( handle, ctx );
 776:../src/smc_gen/r_drw2d_rx/src/tes/dave_line.c **** 
 777:../src/smc_gen/r_drw2d_rx/src/tes/dave_line.c ****    /* determine sharing flags */
 778:../src/smc_gen/r_drw2d_rx/src/tes/dave_line.c ****    tmask = ctx->thresholdmask;
 779:../src/smc_gen/r_drw2d_rx/src/tes/dave_line.c **** 
 780:../src/smc_gen/r_drw2d_rx/src/tes/dave_line.c ****    if(d2_lc_round == cap)
 781:../src/smc_gen/r_drw2d_rx/src/tes/dave_line.c ****    {
 782:../src/smc_gen/r_drw2d_rx/src/tes/dave_line.c ****       if(0 == (flags & d2_le_exclude_start))
 783:../src/smc_gen/r_drw2d_rx/src/tes/dave_line.c ****       {
 784:../src/smc_gen/r_drw2d_rx/src/tes/dave_line.c ****          tmask |= D2C_LIM1THRESHOLD;
 785:../src/smc_gen/r_drw2d_rx/src/tes/dave_line.c ****       }
 786:../src/smc_gen/r_drw2d_rx/src/tes/dave_line.c **** 
 787:../src/smc_gen/r_drw2d_rx/src/tes/dave_line.c ****       if(0 == (flags & d2_le_exclude_end))
 788:../src/smc_gen/r_drw2d_rx/src/tes/dave_line.c ****       {
 789:../src/smc_gen/r_drw2d_rx/src/tes/dave_line.c ****          tmask |= D2C_LIM2THRESHOLD;
 790:../src/smc_gen/r_drw2d_rx/src/tes/dave_line.c ****       }
 791:../src/smc_gen/r_drw2d_rx/src/tes/dave_line.c ****    }
 792:../src/smc_gen/r_drw2d_rx/src/tes/dave_line.c **** 
 793:../src/smc_gen/r_drw2d_rx/src/tes/dave_line.c ****    /* pattern autoalign */
 794:../src/smc_gen/r_drw2d_rx/src/tes/dave_line.c ****    if(0 != (ctx->patmode & d2_pm_autoalign))
 795:../src/smc_gen/r_drw2d_rx/src/tes/dave_line.c ****    {
 796:../src/smc_gen/r_drw2d_rx/src/tes/dave_line.c ****       d2_gradientdata *grad;
 797:../src/smc_gen/r_drw2d_rx/src/tes/dave_line.c **** 
 798:../src/smc_gen/r_drw2d_rx/src/tes/dave_line.c ****       grad = & ctx->patulim[0];
 799:../src/smc_gen/r_drw2d_rx/src/tes/dave_line.c ****       ctx->internaldirty |= d2_dirty_upatlim;
 800:../src/smc_gen/r_drw2d_rx/src/tes/dave_line.c **** 
 801:../src/smc_gen/r_drw2d_rx/src/tes/dave_line.c ****       grad->mode = d2_grad_linear | d2_grad_aapattern;
 802:../src/smc_gen/r_drw2d_rx/src/tes/dave_line.c ****       grad->x1 = x1;
 803:../src/smc_gen/r_drw2d_rx/src/tes/dave_line.c ****       grad->y1 = y1;
 804:../src/smc_gen/r_drw2d_rx/src/tes/dave_line.c **** 
 805:../src/smc_gen/r_drw2d_rx/src/tes/dave_line.c ****       if(0 != (ctx->patmode & d2_pm_orthogonal))
 806:../src/smc_gen/r_drw2d_rx/src/tes/dave_line.c ****       {
 807:../src/smc_gen/r_drw2d_rx/src/tes/dave_line.c ****          grad->xadd = (edge[0].yadd << 4) / ctx->patscale;   /* PRQA S 4131 */ /* $Misra: #PERF_ARI
 808:../src/smc_gen/r_drw2d_rx/src/tes/dave_line.c ****          grad->yadd = (-edge[0].xadd << 4) / ctx->patscale;  /* PRQA S 4131 */ /* $Misra: #PERF_ARI
 809:../src/smc_gen/r_drw2d_rx/src/tes/dave_line.c ****       }
 810:../src/smc_gen/r_drw2d_rx/src/tes/dave_line.c ****       else
 811:../src/smc_gen/r_drw2d_rx/src/tes/dave_line.c ****       {
 812:../src/smc_gen/r_drw2d_rx/src/tes/dave_line.c ****          grad->xadd = (edge[0].xadd << 4) / ctx->patscale;   /* PRQA S 4131 */ /* $Misra: #PERF_ARI
 813:../src/smc_gen/r_drw2d_rx/src/tes/dave_line.c ****          grad->yadd = (edge[0].yadd << 4) / ctx->patscale;   /* PRQA S 4131 */ /* $Misra: #PERF_ARI
 814:../src/smc_gen/r_drw2d_rx/src/tes/dave_line.c ****       }
 815:../src/smc_gen/r_drw2d_rx/src/tes/dave_line.c **** 
 816:../src/smc_gen/r_drw2d_rx/src/tes/dave_line.c ****       grad->xadd2 = ctx->patoffset << (16 - 4);              /* PRQA S 4131 */ /* $Misra: #PERF_ARI
 817:../src/smc_gen/r_drw2d_rx/src/tes/dave_line.c **** 
 818:../src/smc_gen/r_drw2d_rx/src/tes/dave_line.c ****       /* pattern auto advance */
 819:../src/smc_gen/r_drw2d_rx/src/tes/dave_line.c ****       if(0 != (ctx->patmode & d2_pm_advance))
 820:../src/smc_gen/r_drw2d_rx/src/tes/dave_line.c ****       {
 821:../src/smc_gen/r_drw2d_rx/src/tes/dave_line.c ****          ctx->patoffset += (l << 4) / ctx->patscale;         /* PRQA S 4131 */ /* $Misra: #PERF_ARI
 822:../src/smc_gen/r_drw2d_rx/src/tes/dave_line.c ****       }
 823:../src/smc_gen/r_drw2d_rx/src/tes/dave_line.c ****    }
 824:../src/smc_gen/r_drw2d_rx/src/tes/dave_line.c **** 
 825:../src/smc_gen/r_drw2d_rx/src/tes/dave_line.c ****    /* determine rendering direction */
 826:../src/smc_gen/r_drw2d_rx/src/tes/dave_line.c ****    if((dy - cy) > 0)
 827:../src/smc_gen/r_drw2d_rx/src/tes/dave_line.c ****    {
 828:../src/smc_gen/r_drw2d_rx/src/tes/dave_line.c ****       dlx = dx - cx;
 829:../src/smc_gen/r_drw2d_rx/src/tes/dave_line.c ****       dly = dy - cy;
 830:../src/smc_gen/r_drw2d_rx/src/tes/dave_line.c ****    }
 831:../src/smc_gen/r_drw2d_rx/src/tes/dave_line.c ****    else
 832:../src/smc_gen/r_drw2d_rx/src/tes/dave_line.c ****    {
 833:../src/smc_gen/r_drw2d_rx/src/tes/dave_line.c ****       dlx = ax - bx;
 834:../src/smc_gen/r_drw2d_rx/src/tes/dave_line.c ****       dly = ay - by;
 835:../src/smc_gen/r_drw2d_rx/src/tes/dave_line.c ****    }
 836:../src/smc_gen/r_drw2d_rx/src/tes/dave_line.c **** 
 837:../src/smc_gen/r_drw2d_rx/src/tes/dave_line.c ****    if( ((dly > 0) && (dlx < 0)) || ((dly < 0) && (dlx > 0)) )
 838:../src/smc_gen/r_drw2d_rx/src/tes/dave_line.c ****    {
 839:../src/smc_gen/r_drw2d_rx/src/tes/dave_line.c ****       flip = 1;
 840:../src/smc_gen/r_drw2d_rx/src/tes/dave_line.c **** 
 841:../src/smc_gen/r_drw2d_rx/src/tes/dave_line.c ****       d2_setuppattern( handle, ctx, &bbox, 1 );
 842:../src/smc_gen/r_drw2d_rx/src/tes/dave_line.c ****       d2_setuptexture( handle, ctx, &bbox, 1 );
 843:../src/smc_gen/r_drw2d_rx/src/tes/dave_line.c **** 
 844:../src/smc_gen/r_drw2d_rx/src/tes/dave_line.c ****       /* find offset from endpoint to bbox border */
 845:../src/smc_gen/r_drw2d_rx/src/tes/dave_line.c ****       if(ys > ye)
 846:../src/smc_gen/r_drw2d_rx/src/tes/dave_line.c ****       {
 847:../src/smc_gen/r_drw2d_rx/src/tes/dave_line.c ****          delay = (d2_u32) (bbox.ymax - ys);
 848:../src/smc_gen/r_drw2d_rx/src/tes/dave_line.c ****       }
 849:../src/smc_gen/r_drw2d_rx/src/tes/dave_line.c ****       else
 850:../src/smc_gen/r_drw2d_rx/src/tes/dave_line.c ****       {
 851:../src/smc_gen/r_drw2d_rx/src/tes/dave_line.c ****          delay = (d2_u32) (bbox.ymax - ye);
 852:../src/smc_gen/r_drw2d_rx/src/tes/dave_line.c ****       }
 853:../src/smc_gen/r_drw2d_rx/src/tes/dave_line.c ****    }
 854:../src/smc_gen/r_drw2d_rx/src/tes/dave_line.c ****    else
 855:../src/smc_gen/r_drw2d_rx/src/tes/dave_line.c ****    {
 856:../src/smc_gen/r_drw2d_rx/src/tes/dave_line.c ****       flip = 0;
 857:../src/smc_gen/r_drw2d_rx/src/tes/dave_line.c **** 
 858:../src/smc_gen/r_drw2d_rx/src/tes/dave_line.c ****       d2_setuppattern( handle, ctx, &bbox, 0 );
 859:../src/smc_gen/r_drw2d_rx/src/tes/dave_line.c ****       d2_setuptexture( handle, ctx, &bbox, 0 );
 860:../src/smc_gen/r_drw2d_rx/src/tes/dave_line.c **** 
 861:../src/smc_gen/r_drw2d_rx/src/tes/dave_line.c ****       /* find offset from endpoint to bbox border */
 862:../src/smc_gen/r_drw2d_rx/src/tes/dave_line.c ****       if(ys > ye)
 863:../src/smc_gen/r_drw2d_rx/src/tes/dave_line.c ****       {
 864:../src/smc_gen/r_drw2d_rx/src/tes/dave_line.c ****          delay = (d2_u32) (ye - bbox.ymin);
 865:../src/smc_gen/r_drw2d_rx/src/tes/dave_line.c ****       }
 866:../src/smc_gen/r_drw2d_rx/src/tes/dave_line.c ****       else
 867:../src/smc_gen/r_drw2d_rx/src/tes/dave_line.c ****       {
 868:../src/smc_gen/r_drw2d_rx/src/tes/dave_line.c ****          delay = (d2_u32) (ys - bbox.ymin);
 869:../src/smc_gen/r_drw2d_rx/src/tes/dave_line.c ****       }
 870:../src/smc_gen/r_drw2d_rx/src/tes/dave_line.c ****    }
 871:../src/smc_gen/r_drw2d_rx/src/tes/dave_line.c **** 
 872:../src/smc_gen/r_drw2d_rx/src/tes/dave_line.c ****    delay += (d2_u32) ( ((w1 > w2) ? w1 : w2) >> 4 );        /* PRQA S 0502 */ /* $Misra: #PERF_ARIT
 873:../src/smc_gen/r_drw2d_rx/src/tes/dave_line.c **** 
 874:../src/smc_gen/r_drw2d_rx/src/tes/dave_line.c ****    control = 
 875:../src/smc_gen/r_drw2d_rx/src/tes/dave_line.c ****       D2C_LIM1ENABLE | 
 876:../src/smc_gen/r_drw2d_rx/src/tes/dave_line.c ****       D2C_LIM2ENABLE | 
 877:../src/smc_gen/r_drw2d_rx/src/tes/dave_line.c ****       D2C_LIM3ENABLE | 
 878:../src/smc_gen/r_drw2d_rx/src/tes/dave_line.c ****       D2C_LIM4ENABLE |
 879:../src/smc_gen/r_drw2d_rx/src/tes/dave_line.c ****       (tmask & (D2C_LIM1THRESHOLD|D2C_LIM2THRESHOLD|D2C_LIM3THRESHOLD|D2C_LIM4THRESHOLD)) |
 880:../src/smc_gen/r_drw2d_rx/src/tes/dave_line.c ****       D2C_SPANABORT  | 
 881:../src/smc_gen/r_drw2d_rx/src/tes/dave_line.c ****       D2C_SPANSTORE  ;
 882:../src/smc_gen/r_drw2d_rx/src/tes/dave_line.c **** 
 883:../src/smc_gen/r_drw2d_rx/src/tes/dave_line.c ****    /* check for alpha gradients */
 884:../src/smc_gen/r_drw2d_rx/src/tes/dave_line.c ****    if(0 != (ctx->alphamode & (d2_am_gradient1 | d2_am_gradient2)))
 885:../src/smc_gen/r_drw2d_rx/src/tes/dave_line.c ****    {
 886:../src/smc_gen/r_drw2d_rx/src/tes/dave_line.c ****       control = d2_initgradients_intern( handle, ctx, &bbox, 4, control );
 887:../src/smc_gen/r_drw2d_rx/src/tes/dave_line.c **** 
 888:../src/smc_gen/r_drw2d_rx/src/tes/dave_line.c ****       if(0 == (control & D2C_SPANSTORE))
 889:../src/smc_gen/r_drw2d_rx/src/tes/dave_line.c ****       {
 890:../src/smc_gen/r_drw2d_rx/src/tes/dave_line.c ****          flip = 0;
 891:../src/smc_gen/r_drw2d_rx/src/tes/dave_line.c ****       }
 892:../src/smc_gen/r_drw2d_rx/src/tes/dave_line.c ****    }
 893:../src/smc_gen/r_drw2d_rx/src/tes/dave_line.c **** 
 894:../src/smc_gen/r_drw2d_rx/src/tes/dave_line.c ****    /* find most important endpoint */
 895:../src/smc_gen/r_drw2d_rx/src/tes/dave_line.c ****    if(0 != (flags & d2_le_exclude_start))
 896:../src/smc_gen/r_drw2d_rx/src/tes/dave_line.c ****    {
 897:../src/smc_gen/r_drw2d_rx/src/tes/dave_line.c ****       /* render only endpoint */
 898:../src/smc_gen/r_drw2d_rx/src/tes/dave_line.c ****       r = w2 >> 1;                             /* PRQA S 0502 */ /* $Misra: #PERF_ARITHMETIC_SHIFT_
 899:../src/smc_gen/r_drw2d_rx/src/tes/dave_line.c ****       xp = xe;
 900:../src/smc_gen/r_drw2d_rx/src/tes/dave_line.c ****       yp = ye;
 901:../src/smc_gen/r_drw2d_rx/src/tes/dave_line.c ****       l = 1;
 902:../src/smc_gen/r_drw2d_rx/src/tes/dave_line.c ****       cap2 = 0;
 903:../src/smc_gen/r_drw2d_rx/src/tes/dave_line.c ****    }
 904:../src/smc_gen/r_drw2d_rx/src/tes/dave_line.c ****    else if (0 != (flags & d2_le_exclude_end))
 905:../src/smc_gen/r_drw2d_rx/src/tes/dave_line.c ****    {
 906:../src/smc_gen/r_drw2d_rx/src/tes/dave_line.c ****       /* render only startpoint */
 907:../src/smc_gen/r_drw2d_rx/src/tes/dave_line.c ****       r = w1 >> 1;                             /* PRQA S 0502 */ /* $Misra: #PERF_ARITHMETIC_SHIFT_
 908:../src/smc_gen/r_drw2d_rx/src/tes/dave_line.c ****       xp = xs;
 909:../src/smc_gen/r_drw2d_rx/src/tes/dave_line.c ****       yp = ys;
 910:../src/smc_gen/r_drw2d_rx/src/tes/dave_line.c ****       l = 0;
 911:../src/smc_gen/r_drw2d_rx/src/tes/dave_line.c ****       cap2 = 0;
 912:../src/smc_gen/r_drw2d_rx/src/tes/dave_line.c ****    }
 913:../src/smc_gen/r_drw2d_rx/src/tes/dave_line.c ****    else
 914:../src/smc_gen/r_drw2d_rx/src/tes/dave_line.c ****    {
 915:../src/smc_gen/r_drw2d_rx/src/tes/dave_line.c ****       /* need to render both points */
 916:../src/smc_gen/r_drw2d_rx/src/tes/dave_line.c ****       cap2 = 1;
 917:../src/smc_gen/r_drw2d_rx/src/tes/dave_line.c ****       if(w1 > w2)
 918:../src/smc_gen/r_drw2d_rx/src/tes/dave_line.c ****       {
 919:../src/smc_gen/r_drw2d_rx/src/tes/dave_line.c ****          /* startpoint  first */
 920:../src/smc_gen/r_drw2d_rx/src/tes/dave_line.c ****          r = w1 >> 1;                          /* PRQA S 0502 */ /* $Misra: #PERF_ARITHMETIC_SHIFT_
 921:../src/smc_gen/r_drw2d_rx/src/tes/dave_line.c ****          xp = xs;
 922:../src/smc_gen/r_drw2d_rx/src/tes/dave_line.c ****          yp = ys;
 923:../src/smc_gen/r_drw2d_rx/src/tes/dave_line.c ****          l = 0;
 924:../src/smc_gen/r_drw2d_rx/src/tes/dave_line.c ****       }
 925:../src/smc_gen/r_drw2d_rx/src/tes/dave_line.c ****       else
 926:../src/smc_gen/r_drw2d_rx/src/tes/dave_line.c ****       {
 927:../src/smc_gen/r_drw2d_rx/src/tes/dave_line.c ****          /* endpoint first */
 928:../src/smc_gen/r_drw2d_rx/src/tes/dave_line.c ****          r = w2 >> 1;                          /* PRQA S 0502 */ /* $Misra: #PERF_ARITHMETIC_SHIFT_
 929:../src/smc_gen/r_drw2d_rx/src/tes/dave_line.c ****          xp = xe;
 930:../src/smc_gen/r_drw2d_rx/src/tes/dave_line.c ****          yp = ye;
 931:../src/smc_gen/r_drw2d_rx/src/tes/dave_line.c ****          l = 1;
 932:../src/smc_gen/r_drw2d_rx/src/tes/dave_line.c ****       }
 933:../src/smc_gen/r_drw2d_rx/src/tes/dave_line.c ****    }
 934:../src/smc_gen/r_drw2d_rx/src/tes/dave_line.c **** 
 935:../src/smc_gen/r_drw2d_rx/src/tes/dave_line.c ****    /* store outer edge if needed by cap later */
 936:../src/smc_gen/r_drw2d_rx/src/tes/dave_line.c ****    if(0 != cap2)
 937:../src/smc_gen/r_drw2d_rx/src/tes/dave_line.c ****    {
 938:../src/smc_gen/r_drw2d_rx/src/tes/dave_line.c ****       edge_buffer[0] = edge[(d2_u32)l ^ 1u];
 939:../src/smc_gen/r_drw2d_rx/src/tes/dave_line.c ****       *edge_bbox = bbox;
 940:../src/smc_gen/r_drw2d_rx/src/tes/dave_line.c ****    }
 941:../src/smc_gen/r_drw2d_rx/src/tes/dave_line.c **** 
 942:../src/smc_gen/r_drw2d_rx/src/tes/dave_line.c ****    /* optimize for span abort / span store */
 943:../src/smc_gen/r_drw2d_rx/src/tes/dave_line.c ****    if(0 != flip)
 944:../src/smc_gen/r_drw2d_rx/src/tes/dave_line.c ****    {
 945:../src/smc_gen/r_drw2d_rx/src/tes/dave_line.c ****       h = D2_INT4( bbox.ymax - bbox.ymin );   /* PRQA S 0502 */ /* $Misra: #PERF_ARITHMETIC_SHIFT_R
 946:../src/smc_gen/r_drw2d_rx/src/tes/dave_line.c ****       d2_invertlimiter_intern(&edge[0], h);
 947:../src/smc_gen/r_drw2d_rx/src/tes/dave_line.c ****       d2_invertlimiter_intern(&edge[1], h);
 948:../src/smc_gen/r_drw2d_rx/src/tes/dave_line.c ****       d2_invertlimiter_intern(&edge[2], h);
 949:../src/smc_gen/r_drw2d_rx/src/tes/dave_line.c ****       d2_invertlimiter_intern(&edge[3], h);
 950:../src/smc_gen/r_drw2d_rx/src/tes/dave_line.c ****    }
 951:../src/smc_gen/r_drw2d_rx/src/tes/dave_line.c ****    else
 952:../src/smc_gen/r_drw2d_rx/src/tes/dave_line.c ****    {
 953:../src/smc_gen/r_drw2d_rx/src/tes/dave_line.c ****       h = 0;
 954:../src/smc_gen/r_drw2d_rx/src/tes/dave_line.c ****    }
 955:../src/smc_gen/r_drw2d_rx/src/tes/dave_line.c **** 
 956:../src/smc_gen/r_drw2d_rx/src/tes/dave_line.c ****    D2_DLISTWRITEU( D2_CONTROL, control );
 957:../src/smc_gen/r_drw2d_rx/src/tes/dave_line.c **** 
 958:../src/smc_gen/r_drw2d_rx/src/tes/dave_line.c ****    /* late blur adjustments */
 959:../src/smc_gen/r_drw2d_rx/src/tes/dave_line.c ****    if( ((ctx->features & (d2_feat_blur | d2_feat_aa)) == (d2_feat_blur | d2_feat_aa)) && (cap != d2
 960:../src/smc_gen/r_drw2d_rx/src/tes/dave_line.c ****    {
 961:../src/smc_gen/r_drw2d_rx/src/tes/dave_line.c ****       if(0 == (tmask & D2C_LIM1THRESHOLD))
 962:../src/smc_gen/r_drw2d_rx/src/tes/dave_line.c ****       {
 963:../src/smc_gen/r_drw2d_rx/src/tes/dave_line.c ****          edge[0].start = ((edge[0].start*16) / ctx->blurring);
 964:../src/smc_gen/r_drw2d_rx/src/tes/dave_line.c ****          edge[0].xadd  = ((edge[0].xadd*16)  / ctx->blurring);
 965:../src/smc_gen/r_drw2d_rx/src/tes/dave_line.c ****          edge[0].yadd  = ((edge[0].yadd*16)  / ctx->blurring);
 966:../src/smc_gen/r_drw2d_rx/src/tes/dave_line.c ****       }
 967:../src/smc_gen/r_drw2d_rx/src/tes/dave_line.c ****       if(0 == (tmask & D2C_LIM2THRESHOLD))
 968:../src/smc_gen/r_drw2d_rx/src/tes/dave_line.c ****       {
 969:../src/smc_gen/r_drw2d_rx/src/tes/dave_line.c ****          edge[1].start = ((edge[1].start*16) / ctx->blurring);
 970:../src/smc_gen/r_drw2d_rx/src/tes/dave_line.c ****          edge[1].xadd  = ((edge[1].xadd*16)  / ctx->blurring);
 971:../src/smc_gen/r_drw2d_rx/src/tes/dave_line.c ****          edge[1].yadd  = ((edge[1].yadd*16)  / ctx->blurring);
 972:../src/smc_gen/r_drw2d_rx/src/tes/dave_line.c ****       }
 973:../src/smc_gen/r_drw2d_rx/src/tes/dave_line.c ****    }
 974:../src/smc_gen/r_drw2d_rx/src/tes/dave_line.c **** 
 975:../src/smc_gen/r_drw2d_rx/src/tes/dave_line.c ****    /* set register values (geometric parameters) */
 976:../src/smc_gen/r_drw2d_rx/src/tes/dave_line.c ****    D2_DLISTWRITES( D2_L1START, edge[0].start );
 977:../src/smc_gen/r_drw2d_rx/src/tes/dave_line.c ****    D2_DLISTWRITES( D2_L1XADD , edge[0].xadd );
 978:../src/smc_gen/r_drw2d_rx/src/tes/dave_line.c ****    D2_DLISTWRITES( D2_L1YADD , edge[0].yadd );
 979:../src/smc_gen/r_drw2d_rx/src/tes/dave_line.c ****    D2_DLISTWRITES( D2_L2START, edge[1].start );
 980:../src/smc_gen/r_drw2d_rx/src/tes/dave_line.c ****    D2_DLISTWRITES( D2_L2XADD , edge[1].xadd );
 981:../src/smc_gen/r_drw2d_rx/src/tes/dave_line.c ****    D2_DLISTWRITES( D2_L2YADD , edge[1].yadd );
 982:../src/smc_gen/r_drw2d_rx/src/tes/dave_line.c ****    D2_DLISTWRITES( D2_L3START, edge[2].start );
 983:../src/smc_gen/r_drw2d_rx/src/tes/dave_line.c ****    D2_DLISTWRITES( D2_L3XADD , edge[2].xadd );
 984:../src/smc_gen/r_drw2d_rx/src/tes/dave_line.c ****    D2_DLISTWRITES( D2_L3YADD , edge[2].yadd );
 985:../src/smc_gen/r_drw2d_rx/src/tes/dave_line.c ****    D2_DLISTWRITES( D2_L4START, edge[3].start );
 986:../src/smc_gen/r_drw2d_rx/src/tes/dave_line.c ****    D2_DLISTWRITES( D2_L4XADD , edge[3].xadd );
 987:../src/smc_gen/r_drw2d_rx/src/tes/dave_line.c ****    D2_DLISTWRITES( D2_L4YADD , edge[3].yadd );
 988:../src/smc_gen/r_drw2d_rx/src/tes/dave_line.c **** 
 989:../src/smc_gen/r_drw2d_rx/src/tes/dave_line.c ****    /* render line part */
 990:../src/smc_gen/r_drw2d_rx/src/tes/dave_line.c ****    if(0 != flip)
 991:../src/smc_gen/r_drw2d_rx/src/tes/dave_line.c ****    {
 992:../src/smc_gen/r_drw2d_rx/src/tes/dave_line.c ****       d2_startrender_bottom_intern( handle, &bbox, delay );
 993:../src/smc_gen/r_drw2d_rx/src/tes/dave_line.c ****    }
 994:../src/smc_gen/r_drw2d_rx/src/tes/dave_line.c ****    else
 995:../src/smc_gen/r_drw2d_rx/src/tes/dave_line.c ****    {
 996:../src/smc_gen/r_drw2d_rx/src/tes/dave_line.c ****       d2_startrender_intern( handle, &bbox, delay );
 997:../src/smc_gen/r_drw2d_rx/src/tes/dave_line.c ****    }
 998:../src/smc_gen/r_drw2d_rx/src/tes/dave_line.c **** 
 999:../src/smc_gen/r_drw2d_rx/src/tes/dave_line.c ****    if(d2_lc_round != cap)
1000:../src/smc_gen/r_drw2d_rx/src/tes/dave_line.c ****    {
1001:../src/smc_gen/r_drw2d_rx/src/tes/dave_line.c ****       return 1;
1002:../src/smc_gen/r_drw2d_rx/src/tes/dave_line.c ****    }
1003:../src/smc_gen/r_drw2d_rx/src/tes/dave_line.c **** 
1004:../src/smc_gen/r_drw2d_rx/src/tes/dave_line.c ****    /* find reduced bbox for endpoint */
1005:../src/smc_gen/r_drw2d_rx/src/tes/dave_line.c ****    bbox2.xmin = (d2_point) D2_FLOOR4( xp - r );
1006:../src/smc_gen/r_drw2d_rx/src/tes/dave_line.c ****    bbox2.ymin = (d2_point) D2_FLOOR4( yp - r );
1007:../src/smc_gen/r_drw2d_rx/src/tes/dave_line.c ****    bbox2.xmax = (d2_point) D2_CEIL4( xp + r );
1008:../src/smc_gen/r_drw2d_rx/src/tes/dave_line.c ****    bbox2.ymax = (d2_point) D2_CEIL4( yp + r );
1009:../src/smc_gen/r_drw2d_rx/src/tes/dave_line.c **** 
1010:../src/smc_gen/r_drw2d_rx/src/tes/dave_line.c ****    /* endpoint clipping */
1011:../src/smc_gen/r_drw2d_rx/src/tes/dave_line.c ****    if(0 != d2_clipbbox_intern( handle, &bbox2 ))
1012:../src/smc_gen/r_drw2d_rx/src/tes/dave_line.c ****    {
1013:../src/smc_gen/r_drw2d_rx/src/tes/dave_line.c ****       /* make relative */
1014:../src/smc_gen/r_drw2d_rx/src/tes/dave_line.c ****       xp = xp - bbox2.xmin;
1015:../src/smc_gen/r_drw2d_rx/src/tes/dave_line.c ****       yp = yp - bbox2.ymin;
1016:../src/smc_gen/r_drw2d_rx/src/tes/dave_line.c **** 
1017:../src/smc_gen/r_drw2d_rx/src/tes/dave_line.c ****       /* calc circle endpoint parameters */
1018:../src/smc_gen/r_drw2d_rx/src/tes/dave_line.c ****       d2_circlesetup_intern(handle, ctx, 0, (d2_point) xp, (d2_point) yp, (d2_width) r, 0, 0, 0);
1019:../src/smc_gen/r_drw2d_rx/src/tes/dave_line.c **** 
1020:../src/smc_gen/r_drw2d_rx/src/tes/dave_line.c ****       delay = D2_CEIL4( r ) >> 4;                   /* PRQA S 0502 */ /* $Misra: #PERF_ARITHMETIC_S
1021:../src/smc_gen/r_drw2d_rx/src/tes/dave_line.c **** 
1022:../src/smc_gen/r_drw2d_rx/src/tes/dave_line.c ****       /* adapt line parameters to new bounding box */
1023:../src/smc_gen/r_drw2d_rx/src/tes/dave_line.c ****       if(0 != flip)
1024:../src/smc_gen/r_drw2d_rx/src/tes/dave_line.c ****       {
1025:../src/smc_gen/r_drw2d_rx/src/tes/dave_line.c ****          nx = D2_INT4(bbox2.xmin - bbox.xmin);      /* PRQA S 0502 */ /* $Misra: #PERF_ARITHMETIC_S
1026:../src/smc_gen/r_drw2d_rx/src/tes/dave_line.c ****          ny = D2_INT4(bbox2.ymin - bbox.ymin) - h;  /* PRQA S 0502 */ /* $Misra: #PERF_ARITHMETIC_S
1027:../src/smc_gen/r_drw2d_rx/src/tes/dave_line.c ****          edge[l].yadd = -edge[l].yadd;
1028:../src/smc_gen/r_drw2d_rx/src/tes/dave_line.c ****          edge[2].yadd = -edge[2].yadd;
1029:../src/smc_gen/r_drw2d_rx/src/tes/dave_line.c ****          edge[3].yadd = -edge[3].yadd;
1030:../src/smc_gen/r_drw2d_rx/src/tes/dave_line.c ****       }
1031:../src/smc_gen/r_drw2d_rx/src/tes/dave_line.c ****       else
1032:../src/smc_gen/r_drw2d_rx/src/tes/dave_line.c ****       {
1033:../src/smc_gen/r_drw2d_rx/src/tes/dave_line.c ****          nx = D2_INT4(bbox2.xmin - bbox.xmin);      /* PRQA S 0502 */ /* $Misra: #PERF_ARITHMETIC_S
1034:../src/smc_gen/r_drw2d_rx/src/tes/dave_line.c ****          ny = D2_INT4(bbox2.ymin - bbox.ymin);      /* PRQA S 0502 */ /* $Misra: #PERF_ARITHMETIC_S
1035:../src/smc_gen/r_drw2d_rx/src/tes/dave_line.c ****       }
1036:../src/smc_gen/r_drw2d_rx/src/tes/dave_line.c **** 
1037:../src/smc_gen/r_drw2d_rx/src/tes/dave_line.c ****       d2_setuppattern( handle, ctx, &bbox2, 0 );
1038:../src/smc_gen/r_drw2d_rx/src/tes/dave_line.c ****       d2_setuptexture( handle, ctx, &bbox2, 0 );
1039:../src/smc_gen/r_drw2d_rx/src/tes/dave_line.c **** 
1040:../src/smc_gen/r_drw2d_rx/src/tes/dave_line.c ****       D2_DLISTWRITES( D2_L3START, edge[2].start + (edge[2].xadd * nx) + (edge[2].yadd * ny) );
1041:../src/smc_gen/r_drw2d_rx/src/tes/dave_line.c ****       D2_DLISTWRITES( D2_L3XADD , edge[2].xadd );
1042:../src/smc_gen/r_drw2d_rx/src/tes/dave_line.c ****       D2_DLISTWRITES( D2_L3YADD , edge[2].yadd );
1043:../src/smc_gen/r_drw2d_rx/src/tes/dave_line.c ****       D2_DLISTWRITES( D2_L4START, edge[3].start + (edge[3].xadd * nx) + (edge[3].yadd * ny) );
1044:../src/smc_gen/r_drw2d_rx/src/tes/dave_line.c ****       D2_DLISTWRITES( D2_L4XADD , edge[3].xadd );
1045:../src/smc_gen/r_drw2d_rx/src/tes/dave_line.c ****       D2_DLISTWRITES( D2_L4YADD , edge[3].yadd );
1046:../src/smc_gen/r_drw2d_rx/src/tes/dave_line.c ****       D2_DLISTWRITES( D2_L5START, 
1047:../src/smc_gen/r_drw2d_rx/src/tes/dave_line.c ****                       (
1048:../src/smc_gen/r_drw2d_rx/src/tes/dave_line.c ****                          (
1049:../src/smc_gen/r_drw2d_rx/src/tes/dave_line.c ****                             (
1050:../src/smc_gen/r_drw2d_rx/src/tes/dave_line.c ****                                (
1051:../src/smc_gen/r_drw2d_rx/src/tes/dave_line.c ****                                   D2_FIX16(1) - edge[l].start
1052:../src/smc_gen/r_drw2d_rx/src/tes/dave_line.c ****                                 )
1053:../src/smc_gen/r_drw2d_rx/src/tes/dave_line.c ****                                - (edge[l].xadd * nx)
1054:../src/smc_gen/r_drw2d_rx/src/tes/dave_line.c ****                              )
1055:../src/smc_gen/r_drw2d_rx/src/tes/dave_line.c ****                             - (edge[l].yadd * ny)
1056:../src/smc_gen/r_drw2d_rx/src/tes/dave_line.c ****                           )
1057:../src/smc_gen/r_drw2d_rx/src/tes/dave_line.c ****                          + D2_EPSILON 
1058:../src/smc_gen/r_drw2d_rx/src/tes/dave_line.c ****                        )
1059:../src/smc_gen/r_drw2d_rx/src/tes/dave_line.c ****                       );
1060:../src/smc_gen/r_drw2d_rx/src/tes/dave_line.c ****       D2_DLISTWRITES( D2_L5XADD , -edge[l].xadd );
1061:../src/smc_gen/r_drw2d_rx/src/tes/dave_line.c ****       D2_DLISTWRITES( D2_L5YADD , -edge[l].yadd );
1062:../src/smc_gen/r_drw2d_rx/src/tes/dave_line.c **** 
1063:../src/smc_gen/r_drw2d_rx/src/tes/dave_line.c ****       control = 
1064:../src/smc_gen/r_drw2d_rx/src/tes/dave_line.c ****          D2C_LIM1ENABLE   | 
1065:../src/smc_gen/r_drw2d_rx/src/tes/dave_line.c ****          D2C_QUAD1ENABLE  | 
1066:../src/smc_gen/r_drw2d_rx/src/tes/dave_line.c ****          D2C_SPANABORT    | 
1067:../src/smc_gen/r_drw2d_rx/src/tes/dave_line.c ****          (ctx->thresholdmask & (D2C_LIM1THRESHOLD | D2C_LIM3THRESHOLD | D2C_LIM4THRESHOLD)) |
1068:../src/smc_gen/r_drw2d_rx/src/tes/dave_line.c ****          D2C_LIM3ENABLE   | 
1069:../src/smc_gen/r_drw2d_rx/src/tes/dave_line.c ****          D2C_LIM4ENABLE   | 
1070:../src/smc_gen/r_drw2d_rx/src/tes/dave_line.c ****          D2C_LIM5ENABLE   | 
1071:../src/smc_gen/r_drw2d_rx/src/tes/dave_line.c ****          D2C_LIM5THRESHOLD;
1072:../src/smc_gen/r_drw2d_rx/src/tes/dave_line.c **** 
1073:../src/smc_gen/r_drw2d_rx/src/tes/dave_line.c ****       control = d2_initgradients_intern( handle, ctx, &bbox2, 5, control );
1074:../src/smc_gen/r_drw2d_rx/src/tes/dave_line.c **** 
1075:../src/smc_gen/r_drw2d_rx/src/tes/dave_line.c ****       D2_DLISTWRITEU( D2_CONTROL, control );
1076:../src/smc_gen/r_drw2d_rx/src/tes/dave_line.c **** 
1077:../src/smc_gen/r_drw2d_rx/src/tes/dave_line.c ****       /* start first endpoint rendering */
1078:../src/smc_gen/r_drw2d_rx/src/tes/dave_line.c ****       d2_startrender_intern( handle, &bbox2, delay );
1079:../src/smc_gen/r_drw2d_rx/src/tes/dave_line.c ****    }
1080:../src/smc_gen/r_drw2d_rx/src/tes/dave_line.c **** 
1081:../src/smc_gen/r_drw2d_rx/src/tes/dave_line.c ****    if(0 != cap2)
1082:../src/smc_gen/r_drw2d_rx/src/tes/dave_line.c ****    {
1083:../src/smc_gen/r_drw2d_rx/src/tes/dave_line.c ****       /* second point required too */
1084:../src/smc_gen/r_drw2d_rx/src/tes/dave_line.c ****       if(1 == l)
1085:../src/smc_gen/r_drw2d_rx/src/tes/dave_line.c ****       {
1086:../src/smc_gen/r_drw2d_rx/src/tes/dave_line.c ****          /* startpoint second */
1087:../src/smc_gen/r_drw2d_rx/src/tes/dave_line.c ****          r = w1;
1088:../src/smc_gen/r_drw2d_rx/src/tes/dave_line.c ****          xp = xs;
1089:../src/smc_gen/r_drw2d_rx/src/tes/dave_line.c ****          yp = ys;
1090:../src/smc_gen/r_drw2d_rx/src/tes/dave_line.c ****       }
1091:../src/smc_gen/r_drw2d_rx/src/tes/dave_line.c ****       else
1092:../src/smc_gen/r_drw2d_rx/src/tes/dave_line.c ****       {
1093:../src/smc_gen/r_drw2d_rx/src/tes/dave_line.c ****          /* endpoint second */
1094:../src/smc_gen/r_drw2d_rx/src/tes/dave_line.c ****          r = w2;
1095:../src/smc_gen/r_drw2d_rx/src/tes/dave_line.c ****          xp = xe;
1096:../src/smc_gen/r_drw2d_rx/src/tes/dave_line.c ****          yp = ye;
1097:../src/smc_gen/r_drw2d_rx/src/tes/dave_line.c ****       }
1098:../src/smc_gen/r_drw2d_rx/src/tes/dave_line.c **** 
1099:../src/smc_gen/r_drw2d_rx/src/tes/dave_line.c ****       (void)d2_renderlinedot_intern( handle, ctx, (d2_point) xp, (d2_point) yp, (d2_width) r, 1, ed
1100:../src/smc_gen/r_drw2d_rx/src/tes/dave_line.c ****    }
1101:../src/smc_gen/r_drw2d_rx/src/tes/dave_line.c **** 
1102:../src/smc_gen/r_drw2d_rx/src/tes/dave_line.c ****    return 1;
1103:../src/smc_gen/r_drw2d_rx/src/tes/dave_line.c **** }
1104:../src/smc_gen/r_drw2d_rx/src/tes/dave_line.c **** 
1105:../src/smc_gen/r_drw2d_rx/src/tes/dave_line.c **** /*--------------------------------------------------------------------------
1106:../src/smc_gen/r_drw2d_rx/src/tes/dave_line.c ****  *
1107:../src/smc_gen/r_drw2d_rx/src/tes/dave_line.c ****  * */
1108:../src/smc_gen/r_drw2d_rx/src/tes/dave_line.c **** d2_s32 d2_renderlinedot_intern( d2_devicedata *handle, const d2_contextdata *ctx, d2_point x, d2_po
1109:../src/smc_gen/r_drw2d_rx/src/tes/dave_line.c **** {
 3399                             		.loc 1 1109 1 is_stmt 1 view -0
 3400                             		.loc 1 1109 1 is_stmt 0 view .LVU1239
 3401 0000 6E 6D                   		pushm	r6-r13
 3402                             	.LCFI2:
 3403                             		.loc 1 1109 1 view .LVU1240
 3404 0002 71 00 D4                		add	#-44, r0
 3405                             	.LCFI3:
 3406 0005 75 47 50                		mov.L	#0x50, r7
 3407 0008 4B 07                   		add	r0, r7
 3408 000a EF 1A                   		mov.L	r1, r10
 3409 000c EF 2B                   		mov.L	r2, r11
 3410 000e DF 3C                   		mov.W	r3, r12
 3411 0010 DF 46                   		mov.W	r4, r6
 3412 0012 ED 78 01                		mov.L	4[r7], r8
 3413 0015 ED 79 02                		mov.L	8[r7], r9
 3414 0018 ED 7D 03                		mov.L	12[r7], r13
1110:../src/smc_gen/r_drw2d_rx/src/tes/dave_line.c ****    d2_bbox bbox;
 3415                             		.loc 1 1110 4 is_stmt 1 view .LVU1241
1111:../src/smc_gen/r_drw2d_rx/src/tes/dave_line.c ****    d2_u32 delay, grad;
 3416                             		.loc 1 1111 4 view .LVU1242
1112:../src/smc_gen/r_drw2d_rx/src/tes/dave_line.c ****    d2_u32 control;
 3417                             		.loc 1 1112 4 view .LVU1243
1113:../src/smc_gen/r_drw2d_rx/src/tes/dave_line.c ****    d2_u32 tmask;
 3418                             		.loc 1 1113 4 view .LVU1244
1114:../src/smc_gen/r_drw2d_rx/src/tes/dave_line.c ****    d2_width er;
 3419                             		.loc 1 1114 4 view .LVU1245
1115:../src/smc_gen/r_drw2d_rx/src/tes/dave_line.c **** 
1116:../src/smc_gen/r_drw2d_rx/src/tes/dave_line.c ****    /* endpoint radius */
1117:../src/smc_gen/r_drw2d_rx/src/tes/dave_line.c ****    er = (d2_width)((w + D2_FIX4(1)) >> 1);           /* PRQA S 0502 */ /* $Misra: #PERF_ARITHMETIC_
 3420                             		.loc 1 1117 4 view .LVU1246
 3421                             		.loc 1 1117 23 is_stmt 0 view .LVU1247
 3422 001b DC 77                   		mov.W	[r7], r7
 3423 001d 71 77 10                		add	#16, r7
 3424                             		.loc 1 1117 37 view .LVU1248
 3425 0020 6A 17                   		shar	#1, r7
 3426                             	.LVL339:
1118:../src/smc_gen/r_drw2d_rx/src/tes/dave_line.c **** 
1119:../src/smc_gen/r_drw2d_rx/src/tes/dave_line.c ****    /* circle bounding box */
1120:../src/smc_gen/r_drw2d_rx/src/tes/dave_line.c ****    bbox.xmin = (d2_point) D2_FLOOR4( x - er );
 3427                             		.loc 1 1120 4 is_stmt 1 view .LVU1249
 3428                             		.loc 1 1120 27 is_stmt 0 view .LVU1250
 3429 0022 FF 05 7C                		sub	r7, r12, r5
 3430                             		.loc 1 1120 16 view .LVU1251
 3431 0025 75 25 F0                		and #-16, r5
 3432                             		.loc 1 1120 14 view .LVU1252
 3433 0028 92 05                   		mov.W	r5, 16[r0]
1121:../src/smc_gen/r_drw2d_rx/src/tes/dave_line.c ****    bbox.ymin = (d2_point) D2_FLOOR4( y - er );
 3434                             		.loc 1 1121 4 is_stmt 1 view .LVU1253
 3435                             		.loc 1 1121 27 is_stmt 0 view .LVU1254
 3436 002a FF 05 76                		sub	r7, r6, r5
 3437                             		.loc 1 1121 16 view .LVU1255
 3438 002d 75 25 F0                		and #-16, r5
 3439                             		.loc 1 1121 14 view .LVU1256
 3440 0030 92 0D                   		mov.W	r5, 18[r0]
1122:../src/smc_gen/r_drw2d_rx/src/tes/dave_line.c ****    bbox.xmax = (d2_point) D2_CEIL4( x + er );
 3441                             		.loc 1 1122 4 is_stmt 1 view .LVU1257
 3442                             		.loc 1 1122 27 is_stmt 0 view .LVU1258
 3443 0032 FF 25 C7                		add	r12, r7, r5
 3444 0035 62 F5                   		add	#15, r5
 3445                             		.loc 1 1122 16 view .LVU1259
 3446 0037 75 25 F0                		and #-16, r5
 3447                             		.loc 1 1122 14 view .LVU1260
 3448 003a 92 85                   		mov.W	r5, 20[r0]
1123:../src/smc_gen/r_drw2d_rx/src/tes/dave_line.c ****    bbox.ymax = (d2_point) D2_CEIL4( y + er );
 3449                             		.loc 1 1123 4 is_stmt 1 view .LVU1261
 3450                             		.loc 1 1123 27 is_stmt 0 view .LVU1262
 3451 003c FF 25 67                		add	r6, r7, r5
 3452 003f 62 F5                   		add	#15, r5
 3453                             		.loc 1 1123 16 view .LVU1263
 3454 0041 75 25 F0                		and #-16, r5
 3455                             		.loc 1 1123 14 view .LVU1264
 3456 0044 92 8D                   		mov.W	r5, 22[r0]
1124:../src/smc_gen/r_drw2d_rx/src/tes/dave_line.c **** 
1125:../src/smc_gen/r_drw2d_rx/src/tes/dave_line.c ****    /* clipping */
1126:../src/smc_gen/r_drw2d_rx/src/tes/dave_line.c ****    if(0 == d2_clipbbox_intern( handle, &bbox ))
 3457                             		.loc 1 1126 4 is_stmt 1 view .LVU1265
 3458                             		.loc 1 1126 12 is_stmt 0 view .LVU1266
 3459 0046 75 42 10                		mov.L	#16, r2
 3460                             	.LVL340:
 3461                             		.loc 1 1126 12 view .LVU1267
 3462 0049 4B 02                   		add	r0, r2
 3463 004b 05 00 00 00             		bsr	_d2_clipbbox_intern
 3464                             	.LVL341:
 3465                             		.loc 1 1126 6 view .LVU1268
 3466 004f 61 01                   		cmp	#0, r1
 3467 0051 1C                      		bne	.L163
 3468                             	.LVL342:
 3469                             	.L149:
1127:../src/smc_gen/r_drw2d_rx/src/tes/dave_line.c ****    {
1128:../src/smc_gen/r_drw2d_rx/src/tes/dave_line.c ****       return 0;
1129:../src/smc_gen/r_drw2d_rx/src/tes/dave_line.c ****    }
1130:../src/smc_gen/r_drw2d_rx/src/tes/dave_line.c **** 
1131:../src/smc_gen/r_drw2d_rx/src/tes/dave_line.c ****    /* make relative */
1132:../src/smc_gen/r_drw2d_rx/src/tes/dave_line.c ****    x = (d2_point)(x - bbox.xmin);
1133:../src/smc_gen/r_drw2d_rx/src/tes/dave_line.c ****    y = (d2_point)(y - bbox.ymin);
1134:../src/smc_gen/r_drw2d_rx/src/tes/dave_line.c **** 
1135:../src/smc_gen/r_drw2d_rx/src/tes/dave_line.c ****    /* ASSUME material is still set from line rendering */
1136:../src/smc_gen/r_drw2d_rx/src/tes/dave_line.c ****    tmask = ctx->thresholdmask;
1137:../src/smc_gen/r_drw2d_rx/src/tes/dave_line.c **** 
1138:../src/smc_gen/r_drw2d_rx/src/tes/dave_line.c ****    /* base circle setup */
1139:../src/smc_gen/r_drw2d_rx/src/tes/dave_line.c ****    d2_circlesetup_intern(handle, ctx, 0, x, y, er, 0, 0, 0);
1140:../src/smc_gen/r_drw2d_rx/src/tes/dave_line.c **** 
1141:../src/smc_gen/r_drw2d_rx/src/tes/dave_line.c ****    control = 
1142:../src/smc_gen/r_drw2d_rx/src/tes/dave_line.c ****       D2C_LIM1ENABLE             | 
1143:../src/smc_gen/r_drw2d_rx/src/tes/dave_line.c ****       D2C_QUAD1ENABLE            | 
1144:../src/smc_gen/r_drw2d_rx/src/tes/dave_line.c ****       D2C_SPANABORT              | 
1145:../src/smc_gen/r_drw2d_rx/src/tes/dave_line.c ****       (D2C_SPANSTORE*0)          | 
1146:../src/smc_gen/r_drw2d_rx/src/tes/dave_line.c ****       (tmask & D2C_LIM1THRESHOLD);
1147:../src/smc_gen/r_drw2d_rx/src/tes/dave_line.c **** 
1148:../src/smc_gen/r_drw2d_rx/src/tes/dave_line.c ****    control = d2_initgradients_intern( handle, ctx, &bbox, 2, control );
1149:../src/smc_gen/r_drw2d_rx/src/tes/dave_line.c **** 
1150:../src/smc_gen/r_drw2d_rx/src/tes/dave_line.c ****    delay = (d2_u32) (D2_CEIL4( er ) >> 4);         /* PRQA S 0502 */ /* $Misra: #PERF_ARITHMETIC_SH
1151:../src/smc_gen/r_drw2d_rx/src/tes/dave_line.c **** 
1152:../src/smc_gen/r_drw2d_rx/src/tes/dave_line.c ****    grad = 2;
1153:../src/smc_gen/r_drw2d_rx/src/tes/dave_line.c **** 
1154:../src/smc_gen/r_drw2d_rx/src/tes/dave_line.c ****    /* additional edges */
1155:../src/smc_gen/r_drw2d_rx/src/tes/dave_line.c ****    if(0 != edges)
1156:../src/smc_gen/r_drw2d_rx/src/tes/dave_line.c ****    {
1157:../src/smc_gen/r_drw2d_rx/src/tes/dave_line.c ****       d2_s32 xr, yr;
1158:../src/smc_gen/r_drw2d_rx/src/tes/dave_line.c **** 
1159:../src/smc_gen/r_drw2d_rx/src/tes/dave_line.c ****       /* find relative change of position */
1160:../src/smc_gen/r_drw2d_rx/src/tes/dave_line.c ****       xr = D2_INT4( edge_bbox->xmin - bbox.xmin );  /* PRQA S 0502 */ /* $Misra: #PERF_ARITHMETIC_S
1161:../src/smc_gen/r_drw2d_rx/src/tes/dave_line.c ****       yr = D2_INT4( edge_bbox->ymin - bbox.ymin );  /* PRQA S 0502 */ /* $Misra: #PERF_ARITHMETIC_S
1162:../src/smc_gen/r_drw2d_rx/src/tes/dave_line.c **** 
1163:../src/smc_gen/r_drw2d_rx/src/tes/dave_line.c ****       if(0 != (edges & 1))
1164:../src/smc_gen/r_drw2d_rx/src/tes/dave_line.c ****       {
1165:../src/smc_gen/r_drw2d_rx/src/tes/dave_line.c ****          D2_DLISTWRITES( D2_L3START, 
1166:../src/smc_gen/r_drw2d_rx/src/tes/dave_line.c ****                          (
1167:../src/smc_gen/r_drw2d_rx/src/tes/dave_line.c ****                             (
1168:../src/smc_gen/r_drw2d_rx/src/tes/dave_line.c ****                                (
1169:../src/smc_gen/r_drw2d_rx/src/tes/dave_line.c ****                                   (
1170:../src/smc_gen/r_drw2d_rx/src/tes/dave_line.c ****                                      D2_FIX16(1) - edge_buffer[0].start
1171:../src/smc_gen/r_drw2d_rx/src/tes/dave_line.c ****                                    )
1172:../src/smc_gen/r_drw2d_rx/src/tes/dave_line.c ****                                   + (xr * edge_buffer[0].xadd)
1173:../src/smc_gen/r_drw2d_rx/src/tes/dave_line.c ****                                 )
1174:../src/smc_gen/r_drw2d_rx/src/tes/dave_line.c ****                                + (yr * edge_buffer[0].yadd)
1175:../src/smc_gen/r_drw2d_rx/src/tes/dave_line.c ****                              )
1176:../src/smc_gen/r_drw2d_rx/src/tes/dave_line.c ****                             + D2_EPSILON
1177:../src/smc_gen/r_drw2d_rx/src/tes/dave_line.c ****                           )
1178:../src/smc_gen/r_drw2d_rx/src/tes/dave_line.c ****                          );
1179:../src/smc_gen/r_drw2d_rx/src/tes/dave_line.c ****          D2_DLISTWRITES( D2_L3XADD , -edge_buffer[0].xadd );
1180:../src/smc_gen/r_drw2d_rx/src/tes/dave_line.c ****          D2_DLISTWRITES( D2_L3YADD , -edge_buffer[0].yadd );
1181:../src/smc_gen/r_drw2d_rx/src/tes/dave_line.c **** 
1182:../src/smc_gen/r_drw2d_rx/src/tes/dave_line.c ****          control |= D2C_LIM3ENABLE | D2C_LIM3THRESHOLD;
1183:../src/smc_gen/r_drw2d_rx/src/tes/dave_line.c **** 
1184:../src/smc_gen/r_drw2d_rx/src/tes/dave_line.c ****          grad++;
1185:../src/smc_gen/r_drw2d_rx/src/tes/dave_line.c ****       }
1186:../src/smc_gen/r_drw2d_rx/src/tes/dave_line.c **** 
1187:../src/smc_gen/r_drw2d_rx/src/tes/dave_line.c ****       if(0 != (edges & 2))
1188:../src/smc_gen/r_drw2d_rx/src/tes/dave_line.c ****       {
1189:../src/smc_gen/r_drw2d_rx/src/tes/dave_line.c ****          D2_DLISTWRITES( D2_L4START, 
1190:../src/smc_gen/r_drw2d_rx/src/tes/dave_line.c ****                          (
1191:../src/smc_gen/r_drw2d_rx/src/tes/dave_line.c ****                             (
1192:../src/smc_gen/r_drw2d_rx/src/tes/dave_line.c ****                                (
1193:../src/smc_gen/r_drw2d_rx/src/tes/dave_line.c ****                                   (
1194:../src/smc_gen/r_drw2d_rx/src/tes/dave_line.c ****                                      D2_FIX16(1) - edge_buffer[1].start
1195:../src/smc_gen/r_drw2d_rx/src/tes/dave_line.c ****                                    )
1196:../src/smc_gen/r_drw2d_rx/src/tes/dave_line.c ****                                   + (xr * edge_buffer[1].xadd)
1197:../src/smc_gen/r_drw2d_rx/src/tes/dave_line.c ****                                 )
1198:../src/smc_gen/r_drw2d_rx/src/tes/dave_line.c ****                                + (yr * edge_buffer[1].yadd)
1199:../src/smc_gen/r_drw2d_rx/src/tes/dave_line.c ****                              )
1200:../src/smc_gen/r_drw2d_rx/src/tes/dave_line.c ****                             + D2_EPSILON
1201:../src/smc_gen/r_drw2d_rx/src/tes/dave_line.c ****                           )
1202:../src/smc_gen/r_drw2d_rx/src/tes/dave_line.c ****                          );
1203:../src/smc_gen/r_drw2d_rx/src/tes/dave_line.c ****          D2_DLISTWRITES( D2_L4XADD , -edge_buffer[1].xadd );
1204:../src/smc_gen/r_drw2d_rx/src/tes/dave_line.c ****          D2_DLISTWRITES( D2_L4YADD , -edge_buffer[1].yadd );
1205:../src/smc_gen/r_drw2d_rx/src/tes/dave_line.c **** 
1206:../src/smc_gen/r_drw2d_rx/src/tes/dave_line.c ****          control |= D2C_LIM4ENABLE | D2C_LIM4THRESHOLD;
1207:../src/smc_gen/r_drw2d_rx/src/tes/dave_line.c **** 
1208:../src/smc_gen/r_drw2d_rx/src/tes/dave_line.c ****          if(3 == grad)
1209:../src/smc_gen/r_drw2d_rx/src/tes/dave_line.c ****          {
1210:../src/smc_gen/r_drw2d_rx/src/tes/dave_line.c ****             grad++;
1211:../src/smc_gen/r_drw2d_rx/src/tes/dave_line.c ****          }
1212:../src/smc_gen/r_drw2d_rx/src/tes/dave_line.c ****       }
1213:../src/smc_gen/r_drw2d_rx/src/tes/dave_line.c ****    }
1214:../src/smc_gen/r_drw2d_rx/src/tes/dave_line.c **** 
1215:../src/smc_gen/r_drw2d_rx/src/tes/dave_line.c ****    /* add gradients */
1216:../src/smc_gen/r_drw2d_rx/src/tes/dave_line.c ****    control = d2_initgradients_intern( handle, ctx, &bbox, grad, control );
1217:../src/smc_gen/r_drw2d_rx/src/tes/dave_line.c **** 
1218:../src/smc_gen/r_drw2d_rx/src/tes/dave_line.c ****    /* start rendering */
1219:../src/smc_gen/r_drw2d_rx/src/tes/dave_line.c ****    D2_DLISTWRITEU( D2_CONTROL, control );
1220:../src/smc_gen/r_drw2d_rx/src/tes/dave_line.c **** 
1221:../src/smc_gen/r_drw2d_rx/src/tes/dave_line.c ****    d2_setuppattern( handle, ctx, &bbox, 0 );
1222:../src/smc_gen/r_drw2d_rx/src/tes/dave_line.c ****    d2_setuptexture( handle, ctx, &bbox, 0 );
1223:../src/smc_gen/r_drw2d_rx/src/tes/dave_line.c **** 
1224:../src/smc_gen/r_drw2d_rx/src/tes/dave_line.c ****    d2_startrender_intern( handle, &bbox, delay );
1225:../src/smc_gen/r_drw2d_rx/src/tes/dave_line.c **** 
1226:../src/smc_gen/r_drw2d_rx/src/tes/dave_line.c ****    return 1;
1227:../src/smc_gen/r_drw2d_rx/src/tes/dave_line.c **** }
 3470                             		.loc 1 1227 1 view .LVU1269
 3471 0052 3F 6D 13                		rtsd	#76, r6-r13
 3472                             	.LVL343:
 3473                             	.L163:
1132:../src/smc_gen/r_drw2d_rx/src/tes/dave_line.c ****    y = (d2_point)(y - bbox.ymin);
 3474                             		.loc 1 1132 4 is_stmt 1 view .LVU1270
1132:../src/smc_gen/r_drw2d_rx/src/tes/dave_line.c ****    y = (d2_point)(y - bbox.ymin);
 3475                             		.loc 1 1132 27 is_stmt 0 view .LVU1271
 3476 0055 9A 04                   		mov.W	16[r0], r4
 3477                             	.LVL344:
1133:../src/smc_gen/r_drw2d_rx/src/tes/dave_line.c **** 
 3478                             		.loc 1 1133 4 is_stmt 1 view .LVU1272
1133:../src/smc_gen/r_drw2d_rx/src/tes/dave_line.c **** 
 3479                             		.loc 1 1133 27 is_stmt 0 view .LVU1273
 3480 0057 9A 0D                   		mov.W	18[r0], r5
1133:../src/smc_gen/r_drw2d_rx/src/tes/dave_line.c **** 
 3481                             		.loc 1 1133 21 view .LVU1274
 3482 0059 FF 05 56                		sub	r5, r6, r5
 3483                             	.LVL345:
1136:../src/smc_gen/r_drw2d_rx/src/tes/dave_line.c **** 
 3484                             		.loc 1 1136 4 is_stmt 1 view .LVU1275
1136:../src/smc_gen/r_drw2d_rx/src/tes/dave_line.c **** 
 3485                             		.loc 1 1136 10 is_stmt 0 view .LVU1276
 3486 005c ED B6 4A                		mov.L	296[r11], r6
 3487                             	.LVL346:
1139:../src/smc_gen/r_drw2d_rx/src/tes/dave_line.c **** 
 3488                             		.loc 1 1139 4 is_stmt 1 view .LVU1277
 3489 005f 3E 03 00                		mov.L	#0, 12[r0]
 3490 0062 3E 02 00                		mov.L	#0, 8[r0]
 3491 0065 3E 01 00                		mov.L	#0, 4[r0]
 3492 0068 90 0F                   		mov.W	r7, 2[r0]
 3493 006a D3 05                   		mov.W	r5, [r0]
 3494 006c FF 04 4C                		sub	r4, r12, r4
 3495                             	.LVL347:
1139:../src/smc_gen/r_drw2d_rx/src/tes/dave_line.c **** 
 3496                             		.loc 1 1139 4 is_stmt 0 view .LVU1278
 3497 006f 66 03                   		mov.L	#0, r3
 3498 0071 EF B2                   		mov.L	r11, r2
 3499 0073 EF A1                   		mov.L	r10, r1
 3500 0075 05 00 00 00             		bsr	_d2_circlesetup_intern
 3501                             	.LVL348:
1141:../src/smc_gen/r_drw2d_rx/src/tes/dave_line.c ****       D2C_LIM1ENABLE             | 
 3502                             		.loc 1 1141 4 is_stmt 1 view .LVU1279
1146:../src/smc_gen/r_drw2d_rx/src/tes/dave_line.c **** 
 3503                             		.loc 1 1146 14 is_stmt 0 view .LVU1280
 3504 0079 76 26 00 02             		and #0x200, r6
 3505                             	.LVL349:
1141:../src/smc_gen/r_drw2d_rx/src/tes/dave_line.c ****       D2C_LIM1ENABLE             | 
 3506                             		.loc 1 1141 12 view .LVU1281
 3507 007d 77 36 41 00 40          		or	#0x400041, r6
 3508                             	.LVL350:
1148:../src/smc_gen/r_drw2d_rx/src/tes/dave_line.c **** 
 3509                             		.loc 1 1148 4 is_stmt 1 view .LVU1282
1148:../src/smc_gen/r_drw2d_rx/src/tes/dave_line.c **** 
 3510                             		.loc 1 1148 14 is_stmt 0 view .LVU1283
 3511 0082 E3 06                   		mov.L	r6, [r0]
 3512 0084 66 24                   		mov.L	#2, r4
 3513 0086 75 43 10                		mov.L	#16, r3
 3514 0089 4B 03                   		add	r0, r3
 3515 008b EF B2                   		mov.L	r11, r2
 3516 008d EF A1                   		mov.L	r10, r1
 3517 008f 05 00 00 00             		bsr	_d2_initgradients_intern
 3518                             	.LVL351:
 3519 0093 EF 16                   		mov.L	r1, r6
 3520                             	.LVL352:
1150:../src/smc_gen/r_drw2d_rx/src/tes/dave_line.c **** 
 3521                             		.loc 1 1150 4 is_stmt 1 view .LVU1284
1150:../src/smc_gen/r_drw2d_rx/src/tes/dave_line.c **** 
 3522                             		.loc 1 1150 22 is_stmt 0 view .LVU1285
 3523 0095 62 F7                   		add	#15, r7
 3524                             	.LVL353:
1150:../src/smc_gen/r_drw2d_rx/src/tes/dave_line.c **** 
 3525                             		.loc 1 1150 10 view .LVU1286
 3526 0097 68 47                   		shlr	#4, r7
 3527                             	.LVL354:
1152:../src/smc_gen/r_drw2d_rx/src/tes/dave_line.c **** 
 3528                             		.loc 1 1152 4 is_stmt 1 view .LVU1287
1155:../src/smc_gen/r_drw2d_rx/src/tes/dave_line.c ****    {
 3529                             		.loc 1 1155 4 view .LVU1288
1155:../src/smc_gen/r_drw2d_rx/src/tes/dave_line.c ****    {
 3530                             		.loc 1 1155 6 is_stmt 0 view .LVU1289
 3531 0099 61 08                   		cmp	#0, r8
 3532 009b 3A 64 01                		beq	.L160
 3533                             	.LBB490:
1157:../src/smc_gen/r_drw2d_rx/src/tes/dave_line.c **** 
 3534                             		.loc 1 1157 7 is_stmt 1 view .LVU1290
1160:../src/smc_gen/r_drw2d_rx/src/tes/dave_line.c ****       yr = D2_INT4( edge_bbox->ymin - bbox.ymin );  /* PRQA S 0502 */ /* $Misra: #PERF_ARITHMETIC_S
 3535                             		.loc 1 1160 7 view .LVU1291
1160:../src/smc_gen/r_drw2d_rx/src/tes/dave_line.c ****       yr = D2_INT4( edge_bbox->ymin - bbox.ymin );  /* PRQA S 0502 */ /* $Misra: #PERF_ARITHMETIC_S
 3536                             		.loc 1 1160 12 is_stmt 0 view .LVU1292
 3537 009e DC DC                   		mov.W	[r13], r12
1160:../src/smc_gen/r_drw2d_rx/src/tes/dave_line.c ****       yr = D2_INT4( edge_bbox->ymin - bbox.ymin );  /* PRQA S 0502 */ /* $Misra: #PERF_ARITHMETIC_S
 3538                             		.loc 1 1160 12 view .LVU1293
 3539 00a0 9A 05                   		mov.W	16[r0], r5
 3540 00a2 43 5C                   		sub	r5, r12
1160:../src/smc_gen/r_drw2d_rx/src/tes/dave_line.c ****       yr = D2_INT4( edge_bbox->ymin - bbox.ymin );  /* PRQA S 0502 */ /* $Misra: #PERF_ARITHMETIC_S
 3541                             		.loc 1 1160 10 view .LVU1294
 3542 00a4 6A 4C                   		shar	#4, r12
 3543                             	.LVL355:
1161:../src/smc_gen/r_drw2d_rx/src/tes/dave_line.c **** 
 3544                             		.loc 1 1161 7 is_stmt 1 view .LVU1295
1161:../src/smc_gen/r_drw2d_rx/src/tes/dave_line.c **** 
 3545                             		.loc 1 1161 12 is_stmt 0 view .LVU1296
 3546 00a6 DD D5 01                		mov.W	2[r13], r5
 3547 00a9 06 41 05 09             		sub	18[r0].W, r5
1161:../src/smc_gen/r_drw2d_rx/src/tes/dave_line.c **** 
 3548                             		.loc 1 1161 10 view .LVU1297
 3549 00ad 6A 45                   		shar	#4, r5
 3550 00af A1 85                   		mov.L	r5, 24[r0]
 3551                             	.LVL356:
1163:../src/smc_gen/r_drw2d_rx/src/tes/dave_line.c ****       {
 3552                             		.loc 1 1163 7 is_stmt 1 view .LVU1298
1163:../src/smc_gen/r_drw2d_rx/src/tes/dave_line.c ****       {
 3553                             		.loc 1 1163 9 is_stmt 0 view .LVU1299
 3554 00b1 FD 74 C8 01             		tst	#1, r8
 3555 00b5 3A 2A 01                		beq	.L161
1165:../src/smc_gen/r_drw2d_rx/src/tes/dave_line.c ****                          (
 3556                             		.loc 1 1165 10 is_stmt 1 view .LVU1300
 3557 00b8 EC 94                   		mov.L	[r9], r4
 3558 00ba FB 5E 00 00 01          		mov.L	#0x10000, r5
 3559                             	.LVL357:
1165:../src/smc_gen/r_drw2d_rx/src/tes/dave_line.c ****                          (
 3560                             		.loc 1 1165 10 is_stmt 0 view .LVU1301
 3561 00bf 43 45                   		sub	r4, r5
 3562 00c1 ED 94 01                		mov.L	4[r9], r4
 3563 00c4 4F C4                   		mul	r12, r4
 3564 00c6 4B 45                   		add	r4, r5
 3565 00c8 ED 94 02                		mov.L	8[r9], r4
 3566 00cb A9 83                   		mov.L	24[r0], r3
 3567 00cd 4F 34                   		mul	r3, r4
 3568 00cf 4B 45                   		add	r4, r5
 3569 00d1 62 15                   		add	#1, r5
 3570                             	.LVL358:
 3571                             	.LBB491:
 3572                             	.LBI491:
 319:../src/smc_gen/r_drw2d_rx/src/tes/dave_intern.h **** {
 3573                             		.loc 2 319 23 is_stmt 1 view .LVU1302
 3574                             	.LBB492:
 321:../src/smc_gen/r_drw2d_rx/src/tes/dave_intern.h ****    handle->dlscratch_pos++;
 3575                             		.loc 2 321 4 view .LVU1303
 321:../src/smc_gen/r_drw2d_rx/src/tes/dave_intern.h ****    handle->dlscratch_pos++;
 3576                             		.loc 2 321 28 is_stmt 0 view .LVU1304
 3577 00d3 ED A4 6E                		mov.L	440[r10], r4
 3578                             	.LVL359:
 322:../src/smc_gen/r_drw2d_rx/src/tes/dave_intern.h **** 
 3579                             		.loc 2 322 4 is_stmt 1 view .LVU1305
 322:../src/smc_gen/r_drw2d_rx/src/tes/dave_intern.h **** 
 3580                             		.loc 2 322 25 is_stmt 0 view .LVU1306
 3581 00d6 71 43 08                		add	#8, r4, r3
 3582 00d9 E7 A3 6E                		mov.L	r3, 440[r10]
 324:../src/smc_gen/r_drw2d_rx/src/tes/dave_intern.h ****    entry->value = value;
 3583                             		.loc 2 324 4 is_stmt 1 view .LVU1307
 324:../src/smc_gen/r_drw2d_rx/src/tes/dave_intern.h ****    entry->value = value;
 3584                             		.loc 2 324 17 is_stmt 0 view .LVU1308
 3585 00dc F8 46 06                		mov.L	#6, [r4]
 325:../src/smc_gen/r_drw2d_rx/src/tes/dave_intern.h **** 
 3586                             		.loc 2 325 4 is_stmt 1 view .LVU1309
 325:../src/smc_gen/r_drw2d_rx/src/tes/dave_intern.h **** 
 3587                             		.loc 2 325 17 is_stmt 0 view .LVU1310
 3588 00df A0 4D                   		mov.L	r5, 4[r4]
 327:../src/smc_gen/r_drw2d_rx/src/tes/dave_intern.h ****    if(handle->dlscratch_cnt <= 0)
 3589                             		.loc 2 327 4 is_stmt 1 view .LVU1311
 327:../src/smc_gen/r_drw2d_rx/src/tes/dave_intern.h ****    if(handle->dlscratch_cnt <= 0)
 3590                             		.loc 2 327 12 is_stmt 0 view .LVU1312
 3591 00e1 ED A5 6F                		mov.L	444[r10], r5
 3592                             	.LVL360:
 327:../src/smc_gen/r_drw2d_rx/src/tes/dave_intern.h ****    if(handle->dlscratch_cnt <= 0)
 3593                             		.loc 2 327 4 view .LVU1313
 3594 00e4 60 15                   		sub	#1, r5
 3595 00e6 E7 A5 6F                		mov.L	r5, 444[r10]
 3596                             	.LVL361:
 328:../src/smc_gen/r_drw2d_rx/src/tes/dave_intern.h ****    {
 3597                             		.loc 2 328 4 is_stmt 1 view .LVU1314
 328:../src/smc_gen/r_drw2d_rx/src/tes/dave_intern.h ****    {
 3598                             		.loc 2 328 6 is_stmt 0 view .LVU1315
 3599 00e9 61 05                   		cmp	#0, r5
 3600 00eb 2A 05 38 D4 00          		ble	.L164
 3601                             	.LVL362:
 3602                             	.L153:
 328:../src/smc_gen/r_drw2d_rx/src/tes/dave_intern.h ****    {
 3603                             		.loc 2 328 6 view .LVU1316
 3604                             	.LBE492:
 3605                             	.LBE491:
1179:../src/smc_gen/r_drw2d_rx/src/tes/dave_line.c ****          D2_DLISTWRITES( D2_L3YADD , -edge_buffer[0].yadd );
 3606                             		.loc 1 1179 10 is_stmt 1 view .LVU1317
 3607 00f0 ED 94 01                		mov.L	4[r9], r4
 3608 00f3 7E 14                   		neg	r4
 3609                             	.LVL363:
 3610                             	.LBB496:
 3611                             	.LBI496:
 319:../src/smc_gen/r_drw2d_rx/src/tes/dave_intern.h **** {
 3612                             		.loc 2 319 23 view .LVU1318
 3613                             	.LBB497:
 321:../src/smc_gen/r_drw2d_rx/src/tes/dave_intern.h ****    handle->dlscratch_pos++;
 3614                             		.loc 2 321 4 view .LVU1319
 321:../src/smc_gen/r_drw2d_rx/src/tes/dave_intern.h ****    handle->dlscratch_pos++;
 3615                             		.loc 2 321 28 is_stmt 0 view .LVU1320
 3616 00f5 ED A5 6E                		mov.L	440[r10], r5
 3617                             	.LVL364:
 322:../src/smc_gen/r_drw2d_rx/src/tes/dave_intern.h **** 
 3618                             		.loc 2 322 4 is_stmt 1 view .LVU1321
 322:../src/smc_gen/r_drw2d_rx/src/tes/dave_intern.h **** 
 3619                             		.loc 2 322 25 is_stmt 0 view .LVU1322
 3620 00f8 71 53 08                		add	#8, r5, r3
 3621 00fb E7 A3 6E                		mov.L	r3, 440[r10]
 324:../src/smc_gen/r_drw2d_rx/src/tes/dave_intern.h ****    entry->value = value;
 3622                             		.loc 2 324 4 is_stmt 1 view .LVU1323
 324:../src/smc_gen/r_drw2d_rx/src/tes/dave_intern.h ****    entry->value = value;
 3623                             		.loc 2 324 17 is_stmt 0 view .LVU1324
 3624 00fe F8 56 0C                		mov.L	#12, [r5]
 325:../src/smc_gen/r_drw2d_rx/src/tes/dave_intern.h **** 
 3625                             		.loc 2 325 4 is_stmt 1 view .LVU1325
 325:../src/smc_gen/r_drw2d_rx/src/tes/dave_intern.h **** 
 3626                             		.loc 2 325 17 is_stmt 0 view .LVU1326
 3627 0101 A0 5C                   		mov.L	r4, 4[r5]
 327:../src/smc_gen/r_drw2d_rx/src/tes/dave_intern.h ****    if(handle->dlscratch_cnt <= 0)
 3628                             		.loc 2 327 4 is_stmt 1 view .LVU1327
 327:../src/smc_gen/r_drw2d_rx/src/tes/dave_intern.h ****    if(handle->dlscratch_cnt <= 0)
 3629                             		.loc 2 327 12 is_stmt 0 view .LVU1328
 3630 0103 ED A5 6F                		mov.L	444[r10], r5
 3631                             	.LVL365:
 327:../src/smc_gen/r_drw2d_rx/src/tes/dave_intern.h ****    if(handle->dlscratch_cnt <= 0)
 3632                             		.loc 2 327 4 view .LVU1329
 3633 0106 60 15                   		sub	#1, r5
 3634 0108 E7 A5 6F                		mov.L	r5, 444[r10]
 328:../src/smc_gen/r_drw2d_rx/src/tes/dave_intern.h ****    {
 3635                             		.loc 2 328 4 is_stmt 1 view .LVU1330
 328:../src/smc_gen/r_drw2d_rx/src/tes/dave_intern.h ****    {
 3636                             		.loc 2 328 6 is_stmt 0 view .LVU1331
 3637 010b 61 05                   		cmp	#0, r5
 3638 010d 2A 05 38 BC 00          		ble	.L165
 3639                             	.LVL366:
 3640                             	.L154:
 328:../src/smc_gen/r_drw2d_rx/src/tes/dave_intern.h ****    {
 3641                             		.loc 2 328 6 view .LVU1332
 3642                             	.LBE497:
 3643                             	.LBE496:
1180:../src/smc_gen/r_drw2d_rx/src/tes/dave_line.c **** 
 3644                             		.loc 1 1180 10 is_stmt 1 view .LVU1333
 3645 0112 ED 94 02                		mov.L	8[r9], r4
 3646 0115 7E 14                   		neg	r4
 3647                             	.LVL367:
 3648                             	.LBB501:
 3649                             	.LBI501:
 319:../src/smc_gen/r_drw2d_rx/src/tes/dave_intern.h **** {
 3650                             		.loc 2 319 23 view .LVU1334
 3651                             	.LBB502:
 321:../src/smc_gen/r_drw2d_rx/src/tes/dave_intern.h ****    handle->dlscratch_pos++;
 3652                             		.loc 2 321 4 view .LVU1335
 321:../src/smc_gen/r_drw2d_rx/src/tes/dave_intern.h ****    handle->dlscratch_pos++;
 3653                             		.loc 2 321 28 is_stmt 0 view .LVU1336
 3654 0117 ED A5 6E                		mov.L	440[r10], r5
 3655                             	.LVL368:
 322:../src/smc_gen/r_drw2d_rx/src/tes/dave_intern.h **** 
 3656                             		.loc 2 322 4 is_stmt 1 view .LVU1337
 322:../src/smc_gen/r_drw2d_rx/src/tes/dave_intern.h **** 
 3657                             		.loc 2 322 25 is_stmt 0 view .LVU1338
 3658 011a 71 53 08                		add	#8, r5, r3
 3659 011d E7 A3 6E                		mov.L	r3, 440[r10]
 324:../src/smc_gen/r_drw2d_rx/src/tes/dave_intern.h ****    entry->value = value;
 3660                             		.loc 2 324 4 is_stmt 1 view .LVU1339
 324:../src/smc_gen/r_drw2d_rx/src/tes/dave_intern.h ****    entry->value = value;
 3661                             		.loc 2 324 17 is_stmt 0 view .LVU1340
 3662 0120 F8 56 12                		mov.L	#18, [r5]
 325:../src/smc_gen/r_drw2d_rx/src/tes/dave_intern.h **** 
 3663                             		.loc 2 325 4 is_stmt 1 view .LVU1341
 325:../src/smc_gen/r_drw2d_rx/src/tes/dave_intern.h **** 
 3664                             		.loc 2 325 17 is_stmt 0 view .LVU1342
 3665 0123 A0 5C                   		mov.L	r4, 4[r5]
 327:../src/smc_gen/r_drw2d_rx/src/tes/dave_intern.h ****    if(handle->dlscratch_cnt <= 0)
 3666                             		.loc 2 327 4 is_stmt 1 view .LVU1343
 327:../src/smc_gen/r_drw2d_rx/src/tes/dave_intern.h ****    if(handle->dlscratch_cnt <= 0)
 3667                             		.loc 2 327 12 is_stmt 0 view .LVU1344
 3668 0125 ED A5 6F                		mov.L	444[r10], r5
 3669                             	.LVL369:
 327:../src/smc_gen/r_drw2d_rx/src/tes/dave_intern.h ****    if(handle->dlscratch_cnt <= 0)
 3670                             		.loc 2 327 4 view .LVU1345
 3671 0128 60 15                   		sub	#1, r5
 3672 012a E7 A5 6F                		mov.L	r5, 444[r10]
 328:../src/smc_gen/r_drw2d_rx/src/tes/dave_intern.h ****    {
 3673                             		.loc 2 328 4 is_stmt 1 view .LVU1346
 328:../src/smc_gen/r_drw2d_rx/src/tes/dave_intern.h ****    {
 3674                             		.loc 2 328 6 is_stmt 0 view .LVU1347
 3675 012d 61 05                   		cmp	#0, r5
 3676 012f 2A 05 38 A4 00          		ble	.L166
 3677                             	.LVL370:
 3678                             	.L155:
 328:../src/smc_gen/r_drw2d_rx/src/tes/dave_intern.h ****    {
 3679                             		.loc 2 328 6 view .LVU1348
 3680                             	.LBE502:
 3681                             	.LBE501:
1182:../src/smc_gen/r_drw2d_rx/src/tes/dave_line.c **** 
 3682                             		.loc 1 1182 10 is_stmt 1 view .LVU1349
1182:../src/smc_gen/r_drw2d_rx/src/tes/dave_line.c **** 
 3683                             		.loc 1 1182 18 is_stmt 0 view .LVU1350
 3684 0134 76 36 04 08             		or	#0x804, r6
 3685                             	.LVL371:
1184:../src/smc_gen/r_drw2d_rx/src/tes/dave_line.c ****       }
 3686                             		.loc 1 1184 10 is_stmt 1 view .LVU1351
1184:../src/smc_gen/r_drw2d_rx/src/tes/dave_line.c ****       }
 3687                             		.loc 1 1184 14 is_stmt 0 view .LVU1352
 3688 0138 66 3D                   		mov.L	#3, r13
 3689                             	.LVL372:
 3690                             	.L152:
1187:../src/smc_gen/r_drw2d_rx/src/tes/dave_line.c ****       {
 3691                             		.loc 1 1187 7 is_stmt 1 view .LVU1353
1187:../src/smc_gen/r_drw2d_rx/src/tes/dave_line.c ****       {
 3692                             		.loc 1 1187 9 is_stmt 0 view .LVU1354
 3693 013a FD 74 C8 02             		tst	#2, r8
 3694 013e 3A C3 00                		beq	.L151
1189:../src/smc_gen/r_drw2d_rx/src/tes/dave_line.c ****                          (
 3695                             		.loc 1 1189 10 is_stmt 1 view .LVU1355
 3696 0141 ED 94 03                		mov.L	12[r9], r4
 3697 0144 FB 5E 00 00 01          		mov.L	#0x10000, r5
 3698 0149 43 45                   		sub	r4, r5
 3699 014b ED 94 04                		mov.L	16[r9], r4
 3700 014e 4F 4C                   		mul	r4, r12
 3701                             	.LVL373:
1189:../src/smc_gen/r_drw2d_rx/src/tes/dave_line.c ****                          (
 3702                             		.loc 1 1189 10 is_stmt 0 view .LVU1356
 3703 0150 4B C5                   		add	r12, r5
 3704 0152 ED 9C 05                		mov.L	20[r9], r12
 3705 0155 A9 84                   		mov.L	24[r0], r4
 3706 0157 4F 4C                   		mul	r4, r12
 3707 0159 4B C5                   		add	r12, r5
 3708 015b 62 15                   		add	#1, r5
 3709                             	.LVL374:
 3710                             	.LBB506:
 3711                             	.LBI506:
 319:../src/smc_gen/r_drw2d_rx/src/tes/dave_intern.h **** {
 3712                             		.loc 2 319 23 is_stmt 1 view .LVU1357
 3713                             	.LBB507:
 321:../src/smc_gen/r_drw2d_rx/src/tes/dave_intern.h ****    handle->dlscratch_pos++;
 3714                             		.loc 2 321 4 view .LVU1358
 321:../src/smc_gen/r_drw2d_rx/src/tes/dave_intern.h ****    handle->dlscratch_pos++;
 3715                             		.loc 2 321 28 is_stmt 0 view .LVU1359
 3716 015d ED A4 6E                		mov.L	440[r10], r4
 3717                             	.LVL375:
 322:../src/smc_gen/r_drw2d_rx/src/tes/dave_intern.h **** 
 3718                             		.loc 2 322 4 is_stmt 1 view .LVU1360
 322:../src/smc_gen/r_drw2d_rx/src/tes/dave_intern.h **** 
 3719                             		.loc 2 322 25 is_stmt 0 view .LVU1361
 3720 0160 71 43 08                		add	#8, r4, r3
 3721 0163 E7 A3 6E                		mov.L	r3, 440[r10]
 324:../src/smc_gen/r_drw2d_rx/src/tes/dave_intern.h ****    entry->value = value;
 3722                             		.loc 2 324 4 is_stmt 1 view .LVU1362
 324:../src/smc_gen/r_drw2d_rx/src/tes/dave_intern.h ****    entry->value = value;
 3723                             		.loc 2 324 17 is_stmt 0 view .LVU1363
 3724 0166 F8 46 07                		mov.L	#7, [r4]
 325:../src/smc_gen/r_drw2d_rx/src/tes/dave_intern.h **** 
 3725                             		.loc 2 325 4 is_stmt 1 view .LVU1364
 325:../src/smc_gen/r_drw2d_rx/src/tes/dave_intern.h **** 
 3726                             		.loc 2 325 17 is_stmt 0 view .LVU1365
 3727 0169 A0 4D                   		mov.L	r5, 4[r4]
 327:../src/smc_gen/r_drw2d_rx/src/tes/dave_intern.h ****    if(handle->dlscratch_cnt <= 0)
 3728                             		.loc 2 327 4 is_stmt 1 view .LVU1366
 327:../src/smc_gen/r_drw2d_rx/src/tes/dave_intern.h ****    if(handle->dlscratch_cnt <= 0)
 3729                             		.loc 2 327 12 is_stmt 0 view .LVU1367
 3730 016b ED A5 6F                		mov.L	444[r10], r5
 3731                             	.LVL376:
 327:../src/smc_gen/r_drw2d_rx/src/tes/dave_intern.h ****    if(handle->dlscratch_cnt <= 0)
 3732                             		.loc 2 327 4 view .LVU1368
 3733 016e 60 15                   		sub	#1, r5
 3734 0170 E7 A5 6F                		mov.L	r5, 444[r10]
 3735                             	.LVL377:
 328:../src/smc_gen/r_drw2d_rx/src/tes/dave_intern.h ****    {
 3736                             		.loc 2 328 4 is_stmt 1 view .LVU1369
 328:../src/smc_gen/r_drw2d_rx/src/tes/dave_intern.h ****    {
 3737                             		.loc 2 328 6 is_stmt 0 view .LVU1370
 3738 0173 61 05                   		cmp	#0, r5
 3739 0175 2B 6F                   		ble	.L167
 3740                             	.LVL378:
 3741                             	.L156:
 328:../src/smc_gen/r_drw2d_rx/src/tes/dave_intern.h ****    {
 3742                             		.loc 2 328 6 view .LVU1371
 3743                             	.LBE507:
 3744                             	.LBE506:
1203:../src/smc_gen/r_drw2d_rx/src/tes/dave_line.c ****          D2_DLISTWRITES( D2_L4YADD , -edge_buffer[1].yadd );
 3745                             		.loc 1 1203 10 is_stmt 1 view .LVU1372
 3746 0177 ED 94 04                		mov.L	16[r9], r4
 3747 017a 7E 14                   		neg	r4
 3748                             	.LVL379:
 3749                             	.LBB511:
 3750                             	.LBI511:
 319:../src/smc_gen/r_drw2d_rx/src/tes/dave_intern.h **** {
 3751                             		.loc 2 319 23 view .LVU1373
 3752                             	.LBB512:
 321:../src/smc_gen/r_drw2d_rx/src/tes/dave_intern.h ****    handle->dlscratch_pos++;
 3753                             		.loc 2 321 4 view .LVU1374
 321:../src/smc_gen/r_drw2d_rx/src/tes/dave_intern.h ****    handle->dlscratch_pos++;
 3754                             		.loc 2 321 28 is_stmt 0 view .LVU1375
 3755 017c ED A5 6E                		mov.L	440[r10], r5
 3756                             	.LVL380:
 322:../src/smc_gen/r_drw2d_rx/src/tes/dave_intern.h **** 
 3757                             		.loc 2 322 4 is_stmt 1 view .LVU1376
 322:../src/smc_gen/r_drw2d_rx/src/tes/dave_intern.h **** 
 3758                             		.loc 2 322 25 is_stmt 0 view .LVU1377
 3759 017f 71 53 08                		add	#8, r5, r3
 3760 0182 E7 A3 6E                		mov.L	r3, 440[r10]
 324:../src/smc_gen/r_drw2d_rx/src/tes/dave_intern.h ****    entry->value = value;
 3761                             		.loc 2 324 4 is_stmt 1 view .LVU1378
 324:../src/smc_gen/r_drw2d_rx/src/tes/dave_intern.h ****    entry->value = value;
 3762                             		.loc 2 324 17 is_stmt 0 view .LVU1379
 3763 0185 F8 56 0D                		mov.L	#13, [r5]
 325:../src/smc_gen/r_drw2d_rx/src/tes/dave_intern.h **** 
 3764                             		.loc 2 325 4 is_stmt 1 view .LVU1380
 325:../src/smc_gen/r_drw2d_rx/src/tes/dave_intern.h **** 
 3765                             		.loc 2 325 17 is_stmt 0 view .LVU1381
 3766 0188 A0 5C                   		mov.L	r4, 4[r5]
 327:../src/smc_gen/r_drw2d_rx/src/tes/dave_intern.h ****    if(handle->dlscratch_cnt <= 0)
 3767                             		.loc 2 327 4 is_stmt 1 view .LVU1382
 327:../src/smc_gen/r_drw2d_rx/src/tes/dave_intern.h ****    if(handle->dlscratch_cnt <= 0)
 3768                             		.loc 2 327 12 is_stmt 0 view .LVU1383
 3769 018a ED A5 6F                		mov.L	444[r10], r5
 3770                             	.LVL381:
 327:../src/smc_gen/r_drw2d_rx/src/tes/dave_intern.h ****    if(handle->dlscratch_cnt <= 0)
 3771                             		.loc 2 327 4 view .LVU1384
 3772 018d 60 15                   		sub	#1, r5
 3773 018f E7 A5 6F                		mov.L	r5, 444[r10]
 328:../src/smc_gen/r_drw2d_rx/src/tes/dave_intern.h ****    {
 3774                             		.loc 2 328 4 is_stmt 1 view .LVU1385
 328:../src/smc_gen/r_drw2d_rx/src/tes/dave_intern.h ****    {
 3775                             		.loc 2 328 6 is_stmt 0 view .LVU1386
 3776 0192 61 05                   		cmp	#0, r5
 3777 0194 2B 59                   		ble	.L168
 3778                             	.LVL382:
 3779                             	.L157:
 328:../src/smc_gen/r_drw2d_rx/src/tes/dave_intern.h ****    {
 3780                             		.loc 2 328 6 view .LVU1387
 3781                             	.LBE512:
 3782                             	.LBE511:
1204:../src/smc_gen/r_drw2d_rx/src/tes/dave_line.c **** 
 3783                             		.loc 1 1204 10 is_stmt 1 view .LVU1388
 3784 0196 ED 94 05                		mov.L	20[r9], r4
 3785 0199 7E 14                   		neg	r4
 3786                             	.LVL383:
 3787                             	.LBB516:
 3788                             	.LBI516:
 319:../src/smc_gen/r_drw2d_rx/src/tes/dave_intern.h **** {
 3789                             		.loc 2 319 23 view .LVU1389
 3790                             	.LBB517:
 321:../src/smc_gen/r_drw2d_rx/src/tes/dave_intern.h ****    handle->dlscratch_pos++;
 3791                             		.loc 2 321 4 view .LVU1390
 321:../src/smc_gen/r_drw2d_rx/src/tes/dave_intern.h ****    handle->dlscratch_pos++;
 3792                             		.loc 2 321 28 is_stmt 0 view .LVU1391
 3793 019b ED A5 6E                		mov.L	440[r10], r5
 3794                             	.LVL384:
 322:../src/smc_gen/r_drw2d_rx/src/tes/dave_intern.h **** 
 3795                             		.loc 2 322 4 is_stmt 1 view .LVU1392
 322:../src/smc_gen/r_drw2d_rx/src/tes/dave_intern.h **** 
 3796                             		.loc 2 322 25 is_stmt 0 view .LVU1393
 3797 019e 71 53 08                		add	#8, r5, r3
 3798 01a1 E7 A3 6E                		mov.L	r3, 440[r10]
 324:../src/smc_gen/r_drw2d_rx/src/tes/dave_intern.h ****    entry->value = value;
 3799                             		.loc 2 324 4 is_stmt 1 view .LVU1394
 324:../src/smc_gen/r_drw2d_rx/src/tes/dave_intern.h ****    entry->value = value;
 3800                             		.loc 2 324 17 is_stmt 0 view .LVU1395
 3801 01a4 F8 56 13                		mov.L	#19, [r5]
 325:../src/smc_gen/r_drw2d_rx/src/tes/dave_intern.h **** 
 3802                             		.loc 2 325 4 is_stmt 1 view .LVU1396
 325:../src/smc_gen/r_drw2d_rx/src/tes/dave_intern.h **** 
 3803                             		.loc 2 325 17 is_stmt 0 view .LVU1397
 3804 01a7 A0 5C                   		mov.L	r4, 4[r5]
 327:../src/smc_gen/r_drw2d_rx/src/tes/dave_intern.h ****    if(handle->dlscratch_cnt <= 0)
 3805                             		.loc 2 327 4 is_stmt 1 view .LVU1398
 327:../src/smc_gen/r_drw2d_rx/src/tes/dave_intern.h ****    if(handle->dlscratch_cnt <= 0)
 3806                             		.loc 2 327 12 is_stmt 0 view .LVU1399
 3807 01a9 ED A5 6F                		mov.L	444[r10], r5
 3808                             	.LVL385:
 327:../src/smc_gen/r_drw2d_rx/src/tes/dave_intern.h ****    if(handle->dlscratch_cnt <= 0)
 3809                             		.loc 2 327 4 view .LVU1400
 3810 01ac 60 15                   		sub	#1, r5
 3811 01ae E7 A5 6F                		mov.L	r5, 444[r10]
 328:../src/smc_gen/r_drw2d_rx/src/tes/dave_intern.h ****    {
 3812                             		.loc 2 328 4 is_stmt 1 view .LVU1401
 328:../src/smc_gen/r_drw2d_rx/src/tes/dave_intern.h ****    {
 3813                             		.loc 2 328 6 is_stmt 0 view .LVU1402
 3814 01b1 61 05                   		cmp	#0, r5
 3815 01b3 2B 43                   		ble	.L169
 3816                             	.LVL386:
 3817                             	.L158:
 328:../src/smc_gen/r_drw2d_rx/src/tes/dave_intern.h ****    {
 3818                             		.loc 2 328 6 view .LVU1403
 3819                             	.LBE517:
 3820                             	.LBE516:
1206:../src/smc_gen/r_drw2d_rx/src/tes/dave_line.c **** 
 3821                             		.loc 1 1206 10 is_stmt 1 view .LVU1404
1206:../src/smc_gen/r_drw2d_rx/src/tes/dave_line.c **** 
 3822                             		.loc 1 1206 18 is_stmt 0 view .LVU1405
 3823 01b5 76 36 08 10             		or	#0x1008, r6
 3824                             	.LVL387:
1208:../src/smc_gen/r_drw2d_rx/src/tes/dave_line.c ****          {
 3825                             		.loc 1 1208 10 is_stmt 1 view .LVU1406
1208:../src/smc_gen/r_drw2d_rx/src/tes/dave_line.c ****          {
 3826                             		.loc 1 1208 12 is_stmt 0 view .LVU1407
 3827 01b9 61 3D                   		cmp	#3, r13
 3828 01bb 21 46                   		bne	.L151
1210:../src/smc_gen/r_drw2d_rx/src/tes/dave_line.c ****          }
 3829                             		.loc 1 1210 13 is_stmt 1 view .LVU1408
1210:../src/smc_gen/r_drw2d_rx/src/tes/dave_line.c ****          }
 3830                             		.loc 1 1210 17 is_stmt 0 view .LVU1409
 3831 01bd 62 1D                   		add	#1, r13
 3832                             	.LVL388:
1210:../src/smc_gen/r_drw2d_rx/src/tes/dave_line.c ****          }
 3833                             		.loc 1 1210 17 view .LVU1410
 3834 01bf 2E 42                   		bra	.L151
 3835                             	.LVL389:
 3836                             	.L164:
 3837                             	.LBB521:
 3838                             	.LBB495:
 3839                             	.LBB493:
 3840                             	.LBI493:
 319:../src/smc_gen/r_drw2d_rx/src/tes/dave_intern.h **** {
 3841                             		.loc 2 319 23 is_stmt 1 view .LVU1411
 3842                             	.LBB494:
 3843                             		.loc 2 330 7 view .LVU1412
 3844                             		.loc 2 330 13 is_stmt 0 view .LVU1413
 3845 01c1 ED A5 70                		mov.L	448[r10], r5
 3846                             		.loc 2 330 7 view .LVU1414
 3847 01c4 EF A1                   		mov.L	r10, r1
 3848                             	.LVL390:
 3849                             		.loc 2 330 7 view .LVU1415
 3850 01c6 7F 15                   		jsr	r5
 3851                             	.LVL391:
 3852                             		.loc 2 330 7 view .LVU1416
 3853 01c8 38 28 FF                		bra	.L153
 3854                             	.LVL392:
 3855                             	.L165:
 3856                             		.loc 2 330 7 view .LVU1417
 3857                             	.LBE494:
 3858                             	.LBE493:
 3859                             	.LBE495:
 3860                             	.LBE521:
 3861                             	.LBB522:
 3862                             	.LBB500:
 3863                             	.LBB498:
 3864                             	.LBI498:
 319:../src/smc_gen/r_drw2d_rx/src/tes/dave_intern.h **** {
 3865                             		.loc 2 319 23 is_stmt 1 view .LVU1418
 3866                             	.LBB499:
 3867                             		.loc 2 330 7 view .LVU1419
 3868                             		.loc 2 330 13 is_stmt 0 view .LVU1420
 3869 01cb ED A5 70                		mov.L	448[r10], r5
 3870                             		.loc 2 330 7 view .LVU1421
 3871 01ce EF A1                   		mov.L	r10, r1
 3872 01d0 7F 15                   		jsr	r5
 3873                             	.LVL393:
 3874                             		.loc 2 330 7 view .LVU1422
 3875 01d2 38 40 FF                		bra	.L154
 3876                             	.LVL394:
 3877                             	.L166:
 3878                             		.loc 2 330 7 view .LVU1423
 3879                             	.LBE499:
 3880                             	.LBE498:
 3881                             	.LBE500:
 3882                             	.LBE522:
 3883                             	.LBB523:
 3884                             	.LBB505:
 3885                             	.LBB503:
 3886                             	.LBI503:
 319:../src/smc_gen/r_drw2d_rx/src/tes/dave_intern.h **** {
 3887                             		.loc 2 319 23 is_stmt 1 view .LVU1424
 3888                             	.LBB504:
 3889                             		.loc 2 330 7 view .LVU1425
 3890                             		.loc 2 330 13 is_stmt 0 view .LVU1426
 3891 01d5 ED A5 70                		mov.L	448[r10], r5
 3892                             		.loc 2 330 7 view .LVU1427
 3893 01d8 EF A1                   		mov.L	r10, r1
 3894 01da 7F 15                   		jsr	r5
 3895                             	.LVL395:
 3896                             		.loc 2 330 7 view .LVU1428
 3897 01dc 38 58 FF                		bra	.L155
 3898                             	.LVL396:
 3899                             	.L161:
 3900                             		.loc 2 330 7 view .LVU1429
 3901                             	.LBE504:
 3902                             	.LBE503:
 3903                             	.LBE505:
 3904                             	.LBE523:
 3905                             	.LBE490:
1152:../src/smc_gen/r_drw2d_rx/src/tes/dave_line.c **** 
 3906                             		.loc 1 1152 9 view .LVU1430
 3907 01df 66 2D                   		mov.L	#2, r13
 3908 01e1 38 59 FF                		bra	.L152
 3909                             	.LVL397:
 3910                             	.L167:
 3911                             	.LBB527:
 3912                             	.LBB524:
 3913                             	.LBB510:
 3914                             	.LBB508:
 3915                             	.LBI508:
 319:../src/smc_gen/r_drw2d_rx/src/tes/dave_intern.h **** {
 3916                             		.loc 2 319 23 is_stmt 1 view .LVU1431
 3917                             	.LBB509:
 3918                             		.loc 2 330 7 view .LVU1432
 3919                             		.loc 2 330 13 is_stmt 0 view .LVU1433
 3920 01e4 ED A5 70                		mov.L	448[r10], r5
 3921                             		.loc 2 330 7 view .LVU1434
 3922 01e7 EF A1                   		mov.L	r10, r1
 3923 01e9 7F 15                   		jsr	r5
 3924                             	.LVL398:
 3925                             		.loc 2 330 7 view .LVU1435
 3926 01eb 2E 8C                   		bra	.L156
 3927                             	.LVL399:
 3928                             	.L168:
 3929                             		.loc 2 330 7 view .LVU1436
 3930                             	.LBE509:
 3931                             	.LBE508:
 3932                             	.LBE510:
 3933                             	.LBE524:
 3934                             	.LBB525:
 3935                             	.LBB515:
 3936                             	.LBB513:
 3937                             	.LBI513:
 319:../src/smc_gen/r_drw2d_rx/src/tes/dave_intern.h **** {
 3938                             		.loc 2 319 23 is_stmt 1 view .LVU1437
 3939                             	.LBB514:
 3940                             		.loc 2 330 7 view .LVU1438
 3941                             		.loc 2 330 13 is_stmt 0 view .LVU1439
 3942 01ed ED A5 70                		mov.L	448[r10], r5
 3943                             		.loc 2 330 7 view .LVU1440
 3944 01f0 EF A1                   		mov.L	r10, r1
 3945 01f2 7F 15                   		jsr	r5
 3946                             	.LVL400:
 3947                             		.loc 2 330 7 view .LVU1441
 3948 01f4 2E A2                   		bra	.L157
 3949                             	.LVL401:
 3950                             	.L169:
 3951                             		.loc 2 330 7 view .LVU1442
 3952                             	.LBE514:
 3953                             	.LBE513:
 3954                             	.LBE515:
 3955                             	.LBE525:
 3956                             	.LBB526:
 3957                             	.LBB520:
 3958                             	.LBB518:
 3959                             	.LBI518:
 319:../src/smc_gen/r_drw2d_rx/src/tes/dave_intern.h **** {
 3960                             		.loc 2 319 23 is_stmt 1 view .LVU1443
 3961                             	.LBB519:
 3962                             		.loc 2 330 7 view .LVU1444
 3963                             		.loc 2 330 13 is_stmt 0 view .LVU1445
 3964 01f6 ED A5 70                		mov.L	448[r10], r5
 3965                             		.loc 2 330 7 view .LVU1446
 3966 01f9 EF A1                   		mov.L	r10, r1
 3967 01fb 7F 15                   		jsr	r5
 3968                             	.LVL402:
 3969                             		.loc 2 330 7 view .LVU1447
 3970 01fd 2E B8                   		bra	.L158
 3971                             	.LVL403:
 3972                             	.L160:
 3973                             		.loc 2 330 7 view .LVU1448
 3974                             	.LBE519:
 3975                             	.LBE518:
 3976                             	.LBE520:
 3977                             	.LBE526:
 3978                             	.LBE527:
1152:../src/smc_gen/r_drw2d_rx/src/tes/dave_line.c **** 
 3979                             		.loc 1 1152 9 view .LVU1449
 3980 01ff 66 2D                   		mov.L	#2, r13
 3981                             	.LVL404:
 3982                             		.balign 8,3,1
 3983                             	.L151:
1216:../src/smc_gen/r_drw2d_rx/src/tes/dave_line.c **** 
 3984                             		.loc 1 1216 4 is_stmt 1 view .LVU1450
1216:../src/smc_gen/r_drw2d_rx/src/tes/dave_line.c **** 
 3985                             		.loc 1 1216 14 is_stmt 0 view .LVU1451
 3986 0201 E3 06                   		mov.L	r6, [r0]
 3987 0203 EF D4                   		mov.L	r13, r4
 3988 0205 75 43 10                		mov.L	#16, r3
 3989 0208 4B 03                   		add	r0, r3
 3990 020a EF B2                   		mov.L	r11, r2
 3991 020c EF A1                   		mov.L	r10, r1
 3992 020e 05 00 00 00             		bsr	_d2_initgradients_intern
 3993                             	.LVL405:
1219:../src/smc_gen/r_drw2d_rx/src/tes/dave_line.c **** 
 3994                             		.loc 1 1219 4 is_stmt 1 view .LVU1452
 3995                             	.LBB528:
 3996                             	.LBI528:
 319:../src/smc_gen/r_drw2d_rx/src/tes/dave_intern.h **** {
 3997                             		.loc 2 319 23 view .LVU1453
 3998                             	.LBB529:
 321:../src/smc_gen/r_drw2d_rx/src/tes/dave_intern.h ****    handle->dlscratch_pos++;
 3999                             		.loc 2 321 4 view .LVU1454
 321:../src/smc_gen/r_drw2d_rx/src/tes/dave_intern.h ****    handle->dlscratch_pos++;
 4000                             		.loc 2 321 28 is_stmt 0 view .LVU1455
 4001 0212 ED A5 6E                		mov.L	440[r10], r5
 4002                             	.LVL406:
 322:../src/smc_gen/r_drw2d_rx/src/tes/dave_intern.h **** 
 4003                             		.loc 2 322 4 is_stmt 1 view .LVU1456
 322:../src/smc_gen/r_drw2d_rx/src/tes/dave_intern.h **** 
 4004                             		.loc 2 322 25 is_stmt 0 view .LVU1457
 4005 0215 71 54 08                		add	#8, r5, r4
 4006 0218 E7 A4 6E                		mov.L	r4, 440[r10]
 324:../src/smc_gen/r_drw2d_rx/src/tes/dave_intern.h ****    entry->value = value;
 4007                             		.loc 2 324 4 is_stmt 1 view .LVU1458
 324:../src/smc_gen/r_drw2d_rx/src/tes/dave_intern.h ****    entry->value = value;
 4008                             		.loc 2 324 17 is_stmt 0 view .LVU1459
 4009 021b F8 56 00                		mov.L	#0, [r5]
 325:../src/smc_gen/r_drw2d_rx/src/tes/dave_intern.h **** 
 4010                             		.loc 2 325 4 is_stmt 1 view .LVU1460
 325:../src/smc_gen/r_drw2d_rx/src/tes/dave_intern.h **** 
 4011                             		.loc 2 325 17 is_stmt 0 view .LVU1461
 4012 021e A0 59                   		mov.L	r1, 4[r5]
 327:../src/smc_gen/r_drw2d_rx/src/tes/dave_intern.h ****    if(handle->dlscratch_cnt <= 0)
 4013                             		.loc 2 327 4 is_stmt 1 view .LVU1462
 327:../src/smc_gen/r_drw2d_rx/src/tes/dave_intern.h ****    if(handle->dlscratch_cnt <= 0)
 4014                             		.loc 2 327 12 is_stmt 0 view .LVU1463
 4015 0220 ED A5 6F                		mov.L	444[r10], r5
 4016                             	.LVL407:
 327:../src/smc_gen/r_drw2d_rx/src/tes/dave_intern.h ****    if(handle->dlscratch_cnt <= 0)
 4017                             		.loc 2 327 4 view .LVU1464
 4018 0223 60 15                   		sub	#1, r5
 4019 0225 E7 A5 6F                		mov.L	r5, 444[r10]
 328:../src/smc_gen/r_drw2d_rx/src/tes/dave_intern.h ****    {
 4020                             		.loc 2 328 4 is_stmt 1 view .LVU1465
 328:../src/smc_gen/r_drw2d_rx/src/tes/dave_intern.h ****    {
 4021                             		.loc 2 328 6 is_stmt 0 view .LVU1466
 4022 0228 61 05                   		cmp	#0, r5
 4023 022a 2B 32                   		ble	.L170
 4024                             	.LVL408:
 4025                             	.L159:
 328:../src/smc_gen/r_drw2d_rx/src/tes/dave_intern.h ****    {
 4026                             		.loc 2 328 6 view .LVU1467
 4027                             	.LBE529:
 4028                             	.LBE528:
1221:../src/smc_gen/r_drw2d_rx/src/tes/dave_line.c ****    d2_setuptexture( handle, ctx, &bbox, 0 );
 4029                             		.loc 1 1221 4 is_stmt 1 view .LVU1468
 4030 022c 66 04                   		mov.L	#0, r4
 4031 022e 75 43 10                		mov.L	#16, r3
 4032 0231 4B 03                   		add	r0, r3
 4033 0233 EF B2                   		mov.L	r11, r2
 4034 0235 EF A1                   		mov.L	r10, r1
 4035 0237 05 00 00 00             		bsr	_d2_setuppattern
 4036                             	.LVL409:
1222:../src/smc_gen/r_drw2d_rx/src/tes/dave_line.c **** 
 4037                             		.loc 1 1222 4 view .LVU1469
 4038 023b 66 04                   		mov.L	#0, r4
 4039 023d 75 43 10                		mov.L	#16, r3
 4040 0240 4B 03                   		add	r0, r3
 4041 0242 EF B2                   		mov.L	r11, r2
 4042 0244 EF A1                   		mov.L	r10, r1
 4043 0246 05 00 00 00             		bsr	_d2_setuptexture
 4044                             	.LVL410:
1224:../src/smc_gen/r_drw2d_rx/src/tes/dave_line.c **** 
 4045                             		.loc 1 1224 4 view .LVU1470
 4046 024a EF 73                   		mov.L	r7, r3
 4047 024c 75 42 10                		mov.L	#16, r2
 4048 024f 4B 02                   		add	r0, r2
 4049 0251 EF A1                   		mov.L	r10, r1
 4050 0253 05 00 00 00             		bsr	_d2_startrender_intern
 4051                             	.LVL411:
1226:../src/smc_gen/r_drw2d_rx/src/tes/dave_line.c **** }
 4052                             		.loc 1 1226 4 view .LVU1471
1226:../src/smc_gen/r_drw2d_rx/src/tes/dave_line.c **** }
 4053                             		.loc 1 1226 11 is_stmt 0 view .LVU1472
 4054 0257 66 11                   		mov.L	#1, r1
 4055 0259 38 F9 FD                		bra	.L149
 4056                             	.LVL412:
 4057                             	.L170:
 4058                             	.LBB533:
 4059                             	.LBB532:
 4060                             	.LBB530:
 4061                             	.LBI530:
 319:../src/smc_gen/r_drw2d_rx/src/tes/dave_intern.h **** {
 4062                             		.loc 2 319 23 is_stmt 1 view .LVU1473
 4063                             	.LBB531:
 4064                             		.loc 2 330 7 view .LVU1474
 4065                             		.loc 2 330 13 is_stmt 0 view .LVU1475
 4066 025c ED A5 70                		mov.L	448[r10], r5
 4067                             		.loc 2 330 7 view .LVU1476
 4068 025f EF A1                   		mov.L	r10, r1
 4069                             	.LVL413:
 4070                             		.loc 2 330 7 view .LVU1477
 4071 0261 7F 15                   		jsr	r5
 4072                             	.LVL414:
 4073                             		.loc 2 330 7 view .LVU1478
 4074 0263 2E C9                   		bra	.L159
 4075                             	.LBE531:
 4076                             	.LBE530:
 4077                             	.LBE532:
 4078                             	.LBE533:
 4079                             	.LFE8:
 4081 0265 FC 13 00                		.section	.text.d2_renderline2_intern,"ax",@progbits
 4082                             		.global	_d2_renderline2_intern
 4084                             	_d2_renderline2_intern:
 4085                             	.LVL415:
 4086                             	.LFB7:
 618:../src/smc_gen/r_drw2d_rx/src/tes/dave_line.c ****    d2_bbox bbox, bbox2;
 4087                             		.loc 1 618 1 is_stmt 1 view -0
 618:../src/smc_gen/r_drw2d_rx/src/tes/dave_line.c ****    d2_bbox bbox, bbox2;
 4088                             		.loc 1 618 1 is_stmt 0 view .LVU1480
 4089 0000 6E 6D                   		pushm	r6-r13
 4090                             	.LCFI4:
 618:../src/smc_gen/r_drw2d_rx/src/tes/dave_line.c ****    d2_bbox bbox, bbox2;
 4091                             		.loc 1 618 1 view .LVU1481
 4092 0002 72 00 48 FF             		add	#-184, r0
 4093                             	.LCFI5:
 4094 0006 75 47 DC                		mov.L	#0xdc, r7
 4095 0009 4B 07                   		add	r0, r7
 4096 000b D4 70 32                		mov.W	[r7], 100[r0]
 4097 000e D5 70 01 36             		mov.W	2[r7], 108[r0]
 4098 0012 D5 70 02 3B             		mov.W	4[r7], 118[r0]
 4099 0016 D5 70 03 3A             		mov.W	6[r7], 116[r0]
 4100 001a E5 70 02 16             		mov.L	8[r7], 88[r0]
 4101 001e E5 70 03 26             		mov.L	12[r7], 152[r0]
 4102 0022 E5 70 04 27             		mov.L	16[r7], 156[r0]
 619:../src/smc_gen/r_drw2d_rx/src/tes/dave_line.c ****    d2_limdata edge[4];
 4103                             		.loc 1 619 4 is_stmt 1 view .LVU1482
 620:../src/smc_gen/r_drw2d_rx/src/tes/dave_line.c ****    d2_s32 r, l, dlx, dly, nx, ny, h;
 4104                             		.loc 1 620 4 view .LVU1483
 621:../src/smc_gen/r_drw2d_rx/src/tes/dave_line.c ****    d2_s32 w1x, w1y, w2x, w2y, xs, ys, xe, ye, xp, yp;
 4105                             		.loc 1 621 4 view .LVU1484
 622:../src/smc_gen/r_drw2d_rx/src/tes/dave_line.c ****    d2_s32 ax, ay, bx, by, cx, cy, dx, dy;
 4106                             		.loc 1 622 4 view .LVU1485
 623:../src/smc_gen/r_drw2d_rx/src/tes/dave_line.c ****    d2_s32 t1, t2, flip, cap2;
 4107                             		.loc 1 623 4 view .LVU1486
 624:../src/smc_gen/r_drw2d_rx/src/tes/dave_line.c ****    d2_u32 delay;
 4108                             		.loc 1 624 4 view .LVU1487
 625:../src/smc_gen/r_drw2d_rx/src/tes/dave_line.c ****    d2_u32 cap;
 4109                             		.loc 1 625 4 view .LVU1488
 626:../src/smc_gen/r_drw2d_rx/src/tes/dave_line.c ****    d2_u32 control;
 4110                             		.loc 1 626 4 view .LVU1489
 627:../src/smc_gen/r_drw2d_rx/src/tes/dave_line.c ****    d2_u32 tmask;
 4111                             		.loc 1 627 4 view .LVU1490
 628:../src/smc_gen/r_drw2d_rx/src/tes/dave_line.c **** 
 4112                             		.loc 1 628 4 view .LVU1491
 634:../src/smc_gen/r_drw2d_rx/src/tes/dave_line.c ****    dly = y2 - y1;
 4113                             		.loc 1 634 4 view .LVU1492
 634:../src/smc_gen/r_drw2d_rx/src/tes/dave_line.c ****    dly = y2 - y1;
 4114                             		.loc 1 634 13 is_stmt 0 view .LVU1493
 4115 0026 DD 07 32                		mov.W	100[r0], r7
 4116 0029 A5 8F                   		mov.L	r7, 92[r0]
 4117 002b DF 3A                   		mov.W	r3, r10
 4118 002d E7 0A 18                		mov.L	r10, 96[r0]
 634:../src/smc_gen/r_drw2d_rx/src/tes/dave_line.c ****    dly = y2 - y1;
 4119                             		.loc 1 634 8 view .LVU1494
 4120 0030 FF 0A A7                		sub	r10, r7, r10
 4121                             	.LVL416:
 635:../src/smc_gen/r_drw2d_rx/src/tes/dave_line.c ****    if(0 == (dlx | dly))    /* PRQA S 4130 */ /* $Misra: #PERF_BITWISE $*/
 4122                             		.loc 1 635 4 is_stmt 1 view .LVU1495
 635:../src/smc_gen/r_drw2d_rx/src/tes/dave_line.c ****    if(0 == (dlx | dly))    /* PRQA S 4130 */ /* $Misra: #PERF_BITWISE $*/
 4123                             		.loc 1 635 13 is_stmt 0 view .LVU1496
 4124 0033 DD 06 36                		mov.W	108[r0], r6
 4125 0036 DF 47                   		mov.W	r4, r7
 4126 0038 A5 0F                   		mov.L	r7, 84[r0]
 635:../src/smc_gen/r_drw2d_rx/src/tes/dave_line.c ****    if(0 == (dlx | dly))    /* PRQA S 4130 */ /* $Misra: #PERF_BITWISE $*/
 4127                             		.loc 1 635 8 view .LVU1497
 4128 003a FF 05 76                		sub	r7, r6, r5
 4129                             	.LVL417:
 636:../src/smc_gen/r_drw2d_rx/src/tes/dave_line.c ****    {
 4130                             		.loc 1 636 4 is_stmt 1 view .LVU1498
 636:../src/smc_gen/r_drw2d_rx/src/tes/dave_line.c ****    {
 4131                             		.loc 1 636 17 is_stmt 0 view .LVU1499
 4132 003d FF 57 5A                		or	r5, r10, r7
 4133 0040 A5 07                   		mov.L	r7, 80[r0]
 636:../src/smc_gen/r_drw2d_rx/src/tes/dave_line.c ****    {
 4134                             		.loc 1 636 6 view .LVU1500
 4135 0042 61 07                   		cmp	#0, r7
 4136 0044 1E                      		bne	.L246
 4137                             	.LVL418:
 4138                             		.balign 8,3,1
 4139                             	.L171:
1103:../src/smc_gen/r_drw2d_rx/src/tes/dave_line.c **** 
 4140                             		.loc 1 1103 1 view .LVU1501
 4141 0045 AD 01                   		mov.L	80[r0], r1
 4142 0047 3F 6D 36                		rtsd	#216, r6-r13
 4143                             	.LVL419:
 4144                             	.L246:
1103:../src/smc_gen/r_drw2d_rx/src/tes/dave_line.c **** 
 4145                             		.loc 1 1103 1 view .LVU1502
 4146 004a D7 04 50                		mov.W	r4, 160[r0]
 4147 004d D7 03 44                		mov.W	r3, 136[r0]
 4148 0050 EF 2D                   		mov.L	r2, r13
 4149 0052 EF 17                   		mov.L	r1, r7
 641:../src/smc_gen/r_drw2d_rx/src/tes/dave_line.c **** 
 4150                             		.loc 1 641 4 is_stmt 1 view .LVU1503
 641:../src/smc_gen/r_drw2d_rx/src/tes/dave_line.c **** 
 4151                             		.loc 1 641 8 is_stmt 0 view .LVU1504
 4152 0054 59 2E D6                		movu.B	214[r2], r14
 4153 0057 E7 0E 1C                		mov.L	r14, 112[r0]
 4154                             	.LVL420:
 643:../src/smc_gen/r_drw2d_rx/src/tes/dave_line.c **** 
 4155                             		.loc 1 643 4 is_stmt 1 view .LVU1505
 643:../src/smc_gen/r_drw2d_rx/src/tes/dave_line.c **** 
 4156                             		.loc 1 643 49 is_stmt 0 view .LVU1506
 4157 005a FF 31 AA                		mul	r10, r10, r1
 4158                             	.LVL421:
 643:../src/smc_gen/r_drw2d_rx/src/tes/dave_line.c **** 
 4159                             		.loc 1 643 63 view .LVU1507
 4160 005d 4F 55                   		mul	r5, r5
 4161                             	.LVL422:
 643:../src/smc_gen/r_drw2d_rx/src/tes/dave_line.c **** 
 4162                             		.loc 1 643 24 view .LVU1508
 4163 005f 4B 51                   		add	r5, r1
 4164 0061 05 00 00 00             		bsr	_d2_sqrt
 4165                             	.LVL423:
 643:../src/smc_gen/r_drw2d_rx/src/tes/dave_line.c **** 
 4166                             		.loc 1 643 6 view .LVU1509
 4167 0065 FB 52 00 00 00 01       		mov.L	#0x1000000, r5
 4168 006b FC 23 15                		div	r1, r5
 4169 006e E7 05 24                		mov.L	r5, 144[r0]
 4170                             	.LVL424:
 645:../src/smc_gen/r_drw2d_rx/src/tes/dave_line.c ****    ny = ( dlx * l) >> 8;   /* PRQA S 0502 */ /* $Misra: #PERF_ARITHMETIC_SHIFT_RIGHT $*/
 4171                             		.loc 1 645 4 is_stmt 1 view .LVU1510
 645:../src/smc_gen/r_drw2d_rx/src/tes/dave_line.c ****    ny = ( dlx * l) >> 8;   /* PRQA S 0502 */ /* $Misra: #PERF_ARITHMETIC_SHIFT_RIGHT $*/
 4172                             		.loc 1 645 10 is_stmt 0 view .LVU1511
 4173 0071 ED 0B 15                		mov.L	84[r0], r11
 4174 0074 43 6B                   		sub	r6, r11
 645:../src/smc_gen/r_drw2d_rx/src/tes/dave_line.c ****    ny = ( dlx * l) >> 8;   /* PRQA S 0502 */ /* $Misra: #PERF_ARITHMETIC_SHIFT_RIGHT $*/
 4175                             		.loc 1 645 15 view .LVU1512
 4176 0076 4F 5B                   		mul	r5, r11
 645:../src/smc_gen/r_drw2d_rx/src/tes/dave_line.c ****    ny = ( dlx * l) >> 8;   /* PRQA S 0502 */ /* $Misra: #PERF_ARITHMETIC_SHIFT_RIGHT $*/
 4177                             		.loc 1 645 7 view .LVU1513
 4178 0078 6A 8B                   		shar	#8, r11
 4179                             	.LVL425:
 646:../src/smc_gen/r_drw2d_rx/src/tes/dave_line.c **** 
 4180                             		.loc 1 646 4 is_stmt 1 view .LVU1514
 646:../src/smc_gen/r_drw2d_rx/src/tes/dave_line.c **** 
 4181                             		.loc 1 646 15 is_stmt 0 view .LVU1515
 4182 007a 4F 5A                   		mul	r5, r10
 4183                             	.LVL426:
 646:../src/smc_gen/r_drw2d_rx/src/tes/dave_line.c **** 
 4184                             		.loc 1 646 7 view .LVU1516
 4185 007c 6A 8A                   		shar	#8, r10
 4186                             	.LVL427:
 658:../src/smc_gen/r_drw2d_rx/src/tes/dave_line.c ****    w1y = ((ny * w1) >> 1) >> 16;  /* PRQA S 0502 */ /* $Misra: #PERF_ARITHMETIC_SHIFT_RIGHT $*/
 4187                             		.loc 1 658 4 is_stmt 1 view .LVU1517
 658:../src/smc_gen/r_drw2d_rx/src/tes/dave_line.c ****    w1y = ((ny * w1) >> 1) >> 16;  /* PRQA S 0502 */ /* $Misra: #PERF_ARITHMETIC_SHIFT_RIGHT $*/
 4188                             		.loc 1 658 15 is_stmt 0 view .LVU1518
 4189 007e DD 0F 3B                		mov.W	118[r0], r15
 4190 0081 E7 0F 25                		mov.L	r15, 148[r0]
 4191 0084 EF F2                   		mov.L	r15, r2
 4192 0086 4F B2                   		mul	r11, r2
 658:../src/smc_gen/r_drw2d_rx/src/tes/dave_line.c ****    w1y = ((ny * w1) >> 1) >> 16;  /* PRQA S 0502 */ /* $Misra: #PERF_ARITHMETIC_SHIFT_RIGHT $*/
 4193                             		.loc 1 658 8 view .LVU1519
 4194 0088 6B 12                   		shar	#17, r2
 4195                             	.LVL428:
 659:../src/smc_gen/r_drw2d_rx/src/tes/dave_line.c ****    w2x = ((nx * w2) >> 1) >> 16;  /* PRQA S 0502 */ /* $Misra: #PERF_ARITHMETIC_SHIFT_RIGHT $*/
 4196                             		.loc 1 659 4 is_stmt 1 view .LVU1520
 659:../src/smc_gen/r_drw2d_rx/src/tes/dave_line.c ****    w2x = ((nx * w2) >> 1) >> 16;  /* PRQA S 0502 */ /* $Misra: #PERF_ARITHMETIC_SHIFT_RIGHT $*/
 4197                             		.loc 1 659 15 is_stmt 0 view .LVU1521
 4198 008a EF F1                   		mov.L	r15, r1
 4199 008c 4F A1                   		mul	r10, r1
 659:../src/smc_gen/r_drw2d_rx/src/tes/dave_line.c ****    w2x = ((nx * w2) >> 1) >> 16;  /* PRQA S 0502 */ /* $Misra: #PERF_ARITHMETIC_SHIFT_RIGHT $*/
 4200                             		.loc 1 659 8 view .LVU1522
 4201 008e 6B 11                   		shar	#17, r1
 4202                             	.LVL429:
 660:../src/smc_gen/r_drw2d_rx/src/tes/dave_line.c ****    w2y = ((ny * w2) >> 1) >> 16;  /* PRQA S 0502 */ /* $Misra: #PERF_ARITHMETIC_SHIFT_RIGHT $*/
 4203                             		.loc 1 660 4 is_stmt 1 view .LVU1523
 660:../src/smc_gen/r_drw2d_rx/src/tes/dave_line.c ****    w2y = ((ny * w2) >> 1) >> 16;  /* PRQA S 0502 */ /* $Misra: #PERF_ARITHMETIC_SHIFT_RIGHT $*/
 4204                             		.loc 1 660 15 is_stmt 0 view .LVU1524
 4205 0090 DD 03 3A                		mov.W	116[r0], r3
 4206 0093 E7 03 23                		mov.L	r3, 140[r0]
 4207 0096 EF 35                   		mov.L	r3, r5
 4208                             	.LVL430:
 660:../src/smc_gen/r_drw2d_rx/src/tes/dave_line.c ****    w2y = ((ny * w2) >> 1) >> 16;  /* PRQA S 0502 */ /* $Misra: #PERF_ARITHMETIC_SHIFT_RIGHT $*/
 4209                             		.loc 1 660 15 view .LVU1525
 4210 0098 4F B5                   		mul	r11, r5
 660:../src/smc_gen/r_drw2d_rx/src/tes/dave_line.c ****    w2y = ((ny * w2) >> 1) >> 16;  /* PRQA S 0502 */ /* $Misra: #PERF_ARITHMETIC_SHIFT_RIGHT $*/
 4211                             		.loc 1 660 8 view .LVU1526
 4212 009a 6B 15                   		shar	#17, r5
 4213                             	.LVL431:
 661:../src/smc_gen/r_drw2d_rx/src/tes/dave_line.c **** 
 4214                             		.loc 1 661 4 is_stmt 1 view .LVU1527
 661:../src/smc_gen/r_drw2d_rx/src/tes/dave_line.c **** 
 4215                             		.loc 1 661 15 is_stmt 0 view .LVU1528
 4216 009c EF 34                   		mov.L	r3, r4
 4217 009e 4F A4                   		mul	r10, r4
 661:../src/smc_gen/r_drw2d_rx/src/tes/dave_line.c **** 
 4218                             		.loc 1 661 8 view .LVU1529
 4219 00a0 6B 14                   		shar	#17, r4
 4220                             	.LVL432:
 663:../src/smc_gen/r_drw2d_rx/src/tes/dave_line.c ****    ay = y1 + w1y;
 4221                             		.loc 1 663 4 is_stmt 1 view .LVU1530
 663:../src/smc_gen/r_drw2d_rx/src/tes/dave_line.c ****    ay = y1 + w1y;
 4222                             		.loc 1 663 7 is_stmt 0 view .LVU1531
 4223 00a2 ED 0E 18                		mov.L	96[r0], r14
 4224 00a5 4B 2E                   		add	r2, r14
 4225 00a7 E7 0E 1A                		mov.L	r14, 104[r0]
 4226                             	.LVL433:
 664:../src/smc_gen/r_drw2d_rx/src/tes/dave_line.c ****    bx = x2 + w2x;
 4227                             		.loc 1 664 4 is_stmt 1 view .LVU1532
 664:../src/smc_gen/r_drw2d_rx/src/tes/dave_line.c ****    bx = x2 + w2x;
 4228                             		.loc 1 664 7 is_stmt 0 view .LVU1533
 4229 00aa ED 08 15                		mov.L	84[r0], r8
 4230 00ad 4B 18                   		add	r1, r8
 4231                             	.LVL434:
 665:../src/smc_gen/r_drw2d_rx/src/tes/dave_line.c ****    by = y2 + w2y;
 4232                             		.loc 1 665 4 is_stmt 1 view .LVU1534
 665:../src/smc_gen/r_drw2d_rx/src/tes/dave_line.c ****    by = y2 + w2y;
 4233                             		.loc 1 665 7 is_stmt 0 view .LVU1535
 4234 00af ED 0F 17                		mov.L	92[r0], r15
 4235 00b2 4B 5F                   		add	r5, r15
 4236 00b4 E7 0F 20                		mov.L	r15, 128[r0]
 4237                             	.LVL435:
 666:../src/smc_gen/r_drw2d_rx/src/tes/dave_line.c ****    cx = x2 - w2x;
 4238                             		.loc 1 666 4 is_stmt 1 view .LVU1536
 666:../src/smc_gen/r_drw2d_rx/src/tes/dave_line.c ****    cx = x2 - w2x;
 4239                             		.loc 1 666 7 is_stmt 0 view .LVU1537
 4240 00b7 FF 23 46                		add	r4, r6, r3
 4241 00ba E7 03 21                		mov.L	r3, 132[r0]
 4242                             	.LVL436:
 667:../src/smc_gen/r_drw2d_rx/src/tes/dave_line.c ****    cy = y2 - w2y;
 4243                             		.loc 1 667 4 is_stmt 1 view .LVU1538
 667:../src/smc_gen/r_drw2d_rx/src/tes/dave_line.c ****    cy = y2 - w2y;
 4244                             		.loc 1 667 7 is_stmt 0 view .LVU1539
 4245 00bd ED 0E 17                		mov.L	92[r0], r14
 4246                             	.LVL437:
 667:../src/smc_gen/r_drw2d_rx/src/tes/dave_line.c ****    cy = y2 - w2y;
 4247                             		.loc 1 667 7 view .LVU1540
 4248 00c0 43 5E                   		sub	r5, r14
 4249 00c2 E7 0E 1F                		mov.L	r14, 124[r0]
 4250                             	.LVL438:
 668:../src/smc_gen/r_drw2d_rx/src/tes/dave_line.c ****    dx = x1 - w1x;
 4251                             		.loc 1 668 4 is_stmt 1 view .LVU1541
 668:../src/smc_gen/r_drw2d_rx/src/tes/dave_line.c ****    dx = x1 - w1x;
 4252                             		.loc 1 668 7 is_stmt 0 view .LVU1542
 4253 00c5 FF 0F 46                		sub	r4, r6, r15
 4254                             	.LVL439:
 668:../src/smc_gen/r_drw2d_rx/src/tes/dave_line.c ****    dx = x1 - w1x;
 4255                             		.loc 1 668 7 view .LVU1543
 4256 00c8 E7 0F 1E                		mov.L	r15, 120[r0]
 4257                             	.LVL440:
 669:../src/smc_gen/r_drw2d_rx/src/tes/dave_line.c ****    dy = y1 - w1y;
 4258                             		.loc 1 669 4 is_stmt 1 view .LVU1544
 669:../src/smc_gen/r_drw2d_rx/src/tes/dave_line.c ****    dy = y1 - w1y;
 4259                             		.loc 1 669 7 is_stmt 0 view .LVU1545
 4260 00cb ED 09 18                		mov.L	96[r0], r9
 4261 00ce 43 29                   		sub	r2, r9
 4262                             	.LVL441:
 670:../src/smc_gen/r_drw2d_rx/src/tes/dave_line.c **** 
 4263                             		.loc 1 670 4 is_stmt 1 view .LVU1546
 670:../src/smc_gen/r_drw2d_rx/src/tes/dave_line.c **** 
 4264                             		.loc 1 670 7 is_stmt 0 view .LVU1547
 4265 00d0 ED 0C 15                		mov.L	84[r0], r12
 4266 00d3 43 1C                   		sub	r1, r12
 4267                             	.LVL442:
 673:../src/smc_gen/r_drw2d_rx/src/tes/dave_line.c ****    {
 4268                             		.loc 1 673 4 is_stmt 1 view .LVU1548
 673:../src/smc_gen/r_drw2d_rx/src/tes/dave_line.c ****    {
 4269                             		.loc 1 673 6 is_stmt 0 view .LVU1549
 4270 00d5 AF 03                   		mov.L	112[r0], r3
 4271                             	.LVL443:
 673:../src/smc_gen/r_drw2d_rx/src/tes/dave_line.c ****    {
 4272                             		.loc 1 673 6 view .LVU1550
 4273 00d7 61 23                   		cmp	#2, r3
 4274 00d9 3A 57 04                		beq	.L247
 4275                             	.LVL444:
 4276                             	.L173:
 687:../src/smc_gen/r_drw2d_rx/src/tes/dave_line.c ****    {
 4277                             		.loc 1 687 4 is_stmt 1 view .LVU1551
 687:../src/smc_gen/r_drw2d_rx/src/tes/dave_line.c ****    {
 4278                             		.loc 1 687 36 is_stmt 0 view .LVU1552
 4279 00dc AD 83                   		mov.L	88[r0], r3
 4280 00de 64 33                   		and #3, r3
 687:../src/smc_gen/r_drw2d_rx/src/tes/dave_line.c ****    {
 4281                             		.loc 1 687 6 view .LVU1553
 4282 00e0 61 33                   		cmp	#3, r3
 4283 00e2 3A B3 04                		beq	.L240
 693:../src/smc_gen/r_drw2d_rx/src/tes/dave_line.c ****    {
 4284                             		.loc 1 693 4 is_stmt 1 view .LVU1554
 693:../src/smc_gen/r_drw2d_rx/src/tes/dave_line.c ****    {
 4285                             		.loc 1 693 6 is_stmt 0 view .LVU1555
 4286 00e5 AF 03                   		mov.L	112[r0], r3
 4287 00e7 61 13                   		cmp	#1, r3
 4288 00e9 3A 6D 04                		beq	.L248
 4289                             	.LVL445:
 4290                             		.balign 8,3,1
 4291                             	.L175:
 709:../src/smc_gen/r_drw2d_rx/src/tes/dave_line.c ****    t2 = (cx < dx) ? cx : dx;
 4292                             		.loc 1 709 4 is_stmt 1 view .LVU1556
 709:../src/smc_gen/r_drw2d_rx/src/tes/dave_line.c ****    t2 = (cx < dx) ? cx : dx;
 4293                             		.loc 1 709 7 is_stmt 0 view .LVU1557
 4294 00ec AE 84                   		mov.L	104[r0], r4
 4295 00ee ED 05 20                		mov.L	128[r0], r5
 4296                             	.LVL446:
 709:../src/smc_gen/r_drw2d_rx/src/tes/dave_line.c ****    t2 = (cx < dx) ? cx : dx;
 4297                             		.loc 1 709 7 view .LVU1558
 4298 00f1 FC 17 54                		min	r5, r4
 4299                             	.LVL447:
 710:../src/smc_gen/r_drw2d_rx/src/tes/dave_line.c ****    bbox.xmin = (d2_point) D2_FLOOR4( (t1 < t2) ? t1 : t2 );
 4300                             		.loc 1 710 4 is_stmt 1 view .LVU1559
 710:../src/smc_gen/r_drw2d_rx/src/tes/dave_line.c ****    bbox.xmin = (d2_point) D2_FLOOR4( (t1 < t2) ? t1 : t2 );
 4301                             		.loc 1 710 7 is_stmt 0 view .LVU1560
 4302 00f4 AF 8D                   		mov.L	124[r0], r5
 4303 00f6 FC 17 95                		min	r9, r5
 4304                             	.LVL448:
 711:../src/smc_gen/r_drw2d_rx/src/tes/dave_line.c ****    t1 = (ax > bx) ? ax : bx;
 4305                             		.loc 1 711 4 is_stmt 1 view .LVU1561
 711:../src/smc_gen/r_drw2d_rx/src/tes/dave_line.c ****    t1 = (ax > bx) ? ax : bx;
 4306                             		.loc 1 711 16 is_stmt 0 view .LVU1562
 4307 00f9 47 54                   		cmp	r5, r4
 4308 00fb 29 05 38 9E 04          		bge	.L177
 711:../src/smc_gen/r_drw2d_rx/src/tes/dave_line.c ****    t1 = (ax > bx) ? ax : bx;
 4309                             		.loc 1 711 16 discriminator 1 view .LVU1563
 4310 0100 FB 56 F0                		mov.L	#-16, r5
 4311                             	.LVL449:
 711:../src/smc_gen/r_drw2d_rx/src/tes/dave_line.c ****    t1 = (ax > bx) ? ax : bx;
 4312                             		.loc 1 711 16 discriminator 1 view .LVU1564
 4313 0103 53 45                   		and	r4, r5
 4314                             	.L178:
 711:../src/smc_gen/r_drw2d_rx/src/tes/dave_line.c ****    t1 = (ax > bx) ? ax : bx;
 4315                             		.loc 1 711 14 discriminator 4 view .LVU1565
 4316 0105 92 05                   		mov.W	r5, 16[r0]
 712:../src/smc_gen/r_drw2d_rx/src/tes/dave_line.c ****    t2 = (cx > dx) ? cx : dx;
 4317                             		.loc 1 712 4 is_stmt 1 discriminator 4 view .LVU1566
 712:../src/smc_gen/r_drw2d_rx/src/tes/dave_line.c ****    t2 = (cx > dx) ? cx : dx;
 4318                             		.loc 1 712 7 is_stmt 0 discriminator 4 view .LVU1567
 4319 0107 AE 84                   		mov.L	104[r0], r4
 4320                             	.LVL450:
 712:../src/smc_gen/r_drw2d_rx/src/tes/dave_line.c ****    t2 = (cx > dx) ? cx : dx;
 4321                             		.loc 1 712 7 discriminator 4 view .LVU1568
 4322 0109 ED 0E 20                		mov.L	128[r0], r14
 4323 010c FC 13 E4                		max	r14, r4
 4324                             	.LVL451:
 713:../src/smc_gen/r_drw2d_rx/src/tes/dave_line.c ****    bbox.xmax = (d2_point) D2_CEIL4( (t1 > t2) ? t1 : t2 );
 4325                             		.loc 1 713 4 is_stmt 1 discriminator 4 view .LVU1569
 713:../src/smc_gen/r_drw2d_rx/src/tes/dave_line.c ****    bbox.xmax = (d2_point) D2_CEIL4( (t1 > t2) ? t1 : t2 );
 4326                             		.loc 1 713 7 is_stmt 0 discriminator 4 view .LVU1570
 4327 010f AF 8D                   		mov.L	124[r0], r5
 4328 0111 FC 13 95                		max	r9, r5
 4329                             	.LVL452:
 714:../src/smc_gen/r_drw2d_rx/src/tes/dave_line.c ****    t1 = (ay < by) ? ay : by;
 4330                             		.loc 1 714 4 is_stmt 1 discriminator 4 view .LVU1571
 714:../src/smc_gen/r_drw2d_rx/src/tes/dave_line.c ****    t1 = (ay < by) ? ay : by;
 4331                             		.loc 1 714 16 is_stmt 0 discriminator 4 view .LVU1572
 4332 0114 47 54                   		cmp	r5, r4
 4333 0116 2A 05 38 89 04          		ble	.L179
 714:../src/smc_gen/r_drw2d_rx/src/tes/dave_line.c ****    t1 = (ay < by) ? ay : by;
 4334                             		.loc 1 714 27 discriminator 1 view .LVU1573
 4335 011b 71 45 0F                		add	#15, r4, r5
 4336                             	.LVL453:
 714:../src/smc_gen/r_drw2d_rx/src/tes/dave_line.c ****    t1 = (ay < by) ? ay : by;
 4337                             		.loc 1 714 16 discriminator 1 view .LVU1574
 4338 011e 75 25 F0                		and #-16, r5
 4339                             	.L180:
 714:../src/smc_gen/r_drw2d_rx/src/tes/dave_line.c ****    t1 = (ay < by) ? ay : by;
 4340                             		.loc 1 714 14 discriminator 4 view .LVU1575
 4341 0121 92 85                   		mov.W	r5, 20[r0]
 715:../src/smc_gen/r_drw2d_rx/src/tes/dave_line.c ****    t2 = (cy < dy) ? cy : dy;
 4342                             		.loc 1 715 4 is_stmt 1 discriminator 4 view .LVU1576
 715:../src/smc_gen/r_drw2d_rx/src/tes/dave_line.c ****    t2 = (cy < dy) ? cy : dy;
 4343                             		.loc 1 715 7 is_stmt 0 discriminator 4 view .LVU1577
 4344 0123 ED 04 21                		mov.L	132[r0], r4
 4345                             	.LVL454:
 715:../src/smc_gen/r_drw2d_rx/src/tes/dave_line.c ****    t2 = (cy < dy) ? cy : dy;
 4346                             		.loc 1 715 7 discriminator 4 view .LVU1578
 4347 0126 FC 17 84                		min	r8, r4
 4348                             	.LVL455:
 716:../src/smc_gen/r_drw2d_rx/src/tes/dave_line.c ****    bbox.ymin = (d2_point) D2_FLOOR4( (t1 < t2) ? t1 : t2 );
 4349                             		.loc 1 716 4 is_stmt 1 discriminator 4 view .LVU1579
 716:../src/smc_gen/r_drw2d_rx/src/tes/dave_line.c ****    bbox.ymin = (d2_point) D2_FLOOR4( (t1 < t2) ? t1 : t2 );
 4350                             		.loc 1 716 7 is_stmt 0 discriminator 4 view .LVU1580
 4351 0129 AF 85                   		mov.L	120[r0], r5
 4352 012b FC 17 C5                		min	r12, r5
 4353                             	.LVL456:
 717:../src/smc_gen/r_drw2d_rx/src/tes/dave_line.c ****    t1 = (ay > by) ? ay : by;
 4354                             		.loc 1 717 4 is_stmt 1 discriminator 4 view .LVU1581
 717:../src/smc_gen/r_drw2d_rx/src/tes/dave_line.c ****    t1 = (ay > by) ? ay : by;
 4355                             		.loc 1 717 16 is_stmt 0 discriminator 4 view .LVU1582
 4356 012e 47 54                   		cmp	r5, r4
 4357 0130 29 05 38 77 04          		bge	.L181
 717:../src/smc_gen/r_drw2d_rx/src/tes/dave_line.c ****    t1 = (ay > by) ? ay : by;
 4358                             		.loc 1 717 16 discriminator 1 view .LVU1583
 4359 0135 FB 56 F0                		mov.L	#-16, r5
 4360                             	.LVL457:
 717:../src/smc_gen/r_drw2d_rx/src/tes/dave_line.c ****    t1 = (ay > by) ? ay : by;
 4361                             		.loc 1 717 16 discriminator 1 view .LVU1584
 4362 0138 53 45                   		and	r4, r5
 4363                             	.L182:
 717:../src/smc_gen/r_drw2d_rx/src/tes/dave_line.c ****    t1 = (ay > by) ? ay : by;
 4364                             		.loc 1 717 14 discriminator 4 view .LVU1585
 4365 013a 92 0D                   		mov.W	r5, 18[r0]
 718:../src/smc_gen/r_drw2d_rx/src/tes/dave_line.c ****    t2 = (cy > dy) ? cy : dy;
 4366                             		.loc 1 718 4 is_stmt 1 discriminator 4 view .LVU1586
 718:../src/smc_gen/r_drw2d_rx/src/tes/dave_line.c ****    t2 = (cy > dy) ? cy : dy;
 4367                             		.loc 1 718 7 is_stmt 0 discriminator 4 view .LVU1587
 4368 013c ED 04 21                		mov.L	132[r0], r4
 4369                             	.LVL458:
 718:../src/smc_gen/r_drw2d_rx/src/tes/dave_line.c ****    t2 = (cy > dy) ? cy : dy;
 4370                             		.loc 1 718 7 discriminator 4 view .LVU1588
 4371 013f FC 13 84                		max	r8, r4
 4372                             	.LVL459:
 719:../src/smc_gen/r_drw2d_rx/src/tes/dave_line.c ****    bbox.ymax = (d2_point) D2_CEIL4( (t1 > t2) ?  t1 : t2 );
 4373                             		.loc 1 719 4 is_stmt 1 discriminator 4 view .LVU1589
 719:../src/smc_gen/r_drw2d_rx/src/tes/dave_line.c ****    bbox.ymax = (d2_point) D2_CEIL4( (t1 > t2) ?  t1 : t2 );
 4374                             		.loc 1 719 7 is_stmt 0 discriminator 4 view .LVU1590
 4375 0142 AF 85                   		mov.L	120[r0], r5
 4376 0144 FC 13 C5                		max	r12, r5
 4377                             	.LVL460:
 720:../src/smc_gen/r_drw2d_rx/src/tes/dave_line.c **** 
 4378                             		.loc 1 720 4 is_stmt 1 discriminator 4 view .LVU1591
 720:../src/smc_gen/r_drw2d_rx/src/tes/dave_line.c **** 
 4379                             		.loc 1 720 16 is_stmt 0 discriminator 4 view .LVU1592
 4380 0147 47 54                   		cmp	r5, r4
 4381 0149 2A 05 38 64 04          		ble	.L183
 720:../src/smc_gen/r_drw2d_rx/src/tes/dave_line.c **** 
 4382                             		.loc 1 720 27 discriminator 1 view .LVU1593
 4383 014e 71 45 0F                		add	#15, r4, r5
 4384                             	.LVL461:
 720:../src/smc_gen/r_drw2d_rx/src/tes/dave_line.c **** 
 4385                             		.loc 1 720 16 discriminator 1 view .LVU1594
 4386 0151 75 25 F0                		and #-16, r5
 4387                             	.L184:
 720:../src/smc_gen/r_drw2d_rx/src/tes/dave_line.c **** 
 4388                             		.loc 1 720 14 discriminator 4 view .LVU1595
 4389 0154 92 8D                   		mov.W	r5, 22[r0]
 723:../src/smc_gen/r_drw2d_rx/src/tes/dave_line.c ****    {
 4390                             		.loc 1 723 4 is_stmt 1 discriminator 4 view .LVU1596
 723:../src/smc_gen/r_drw2d_rx/src/tes/dave_line.c ****    {
 4391                             		.loc 1 723 12 is_stmt 0 discriminator 4 view .LVU1597
 4392 0156 75 42 10                		mov.L	#16, r2
 4393                             	.LVL462:
 723:../src/smc_gen/r_drw2d_rx/src/tes/dave_line.c ****    {
 4394                             		.loc 1 723 12 discriminator 4 view .LVU1598
 4395 0159 4B 02                   		add	r0, r2
 4396 015b EF 71                   		mov.L	r7, r1
 4397                             	.LVL463:
 723:../src/smc_gen/r_drw2d_rx/src/tes/dave_line.c ****    {
 4398                             		.loc 1 723 12 discriminator 4 view .LVU1599
 4399 015d 05 00 00 00             		bsr	_d2_clipbbox_intern
 4400                             	.LVL464:
 723:../src/smc_gen/r_drw2d_rx/src/tes/dave_line.c ****    {
 4401                             		.loc 1 723 12 discriminator 4 view .LVU1600
 4402 0161 A5 01                   		mov.L	r1, 80[r0]
 723:../src/smc_gen/r_drw2d_rx/src/tes/dave_line.c ****    {
 4403                             		.loc 1 723 6 discriminator 4 view .LVU1601
 4404 0163 61 01                   		cmp	#0, r1
 4405 0165 3A E0 FE                		beq	.L171
 729:../src/smc_gen/r_drw2d_rx/src/tes/dave_line.c ****    xe = x2; ye = y2;
 4406                             		.loc 1 729 4 is_stmt 1 view .LVU1602
 4407                             	.LVL465:
 729:../src/smc_gen/r_drw2d_rx/src/tes/dave_line.c ****    xe = x2; ye = y2;
 4408                             		.loc 1 729 13 view .LVU1603
 730:../src/smc_gen/r_drw2d_rx/src/tes/dave_line.c **** 
 4409                             		.loc 1 730 4 view .LVU1604
 730:../src/smc_gen/r_drw2d_rx/src/tes/dave_line.c **** 
 4410                             		.loc 1 730 13 view .LVU1605
 733:../src/smc_gen/r_drw2d_rx/src/tes/dave_line.c ****    y1 = (d2_point)(y1 - bbox.ymin);
 4411                             		.loc 1 733 4 view .LVU1606
 733:../src/smc_gen/r_drw2d_rx/src/tes/dave_line.c ****    y1 = (d2_point)(y1 - bbox.ymin);
 4412                             		.loc 1 733 29 is_stmt 0 view .LVU1607
 4413 0168 9A 02                   		mov.W	16[r0], r2
 733:../src/smc_gen/r_drw2d_rx/src/tes/dave_line.c ****    y1 = (d2_point)(y1 - bbox.ymin);
 4414                             		.loc 1 733 23 view .LVU1608
 4415 016a DD 0F 44                		mov.W	136[r0], r15
 4416 016d 43 2F                   		sub	r2, r15
 4417 016f E7 0F 14                		mov.L	r15, 80[r0]
 4418                             	.LVL466:
 734:../src/smc_gen/r_drw2d_rx/src/tes/dave_line.c ****    x2 = (d2_point)(x2 - bbox.xmin);
 4419                             		.loc 1 734 4 is_stmt 1 view .LVU1609
 734:../src/smc_gen/r_drw2d_rx/src/tes/dave_line.c ****    x2 = (d2_point)(x2 - bbox.xmin);
 4420                             		.loc 1 734 29 is_stmt 0 view .LVU1610
 4421 0172 9A 0B                   		mov.W	18[r0], r3
 734:../src/smc_gen/r_drw2d_rx/src/tes/dave_line.c ****    x2 = (d2_point)(x2 - bbox.xmin);
 4422                             		.loc 1 734 23 view .LVU1611
 4423 0174 DD 04 50                		mov.W	160[r0], r4
 4424 0177 43 34                   		sub	r3, r4
 4425 0179 E7 04 22                		mov.L	r4, 136[r0]
 4426                             	.LVL467:
 735:../src/smc_gen/r_drw2d_rx/src/tes/dave_line.c ****    y2 = (d2_point)(y2 - bbox.ymin);
 4427                             		.loc 1 735 4 is_stmt 1 view .LVU1612
 735:../src/smc_gen/r_drw2d_rx/src/tes/dave_line.c ****    y2 = (d2_point)(y2 - bbox.ymin);
 4428                             		.loc 1 735 23 is_stmt 0 view .LVU1613
 4429 017c DD 05 32                		mov.W	100[r0], r5
 4430 017f 43 25                   		sub	r2, r5
 4431                             	.LVL468:
 736:../src/smc_gen/r_drw2d_rx/src/tes/dave_line.c **** 
 4432                             		.loc 1 736 4 is_stmt 1 view .LVU1614
 736:../src/smc_gen/r_drw2d_rx/src/tes/dave_line.c **** 
 4433                             		.loc 1 736 23 is_stmt 0 view .LVU1615
 4434 0181 DD 01 36                		mov.W	108[r0], r1
 4435 0184 43 31                   		sub	r3, r1
 4436                             	.LVL469:
 739:../src/smc_gen/r_drw2d_rx/src/tes/dave_line.c ****    edge[0].xadd  = ny;
 4437                             		.loc 1 739 4 is_stmt 1 view .LVU1616
 739:../src/smc_gen/r_drw2d_rx/src/tes/dave_line.c ****    edge[0].xadd  = ny;
 4438                             		.loc 1 739 27 is_stmt 0 view .LVU1617
 4439 0186 DF 44                   		mov.W	r4, r4
 4440                             	.LVL470:
 739:../src/smc_gen/r_drw2d_rx/src/tes/dave_line.c ****    edge[0].xadd  = ny;
 4441                             		.loc 1 739 27 view .LVU1618
 4442 0188 4F B4                   		mul	r11, r4
 739:../src/smc_gen/r_drw2d_rx/src/tes/dave_line.c ****    edge[0].xadd  = ny;
 4443                             		.loc 1 739 39 view .LVU1619
 4444 018a DF FE                   		mov.W	r15, r14
 4445 018c 4F AE                   		mul	r10, r14
 739:../src/smc_gen/r_drw2d_rx/src/tes/dave_line.c ****    edge[0].xadd  = ny;
 4446                             		.loc 1 739 33 view .LVU1620
 4447 018e 43 E4                   		sub	r14, r4
 739:../src/smc_gen/r_drw2d_rx/src/tes/dave_line.c ****    edge[0].xadd  = ny;
 4448                             		.loc 1 739 47 view .LVU1621
 4449 0190 6A 44                   		shar	#4, r4
 739:../src/smc_gen/r_drw2d_rx/src/tes/dave_line.c ****    edge[0].xadd  = ny;
 4450                             		.loc 1 739 53 view .LVU1622
 4451 0192 73 44 00 00 01          		add	#0x10000, r4
 739:../src/smc_gen/r_drw2d_rx/src/tes/dave_line.c ****    edge[0].xadd  = ny;
 4452                             		.loc 1 739 18 view .LVU1623
 4453 0197 A2 04                   		mov.L	r4, 32[r0]
 740:../src/smc_gen/r_drw2d_rx/src/tes/dave_line.c ****    edge[0].yadd  = -nx;
 4454                             		.loc 1 740 4 is_stmt 1 view .LVU1624
 740:../src/smc_gen/r_drw2d_rx/src/tes/dave_line.c ****    edge[0].yadd  = -nx;
 4455                             		.loc 1 740 18 is_stmt 0 view .LVU1625
 4456 0199 E7 0A 09                		mov.L	r10, 36[r0]
 741:../src/smc_gen/r_drw2d_rx/src/tes/dave_line.c ****    edge[1].start = (( (x2 * ny) - (y2 * nx) ) >> 4) + (D2_FIX16(1) >> 1);  /* PRQA S 0502 */ /* $Mi
 4457                             		.loc 1 741 4 is_stmt 1 view .LVU1626
 741:../src/smc_gen/r_drw2d_rx/src/tes/dave_line.c ****    edge[1].start = (( (x2 * ny) - (y2 * nx) ) >> 4) + (D2_FIX16(1) >> 1);  /* PRQA S 0502 */ /* $Mi
 4458                             		.loc 1 741 20 is_stmt 0 view .LVU1627
 4459 019c FC 07 B4                		neg	r11, r4
 741:../src/smc_gen/r_drw2d_rx/src/tes/dave_line.c ****    edge[1].start = (( (x2 * ny) - (y2 * nx) ) >> 4) + (D2_FIX16(1) >> 1);  /* PRQA S 0502 */ /* $Mi
 4460                             		.loc 1 741 18 view .LVU1628
 4461 019f A2 84                   		mov.L	r4, 40[r0]
 742:../src/smc_gen/r_drw2d_rx/src/tes/dave_line.c ****    edge[1].xadd  = -ny;
 4462                             		.loc 1 742 4 is_stmt 1 view .LVU1629
 742:../src/smc_gen/r_drw2d_rx/src/tes/dave_line.c ****    edge[1].xadd  = -ny;
 4463                             		.loc 1 742 27 is_stmt 0 view .LVU1630
 4464 01a1 DF 55                   		mov.W	r5, r5
 4465                             	.LVL471:
 742:../src/smc_gen/r_drw2d_rx/src/tes/dave_line.c ****    edge[1].xadd  = -ny;
 4466                             		.loc 1 742 27 view .LVU1631
 4467 01a3 4F A5                   		mul	r10, r5
 742:../src/smc_gen/r_drw2d_rx/src/tes/dave_line.c ****    edge[1].xadd  = -ny;
 4468                             		.loc 1 742 39 view .LVU1632
 4469 01a5 DF 11                   		mov.W	r1, r1
 4470                             	.LVL472:
 742:../src/smc_gen/r_drw2d_rx/src/tes/dave_line.c ****    edge[1].xadd  = -ny;
 4471                             		.loc 1 742 39 view .LVU1633
 4472 01a7 4F B1                   		mul	r11, r1
 742:../src/smc_gen/r_drw2d_rx/src/tes/dave_line.c ****    edge[1].xadd  = -ny;
 4473                             		.loc 1 742 33 view .LVU1634
 4474 01a9 43 15                   		sub	r1, r5
 742:../src/smc_gen/r_drw2d_rx/src/tes/dave_line.c ****    edge[1].xadd  = -ny;
 4475                             		.loc 1 742 47 view .LVU1635
 4476 01ab 6A 45                   		shar	#4, r5
 742:../src/smc_gen/r_drw2d_rx/src/tes/dave_line.c ****    edge[1].xadd  = -ny;
 4477                             		.loc 1 742 53 view .LVU1636
 4478 01ad 73 55 00 80 00          		add	#0x8000, r5
 742:../src/smc_gen/r_drw2d_rx/src/tes/dave_line.c ****    edge[1].xadd  = -ny;
 4479                             		.loc 1 742 18 view .LVU1637
 4480 01b2 A2 8D                   		mov.L	r5, 44[r0]
 743:../src/smc_gen/r_drw2d_rx/src/tes/dave_line.c ****    edge[1].yadd  = nx;
 4481                             		.loc 1 743 4 is_stmt 1 view .LVU1638
 743:../src/smc_gen/r_drw2d_rx/src/tes/dave_line.c ****    edge[1].yadd  = nx;
 4482                             		.loc 1 743 20 is_stmt 0 view .LVU1639
 4483 01b4 7E 1A                   		neg	r10
 4484                             	.LVL473:
 743:../src/smc_gen/r_drw2d_rx/src/tes/dave_line.c ****    edge[1].yadd  = nx;
 4485                             		.loc 1 743 18 view .LVU1640
 4486 01b6 E7 0A 0C                		mov.L	r10, 48[r0]
 744:../src/smc_gen/r_drw2d_rx/src/tes/dave_line.c **** 
 4487                             		.loc 1 744 4 is_stmt 1 view .LVU1641
 744:../src/smc_gen/r_drw2d_rx/src/tes/dave_line.c **** 
 4488                             		.loc 1 744 18 is_stmt 0 view .LVU1642
 4489 01b9 E7 0B 0D                		mov.L	r11, 52[r0]
 747:../src/smc_gen/r_drw2d_rx/src/tes/dave_line.c ****    {
 4490                             		.loc 1 747 4 is_stmt 1 view .LVU1643
 747:../src/smc_gen/r_drw2d_rx/src/tes/dave_line.c ****    {
 4491                             		.loc 1 747 11 is_stmt 0 view .LVU1644
 4492 01bc CD D5 D5                		mov.B	213[r13], r5
 747:../src/smc_gen/r_drw2d_rx/src/tes/dave_line.c ****    {
 4493                             		.loc 1 747 6 view .LVU1645
 4494 01bf 64 35                   		and #3, r5
 4495 01c1 61 35                   		cmp	#3, r5
 4496 01c3 3A F4 03                		beq	.L249
 754:../src/smc_gen/r_drw2d_rx/src/tes/dave_line.c ****       d2_triedge_setup_intern( &edge[3], (d2_point)(dx - bbox.xmin), (d2_point)(dy - bbox.ymin), (c
 4497                             		.loc 1 754 7 is_stmt 1 view .LVU1646
 4498 01c6 3E 01 00                		mov.L	#0, 4[r0]
 4499 01c9 ED 0E 21                		mov.L	132[r0], r14
 4500 01cc FF 0A E8                		sub	r14, r8, r10
 4501 01cf E3 0A                   		mov.L	r10, [r0]
 4502 01d1 AE 84                   		mov.L	104[r0], r4
 4503 01d3 ED 0A 20                		mov.L	128[r0], r10
 4504 01d6 43 A4                   		sub	r10, r4
 4505 01d8 FF 03 38                		sub	r3, r8, r3
 4506                             	.LVL474:
 754:../src/smc_gen/r_drw2d_rx/src/tes/dave_line.c ****       d2_triedge_setup_intern( &edge[3], (d2_point)(dx - bbox.xmin), (d2_point)(dy - bbox.ymin), (c
 4507                             		.loc 1 754 7 is_stmt 0 view .LVU1647
 4508 01db ED 0A 1A                		mov.L	104[r0], r10
 4509 01de FF 02 2A                		sub	r2, r10, r2
 4510                             	.LVL475:
 754:../src/smc_gen/r_drw2d_rx/src/tes/dave_line.c ****       d2_triedge_setup_intern( &edge[3], (d2_point)(dx - bbox.xmin), (d2_point)(dy - bbox.ymin), (c
 4511                             		.loc 1 754 7 view .LVU1648
 4512 01e1 71 01 38                		add	#56, r0, r1
 4513 01e4 05 00 00 00             		bsr	_d2_triedge_setup_intern
 4514                             	.LVL476:
 755:../src/smc_gen/r_drw2d_rx/src/tes/dave_line.c ****       edge[2].start += (D2_FIX16(1) >> 1);  /* PRQA S 0502 */ /* $Misra: #PERF_ARITHMETIC_SHIFT_RIG
 4515                             		.loc 1 755 7 is_stmt 1 view .LVU1649
 755:../src/smc_gen/r_drw2d_rx/src/tes/dave_line.c ****       edge[2].start += (D2_FIX16(1) >> 1);  /* PRQA S 0502 */ /* $Misra: #PERF_ARITHMETIC_SHIFT_RIG
 4516                             		.loc 1 755 62 is_stmt 0 view .LVU1650
 4517 01e8 9A 02                   		mov.W	16[r0], r2
 755:../src/smc_gen/r_drw2d_rx/src/tes/dave_line.c ****       edge[2].start += (D2_FIX16(1) >> 1);  /* PRQA S 0502 */ /* $Misra: #PERF_ARITHMETIC_SHIFT_RIG
 4518                             		.loc 1 755 90 view .LVU1651
 4519 01ea 9A 0B                   		mov.W	18[r0], r3
 755:../src/smc_gen/r_drw2d_rx/src/tes/dave_line.c ****       edge[2].start += (D2_FIX16(1) >> 1);  /* PRQA S 0502 */ /* $Misra: #PERF_ARITHMETIC_SHIFT_RIG
 4520                             		.loc 1 755 7 view .LVU1652
 4521 01ec 3E 01 00                		mov.L	#0, 4[r0]
 4522 01ef ED 0A 1E                		mov.L	120[r0], r10
 4523 01f2 43 CA                   		sub	r12, r10
 4524 01f4 E3 0A                   		mov.L	r10, [r0]
 4525 01f6 AF 8C                   		mov.L	124[r0], r4
 4526 01f8 43 94                   		sub	r9, r4
 4527 01fa FF 03 3C                		sub	r3, r12, r3
 4528 01fd FF 02 29                		sub	r2, r9, r2
 4529 0200 71 01 44                		add	#0x44, r0, r1
 4530 0203 05 00 00 00             		bsr	_d2_triedge_setup_intern
 4531                             	.LVL477:
 756:../src/smc_gen/r_drw2d_rx/src/tes/dave_line.c ****       edge[3].start += (D2_FIX16(1) >> 1);  /* PRQA S 0502 */ /* $Misra: #PERF_ARITHMETIC_SHIFT_RIG
 4532                             		.loc 1 756 7 is_stmt 1 view .LVU1653
 756:../src/smc_gen/r_drw2d_rx/src/tes/dave_line.c ****       edge[3].start += (D2_FIX16(1) >> 1);  /* PRQA S 0502 */ /* $Misra: #PERF_ARITHMETIC_SHIFT_RIG
 4533                             		.loc 1 756 21 is_stmt 0 view .LVU1654
 4534 0207 ED 0A 0E                		mov.L	56[r0], r10
 4535 020a 73 AA 00 80 00          		add	#0x8000, r10
 4536 020f E7 0A 0E                		mov.L	r10, 56[r0]
 757:../src/smc_gen/r_drw2d_rx/src/tes/dave_line.c ****    }
 4537                             		.loc 1 757 7 is_stmt 1 view .LVU1655
 757:../src/smc_gen/r_drw2d_rx/src/tes/dave_line.c ****    }
 4538                             		.loc 1 757 21 is_stmt 0 view .LVU1656
 4539 0212 ED 0A 11                		mov.L	68[r0], r10
 4540 0215 73 AA 00 80 00          		add	#0x8000, r10
 4541 021a E7 0A 11                		mov.L	r10, 68[r0]
 4542                             	.L186:
 761:../src/smc_gen/r_drw2d_rx/src/tes/dave_line.c ****    {
 4543                             		.loc 1 761 4 is_stmt 1 view .LVU1657
 761:../src/smc_gen/r_drw2d_rx/src/tes/dave_line.c ****    {
 4544                             		.loc 1 761 6 is_stmt 0 view .LVU1658
 4545 021d ED 0A 1C                		mov.L	112[r0], r10
 4546 0220 61 1A                   		cmp	#1, r10
 4547 0222 3A D9 03                		beq	.L250
 4548                             	.L187:
 775:../src/smc_gen/r_drw2d_rx/src/tes/dave_line.c **** 
 4549                             		.loc 1 775 4 is_stmt 1 view .LVU1659
 4550 0225 EF D2                   		mov.L	r13, r2
 4551 0227 EF 71                   		mov.L	r7, r1
 4552 0229 05 00 00 00             		bsr	_d2_setupmaterial_intern
 4553                             	.LVL478:
 778:../src/smc_gen/r_drw2d_rx/src/tes/dave_line.c **** 
 4554                             		.loc 1 778 4 view .LVU1660
 778:../src/smc_gen/r_drw2d_rx/src/tes/dave_line.c **** 
 4555                             		.loc 1 778 10 is_stmt 0 view .LVU1661
 4556 022d ED DB 4A                		mov.L	296[r13], r11
 4557                             	.LVL479:
 780:../src/smc_gen/r_drw2d_rx/src/tes/dave_line.c ****    {
 4558                             		.loc 1 780 4 is_stmt 1 view .LVU1662
 780:../src/smc_gen/r_drw2d_rx/src/tes/dave_line.c ****    {
 4559                             		.loc 1 780 6 is_stmt 0 view .LVU1663
 4560 0230 ED 0A 1C                		mov.L	112[r0], r10
 4561 0233 61 2A                   		cmp	#2, r10
 4562 0235 3A 02 04                		beq	.L251
 4563                             	.L189:
 794:../src/smc_gen/r_drw2d_rx/src/tes/dave_line.c ****    {
 4564                             		.loc 1 794 4 is_stmt 1 view .LVU1664
 794:../src/smc_gen/r_drw2d_rx/src/tes/dave_line.c ****    {
 4565                             		.loc 1 794 16 is_stmt 0 view .LVU1665
 4566 0238 CD D5 D4                		mov.B	212[r13], r5
 794:../src/smc_gen/r_drw2d_rx/src/tes/dave_line.c ****    {
 4567                             		.loc 1 794 6 view .LVU1666
 4568 023b FD 74 C5 02             		tst	#2, r5
 4569 023f 20 57                   		beq	.L191
 4570                             	.LBB627:
 796:../src/smc_gen/r_drw2d_rx/src/tes/dave_line.c **** 
 4571                             		.loc 1 796 7 is_stmt 1 view .LVU1667
 798:../src/smc_gen/r_drw2d_rx/src/tes/dave_line.c ****       ctx->internaldirty |= d2_dirty_upatlim;
 4572                             		.loc 1 798 7 view .LVU1668
 4573                             	.LVL480:
 799:../src/smc_gen/r_drw2d_rx/src/tes/dave_line.c **** 
 4574                             		.loc 1 799 7 view .LVU1669
 799:../src/smc_gen/r_drw2d_rx/src/tes/dave_line.c **** 
 4575                             		.loc 1 799 26 is_stmt 0 view .LVU1670
 4576 0241 F2 D3 0E 01             		bset	#3, 270[r13].B
 801:../src/smc_gen/r_drw2d_rx/src/tes/dave_line.c ****       grad->x1 = x1;
 4577                             		.loc 1 801 7 is_stmt 1 view .LVU1671
 801:../src/smc_gen/r_drw2d_rx/src/tes/dave_line.c ****       grad->x1 = x1;
 4578                             		.loc 1 801 18 is_stmt 0 view .LVU1672
 4579 0245 F9 D6 1F 21             		mov.L	#33, 124[r13]
 802:../src/smc_gen/r_drw2d_rx/src/tes/dave_line.c ****       grad->y1 = y1;
 4580                             		.loc 1 802 7 is_stmt 1 view .LVU1673
 802:../src/smc_gen/r_drw2d_rx/src/tes/dave_line.c ****       grad->y1 = y1;
 4581                             		.loc 1 802 16 is_stmt 0 view .LVU1674
 4582 0249 ED 0A 14                		mov.L	80[r0], r10
 4583 024c D7 DA 48                		mov.W	r10, 144[r13]
 803:../src/smc_gen/r_drw2d_rx/src/tes/dave_line.c **** 
 4584                             		.loc 1 803 7 is_stmt 1 view .LVU1675
 803:../src/smc_gen/r_drw2d_rx/src/tes/dave_line.c **** 
 4585                             		.loc 1 803 16 is_stmt 0 view .LVU1676
 4586 024f ED 0A 22                		mov.L	136[r0], r10
 4587 0252 D7 DA 49                		mov.W	r10, 146[r13]
 805:../src/smc_gen/r_drw2d_rx/src/tes/dave_line.c ****       {
 4588                             		.loc 1 805 7 is_stmt 1 view .LVU1677
 805:../src/smc_gen/r_drw2d_rx/src/tes/dave_line.c ****       {
 4589                             		.loc 1 805 9 is_stmt 0 view .LVU1678
 4590 0255 FD 74 C5 08             		tst	#8, r5
 4591 0259 3A F7 03                		beq	.L192
 807:../src/smc_gen/r_drw2d_rx/src/tes/dave_line.c ****          grad->yadd = (-edge[0].xadd << 4) / ctx->patscale;  /* PRQA S 4131 */ /* $Misra: #PERF_ARI
 4592                             		.loc 1 807 10 is_stmt 1 view .LVU1679
 807:../src/smc_gen/r_drw2d_rx/src/tes/dave_line.c ****          grad->yadd = (-edge[0].xadd << 4) / ctx->patscale;  /* PRQA S 4131 */ /* $Misra: #PERF_ARI
 4593                             		.loc 1 807 31 is_stmt 0 view .LVU1680
 4594 025c ED 0A 0A                		mov.L	40[r0], r10
 807:../src/smc_gen/r_drw2d_rx/src/tes/dave_line.c ****          grad->yadd = (-edge[0].xadd << 4) / ctx->patscale;  /* PRQA S 4131 */ /* $Misra: #PERF_ARI
 4595                             		.loc 1 807 37 view .LVU1681
 4596 025f 6C 4A                   		shll	#4, r10
 807:../src/smc_gen/r_drw2d_rx/src/tes/dave_line.c ****          grad->yadd = (-edge[0].xadd << 4) / ctx->patscale;  /* PRQA S 4131 */ /* $Misra: #PERF_ARI
 4597                             		.loc 1 807 48 view .LVU1682
 4598 0261 ED D4 34                		mov.L	208[r13], r4
 807:../src/smc_gen/r_drw2d_rx/src/tes/dave_line.c ****          grad->yadd = (-edge[0].xadd << 4) / ctx->patscale;  /* PRQA S 4131 */ /* $Misra: #PERF_ARI
 4599                             		.loc 1 807 43 view .LVU1683
 4600 0264 FC 23 4A                		div	r4, r10
 807:../src/smc_gen/r_drw2d_rx/src/tes/dave_line.c ****          grad->yadd = (-edge[0].xadd << 4) / ctx->patscale;  /* PRQA S 4131 */ /* $Misra: #PERF_ARI
 4601                             		.loc 1 807 21 view .LVU1684
 4602 0267 E7 DA 20                		mov.L	r10, 128[r13]
 808:../src/smc_gen/r_drw2d_rx/src/tes/dave_line.c ****       }
 4603                             		.loc 1 808 10 is_stmt 1 view .LVU1685
 808:../src/smc_gen/r_drw2d_rx/src/tes/dave_line.c ****       }
 4604                             		.loc 1 808 32 is_stmt 0 view .LVU1686
 4605 026a ED 0A 09                		mov.L	36[r0], r10
 808:../src/smc_gen/r_drw2d_rx/src/tes/dave_line.c ****       }
 4606                             		.loc 1 808 24 view .LVU1687
 4607 026d 7E 1A                   		neg	r10
 808:../src/smc_gen/r_drw2d_rx/src/tes/dave_line.c ****       }
 4608                             		.loc 1 808 38 view .LVU1688
 4609 026f 6C 4A                   		shll	#4, r10
 808:../src/smc_gen/r_drw2d_rx/src/tes/dave_line.c ****       }
 4610                             		.loc 1 808 44 view .LVU1689
 4611 0271 FC 23 4A                		div	r4, r10
 808:../src/smc_gen/r_drw2d_rx/src/tes/dave_line.c ****       }
 4612                             		.loc 1 808 21 view .LVU1690
 4613 0274 E7 DA 21                		mov.L	r10, 132[r13]
 4614                             	.L193:
 816:../src/smc_gen/r_drw2d_rx/src/tes/dave_line.c **** 
 4615                             		.loc 1 816 7 is_stmt 1 view .LVU1691
 816:../src/smc_gen/r_drw2d_rx/src/tes/dave_line.c **** 
 4616                             		.loc 1 816 24 is_stmt 0 view .LVU1692
 4617 0277 ED D4 33                		mov.L	204[r13], r4
 816:../src/smc_gen/r_drw2d_rx/src/tes/dave_line.c **** 
 4618                             		.loc 1 816 36 view .LVU1693
 4619 027a FD CC 4A                		shll	#12, r4, r10
 816:../src/smc_gen/r_drw2d_rx/src/tes/dave_line.c **** 
 4620                             		.loc 1 816 19 view .LVU1694
 4621 027d E7 DA 22                		mov.L	r10, 136[r13]
 819:../src/smc_gen/r_drw2d_rx/src/tes/dave_line.c ****       {
 4622                             		.loc 1 819 7 is_stmt 1 view .LVU1695
 819:../src/smc_gen/r_drw2d_rx/src/tes/dave_line.c ****       {
 4623                             		.loc 1 819 9 is_stmt 0 view .LVU1696
 4624 0280 FD 74 C5 04             		tst	#4, r5
 4625 0284 20 12                   		beq	.L191
 821:../src/smc_gen/r_drw2d_rx/src/tes/dave_line.c ****       }
 4626                             		.loc 1 821 10 is_stmt 1 view .LVU1697
 821:../src/smc_gen/r_drw2d_rx/src/tes/dave_line.c ****       }
 4627                             		.loc 1 821 31 is_stmt 0 view .LVU1698
 4628 0286 ED 0A 24                		mov.L	144[r0], r10
 4629 0289 6C 4A                   		shll	#4, r10
 821:../src/smc_gen/r_drw2d_rx/src/tes/dave_line.c ****       }
 4630                             		.loc 1 821 42 view .LVU1699
 4631 028b ED D5 34                		mov.L	208[r13], r5
 821:../src/smc_gen/r_drw2d_rx/src/tes/dave_line.c ****       }
 4632                             		.loc 1 821 37 view .LVU1700
 4633 028e FC 23 5A                		div	r5, r10
 821:../src/smc_gen/r_drw2d_rx/src/tes/dave_line.c ****       }
 4634                             		.loc 1 821 25 view .LVU1701
 4635 0291 4B 4A                   		add	r4, r10
 4636 0293 E7 DA 33                		mov.L	r10, 204[r13]
 4637                             	.LVL481:
 4638                             	.L191:
 821:../src/smc_gen/r_drw2d_rx/src/tes/dave_line.c ****       }
 4639                             		.loc 1 821 25 view .LVU1702
 4640                             	.LBE627:
 826:../src/smc_gen/r_drw2d_rx/src/tes/dave_line.c ****    {
 4641                             		.loc 1 826 4 is_stmt 1 view .LVU1703
 826:../src/smc_gen/r_drw2d_rx/src/tes/dave_line.c ****    {
 4642                             		.loc 1 826 11 is_stmt 0 view .LVU1704
 4643 0296 ED 0A 1E                		mov.L	120[r0], r10
 4644 0299 43 AC                   		sub	r10, r12
 4645                             	.LVL482:
 826:../src/smc_gen/r_drw2d_rx/src/tes/dave_line.c ****    {
 4646                             		.loc 1 826 6 view .LVU1705
 4647 029b 61 0C                   		cmp	#0, r12
 4648 029d 2A 05 38 CD 03          		ble	.L194
 828:../src/smc_gen/r_drw2d_rx/src/tes/dave_line.c ****       dly = dy - cy;
 4649                             		.loc 1 828 7 is_stmt 1 view .LVU1706
 828:../src/smc_gen/r_drw2d_rx/src/tes/dave_line.c ****       dly = dy - cy;
 4650                             		.loc 1 828 11 is_stmt 0 view .LVU1707
 4651 02a2 ED 0A 1F                		mov.L	124[r0], r10
 4652 02a5 43 A9                   		sub	r10, r9
 4653                             	.LVL483:
 829:../src/smc_gen/r_drw2d_rx/src/tes/dave_line.c ****    }
 4654                             		.loc 1 829 7 is_stmt 1 view .LVU1708
 4655                             	.L195:
 837:../src/smc_gen/r_drw2d_rx/src/tes/dave_line.c ****    {
 4656                             		.loc 1 837 4 view .LVU1709
 837:../src/smc_gen/r_drw2d_rx/src/tes/dave_line.c ****    {
 4657                             		.loc 1 837 6 is_stmt 0 view .LVU1710
 4658 02a7 61 0C                   		cmp	#0, r12
 4659 02a9 2B 06                   		ble	.L196
 837:../src/smc_gen/r_drw2d_rx/src/tes/dave_line.c ****    {
 4660                             		.loc 1 837 19 discriminator 1 view .LVU1711
 4661 02ab 61 09                   		cmp	#0, r9
 4662 02ad 29 10                   		blt	.L197
 4663                             	.L196:
 837:../src/smc_gen/r_drw2d_rx/src/tes/dave_line.c ****    {
 4664                             		.loc 1 837 33 discriminator 3 view .LVU1712
 4665 02af 61 0C                   		cmp	#0, r12
 4666 02b1 29 05 38 D5 03          		bge	.L198
 837:../src/smc_gen/r_drw2d_rx/src/tes/dave_line.c ****    {
 4667                             		.loc 1 837 47 discriminator 4 view .LVU1713
 4668 02b6 61 09                   		cmp	#0, r9
 4669 02b8 2A 05 38 CE 03          		ble	.L198
 4670                             	.L197:
 839:../src/smc_gen/r_drw2d_rx/src/tes/dave_line.c **** 
 4671                             		.loc 1 839 7 is_stmt 1 view .LVU1714
 4672                             	.LVL484:
 841:../src/smc_gen/r_drw2d_rx/src/tes/dave_line.c ****       d2_setuptexture( handle, ctx, &bbox, 1 );
 4673                             		.loc 1 841 7 view .LVU1715
 4674 02bd 66 14                   		mov.L	#1, r4
 4675 02bf 75 43 10                		mov.L	#16, r3
 4676 02c2 4B 03                   		add	r0, r3
 4677 02c4 EF D2                   		mov.L	r13, r2
 4678 02c6 EF 71                   		mov.L	r7, r1
 4679 02c8 05 00 00 00             		bsr	_d2_setuppattern
 4680                             	.LVL485:
 842:../src/smc_gen/r_drw2d_rx/src/tes/dave_line.c **** 
 4681                             		.loc 1 842 7 view .LVU1716
 4682 02cc 66 14                   		mov.L	#1, r4
 4683 02ce 75 43 10                		mov.L	#16, r3
 4684 02d1 4B 03                   		add	r0, r3
 4685 02d3 EF D2                   		mov.L	r13, r2
 4686 02d5 EF 71                   		mov.L	r7, r1
 4687 02d7 05 00 00 00             		bsr	_d2_setuptexture
 4688                             	.LVL486:
 845:../src/smc_gen/r_drw2d_rx/src/tes/dave_line.c ****       {
 4689                             		.loc 1 845 7 view .LVU1717
 845:../src/smc_gen/r_drw2d_rx/src/tes/dave_line.c ****       {
 4690                             		.loc 1 845 9 is_stmt 0 view .LVU1718
 4691 02db ED 0A 15                		mov.L	84[r0], r10
 4692 02de 47 A6                   		cmp	r10, r6
 4693 02e0 29 05 38 9B 03          		bge	.L199
 847:../src/smc_gen/r_drw2d_rx/src/tes/dave_line.c ****       }
 4694                             		.loc 1 847 10 is_stmt 1 view .LVU1719
 847:../src/smc_gen/r_drw2d_rx/src/tes/dave_line.c ****       }
 4695                             		.loc 1 847 32 is_stmt 0 view .LVU1720
 4696 02e5 DD 08 0B                		mov.W	22[r0], r8
 4697                             	.LVL487:
 847:../src/smc_gen/r_drw2d_rx/src/tes/dave_line.c ****       }
 4698                             		.loc 1 847 16 view .LVU1721
 4699 02e8 FF 0A A8                		sub	r10, r8, r10
 4700                             	.LVL488:
 839:../src/smc_gen/r_drw2d_rx/src/tes/dave_line.c **** 
 4701                             		.loc 1 839 12 view .LVU1722
 4702 02eb 66 1C                   		mov.L	#1, r12
 4703                             	.LVL489:
 4704 02ed FC 13 00                		.balign 8,3,5
 4705                             	.L200:
 872:../src/smc_gen/r_drw2d_rx/src/tes/dave_line.c **** 
 4706                             		.loc 1 872 4 is_stmt 1 view .LVU1723
 872:../src/smc_gen/r_drw2d_rx/src/tes/dave_line.c **** 
 4707                             		.loc 1 872 40 is_stmt 0 view .LVU1724
 4708 02f0 DD 08 3B                		mov.W	118[r0], r8
 4709 02f3 DD 05 3A                		mov.W	116[r0], r5
 4710 02f6 FC 13 58                		max	r5, r8
 872:../src/smc_gen/r_drw2d_rx/src/tes/dave_line.c **** 
 4711                             		.loc 1 872 46 view .LVU1725
 4712 02f9 6A 48                   		shar	#4, r8
 872:../src/smc_gen/r_drw2d_rx/src/tes/dave_line.c **** 
 4713                             		.loc 1 872 10 view .LVU1726
 4714 02fb 4B A8                   		add	r10, r8
 4715 02fd E7 08 1A                		mov.L	r8, 104[r0]
 4716                             	.LVL490:
 874:../src/smc_gen/r_drw2d_rx/src/tes/dave_line.c ****       D2C_LIM1ENABLE | 
 4717                             		.loc 1 874 4 is_stmt 1 view .LVU1727
 879:../src/smc_gen/r_drw2d_rx/src/tes/dave_line.c ****       D2C_SPANABORT  | 
 4718                             		.loc 1 879 14 is_stmt 0 view .LVU1728
 4719 0300 FB AA 00 1E             		mov.L	#0x1e00, r10
 4720 0304 53 BA                   		and	r11, r10
 874:../src/smc_gen/r_drw2d_rx/src/tes/dave_line.c ****       D2C_LIM1ENABLE | 
 4721                             		.loc 1 874 12 view .LVU1729
 4722 0306 74 3A 0F 00 C0 00       		or	#0xc0000f, r10
 4723                             	.LVL491:
 884:../src/smc_gen/r_drw2d_rx/src/tes/dave_line.c ****    {
 4724                             		.loc 1 884 4 is_stmt 1 view .LVU1730
 884:../src/smc_gen/r_drw2d_rx/src/tes/dave_line.c ****    {
 4725                             		.loc 1 884 16 is_stmt 0 view .LVU1731
 4726 030c CD D5 16                		mov.B	22[r13], r5
 884:../src/smc_gen/r_drw2d_rx/src/tes/dave_line.c ****    {
 4727                             		.loc 1 884 6 view .LVU1732
 4728 030f 64 65                   		and	#6, r5
 4729 0311 3B B3 03                		bne	.L252
 4730                             	.LVL492:
 4731                             	.L202:
 895:../src/smc_gen/r_drw2d_rx/src/tes/dave_line.c ****    {
 4732                             		.loc 1 895 4 is_stmt 1 view .LVU1733
 895:../src/smc_gen/r_drw2d_rx/src/tes/dave_line.c ****    {
 4733                             		.loc 1 895 6 is_stmt 0 view .LVU1734
 4734 0314 ED 0E 16                		mov.L	88[r0], r14
 4735 0317 FD 74 CE 01             		tst	#1, r14
 4736 031b 3A CB 03                		beq	.L203
 898:../src/smc_gen/r_drw2d_rx/src/tes/dave_line.c ****       xp = xe;
 4737                             		.loc 1 898 7 is_stmt 1 view .LVU1735
 898:../src/smc_gen/r_drw2d_rx/src/tes/dave_line.c ****       xp = xe;
 4738                             		.loc 1 898 14 is_stmt 0 view .LVU1736
 4739 031e DD 09 3A                		mov.W	116[r0], r9
 4740                             	.LVL493:
 898:../src/smc_gen/r_drw2d_rx/src/tes/dave_line.c ****       xp = xe;
 4741                             		.loc 1 898 9 view .LVU1737
 4742 0321 6A 19                   		shar	#1, r9
 4743                             	.LVL494:
 899:../src/smc_gen/r_drw2d_rx/src/tes/dave_line.c ****       yp = ye;
 4744                             		.loc 1 899 7 is_stmt 1 view .LVU1738
 900:../src/smc_gen/r_drw2d_rx/src/tes/dave_line.c ****       l = 1;
 4745                             		.loc 1 900 7 view .LVU1739
 901:../src/smc_gen/r_drw2d_rx/src/tes/dave_line.c ****       cap2 = 0;
 4746                             		.loc 1 901 7 view .LVU1740
 902:../src/smc_gen/r_drw2d_rx/src/tes/dave_line.c ****    }
 4747                             		.loc 1 902 7 view .LVU1741
 900:../src/smc_gen/r_drw2d_rx/src/tes/dave_line.c ****       l = 1;
 4748                             		.loc 1 900 10 is_stmt 0 view .LVU1742
 4749 0323 A6 8E                   		mov.L	r6, 108[r0]
 899:../src/smc_gen/r_drw2d_rx/src/tes/dave_line.c ****       yp = ye;
 4750                             		.loc 1 899 10 view .LVU1743
 4751 0325 E5 00 17 19             		mov.L	92[r0], 100[r0]
 902:../src/smc_gen/r_drw2d_rx/src/tes/dave_line.c ****    }
 4752                             		.loc 1 902 12 view .LVU1744
 4753 0329 3E 84 00                		mov.L	#0, 80[r0]
 4754                             	.LVL495:
 901:../src/smc_gen/r_drw2d_rx/src/tes/dave_line.c ****       cap2 = 0;
 4755                             		.loc 1 901 9 view .LVU1745
 4756 032c 66 18                   		mov.L	#1, r8
 4757                             	.LVL496:
 4758                             		.balign 8,3,1
 4759                             	.L204:
 936:../src/smc_gen/r_drw2d_rx/src/tes/dave_line.c ****    {
 4760                             		.loc 1 936 4 is_stmt 1 view .LVU1746
 936:../src/smc_gen/r_drw2d_rx/src/tes/dave_line.c ****    {
 4761                             		.loc 1 936 6 is_stmt 0 view .LVU1747
 4762 032e AD 03                   		mov.L	80[r0], r3
 4763 0330 61 03                   		cmp	#0, r3
 4764 0332 20 2E                   		beq	.L207
 938:../src/smc_gen/r_drw2d_rx/src/tes/dave_line.c ****       *edge_bbox = bbox;
 4765                             		.loc 1 938 7 is_stmt 1 view .LVU1748
 938:../src/smc_gen/r_drw2d_rx/src/tes/dave_line.c ****       *edge_bbox = bbox;
 4766                             		.loc 1 938 39 is_stmt 0 view .LVU1749
 4767 0334 EF 85                   		mov.L	r8, r5
 4768 0336 FD E0 F5                		bnot	#0, r5
 938:../src/smc_gen/r_drw2d_rx/src/tes/dave_line.c ****       *edge_bbox = bbox;
 4769                             		.loc 1 938 22 view .LVU1750
 4770 0339 63 C5                   		mul	#12, r5
 4771 033b 75 44 10                		mov.L	#16, r4
 4772 033e 4B 04                   		add	r0, r4
 4773 0340 4B 45                   		add	r4, r5
 4774 0342 ED 04 26                		mov.L	152[r0], r4
 4775 0345 ED 5E 04                		mov.L	16[r5], r14
 4776 0348 FD 22 4E                		mov.L	r14, [r4+]
 4777 034b ED 0F 26                		mov.L	152[r0], r15
 4778 034e E5 5F 05 01             		mov.L	20[r5], 4[r15]
 4779 0352 E5 54 06 01             		mov.L	24[r5], 4[r4]
 939:../src/smc_gen/r_drw2d_rx/src/tes/dave_line.c ****    }
 4780                             		.loc 1 939 7 is_stmt 1 view .LVU1751
 939:../src/smc_gen/r_drw2d_rx/src/tes/dave_line.c ****    }
 4781                             		.loc 1 939 18 is_stmt 0 view .LVU1752
 4782 0356 ED 03 27                		mov.L	156[r0], r3
 4783 0359 E1 03 04                		mov.L	16[r0], [r3]
 4784 035c E5 03 05 01             		mov.L	20[r0], 4[r3]
 4785                             	.L207:
 943:../src/smc_gen/r_drw2d_rx/src/tes/dave_line.c ****    {
 4786                             		.loc 1 943 4 is_stmt 1 view .LVU1753
 943:../src/smc_gen/r_drw2d_rx/src/tes/dave_line.c ****    {
 4787                             		.loc 1 943 6 is_stmt 0 view .LVU1754
 4788 0360 61 0C                   		cmp	#0, r12
 4789 0362 3B D4 03                		bne	.L253
 953:../src/smc_gen/r_drw2d_rx/src/tes/dave_line.c ****    }
 4790                             		.loc 1 953 9 view .LVU1755
 4791 0365 E7 0C 16                		mov.L	r12, 88[r0]
 4792                             	.LVL497:
 4793                             	.L208:
 956:../src/smc_gen/r_drw2d_rx/src/tes/dave_line.c **** 
 4794                             		.loc 1 956 4 is_stmt 1 view .LVU1756
 4795                             	.LBB628:
 4796                             	.LBI628:
 319:../src/smc_gen/r_drw2d_rx/src/tes/dave_intern.h **** {
 4797                             		.loc 2 319 23 view .LVU1757
 4798                             	.LBB629:
 321:../src/smc_gen/r_drw2d_rx/src/tes/dave_intern.h ****    handle->dlscratch_pos++;
 4799                             		.loc 2 321 4 view .LVU1758
 321:../src/smc_gen/r_drw2d_rx/src/tes/dave_intern.h ****    handle->dlscratch_pos++;
 4800                             		.loc 2 321 28 is_stmt 0 view .LVU1759
 4801 0368 ED 75 6E                		mov.L	440[r7], r5
 4802                             	.LVL498:
 322:../src/smc_gen/r_drw2d_rx/src/tes/dave_intern.h **** 
 4803                             		.loc 2 322 4 is_stmt 1 view .LVU1760
 322:../src/smc_gen/r_drw2d_rx/src/tes/dave_intern.h **** 
 4804                             		.loc 2 322 25 is_stmt 0 view .LVU1761
 4805 036b 71 54 08                		add	#8, r5, r4
 4806 036e E7 74 6E                		mov.L	r4, 440[r7]
 324:../src/smc_gen/r_drw2d_rx/src/tes/dave_intern.h ****    entry->value = value;
 4807                             		.loc 2 324 4 is_stmt 1 view .LVU1762
 324:../src/smc_gen/r_drw2d_rx/src/tes/dave_intern.h ****    entry->value = value;
 4808                             		.loc 2 324 17 is_stmt 0 view .LVU1763
 4809 0371 F8 56 00                		mov.L	#0, [r5]
 325:../src/smc_gen/r_drw2d_rx/src/tes/dave_intern.h **** 
 4810                             		.loc 2 325 4 is_stmt 1 view .LVU1764
 325:../src/smc_gen/r_drw2d_rx/src/tes/dave_intern.h **** 
 4811                             		.loc 2 325 17 is_stmt 0 view .LVU1765
 4812 0374 E7 5A 01                		mov.L	r10, 4[r5]
 327:../src/smc_gen/r_drw2d_rx/src/tes/dave_intern.h ****    if(handle->dlscratch_cnt <= 0)
 4813                             		.loc 2 327 4 is_stmt 1 view .LVU1766
 327:../src/smc_gen/r_drw2d_rx/src/tes/dave_intern.h ****    if(handle->dlscratch_cnt <= 0)
 4814                             		.loc 2 327 12 is_stmt 0 view .LVU1767
 4815 0377 ED 7A 6F                		mov.L	444[r7], r10
 4816                             	.LVL499:
 327:../src/smc_gen/r_drw2d_rx/src/tes/dave_intern.h ****    if(handle->dlscratch_cnt <= 0)
 4817                             		.loc 2 327 4 view .LVU1768
 4818 037a 60 1A                   		sub	#1, r10
 4819 037c E7 7A 6F                		mov.L	r10, 444[r7]
 4820                             	.LVL500:
 328:../src/smc_gen/r_drw2d_rx/src/tes/dave_intern.h ****    {
 4821                             		.loc 2 328 4 is_stmt 1 view .LVU1769
 328:../src/smc_gen/r_drw2d_rx/src/tes/dave_intern.h ****    {
 4822                             		.loc 2 328 6 is_stmt 0 view .LVU1770
 4823 037f 61 0A                   		cmp	#0, r10
 4824 0381 2A 05 38 E4 03          		ble	.L254
 4825                             	.LVL501:
 4826                             	.L209:
 328:../src/smc_gen/r_drw2d_rx/src/tes/dave_intern.h ****    {
 4827                             		.loc 2 328 6 view .LVU1771
 4828                             	.LBE629:
 4829                             	.LBE628:
 959:../src/smc_gen/r_drw2d_rx/src/tes/dave_line.c ****    {
 4830                             		.loc 1 959 4 is_stmt 1 view .LVU1772
 959:../src/smc_gen/r_drw2d_rx/src/tes/dave_line.c ****    {
 4831                             		.loc 1 959 13 is_stmt 0 view .LVU1773
 4832 0386 CD D5 D5                		mov.B	213[r13], r5
 959:../src/smc_gen/r_drw2d_rx/src/tes/dave_line.c ****    {
 4833                             		.loc 1 959 6 view .LVU1774
 4834 0389 64 35                   		and #3, r5
 4835 038b 61 35                   		cmp	#3, r5
 4836 038d 3A E4 03                		beq	.L255
 4837                             		.balign 8,3,1
 4838                             	.L210:
 976:../src/smc_gen/r_drw2d_rx/src/tes/dave_line.c ****    D2_DLISTWRITES( D2_L1XADD , edge[0].xadd );
 4839                             		.loc 1 976 4 is_stmt 1 view .LVU1775
 4840 0390 AA 05                   		mov.L	32[r0], r5
 4841                             	.LVL502:
 4842                             	.LBB633:
 4843                             	.LBI633:
 319:../src/smc_gen/r_drw2d_rx/src/tes/dave_intern.h **** {
 4844                             		.loc 2 319 23 view .LVU1776
 4845                             	.LBB634:
 321:../src/smc_gen/r_drw2d_rx/src/tes/dave_intern.h ****    handle->dlscratch_pos++;
 4846                             		.loc 2 321 4 view .LVU1777
 321:../src/smc_gen/r_drw2d_rx/src/tes/dave_intern.h ****    handle->dlscratch_pos++;
 4847                             		.loc 2 321 28 is_stmt 0 view .LVU1778
 4848 0392 ED 7A 6E                		mov.L	440[r7], r10
 4849                             	.LVL503:
 322:../src/smc_gen/r_drw2d_rx/src/tes/dave_intern.h **** 
 4850                             		.loc 2 322 4 is_stmt 1 view .LVU1779
 322:../src/smc_gen/r_drw2d_rx/src/tes/dave_intern.h **** 
 4851                             		.loc 2 322 25 is_stmt 0 view .LVU1780
 4852 0395 71 A4 08                		add	#8, r10, r4
 4853 0398 E7 74 6E                		mov.L	r4, 440[r7]
 324:../src/smc_gen/r_drw2d_rx/src/tes/dave_intern.h ****    entry->value = value;
 4854                             		.loc 2 324 4 is_stmt 1 view .LVU1781
 324:../src/smc_gen/r_drw2d_rx/src/tes/dave_intern.h ****    entry->value = value;
 4855                             		.loc 2 324 17 is_stmt 0 view .LVU1782
 4856 039b F8 A6 04                		mov.L	#4, [r10]
 325:../src/smc_gen/r_drw2d_rx/src/tes/dave_intern.h **** 
 4857                             		.loc 2 325 4 is_stmt 1 view .LVU1783
 325:../src/smc_gen/r_drw2d_rx/src/tes/dave_intern.h **** 
 4858                             		.loc 2 325 17 is_stmt 0 view .LVU1784
 4859 039e E7 A5 01                		mov.L	r5, 4[r10]
 327:../src/smc_gen/r_drw2d_rx/src/tes/dave_intern.h ****    if(handle->dlscratch_cnt <= 0)
 4860                             		.loc 2 327 4 is_stmt 1 view .LVU1785
 327:../src/smc_gen/r_drw2d_rx/src/tes/dave_intern.h ****    if(handle->dlscratch_cnt <= 0)
 4861                             		.loc 2 327 12 is_stmt 0 view .LVU1786
 4862 03a1 ED 7A 6F                		mov.L	444[r7], r10
 4863                             	.LVL504:
 327:../src/smc_gen/r_drw2d_rx/src/tes/dave_intern.h ****    if(handle->dlscratch_cnt <= 0)
 4864                             		.loc 2 327 4 view .LVU1787
 4865 03a4 60 1A                   		sub	#1, r10
 4866 03a6 E7 7A 6F                		mov.L	r10, 444[r7]
 328:../src/smc_gen/r_drw2d_rx/src/tes/dave_intern.h ****    {
 4867                             		.loc 2 328 4 is_stmt 1 view .LVU1788
 328:../src/smc_gen/r_drw2d_rx/src/tes/dave_intern.h ****    {
 4868                             		.loc 2 328 6 is_stmt 0 view .LVU1789
 4869 03a9 61 0A                   		cmp	#0, r10
 4870 03ab 2A 05 38 26 04          		ble	.L256
 4871                             	.LVL505:
 4872                             	.L212:
 328:../src/smc_gen/r_drw2d_rx/src/tes/dave_intern.h ****    {
 4873                             		.loc 2 328 6 view .LVU1790
 4874                             	.LBE634:
 4875                             	.LBE633:
 977:../src/smc_gen/r_drw2d_rx/src/tes/dave_line.c ****    D2_DLISTWRITES( D2_L1YADD , edge[0].yadd );
 4876                             		.loc 1 977 4 is_stmt 1 view .LVU1791
 4877 03b0 AA 0D                   		mov.L	36[r0], r5
 4878                             	.LVL506:
 4879                             	.LBB638:
 4880                             	.LBI638:
 319:../src/smc_gen/r_drw2d_rx/src/tes/dave_intern.h **** {
 4881                             		.loc 2 319 23 view .LVU1792
 4882                             	.LBB639:
 321:../src/smc_gen/r_drw2d_rx/src/tes/dave_intern.h ****    handle->dlscratch_pos++;
 4883                             		.loc 2 321 4 view .LVU1793
 321:../src/smc_gen/r_drw2d_rx/src/tes/dave_intern.h ****    handle->dlscratch_pos++;
 4884                             		.loc 2 321 28 is_stmt 0 view .LVU1794
 4885 03b2 ED 7A 6E                		mov.L	440[r7], r10
 4886                             	.LVL507:
 322:../src/smc_gen/r_drw2d_rx/src/tes/dave_intern.h **** 
 4887                             		.loc 2 322 4 is_stmt 1 view .LVU1795
 322:../src/smc_gen/r_drw2d_rx/src/tes/dave_intern.h **** 
 4888                             		.loc 2 322 25 is_stmt 0 view .LVU1796
 4889 03b5 71 A4 08                		add	#8, r10, r4
 4890 03b8 E7 74 6E                		mov.L	r4, 440[r7]
 324:../src/smc_gen/r_drw2d_rx/src/tes/dave_intern.h ****    entry->value = value;
 4891                             		.loc 2 324 4 is_stmt 1 view .LVU1797
 324:../src/smc_gen/r_drw2d_rx/src/tes/dave_intern.h ****    entry->value = value;
 4892                             		.loc 2 324 17 is_stmt 0 view .LVU1798
 4893 03bb F8 A6 0A                		mov.L	#10, [r10]
 325:../src/smc_gen/r_drw2d_rx/src/tes/dave_intern.h **** 
 4894                             		.loc 2 325 4 is_stmt 1 view .LVU1799
 325:../src/smc_gen/r_drw2d_rx/src/tes/dave_intern.h **** 
 4895                             		.loc 2 325 17 is_stmt 0 view .LVU1800
 4896 03be E7 A5 01                		mov.L	r5, 4[r10]
 327:../src/smc_gen/r_drw2d_rx/src/tes/dave_intern.h ****    if(handle->dlscratch_cnt <= 0)
 4897                             		.loc 2 327 4 is_stmt 1 view .LVU1801
 327:../src/smc_gen/r_drw2d_rx/src/tes/dave_intern.h ****    if(handle->dlscratch_cnt <= 0)
 4898                             		.loc 2 327 12 is_stmt 0 view .LVU1802
 4899 03c1 ED 7A 6F                		mov.L	444[r7], r10
 4900                             	.LVL508:
 327:../src/smc_gen/r_drw2d_rx/src/tes/dave_intern.h ****    if(handle->dlscratch_cnt <= 0)
 4901                             		.loc 2 327 4 view .LVU1803
 4902 03c4 60 1A                   		sub	#1, r10
 4903 03c6 E7 7A 6F                		mov.L	r10, 444[r7]
 328:../src/smc_gen/r_drw2d_rx/src/tes/dave_intern.h ****    {
 4904                             		.loc 2 328 4 is_stmt 1 view .LVU1804
 328:../src/smc_gen/r_drw2d_rx/src/tes/dave_intern.h ****    {
 4905                             		.loc 2 328 6 is_stmt 0 view .LVU1805
 4906 03c9 61 0A                   		cmp	#0, r10
 4907 03cb 2A 05 38 10 04          		ble	.L257
 4908                             	.LVL509:
 4909                             	.L213:
 328:../src/smc_gen/r_drw2d_rx/src/tes/dave_intern.h ****    {
 4910                             		.loc 2 328 6 view .LVU1806
 4911                             	.LBE639:
 4912                             	.LBE638:
 978:../src/smc_gen/r_drw2d_rx/src/tes/dave_line.c ****    D2_DLISTWRITES( D2_L2START, edge[1].start );
 4913                             		.loc 1 978 4 is_stmt 1 view .LVU1807
 4914 03d0 AA 85                   		mov.L	40[r0], r5
 4915                             	.LVL510:
 4916                             	.LBB643:
 4917                             	.LBI643:
 319:../src/smc_gen/r_drw2d_rx/src/tes/dave_intern.h **** {
 4918                             		.loc 2 319 23 view .LVU1808
 4919                             	.LBB644:
 321:../src/smc_gen/r_drw2d_rx/src/tes/dave_intern.h ****    handle->dlscratch_pos++;
 4920                             		.loc 2 321 4 view .LVU1809
 321:../src/smc_gen/r_drw2d_rx/src/tes/dave_intern.h ****    handle->dlscratch_pos++;
 4921                             		.loc 2 321 28 is_stmt 0 view .LVU1810
 4922 03d2 ED 7A 6E                		mov.L	440[r7], r10
 4923                             	.LVL511:
 322:../src/smc_gen/r_drw2d_rx/src/tes/dave_intern.h **** 
 4924                             		.loc 2 322 4 is_stmt 1 view .LVU1811
 322:../src/smc_gen/r_drw2d_rx/src/tes/dave_intern.h **** 
 4925                             		.loc 2 322 25 is_stmt 0 view .LVU1812
 4926 03d5 71 A4 08                		add	#8, r10, r4
 4927 03d8 E7 74 6E                		mov.L	r4, 440[r7]
 324:../src/smc_gen/r_drw2d_rx/src/tes/dave_intern.h ****    entry->value = value;
 4928                             		.loc 2 324 4 is_stmt 1 view .LVU1813
 324:../src/smc_gen/r_drw2d_rx/src/tes/dave_intern.h ****    entry->value = value;
 4929                             		.loc 2 324 17 is_stmt 0 view .LVU1814
 4930 03db F8 A6 10                		mov.L	#16, [r10]
 325:../src/smc_gen/r_drw2d_rx/src/tes/dave_intern.h **** 
 4931                             		.loc 2 325 4 is_stmt 1 view .LVU1815
 325:../src/smc_gen/r_drw2d_rx/src/tes/dave_intern.h **** 
 4932                             		.loc 2 325 17 is_stmt 0 view .LVU1816
 4933 03de E7 A5 01                		mov.L	r5, 4[r10]
 327:../src/smc_gen/r_drw2d_rx/src/tes/dave_intern.h ****    if(handle->dlscratch_cnt <= 0)
 4934                             		.loc 2 327 4 is_stmt 1 view .LVU1817
 327:../src/smc_gen/r_drw2d_rx/src/tes/dave_intern.h ****    if(handle->dlscratch_cnt <= 0)
 4935                             		.loc 2 327 12 is_stmt 0 view .LVU1818
 4936 03e1 ED 7A 6F                		mov.L	444[r7], r10
 4937                             	.LVL512:
 327:../src/smc_gen/r_drw2d_rx/src/tes/dave_intern.h ****    if(handle->dlscratch_cnt <= 0)
 4938                             		.loc 2 327 4 view .LVU1819
 4939 03e4 60 1A                   		sub	#1, r10
 4940 03e6 E7 7A 6F                		mov.L	r10, 444[r7]
 328:../src/smc_gen/r_drw2d_rx/src/tes/dave_intern.h ****    {
 4941                             		.loc 2 328 4 is_stmt 1 view .LVU1820
 328:../src/smc_gen/r_drw2d_rx/src/tes/dave_intern.h ****    {
 4942                             		.loc 2 328 6 is_stmt 0 view .LVU1821
 4943 03e9 61 0A                   		cmp	#0, r10
 4944 03eb 2A 05 38 FA 03          		ble	.L258
 4945                             	.LVL513:
 4946                             	.L214:
 328:../src/smc_gen/r_drw2d_rx/src/tes/dave_intern.h ****    {
 4947                             		.loc 2 328 6 view .LVU1822
 4948                             	.LBE644:
 4949                             	.LBE643:
 979:../src/smc_gen/r_drw2d_rx/src/tes/dave_line.c ****    D2_DLISTWRITES( D2_L2XADD , edge[1].xadd );
 4950                             		.loc 1 979 4 is_stmt 1 view .LVU1823
 4951 03f0 AA 8D                   		mov.L	44[r0], r5
 4952                             	.LVL514:
 4953                             	.LBB648:
 4954                             	.LBI648:
 319:../src/smc_gen/r_drw2d_rx/src/tes/dave_intern.h **** {
 4955                             		.loc 2 319 23 view .LVU1824
 4956                             	.LBB649:
 321:../src/smc_gen/r_drw2d_rx/src/tes/dave_intern.h ****    handle->dlscratch_pos++;
 4957                             		.loc 2 321 4 view .LVU1825
 321:../src/smc_gen/r_drw2d_rx/src/tes/dave_intern.h ****    handle->dlscratch_pos++;
 4958                             		.loc 2 321 28 is_stmt 0 view .LVU1826
 4959 03f2 ED 7A 6E                		mov.L	440[r7], r10
 4960                             	.LVL515:
 322:../src/smc_gen/r_drw2d_rx/src/tes/dave_intern.h **** 
 4961                             		.loc 2 322 4 is_stmt 1 view .LVU1827
 322:../src/smc_gen/r_drw2d_rx/src/tes/dave_intern.h **** 
 4962                             		.loc 2 322 25 is_stmt 0 view .LVU1828
 4963 03f5 71 A4 08                		add	#8, r10, r4
 4964 03f8 E7 74 6E                		mov.L	r4, 440[r7]
 324:../src/smc_gen/r_drw2d_rx/src/tes/dave_intern.h ****    entry->value = value;
 4965                             		.loc 2 324 4 is_stmt 1 view .LVU1829
 324:../src/smc_gen/r_drw2d_rx/src/tes/dave_intern.h ****    entry->value = value;
 4966                             		.loc 2 324 17 is_stmt 0 view .LVU1830
 4967 03fb F8 A6 05                		mov.L	#5, [r10]
 325:../src/smc_gen/r_drw2d_rx/src/tes/dave_intern.h **** 
 4968                             		.loc 2 325 4 is_stmt 1 view .LVU1831
 325:../src/smc_gen/r_drw2d_rx/src/tes/dave_intern.h **** 
 4969                             		.loc 2 325 17 is_stmt 0 view .LVU1832
 4970 03fe E7 A5 01                		mov.L	r5, 4[r10]
 327:../src/smc_gen/r_drw2d_rx/src/tes/dave_intern.h ****    if(handle->dlscratch_cnt <= 0)
 4971                             		.loc 2 327 4 is_stmt 1 view .LVU1833
 327:../src/smc_gen/r_drw2d_rx/src/tes/dave_intern.h ****    if(handle->dlscratch_cnt <= 0)
 4972                             		.loc 2 327 12 is_stmt 0 view .LVU1834
 4973 0401 ED 7A 6F                		mov.L	444[r7], r10
 4974                             	.LVL516:
 327:../src/smc_gen/r_drw2d_rx/src/tes/dave_intern.h ****    if(handle->dlscratch_cnt <= 0)
 4975                             		.loc 2 327 4 view .LVU1835
 4976 0404 60 1A                   		sub	#1, r10
 4977 0406 E7 7A 6F                		mov.L	r10, 444[r7]
 328:../src/smc_gen/r_drw2d_rx/src/tes/dave_intern.h ****    {
 4978                             		.loc 2 328 4 is_stmt 1 view .LVU1836
 328:../src/smc_gen/r_drw2d_rx/src/tes/dave_intern.h ****    {
 4979                             		.loc 2 328 6 is_stmt 0 view .LVU1837
 4980 0409 61 0A                   		cmp	#0, r10
 4981 040b 2A 05 38 E4 03          		ble	.L259
 4982                             	.LVL517:
 4983                             	.L215:
 328:../src/smc_gen/r_drw2d_rx/src/tes/dave_intern.h ****    {
 4984                             		.loc 2 328 6 view .LVU1838
 4985                             	.LBE649:
 4986                             	.LBE648:
 980:../src/smc_gen/r_drw2d_rx/src/tes/dave_line.c ****    D2_DLISTWRITES( D2_L2YADD , edge[1].yadd );
 4987                             		.loc 1 980 4 is_stmt 1 view .LVU1839
 4988 0410 AB 05                   		mov.L	48[r0], r5
 4989                             	.LVL518:
 4990                             	.LBB653:
 4991                             	.LBI653:
 319:../src/smc_gen/r_drw2d_rx/src/tes/dave_intern.h **** {
 4992                             		.loc 2 319 23 view .LVU1840
 4993                             	.LBB654:
 321:../src/smc_gen/r_drw2d_rx/src/tes/dave_intern.h ****    handle->dlscratch_pos++;
 4994                             		.loc 2 321 4 view .LVU1841
 321:../src/smc_gen/r_drw2d_rx/src/tes/dave_intern.h ****    handle->dlscratch_pos++;
 4995                             		.loc 2 321 28 is_stmt 0 view .LVU1842
 4996 0412 ED 7A 6E                		mov.L	440[r7], r10
 4997                             	.LVL519:
 322:../src/smc_gen/r_drw2d_rx/src/tes/dave_intern.h **** 
 4998                             		.loc 2 322 4 is_stmt 1 view .LVU1843
 322:../src/smc_gen/r_drw2d_rx/src/tes/dave_intern.h **** 
 4999                             		.loc 2 322 25 is_stmt 0 view .LVU1844
 5000 0415 71 A4 08                		add	#8, r10, r4
 5001 0418 E7 74 6E                		mov.L	r4, 440[r7]
 324:../src/smc_gen/r_drw2d_rx/src/tes/dave_intern.h ****    entry->value = value;
 5002                             		.loc 2 324 4 is_stmt 1 view .LVU1845
 324:../src/smc_gen/r_drw2d_rx/src/tes/dave_intern.h ****    entry->value = value;
 5003                             		.loc 2 324 17 is_stmt 0 view .LVU1846
 5004 041b F8 A6 0B                		mov.L	#11, [r10]
 325:../src/smc_gen/r_drw2d_rx/src/tes/dave_intern.h **** 
 5005                             		.loc 2 325 4 is_stmt 1 view .LVU1847
 325:../src/smc_gen/r_drw2d_rx/src/tes/dave_intern.h **** 
 5006                             		.loc 2 325 17 is_stmt 0 view .LVU1848
 5007 041e E7 A5 01                		mov.L	r5, 4[r10]
 327:../src/smc_gen/r_drw2d_rx/src/tes/dave_intern.h ****    if(handle->dlscratch_cnt <= 0)
 5008                             		.loc 2 327 4 is_stmt 1 view .LVU1849
 327:../src/smc_gen/r_drw2d_rx/src/tes/dave_intern.h ****    if(handle->dlscratch_cnt <= 0)
 5009                             		.loc 2 327 12 is_stmt 0 view .LVU1850
 5010 0421 ED 7A 6F                		mov.L	444[r7], r10
 5011                             	.LVL520:
 327:../src/smc_gen/r_drw2d_rx/src/tes/dave_intern.h ****    if(handle->dlscratch_cnt <= 0)
 5012                             		.loc 2 327 4 view .LVU1851
 5013 0424 60 1A                   		sub	#1, r10
 5014 0426 E7 7A 6F                		mov.L	r10, 444[r7]
 328:../src/smc_gen/r_drw2d_rx/src/tes/dave_intern.h ****    {
 5015                             		.loc 2 328 4 is_stmt 1 view .LVU1852
 328:../src/smc_gen/r_drw2d_rx/src/tes/dave_intern.h ****    {
 5016                             		.loc 2 328 6 is_stmt 0 view .LVU1853
 5017 0429 61 0A                   		cmp	#0, r10
 5018 042b 2A 05 38 CE 03          		ble	.L260
 5019                             	.LVL521:
 5020                             	.L216:
 328:../src/smc_gen/r_drw2d_rx/src/tes/dave_intern.h ****    {
 5021                             		.loc 2 328 6 view .LVU1854
 5022                             	.LBE654:
 5023                             	.LBE653:
 981:../src/smc_gen/r_drw2d_rx/src/tes/dave_line.c ****    D2_DLISTWRITES( D2_L3START, edge[2].start );
 5024                             		.loc 1 981 4 is_stmt 1 view .LVU1855
 5025 0430 AB 0D                   		mov.L	52[r0], r5
 5026                             	.LVL522:
 5027                             	.LBB658:
 5028                             	.LBI658:
 319:../src/smc_gen/r_drw2d_rx/src/tes/dave_intern.h **** {
 5029                             		.loc 2 319 23 view .LVU1856
 5030                             	.LBB659:
 321:../src/smc_gen/r_drw2d_rx/src/tes/dave_intern.h ****    handle->dlscratch_pos++;
 5031                             		.loc 2 321 4 view .LVU1857
 321:../src/smc_gen/r_drw2d_rx/src/tes/dave_intern.h ****    handle->dlscratch_pos++;
 5032                             		.loc 2 321 28 is_stmt 0 view .LVU1858
 5033 0432 ED 7A 6E                		mov.L	440[r7], r10
 5034                             	.LVL523:
 322:../src/smc_gen/r_drw2d_rx/src/tes/dave_intern.h **** 
 5035                             		.loc 2 322 4 is_stmt 1 view .LVU1859
 322:../src/smc_gen/r_drw2d_rx/src/tes/dave_intern.h **** 
 5036                             		.loc 2 322 25 is_stmt 0 view .LVU1860
 5037 0435 71 A4 08                		add	#8, r10, r4
 5038 0438 E7 74 6E                		mov.L	r4, 440[r7]
 324:../src/smc_gen/r_drw2d_rx/src/tes/dave_intern.h ****    entry->value = value;
 5039                             		.loc 2 324 4 is_stmt 1 view .LVU1861
 324:../src/smc_gen/r_drw2d_rx/src/tes/dave_intern.h ****    entry->value = value;
 5040                             		.loc 2 324 17 is_stmt 0 view .LVU1862
 5041 043b F8 A6 11                		mov.L	#17, [r10]
 325:../src/smc_gen/r_drw2d_rx/src/tes/dave_intern.h **** 
 5042                             		.loc 2 325 4 is_stmt 1 view .LVU1863
 325:../src/smc_gen/r_drw2d_rx/src/tes/dave_intern.h **** 
 5043                             		.loc 2 325 17 is_stmt 0 view .LVU1864
 5044 043e E7 A5 01                		mov.L	r5, 4[r10]
 327:../src/smc_gen/r_drw2d_rx/src/tes/dave_intern.h ****    if(handle->dlscratch_cnt <= 0)
 5045                             		.loc 2 327 4 is_stmt 1 view .LVU1865
 327:../src/smc_gen/r_drw2d_rx/src/tes/dave_intern.h ****    if(handle->dlscratch_cnt <= 0)
 5046                             		.loc 2 327 12 is_stmt 0 view .LVU1866
 5047 0441 ED 7A 6F                		mov.L	444[r7], r10
 5048                             	.LVL524:
 327:../src/smc_gen/r_drw2d_rx/src/tes/dave_intern.h ****    if(handle->dlscratch_cnt <= 0)
 5049                             		.loc 2 327 4 view .LVU1867
 5050 0444 60 1A                   		sub	#1, r10
 5051 0446 E7 7A 6F                		mov.L	r10, 444[r7]
 328:../src/smc_gen/r_drw2d_rx/src/tes/dave_intern.h ****    {
 5052                             		.loc 2 328 4 is_stmt 1 view .LVU1868
 328:../src/smc_gen/r_drw2d_rx/src/tes/dave_intern.h ****    {
 5053                             		.loc 2 328 6 is_stmt 0 view .LVU1869
 5054 0449 61 0A                   		cmp	#0, r10
 5055 044b 2A 05 38 B8 03          		ble	.L261
 5056                             	.LVL525:
 5057                             	.L217:
 328:../src/smc_gen/r_drw2d_rx/src/tes/dave_intern.h ****    {
 5058                             		.loc 2 328 6 view .LVU1870
 5059                             	.LBE659:
 5060                             	.LBE658:
 982:../src/smc_gen/r_drw2d_rx/src/tes/dave_line.c ****    D2_DLISTWRITES( D2_L3XADD , edge[2].xadd );
 5061                             		.loc 1 982 4 is_stmt 1 view .LVU1871
 5062 0450 AB 85                   		mov.L	56[r0], r5
 5063                             	.LVL526:
 5064                             	.LBB663:
 5065                             	.LBI663:
 319:../src/smc_gen/r_drw2d_rx/src/tes/dave_intern.h **** {
 5066                             		.loc 2 319 23 view .LVU1872
 5067                             	.LBB664:
 321:../src/smc_gen/r_drw2d_rx/src/tes/dave_intern.h ****    handle->dlscratch_pos++;
 5068                             		.loc 2 321 4 view .LVU1873
 321:../src/smc_gen/r_drw2d_rx/src/tes/dave_intern.h ****    handle->dlscratch_pos++;
 5069                             		.loc 2 321 28 is_stmt 0 view .LVU1874
 5070 0452 ED 7A 6E                		mov.L	440[r7], r10
 5071                             	.LVL527:
 322:../src/smc_gen/r_drw2d_rx/src/tes/dave_intern.h **** 
 5072                             		.loc 2 322 4 is_stmt 1 view .LVU1875
 322:../src/smc_gen/r_drw2d_rx/src/tes/dave_intern.h **** 
 5073                             		.loc 2 322 25 is_stmt 0 view .LVU1876
 5074 0455 71 A4 08                		add	#8, r10, r4
 5075 0458 E7 74 6E                		mov.L	r4, 440[r7]
 324:../src/smc_gen/r_drw2d_rx/src/tes/dave_intern.h ****    entry->value = value;
 5076                             		.loc 2 324 4 is_stmt 1 view .LVU1877
 324:../src/smc_gen/r_drw2d_rx/src/tes/dave_intern.h ****    entry->value = value;
 5077                             		.loc 2 324 17 is_stmt 0 view .LVU1878
 5078 045b F8 A6 06                		mov.L	#6, [r10]
 325:../src/smc_gen/r_drw2d_rx/src/tes/dave_intern.h **** 
 5079                             		.loc 2 325 4 is_stmt 1 view .LVU1879
 325:../src/smc_gen/r_drw2d_rx/src/tes/dave_intern.h **** 
 5080                             		.loc 2 325 17 is_stmt 0 view .LVU1880
 5081 045e E7 A5 01                		mov.L	r5, 4[r10]
 327:../src/smc_gen/r_drw2d_rx/src/tes/dave_intern.h ****    if(handle->dlscratch_cnt <= 0)
 5082                             		.loc 2 327 4 is_stmt 1 view .LVU1881
 327:../src/smc_gen/r_drw2d_rx/src/tes/dave_intern.h ****    if(handle->dlscratch_cnt <= 0)
 5083                             		.loc 2 327 12 is_stmt 0 view .LVU1882
 5084 0461 ED 7A 6F                		mov.L	444[r7], r10
 5085                             	.LVL528:
 327:../src/smc_gen/r_drw2d_rx/src/tes/dave_intern.h ****    if(handle->dlscratch_cnt <= 0)
 5086                             		.loc 2 327 4 view .LVU1883
 5087 0464 60 1A                   		sub	#1, r10
 5088 0466 E7 7A 6F                		mov.L	r10, 444[r7]
 328:../src/smc_gen/r_drw2d_rx/src/tes/dave_intern.h ****    {
 5089                             		.loc 2 328 4 is_stmt 1 view .LVU1884
 328:../src/smc_gen/r_drw2d_rx/src/tes/dave_intern.h ****    {
 5090                             		.loc 2 328 6 is_stmt 0 view .LVU1885
 5091 0469 61 0A                   		cmp	#0, r10
 5092 046b 2A 05 38 A2 03          		ble	.L262
 5093                             	.LVL529:
 5094                             	.L218:
 328:../src/smc_gen/r_drw2d_rx/src/tes/dave_intern.h ****    {
 5095                             		.loc 2 328 6 view .LVU1886
 5096                             	.LBE664:
 5097                             	.LBE663:
 983:../src/smc_gen/r_drw2d_rx/src/tes/dave_line.c ****    D2_DLISTWRITES( D2_L3YADD , edge[2].yadd );
 5098                             		.loc 1 983 4 is_stmt 1 view .LVU1887
 5099 0470 AB 8D                   		mov.L	60[r0], r5
 5100                             	.LVL530:
 5101                             	.LBB668:
 5102                             	.LBI668:
 319:../src/smc_gen/r_drw2d_rx/src/tes/dave_intern.h **** {
 5103                             		.loc 2 319 23 view .LVU1888
 5104                             	.LBB669:
 321:../src/smc_gen/r_drw2d_rx/src/tes/dave_intern.h ****    handle->dlscratch_pos++;
 5105                             		.loc 2 321 4 view .LVU1889
 321:../src/smc_gen/r_drw2d_rx/src/tes/dave_intern.h ****    handle->dlscratch_pos++;
 5106                             		.loc 2 321 28 is_stmt 0 view .LVU1890
 5107 0472 ED 7A 6E                		mov.L	440[r7], r10
 5108                             	.LVL531:
 322:../src/smc_gen/r_drw2d_rx/src/tes/dave_intern.h **** 
 5109                             		.loc 2 322 4 is_stmt 1 view .LVU1891
 322:../src/smc_gen/r_drw2d_rx/src/tes/dave_intern.h **** 
 5110                             		.loc 2 322 25 is_stmt 0 view .LVU1892
 5111 0475 71 A4 08                		add	#8, r10, r4
 5112 0478 E7 74 6E                		mov.L	r4, 440[r7]
 324:../src/smc_gen/r_drw2d_rx/src/tes/dave_intern.h ****    entry->value = value;
 5113                             		.loc 2 324 4 is_stmt 1 view .LVU1893
 324:../src/smc_gen/r_drw2d_rx/src/tes/dave_intern.h ****    entry->value = value;
 5114                             		.loc 2 324 17 is_stmt 0 view .LVU1894
 5115 047b F8 A6 0C                		mov.L	#12, [r10]
 325:../src/smc_gen/r_drw2d_rx/src/tes/dave_intern.h **** 
 5116                             		.loc 2 325 4 is_stmt 1 view .LVU1895
 325:../src/smc_gen/r_drw2d_rx/src/tes/dave_intern.h **** 
 5117                             		.loc 2 325 17 is_stmt 0 view .LVU1896
 5118 047e E7 A5 01                		mov.L	r5, 4[r10]
 327:../src/smc_gen/r_drw2d_rx/src/tes/dave_intern.h ****    if(handle->dlscratch_cnt <= 0)
 5119                             		.loc 2 327 4 is_stmt 1 view .LVU1897
 327:../src/smc_gen/r_drw2d_rx/src/tes/dave_intern.h ****    if(handle->dlscratch_cnt <= 0)
 5120                             		.loc 2 327 12 is_stmt 0 view .LVU1898
 5121 0481 ED 7A 6F                		mov.L	444[r7], r10
 5122                             	.LVL532:
 327:../src/smc_gen/r_drw2d_rx/src/tes/dave_intern.h ****    if(handle->dlscratch_cnt <= 0)
 5123                             		.loc 2 327 4 view .LVU1899
 5124 0484 60 1A                   		sub	#1, r10
 5125 0486 E7 7A 6F                		mov.L	r10, 444[r7]
 328:../src/smc_gen/r_drw2d_rx/src/tes/dave_intern.h ****    {
 5126                             		.loc 2 328 4 is_stmt 1 view .LVU1900
 328:../src/smc_gen/r_drw2d_rx/src/tes/dave_intern.h ****    {
 5127                             		.loc 2 328 6 is_stmt 0 view .LVU1901
 5128 0489 61 0A                   		cmp	#0, r10
 5129 048b 2A 05 38 8C 03          		ble	.L263
 5130                             	.LVL533:
 5131                             	.L219:
 328:../src/smc_gen/r_drw2d_rx/src/tes/dave_intern.h ****    {
 5132                             		.loc 2 328 6 view .LVU1902
 5133                             	.LBE669:
 5134                             	.LBE668:
 984:../src/smc_gen/r_drw2d_rx/src/tes/dave_line.c ****    D2_DLISTWRITES( D2_L4START, edge[3].start );
 5135                             		.loc 1 984 4 is_stmt 1 view .LVU1903
 5136 0490 AC 05                   		mov.L	64[r0], r5
 5137                             	.LVL534:
 5138                             	.LBB673:
 5139                             	.LBI673:
 319:../src/smc_gen/r_drw2d_rx/src/tes/dave_intern.h **** {
 5140                             		.loc 2 319 23 view .LVU1904
 5141                             	.LBB674:
 321:../src/smc_gen/r_drw2d_rx/src/tes/dave_intern.h ****    handle->dlscratch_pos++;
 5142                             		.loc 2 321 4 view .LVU1905
 321:../src/smc_gen/r_drw2d_rx/src/tes/dave_intern.h ****    handle->dlscratch_pos++;
 5143                             		.loc 2 321 28 is_stmt 0 view .LVU1906
 5144 0492 ED 7A 6E                		mov.L	440[r7], r10
 5145                             	.LVL535:
 322:../src/smc_gen/r_drw2d_rx/src/tes/dave_intern.h **** 
 5146                             		.loc 2 322 4 is_stmt 1 view .LVU1907
 322:../src/smc_gen/r_drw2d_rx/src/tes/dave_intern.h **** 
 5147                             		.loc 2 322 25 is_stmt 0 view .LVU1908
 5148 0495 71 A4 08                		add	#8, r10, r4
 5149 0498 E7 74 6E                		mov.L	r4, 440[r7]
 324:../src/smc_gen/r_drw2d_rx/src/tes/dave_intern.h ****    entry->value = value;
 5150                             		.loc 2 324 4 is_stmt 1 view .LVU1909
 324:../src/smc_gen/r_drw2d_rx/src/tes/dave_intern.h ****    entry->value = value;
 5151                             		.loc 2 324 17 is_stmt 0 view .LVU1910
 5152 049b F8 A6 12                		mov.L	#18, [r10]
 325:../src/smc_gen/r_drw2d_rx/src/tes/dave_intern.h **** 
 5153                             		.loc 2 325 4 is_stmt 1 view .LVU1911
 325:../src/smc_gen/r_drw2d_rx/src/tes/dave_intern.h **** 
 5154                             		.loc 2 325 17 is_stmt 0 view .LVU1912
 5155 049e E7 A5 01                		mov.L	r5, 4[r10]
 327:../src/smc_gen/r_drw2d_rx/src/tes/dave_intern.h ****    if(handle->dlscratch_cnt <= 0)
 5156                             		.loc 2 327 4 is_stmt 1 view .LVU1913
 327:../src/smc_gen/r_drw2d_rx/src/tes/dave_intern.h ****    if(handle->dlscratch_cnt <= 0)
 5157                             		.loc 2 327 12 is_stmt 0 view .LVU1914
 5158 04a1 ED 7A 6F                		mov.L	444[r7], r10
 5159                             	.LVL536:
 327:../src/smc_gen/r_drw2d_rx/src/tes/dave_intern.h ****    if(handle->dlscratch_cnt <= 0)
 5160                             		.loc 2 327 4 view .LVU1915
 5161 04a4 60 1A                   		sub	#1, r10
 5162 04a6 E7 7A 6F                		mov.L	r10, 444[r7]
 328:../src/smc_gen/r_drw2d_rx/src/tes/dave_intern.h ****    {
 5163                             		.loc 2 328 4 is_stmt 1 view .LVU1916
 328:../src/smc_gen/r_drw2d_rx/src/tes/dave_intern.h ****    {
 5164                             		.loc 2 328 6 is_stmt 0 view .LVU1917
 5165 04a9 61 0A                   		cmp	#0, r10
 5166 04ab 2A 05 38 76 03          		ble	.L264
 5167                             	.LVL537:
 5168                             	.L220:
 328:../src/smc_gen/r_drw2d_rx/src/tes/dave_intern.h ****    {
 5169                             		.loc 2 328 6 view .LVU1918
 5170                             	.LBE674:
 5171                             	.LBE673:
 985:../src/smc_gen/r_drw2d_rx/src/tes/dave_line.c ****    D2_DLISTWRITES( D2_L4XADD , edge[3].xadd );
 5172                             		.loc 1 985 4 is_stmt 1 view .LVU1919
 5173 04b0 AC 0D                   		mov.L	68[r0], r5
 5174                             	.LVL538:
 5175                             	.LBB678:
 5176                             	.LBI678:
 319:../src/smc_gen/r_drw2d_rx/src/tes/dave_intern.h **** {
 5177                             		.loc 2 319 23 view .LVU1920
 5178                             	.LBB679:
 321:../src/smc_gen/r_drw2d_rx/src/tes/dave_intern.h ****    handle->dlscratch_pos++;
 5179                             		.loc 2 321 4 view .LVU1921
 321:../src/smc_gen/r_drw2d_rx/src/tes/dave_intern.h ****    handle->dlscratch_pos++;
 5180                             		.loc 2 321 28 is_stmt 0 view .LVU1922
 5181 04b2 ED 7A 6E                		mov.L	440[r7], r10
 5182                             	.LVL539:
 322:../src/smc_gen/r_drw2d_rx/src/tes/dave_intern.h **** 
 5183                             		.loc 2 322 4 is_stmt 1 view .LVU1923
 322:../src/smc_gen/r_drw2d_rx/src/tes/dave_intern.h **** 
 5184                             		.loc 2 322 25 is_stmt 0 view .LVU1924
 5185 04b5 71 A4 08                		add	#8, r10, r4
 5186 04b8 E7 74 6E                		mov.L	r4, 440[r7]
 324:../src/smc_gen/r_drw2d_rx/src/tes/dave_intern.h ****    entry->value = value;
 5187                             		.loc 2 324 4 is_stmt 1 view .LVU1925
 324:../src/smc_gen/r_drw2d_rx/src/tes/dave_intern.h ****    entry->value = value;
 5188                             		.loc 2 324 17 is_stmt 0 view .LVU1926
 5189 04bb F8 A6 07                		mov.L	#7, [r10]
 325:../src/smc_gen/r_drw2d_rx/src/tes/dave_intern.h **** 
 5190                             		.loc 2 325 4 is_stmt 1 view .LVU1927
 325:../src/smc_gen/r_drw2d_rx/src/tes/dave_intern.h **** 
 5191                             		.loc 2 325 17 is_stmt 0 view .LVU1928
 5192 04be E7 A5 01                		mov.L	r5, 4[r10]
 327:../src/smc_gen/r_drw2d_rx/src/tes/dave_intern.h ****    if(handle->dlscratch_cnt <= 0)
 5193                             		.loc 2 327 4 is_stmt 1 view .LVU1929
 327:../src/smc_gen/r_drw2d_rx/src/tes/dave_intern.h ****    if(handle->dlscratch_cnt <= 0)
 5194                             		.loc 2 327 12 is_stmt 0 view .LVU1930
 5195 04c1 ED 7A 6F                		mov.L	444[r7], r10
 5196                             	.LVL540:
 327:../src/smc_gen/r_drw2d_rx/src/tes/dave_intern.h ****    if(handle->dlscratch_cnt <= 0)
 5197                             		.loc 2 327 4 view .LVU1931
 5198 04c4 60 1A                   		sub	#1, r10
 5199 04c6 E7 7A 6F                		mov.L	r10, 444[r7]
 328:../src/smc_gen/r_drw2d_rx/src/tes/dave_intern.h ****    {
 5200                             		.loc 2 328 4 is_stmt 1 view .LVU1932
 328:../src/smc_gen/r_drw2d_rx/src/tes/dave_intern.h ****    {
 5201                             		.loc 2 328 6 is_stmt 0 view .LVU1933
 5202 04c9 61 0A                   		cmp	#0, r10
 5203 04cb 2A 05 38 60 03          		ble	.L265
 5204                             	.LVL541:
 5205                             	.L221:
 328:../src/smc_gen/r_drw2d_rx/src/tes/dave_intern.h ****    {
 5206                             		.loc 2 328 6 view .LVU1934
 5207                             	.LBE679:
 5208                             	.LBE678:
 986:../src/smc_gen/r_drw2d_rx/src/tes/dave_line.c ****    D2_DLISTWRITES( D2_L4YADD , edge[3].yadd );
 5209                             		.loc 1 986 4 is_stmt 1 view .LVU1935
 5210 04d0 AC 85                   		mov.L	72[r0], r5
 5211                             	.LVL542:
 5212                             	.LBB683:
 5213                             	.LBI683:
 319:../src/smc_gen/r_drw2d_rx/src/tes/dave_intern.h **** {
 5214                             		.loc 2 319 23 view .LVU1936
 5215                             	.LBB684:
 321:../src/smc_gen/r_drw2d_rx/src/tes/dave_intern.h ****    handle->dlscratch_pos++;
 5216                             		.loc 2 321 4 view .LVU1937
 321:../src/smc_gen/r_drw2d_rx/src/tes/dave_intern.h ****    handle->dlscratch_pos++;
 5217                             		.loc 2 321 28 is_stmt 0 view .LVU1938
 5218 04d2 ED 7A 6E                		mov.L	440[r7], r10
 5219                             	.LVL543:
 322:../src/smc_gen/r_drw2d_rx/src/tes/dave_intern.h **** 
 5220                             		.loc 2 322 4 is_stmt 1 view .LVU1939
 322:../src/smc_gen/r_drw2d_rx/src/tes/dave_intern.h **** 
 5221                             		.loc 2 322 25 is_stmt 0 view .LVU1940
 5222 04d5 71 A4 08                		add	#8, r10, r4
 5223 04d8 E7 74 6E                		mov.L	r4, 440[r7]
 324:../src/smc_gen/r_drw2d_rx/src/tes/dave_intern.h ****    entry->value = value;
 5224                             		.loc 2 324 4 is_stmt 1 view .LVU1941
 324:../src/smc_gen/r_drw2d_rx/src/tes/dave_intern.h ****    entry->value = value;
 5225                             		.loc 2 324 17 is_stmt 0 view .LVU1942
 5226 04db F8 A6 0D                		mov.L	#13, [r10]
 325:../src/smc_gen/r_drw2d_rx/src/tes/dave_intern.h **** 
 5227                             		.loc 2 325 4 is_stmt 1 view .LVU1943
 325:../src/smc_gen/r_drw2d_rx/src/tes/dave_intern.h **** 
 5228                             		.loc 2 325 17 is_stmt 0 view .LVU1944
 5229 04de E7 A5 01                		mov.L	r5, 4[r10]
 327:../src/smc_gen/r_drw2d_rx/src/tes/dave_intern.h ****    if(handle->dlscratch_cnt <= 0)
 5230                             		.loc 2 327 4 is_stmt 1 view .LVU1945
 327:../src/smc_gen/r_drw2d_rx/src/tes/dave_intern.h ****    if(handle->dlscratch_cnt <= 0)
 5231                             		.loc 2 327 12 is_stmt 0 view .LVU1946
 5232 04e1 ED 7A 6F                		mov.L	444[r7], r10
 5233                             	.LVL544:
 327:../src/smc_gen/r_drw2d_rx/src/tes/dave_intern.h ****    if(handle->dlscratch_cnt <= 0)
 5234                             		.loc 2 327 4 view .LVU1947
 5235 04e4 60 1A                   		sub	#1, r10
 5236 04e6 E7 7A 6F                		mov.L	r10, 444[r7]
 328:../src/smc_gen/r_drw2d_rx/src/tes/dave_intern.h ****    {
 5237                             		.loc 2 328 4 is_stmt 1 view .LVU1948
 328:../src/smc_gen/r_drw2d_rx/src/tes/dave_intern.h ****    {
 5238                             		.loc 2 328 6 is_stmt 0 view .LVU1949
 5239 04e9 61 0A                   		cmp	#0, r10
 5240 04eb 2A 05 38 4A 03          		ble	.L266
 5241                             	.LVL545:
 5242                             	.L222:
 328:../src/smc_gen/r_drw2d_rx/src/tes/dave_intern.h ****    {
 5243                             		.loc 2 328 6 view .LVU1950
 5244                             	.LBE684:
 5245                             	.LBE683:
 987:../src/smc_gen/r_drw2d_rx/src/tes/dave_line.c **** 
 5246                             		.loc 1 987 4 is_stmt 1 view .LVU1951
 5247 04f0 AC 8D                   		mov.L	76[r0], r5
 5248                             	.LVL546:
 5249                             	.LBB688:
 5250                             	.LBI688:
 319:../src/smc_gen/r_drw2d_rx/src/tes/dave_intern.h **** {
 5251                             		.loc 2 319 23 view .LVU1952
 5252                             	.LBB689:
 321:../src/smc_gen/r_drw2d_rx/src/tes/dave_intern.h ****    handle->dlscratch_pos++;
 5253                             		.loc 2 321 4 view .LVU1953
 321:../src/smc_gen/r_drw2d_rx/src/tes/dave_intern.h ****    handle->dlscratch_pos++;
 5254                             		.loc 2 321 28 is_stmt 0 view .LVU1954
 5255 04f2 ED 7A 6E                		mov.L	440[r7], r10
 5256                             	.LVL547:
 322:../src/smc_gen/r_drw2d_rx/src/tes/dave_intern.h **** 
 5257                             		.loc 2 322 4 is_stmt 1 view .LVU1955
 322:../src/smc_gen/r_drw2d_rx/src/tes/dave_intern.h **** 
 5258                             		.loc 2 322 25 is_stmt 0 view .LVU1956
 5259 04f5 71 A4 08                		add	#8, r10, r4
 5260 04f8 E7 74 6E                		mov.L	r4, 440[r7]
 324:../src/smc_gen/r_drw2d_rx/src/tes/dave_intern.h ****    entry->value = value;
 5261                             		.loc 2 324 4 is_stmt 1 view .LVU1957
 324:../src/smc_gen/r_drw2d_rx/src/tes/dave_intern.h ****    entry->value = value;
 5262                             		.loc 2 324 17 is_stmt 0 view .LVU1958
 5263 04fb F8 A6 13                		mov.L	#19, [r10]
 325:../src/smc_gen/r_drw2d_rx/src/tes/dave_intern.h **** 
 5264                             		.loc 2 325 4 is_stmt 1 view .LVU1959
 325:../src/smc_gen/r_drw2d_rx/src/tes/dave_intern.h **** 
 5265                             		.loc 2 325 17 is_stmt 0 view .LVU1960
 5266 04fe E7 A5 01                		mov.L	r5, 4[r10]
 327:../src/smc_gen/r_drw2d_rx/src/tes/dave_intern.h ****    if(handle->dlscratch_cnt <= 0)
 5267                             		.loc 2 327 4 is_stmt 1 view .LVU1961
 327:../src/smc_gen/r_drw2d_rx/src/tes/dave_intern.h ****    if(handle->dlscratch_cnt <= 0)
 5268                             		.loc 2 327 12 is_stmt 0 view .LVU1962
 5269 0501 ED 7A 6F                		mov.L	444[r7], r10
 5270                             	.LVL548:
 327:../src/smc_gen/r_drw2d_rx/src/tes/dave_intern.h ****    if(handle->dlscratch_cnt <= 0)
 5271                             		.loc 2 327 4 view .LVU1963
 5272 0504 60 1A                   		sub	#1, r10
 5273 0506 E7 7A 6F                		mov.L	r10, 444[r7]
 328:../src/smc_gen/r_drw2d_rx/src/tes/dave_intern.h ****    {
 5274                             		.loc 2 328 4 is_stmt 1 view .LVU1964
 328:../src/smc_gen/r_drw2d_rx/src/tes/dave_intern.h ****    {
 5275                             		.loc 2 328 6 is_stmt 0 view .LVU1965
 5276 0509 61 0A                   		cmp	#0, r10
 5277 050b 2A 05 38 34 03          		ble	.L267
 5278                             	.LVL549:
 5279                             	.L223:
 328:../src/smc_gen/r_drw2d_rx/src/tes/dave_intern.h ****    {
 5280                             		.loc 2 328 6 view .LVU1966
 5281                             	.LBE689:
 5282                             	.LBE688:
 990:../src/smc_gen/r_drw2d_rx/src/tes/dave_line.c ****    {
 5283                             		.loc 1 990 4 is_stmt 1 view .LVU1967
 990:../src/smc_gen/r_drw2d_rx/src/tes/dave_line.c ****    {
 5284                             		.loc 1 990 6 is_stmt 0 view .LVU1968
 5285 0510 61 0C                   		cmp	#0, r12
 5286 0512 3A 39 03                		beq	.L224
 992:../src/smc_gen/r_drw2d_rx/src/tes/dave_line.c ****    }
 5287                             		.loc 1 992 7 is_stmt 1 view .LVU1969
 5288 0515 AE 83                   		mov.L	104[r0], r3
 5289 0517 75 42 10                		mov.L	#16, r2
 5290 051a 4B 02                   		add	r0, r2
 5291 051c EF 71                   		mov.L	r7, r1
 5292 051e 05 00 00 00             		bsr	_d2_startrender_bottom_intern
 5293                             	.LVL550:
 5294                             	.L225:
 999:../src/smc_gen/r_drw2d_rx/src/tes/dave_line.c ****    {
 5295                             		.loc 1 999 4 view .LVU1970
 999:../src/smc_gen/r_drw2d_rx/src/tes/dave_line.c ****    {
 5296                             		.loc 1 999 6 is_stmt 0 view .LVU1971
 5297 0522 ED 0A 1C                		mov.L	112[r0], r10
 5298 0525 61 2A                   		cmp	#2, r10
 5299 0527 3A 34 03                		beq	.L268
1001:../src/smc_gen/r_drw2d_rx/src/tes/dave_line.c ****    }
 5300                             		.loc 1 1001 14 view .LVU1972
 5301 052a 3E 84 01                		mov.L	#1, 80[r0]
 5302                             	.LVL551:
1001:../src/smc_gen/r_drw2d_rx/src/tes/dave_line.c ****    }
 5303                             		.loc 1 1001 14 view .LVU1973
 5304 052d 38 18 FB                		bra	.L171
 5305                             	.LVL552:
 5306                             	.L247:
 675:../src/smc_gen/r_drw2d_rx/src/tes/dave_line.c ****       {
 5307                             		.loc 1 675 7 is_stmt 1 view .LVU1974
 675:../src/smc_gen/r_drw2d_rx/src/tes/dave_line.c ****       {
 5308                             		.loc 1 675 9 is_stmt 0 view .LVU1975
 5309 0530 DD 03 3B                		mov.W	118[r0], r3
 5310 0533 75 53 2F                		cmp	#47, r3
 5311 0536 2A 0A                   		bgt	.L174
 677:../src/smc_gen/r_drw2d_rx/src/tes/dave_line.c ****       }
 5312                             		.loc 1 677 10 is_stmt 1 view .LVU1976
 677:../src/smc_gen/r_drw2d_rx/src/tes/dave_line.c ****       }
 5313                             		.loc 1 677 16 is_stmt 0 view .LVU1977
 5314 0538 ED 0E 16                		mov.L	88[r0], r14
 5315                             	.LVL553:
 677:../src/smc_gen/r_drw2d_rx/src/tes/dave_line.c ****       }
 5316                             		.loc 1 677 16 view .LVU1978
 5317 053b 78 0E                   		bset	#0, r14
 5318 053d E7 0E 16                		mov.L	r14, 88[r0]
 5319                             	.LVL554:
 5320                             	.L174:
 680:../src/smc_gen/r_drw2d_rx/src/tes/dave_line.c ****       {
 5321                             		.loc 1 680 7 is_stmt 1 view .LVU1979
 680:../src/smc_gen/r_drw2d_rx/src/tes/dave_line.c ****       {
 5322                             		.loc 1 680 9 is_stmt 0 view .LVU1980
 5323 0540 DD 03 3A                		mov.W	116[r0], r3
 5324 0543 75 53 2F                		cmp	#47, r3
 5325 0546 2B 05 38 94 FB          		bgt	.L173
 682:../src/smc_gen/r_drw2d_rx/src/tes/dave_line.c ****       }
 5326                             		.loc 1 682 10 is_stmt 1 view .LVU1981
 682:../src/smc_gen/r_drw2d_rx/src/tes/dave_line.c ****       }
 5327                             		.loc 1 682 16 is_stmt 0 view .LVU1982
 5328 054b ED 0F 16                		mov.L	88[r0], r15
 5329                             	.LVL555:
 682:../src/smc_gen/r_drw2d_rx/src/tes/dave_line.c ****       }
 5330                             		.loc 1 682 16 view .LVU1983
 5331 054e 78 1F                   		bset	#1, r15
 5332 0550 E7 0F 16                		mov.L	r15, 88[r0]
 5333                             	.LVL556:
 682:../src/smc_gen/r_drw2d_rx/src/tes/dave_line.c ****       }
 5334                             		.loc 1 682 16 view .LVU1984
 5335 0553 38 89 FB                		bra	.L173
 5336                             	.LVL557:
 5337                             	.L248:
 695:../src/smc_gen/r_drw2d_rx/src/tes/dave_line.c ****       {
 5338                             		.loc 1 695 7 is_stmt 1 view .LVU1985
 695:../src/smc_gen/r_drw2d_rx/src/tes/dave_line.c ****       {
 5339                             		.loc 1 695 9 is_stmt 0 view .LVU1986
 5340 0556 ED 0E 16                		mov.L	88[r0], r14
 5341 0559 FD 74 CE 01             		tst	#1, r14
 5342 055d 21 10                   		bne	.L176
 697:../src/smc_gen/r_drw2d_rx/src/tes/dave_line.c ****          dx -= w1y;  dy -= -w1x;
 5343                             		.loc 1 697 10 is_stmt 1 view .LVU1987
 697:../src/smc_gen/r_drw2d_rx/src/tes/dave_line.c ****          dx -= w1y;  dy -= -w1x;
 5344                             		.loc 1 697 13 is_stmt 0 view .LVU1988
 5345 055f ED 0F 1A                		mov.L	104[r0], r15
 5346 0562 43 1F                   		sub	r1, r15
 5347 0564 E7 0F 1A                		mov.L	r15, 104[r0]
 5348                             	.LVL558:
 697:../src/smc_gen/r_drw2d_rx/src/tes/dave_line.c ****          dx -= w1y;  dy -= -w1x;
 5349                             		.loc 1 697 22 is_stmt 1 view .LVU1989
 697:../src/smc_gen/r_drw2d_rx/src/tes/dave_line.c ****          dx -= w1y;  dy -= -w1x;
 5350                             		.loc 1 697 25 is_stmt 0 view .LVU1990
 5351 0567 4B 28                   		add	r2, r8
 5352                             	.LVL559:
 698:../src/smc_gen/r_drw2d_rx/src/tes/dave_line.c ****       }
 5353                             		.loc 1 698 10 is_stmt 1 view .LVU1991
 698:../src/smc_gen/r_drw2d_rx/src/tes/dave_line.c ****       }
 5354                             		.loc 1 698 13 is_stmt 0 view .LVU1992
 5355 0569 43 19                   		sub	r1, r9
 5356                             	.LVL560:
 698:../src/smc_gen/r_drw2d_rx/src/tes/dave_line.c ****       }
 5357                             		.loc 1 698 22 is_stmt 1 view .LVU1993
 698:../src/smc_gen/r_drw2d_rx/src/tes/dave_line.c ****       }
 5358                             		.loc 1 698 25 is_stmt 0 view .LVU1994
 5359 056b 4B 2C                   		add	r2, r12
 5360                             	.LVL561:
 5361                             	.L176:
 701:../src/smc_gen/r_drw2d_rx/src/tes/dave_line.c ****       {
 5362                             		.loc 1 701 7 is_stmt 1 view .LVU1995
 701:../src/smc_gen/r_drw2d_rx/src/tes/dave_line.c ****       {
 5363                             		.loc 1 701 9 is_stmt 0 view .LVU1996
 5364 056d AD 83                   		mov.L	88[r0], r3
 5365                             	.LVL562:
 701:../src/smc_gen/r_drw2d_rx/src/tes/dave_line.c ****       {
 5366                             		.loc 1 701 9 view .LVU1997
 5367 056f FD 74 C3 02             		tst	#2, r3
 5368 0573 3B 79 FB                		bne	.L175
 703:../src/smc_gen/r_drw2d_rx/src/tes/dave_line.c ****          cx += w2y;  cy += -w2x;
 5369                             		.loc 1 703 10 is_stmt 1 view .LVU1998
 703:../src/smc_gen/r_drw2d_rx/src/tes/dave_line.c ****          cx += w2y;  cy += -w2x;
 5370                             		.loc 1 703 13 is_stmt 0 view .LVU1999
 5371 0576 ED 0E 20                		mov.L	128[r0], r14
 5372 0579 4B 4E                   		add	r4, r14
 5373 057b E7 0E 20                		mov.L	r14, 128[r0]
 5374                             	.LVL563:
 703:../src/smc_gen/r_drw2d_rx/src/tes/dave_line.c ****          cx += w2y;  cy += -w2x;
 5375                             		.loc 1 703 22 is_stmt 1 view .LVU2000
 703:../src/smc_gen/r_drw2d_rx/src/tes/dave_line.c ****          cx += w2y;  cy += -w2x;
 5376                             		.loc 1 703 25 is_stmt 0 view .LVU2001
 5377 057e ED 0F 21                		mov.L	132[r0], r15
 5378 0581 43 5F                   		sub	r5, r15
 5379 0583 E7 0F 21                		mov.L	r15, 132[r0]
 5380                             	.LVL564:
 704:../src/smc_gen/r_drw2d_rx/src/tes/dave_line.c ****       }
 5381                             		.loc 1 704 10 is_stmt 1 view .LVU2002
 704:../src/smc_gen/r_drw2d_rx/src/tes/dave_line.c ****       }
 5382                             		.loc 1 704 13 is_stmt 0 view .LVU2003
 5383 0586 06 89 04 1F             		add	124[r0], r4
 5384                             	.LVL565:
 704:../src/smc_gen/r_drw2d_rx/src/tes/dave_line.c ****       }
 5385                             		.loc 1 704 13 view .LVU2004
 5386 058a A7 8C                   		mov.L	r4, 124[r0]
 5387                             	.LVL566:
 704:../src/smc_gen/r_drw2d_rx/src/tes/dave_line.c ****       }
 5388                             		.loc 1 704 22 is_stmt 1 view .LVU2005
 704:../src/smc_gen/r_drw2d_rx/src/tes/dave_line.c ****       }
 5389                             		.loc 1 704 25 is_stmt 0 view .LVU2006
 5390 058c AF 83                   		mov.L	120[r0], r3
 5391 058e 43 53                   		sub	r5, r3
 5392 0590 A7 83                   		mov.L	r3, 120[r0]
 5393                             	.LVL567:
 704:../src/smc_gen/r_drw2d_rx/src/tes/dave_line.c ****       }
 5394                             		.loc 1 704 25 view .LVU2007
 5395 0592 38 5A FB                		bra	.L175
 5396                             	.LVL568:
 5397                             	.L240:
 689:../src/smc_gen/r_drw2d_rx/src/tes/dave_line.c ****    }
 5398                             		.loc 1 689 11 view .LVU2008
 5399 0595 3E 8C 00                		mov.L	#0, 112[r0]
 5400                             	.LVL569:
 689:../src/smc_gen/r_drw2d_rx/src/tes/dave_line.c ****    }
 5401                             		.loc 1 689 11 view .LVU2009
 5402 0598 38 54 FB                		bra	.L175
 5403                             	.LVL570:
 5404                             	.L177:
 711:../src/smc_gen/r_drw2d_rx/src/tes/dave_line.c ****    t1 = (ax > bx) ? ax : bx;
 5405                             		.loc 1 711 16 discriminator 2 view .LVU2010
 5406 059b 75 25 F0                		and #-16, r5
 5407                             	.LVL571:
 711:../src/smc_gen/r_drw2d_rx/src/tes/dave_line.c ****    t1 = (ax > bx) ? ax : bx;
 5408                             		.loc 1 711 16 discriminator 2 view .LVU2011
 5409 059e 38 67 FB                		bra	.L178
 5410                             	.LVL572:
 5411                             	.L179:
 714:../src/smc_gen/r_drw2d_rx/src/tes/dave_line.c ****    t1 = (ay < by) ? ay : by;
 5412                             		.loc 1 714 27 discriminator 2 view .LVU2012
 5413 05a1 62 F5                   		add	#15, r5
 5414                             	.LVL573:
 714:../src/smc_gen/r_drw2d_rx/src/tes/dave_line.c ****    t1 = (ay < by) ? ay : by;
 5415                             		.loc 1 714 16 discriminator 2 view .LVU2013
 5416 05a3 75 25 F0                		and #-16, r5
 5417                             	.LVL574:
 714:../src/smc_gen/r_drw2d_rx/src/tes/dave_line.c ****    t1 = (ay < by) ? ay : by;
 5418                             		.loc 1 714 16 discriminator 2 view .LVU2014
 5419 05a6 38 7B FB                		bra	.L180
 5420                             	.LVL575:
 5421                             	.L181:
 717:../src/smc_gen/r_drw2d_rx/src/tes/dave_line.c ****    t1 = (ay > by) ? ay : by;
 5422                             		.loc 1 717 16 discriminator 2 view .LVU2015
 5423 05a9 75 25 F0                		and #-16, r5
 5424                             	.LVL576:
 717:../src/smc_gen/r_drw2d_rx/src/tes/dave_line.c ****    t1 = (ay > by) ? ay : by;
 5425                             		.loc 1 717 16 discriminator 2 view .LVU2016
 5426 05ac 38 8E FB                		bra	.L182
 5427                             	.LVL577:
 5428                             	.L183:
 720:../src/smc_gen/r_drw2d_rx/src/tes/dave_line.c **** 
 5429                             		.loc 1 720 27 discriminator 2 view .LVU2017
 5430 05af 62 F5                   		add	#15, r5
 5431                             	.LVL578:
 720:../src/smc_gen/r_drw2d_rx/src/tes/dave_line.c **** 
 5432                             		.loc 1 720 16 discriminator 2 view .LVU2018
 5433 05b1 75 25 F0                		and #-16, r5
 5434                             	.LVL579:
 720:../src/smc_gen/r_drw2d_rx/src/tes/dave_line.c **** 
 5435                             		.loc 1 720 16 discriminator 2 view .LVU2019
 5436 05b4 38 A0 FB                		bra	.L184
 5437                             	.LVL580:
 5438                             	.L249:
 749:../src/smc_gen/r_drw2d_rx/src/tes/dave_line.c ****       d2_triedge_setupblur_intern( &edge[3], (d2_point)(dx - bbox.xmin), (d2_point)(dy - bbox.ymin)
 5439                             		.loc 1 749 7 is_stmt 1 view .LVU2020
 5440 05b7 E7 0D 01                		mov.L	r13, 4[r0]
 5441 05ba ED 05 21                		mov.L	132[r0], r5
 5442 05bd FF 0A 58                		sub	r5, r8, r10
 5443 05c0 E3 0A                   		mov.L	r10, [r0]
 5444 05c2 AE 84                   		mov.L	104[r0], r4
 5445 05c4 ED 0A 20                		mov.L	128[r0], r10
 5446 05c7 43 A4                   		sub	r10, r4
 5447 05c9 FF 03 38                		sub	r3, r8, r3
 5448                             	.LVL581:
 749:../src/smc_gen/r_drw2d_rx/src/tes/dave_line.c ****       d2_triedge_setupblur_intern( &edge[3], (d2_point)(dx - bbox.xmin), (d2_point)(dy - bbox.ymin)
 5449                             		.loc 1 749 7 is_stmt 0 view .LVU2021
 5450 05cc ED 0A 1A                		mov.L	104[r0], r10
 5451 05cf FF 02 2A                		sub	r2, r10, r2
 5452                             	.LVL582:
 749:../src/smc_gen/r_drw2d_rx/src/tes/dave_line.c ****       d2_triedge_setupblur_intern( &edge[3], (d2_point)(dx - bbox.xmin), (d2_point)(dy - bbox.ymin)
 5453                             		.loc 1 749 7 view .LVU2022
 5454 05d2 71 01 38                		add	#56, r0, r1
 5455 05d5 05 00 00 00             		bsr	_d2_triedge_setupblur_intern
 5456                             	.LVL583:
 750:../src/smc_gen/r_drw2d_rx/src/tes/dave_line.c ****    }
 5457                             		.loc 1 750 7 is_stmt 1 view .LVU2023
 750:../src/smc_gen/r_drw2d_rx/src/tes/dave_line.c ****    }
 5458                             		.loc 1 750 66 is_stmt 0 view .LVU2024
 5459 05d9 9A 02                   		mov.W	16[r0], r2
 750:../src/smc_gen/r_drw2d_rx/src/tes/dave_line.c ****    }
 5460                             		.loc 1 750 94 view .LVU2025
 5461 05db 9A 0B                   		mov.W	18[r0], r3
 750:../src/smc_gen/r_drw2d_rx/src/tes/dave_line.c ****    }
 5462                             		.loc 1 750 7 view .LVU2026
 5463 05dd E7 0D 01                		mov.L	r13, 4[r0]
 5464 05e0 ED 0A 1E                		mov.L	120[r0], r10
 5465 05e3 43 CA                   		sub	r12, r10
 5466 05e5 E3 0A                   		mov.L	r10, [r0]
 5467 05e7 AF 8C                   		mov.L	124[r0], r4
 5468 05e9 43 94                   		sub	r9, r4
 5469 05eb FF 03 3C                		sub	r3, r12, r3
 5470 05ee FF 02 29                		sub	r2, r9, r2
 5471 05f1 71 01 44                		add	#0x44, r0, r1
 5472 05f4 05 00 00 00             		bsr	_d2_triedge_setupblur_intern
 5473                             	.LVL584:
 5474 05f8 38 25 FC                		bra	.L186
 5475                             	.L250:
 763:../src/smc_gen/r_drw2d_rx/src/tes/dave_line.c ****       {
 5476                             		.loc 1 763 7 is_stmt 1 view .LVU2027
 763:../src/smc_gen/r_drw2d_rx/src/tes/dave_line.c ****       {
 5477                             		.loc 1 763 9 is_stmt 0 view .LVU2028
 5478 05fb ED 0A 16                		mov.L	88[r0], r10
 5479 05fe FD 74 CA 01             		tst	#1, r10
 5480 0602 21 15                   		bne	.L188
 765:../src/smc_gen/r_drw2d_rx/src/tes/dave_line.c ****       }
 5481                             		.loc 1 765 10 is_stmt 1 view .LVU2029
 765:../src/smc_gen/r_drw2d_rx/src/tes/dave_line.c ****       }
 5482                             		.loc 1 765 32 is_stmt 0 view .LVU2030
 5483 0604 ED 0A 25                		mov.L	148[r0], r10
 5484 0607 6C CA                   		shll	#12, r10
 765:../src/smc_gen/r_drw2d_rx/src/tes/dave_line.c ****       }
 5485                             		.loc 1 765 45 view .LVU2031
 5486 0609 73 AA 00 00 FF          		add	#-65536, r10
 765:../src/smc_gen/r_drw2d_rx/src/tes/dave_line.c ****       }
 5487                             		.loc 1 765 60 view .LVU2032
 5488 060e 6A 1A                   		shar	#1, r10
 765:../src/smc_gen/r_drw2d_rx/src/tes/dave_line.c ****       }
 5489                             		.loc 1 765 24 view .LVU2033
 5490 0610 06 89 0A 08             		add	32[r0], r10
 5491 0614 E7 0A 08                		mov.L	r10, 32[r0]
 5492                             	.L188:
 768:../src/smc_gen/r_drw2d_rx/src/tes/dave_line.c ****       {
 5493                             		.loc 1 768 7 is_stmt 1 view .LVU2034
 768:../src/smc_gen/r_drw2d_rx/src/tes/dave_line.c ****       {
 5494                             		.loc 1 768 9 is_stmt 0 view .LVU2035
 5495 0617 ED 0A 16                		mov.L	88[r0], r10
 5496 061a FD 74 CA 02             		tst	#2, r10
 5497 061e 3B 07 FC                		bne	.L187
 770:../src/smc_gen/r_drw2d_rx/src/tes/dave_line.c ****       }
 5498                             		.loc 1 770 10 is_stmt 1 view .LVU2036
 770:../src/smc_gen/r_drw2d_rx/src/tes/dave_line.c ****       }
 5499                             		.loc 1 770 32 is_stmt 0 view .LVU2037
 5500 0621 ED 0A 23                		mov.L	140[r0], r10
 5501 0624 6C CA                   		shll	#12, r10
 770:../src/smc_gen/r_drw2d_rx/src/tes/dave_line.c ****       }
 5502                             		.loc 1 770 45 view .LVU2038
 5503 0626 73 AA 00 00 FF          		add	#-65536, r10
 770:../src/smc_gen/r_drw2d_rx/src/tes/dave_line.c ****       }
 5504                             		.loc 1 770 60 view .LVU2039
 5505 062b 6A 1A                   		shar	#1, r10
 770:../src/smc_gen/r_drw2d_rx/src/tes/dave_line.c ****       }
 5506                             		.loc 1 770 24 view .LVU2040
 5507 062d 06 89 0A 0B             		add	44[r0], r10
 5508 0631 E7 0A 0B                		mov.L	r10, 44[r0]
 5509 0634 38 F1 FB                		bra	.L187
 5510                             	.LVL585:
 5511                             	.L251:
 782:../src/smc_gen/r_drw2d_rx/src/tes/dave_line.c ****       {
 5512                             		.loc 1 782 7 is_stmt 1 view .LVU2041
 782:../src/smc_gen/r_drw2d_rx/src/tes/dave_line.c ****       {
 5513                             		.loc 1 782 9 is_stmt 0 view .LVU2042
 5514 0637 ED 0A 16                		mov.L	88[r0], r10
 5515 063a FD 74 CA 01             		tst	#1, r10
 5516 063e 1B                      		bne	.L190
 784:../src/smc_gen/r_drw2d_rx/src/tes/dave_line.c ****       }
 5517                             		.loc 1 784 10 is_stmt 1 view .LVU2043
 784:../src/smc_gen/r_drw2d_rx/src/tes/dave_line.c ****       }
 5518                             		.loc 1 784 16 is_stmt 0 view .LVU2044
 5519 063f 78 9B                   		bset	#9, r11
 5520                             	.LVL586:
 5521                             	.L190:
 787:../src/smc_gen/r_drw2d_rx/src/tes/dave_line.c ****       {
 5522                             		.loc 1 787 7 is_stmt 1 view .LVU2045
 787:../src/smc_gen/r_drw2d_rx/src/tes/dave_line.c ****       {
 5523                             		.loc 1 787 9 is_stmt 0 view .LVU2046
 5524 0641 ED 0A 16                		mov.L	88[r0], r10
 5525 0644 FD 74 CA 02             		tst	#2, r10
 5526 0648 3B F0 FB                		bne	.L189
 789:../src/smc_gen/r_drw2d_rx/src/tes/dave_line.c ****       }
 5527                             		.loc 1 789 10 is_stmt 1 view .LVU2047
 789:../src/smc_gen/r_drw2d_rx/src/tes/dave_line.c ****       }
 5528                             		.loc 1 789 16 is_stmt 0 view .LVU2048
 5529 064b 78 AB                   		bset	#10, r11
 5530                             	.LVL587:
 789:../src/smc_gen/r_drw2d_rx/src/tes/dave_line.c ****       }
 5531                             		.loc 1 789 16 view .LVU2049
 5532 064d 38 EB FB                		bra	.L189
 5533                             	.LVL588:
 5534                             	.L192:
 5535                             	.LBB693:
 812:../src/smc_gen/r_drw2d_rx/src/tes/dave_line.c ****          grad->yadd = (edge[0].yadd << 4) / ctx->patscale;   /* PRQA S 4131 */ /* $Misra: #PERF_ARI
 5536                             		.loc 1 812 10 is_stmt 1 view .LVU2050
 812:../src/smc_gen/r_drw2d_rx/src/tes/dave_line.c ****          grad->yadd = (edge[0].yadd << 4) / ctx->patscale;   /* PRQA S 4131 */ /* $Misra: #PERF_ARI
 5537                             		.loc 1 812 31 is_stmt 0 view .LVU2051
 5538 0650 ED 0A 09                		mov.L	36[r0], r10
 812:../src/smc_gen/r_drw2d_rx/src/tes/dave_line.c ****          grad->yadd = (edge[0].yadd << 4) / ctx->patscale;   /* PRQA S 4131 */ /* $Misra: #PERF_ARI
 5539                             		.loc 1 812 37 view .LVU2052
 5540 0653 6C 4A                   		shll	#4, r10
 812:../src/smc_gen/r_drw2d_rx/src/tes/dave_line.c ****          grad->yadd = (edge[0].yadd << 4) / ctx->patscale;   /* PRQA S 4131 */ /* $Misra: #PERF_ARI
 5541                             		.loc 1 812 48 view .LVU2053
 5542 0655 ED D4 34                		mov.L	208[r13], r4
 812:../src/smc_gen/r_drw2d_rx/src/tes/dave_line.c ****          grad->yadd = (edge[0].yadd << 4) / ctx->patscale;   /* PRQA S 4131 */ /* $Misra: #PERF_ARI
 5543                             		.loc 1 812 43 view .LVU2054
 5544 0658 FC 23 4A                		div	r4, r10
 812:../src/smc_gen/r_drw2d_rx/src/tes/dave_line.c ****          grad->yadd = (edge[0].yadd << 4) / ctx->patscale;   /* PRQA S 4131 */ /* $Misra: #PERF_ARI
 5545                             		.loc 1 812 21 view .LVU2055
 5546 065b E7 DA 20                		mov.L	r10, 128[r13]
 813:../src/smc_gen/r_drw2d_rx/src/tes/dave_line.c ****       }
 5547                             		.loc 1 813 10 is_stmt 1 view .LVU2056
 813:../src/smc_gen/r_drw2d_rx/src/tes/dave_line.c ****       }
 5548                             		.loc 1 813 31 is_stmt 0 view .LVU2057
 5549 065e ED 0A 0A                		mov.L	40[r0], r10
 813:../src/smc_gen/r_drw2d_rx/src/tes/dave_line.c ****       }
 5550                             		.loc 1 813 37 view .LVU2058
 5551 0661 6C 4A                   		shll	#4, r10
 813:../src/smc_gen/r_drw2d_rx/src/tes/dave_line.c ****       }
 5552                             		.loc 1 813 43 view .LVU2059
 5553 0663 FC 23 4A                		div	r4, r10
 813:../src/smc_gen/r_drw2d_rx/src/tes/dave_line.c ****       }
 5554                             		.loc 1 813 21 view .LVU2060
 5555 0666 E7 DA 21                		mov.L	r10, 132[r13]
 5556 0669 38 0E FC                		bra	.L193
 5557                             	.LVL589:
 5558                             	.L194:
 813:../src/smc_gen/r_drw2d_rx/src/tes/dave_line.c ****       }
 5559                             		.loc 1 813 21 view .LVU2061
 5560                             	.LBE693:
 833:../src/smc_gen/r_drw2d_rx/src/tes/dave_line.c ****       dly = ay - by;
 5561                             		.loc 1 833 7 is_stmt 1 view .LVU2062
 833:../src/smc_gen/r_drw2d_rx/src/tes/dave_line.c ****       dly = ay - by;
 5562                             		.loc 1 833 11 is_stmt 0 view .LVU2063
 5563 066c ED 09 1A                		mov.L	104[r0], r9
 5564                             	.LVL590:
 833:../src/smc_gen/r_drw2d_rx/src/tes/dave_line.c ****       dly = ay - by;
 5565                             		.loc 1 833 11 view .LVU2064
 5566 066f ED 0A 20                		mov.L	128[r0], r10
 5567 0672 43 A9                   		sub	r10, r9
 5568                             	.LVL591:
 834:../src/smc_gen/r_drw2d_rx/src/tes/dave_line.c ****    }
 5569                             		.loc 1 834 7 is_stmt 1 view .LVU2065
 834:../src/smc_gen/r_drw2d_rx/src/tes/dave_line.c ****    }
 5570                             		.loc 1 834 11 is_stmt 0 view .LVU2066
 5571 0674 ED 0A 21                		mov.L	132[r0], r10
 5572 0677 FF 0C A8                		sub	r10, r8, r12
 5573                             	.LVL592:
 834:../src/smc_gen/r_drw2d_rx/src/tes/dave_line.c ****    }
 5574                             		.loc 1 834 11 view .LVU2067
 5575 067a 38 2D FC                		bra	.L195
 5576                             	.LVL593:
 5577                             	.L199:
 851:../src/smc_gen/r_drw2d_rx/src/tes/dave_line.c ****       }
 5578                             		.loc 1 851 10 is_stmt 1 view .LVU2068
 851:../src/smc_gen/r_drw2d_rx/src/tes/dave_line.c ****       }
 5579                             		.loc 1 851 32 is_stmt 0 view .LVU2069
 5580 067d DD 08 0B                		mov.W	22[r0], r8
 5581                             	.LVL594:
 851:../src/smc_gen/r_drw2d_rx/src/tes/dave_line.c ****       }
 5582                             		.loc 1 851 16 view .LVU2070
 5583 0680 FF 0A 68                		sub	r6, r8, r10
 5584                             	.LVL595:
 839:../src/smc_gen/r_drw2d_rx/src/tes/dave_line.c **** 
 5585                             		.loc 1 839 12 view .LVU2071
 5586 0683 66 1C                   		mov.L	#1, r12
 5587                             	.LVL596:
 839:../src/smc_gen/r_drw2d_rx/src/tes/dave_line.c **** 
 5588                             		.loc 1 839 12 view .LVU2072
 5589 0685 38 6B FC                		bra	.L200
 5590                             	.LVL597:
 5591                             	.L198:
 856:../src/smc_gen/r_drw2d_rx/src/tes/dave_line.c **** 
 5592                             		.loc 1 856 7 is_stmt 1 view .LVU2073
 858:../src/smc_gen/r_drw2d_rx/src/tes/dave_line.c ****       d2_setuptexture( handle, ctx, &bbox, 0 );
 5593                             		.loc 1 858 7 view .LVU2074
 5594 0688 66 04                   		mov.L	#0, r4
 5595 068a 75 43 10                		mov.L	#16, r3
 5596 068d 4B 03                   		add	r0, r3
 5597 068f EF D2                   		mov.L	r13, r2
 5598 0691 EF 71                   		mov.L	r7, r1
 5599 0693 05 00 00 00             		bsr	_d2_setuppattern
 5600                             	.LVL598:
 859:../src/smc_gen/r_drw2d_rx/src/tes/dave_line.c **** 
 5601                             		.loc 1 859 7 view .LVU2075
 5602 0697 66 04                   		mov.L	#0, r4
 5603 0699 75 43 10                		mov.L	#16, r3
 5604 069c 4B 03                   		add	r0, r3
 5605 069e EF D2                   		mov.L	r13, r2
 5606 06a0 EF 71                   		mov.L	r7, r1
 5607 06a2 05 00 00 00             		bsr	_d2_setuptexture
 5608                             	.LVL599:
 862:../src/smc_gen/r_drw2d_rx/src/tes/dave_line.c ****       {
 5609                             		.loc 1 862 7 view .LVU2076
 862:../src/smc_gen/r_drw2d_rx/src/tes/dave_line.c ****       {
 5610                             		.loc 1 862 9 is_stmt 0 view .LVU2077
 5611 06a6 ED 0A 15                		mov.L	84[r0], r10
 5612 06a9 47 A6                   		cmp	r10, r6
 5613 06ab 28 0D                   		bge	.L201
 864:../src/smc_gen/r_drw2d_rx/src/tes/dave_line.c ****       }
 5614                             		.loc 1 864 10 is_stmt 1 view .LVU2078
 864:../src/smc_gen/r_drw2d_rx/src/tes/dave_line.c ****       }
 5615                             		.loc 1 864 16 is_stmt 0 view .LVU2079
 5616 06ad EF 6A                   		mov.L	r6, r10
 5617 06af 06 41 0A 09             		sub	18[r0].W, r10
 5618                             	.LVL600:
 856:../src/smc_gen/r_drw2d_rx/src/tes/dave_line.c **** 
 5619                             		.loc 1 856 12 view .LVU2080
 5620 06b3 66 0C                   		mov.L	#0, r12
 5621                             	.LVL601:
 856:../src/smc_gen/r_drw2d_rx/src/tes/dave_line.c **** 
 5622                             		.loc 1 856 12 view .LVU2081
 5623 06b5 38 3B FC                		bra	.L200
 5624                             	.LVL602:
 5625                             	.L201:
 868:../src/smc_gen/r_drw2d_rx/src/tes/dave_line.c ****       }
 5626                             		.loc 1 868 10 is_stmt 1 view .LVU2082
 868:../src/smc_gen/r_drw2d_rx/src/tes/dave_line.c ****       }
 5627                             		.loc 1 868 16 is_stmt 0 view .LVU2083
 5628 06b8 ED 0A 15                		mov.L	84[r0], r10
 5629 06bb 06 41 0A 09             		sub	18[r0].W, r10
 5630                             	.LVL603:
 856:../src/smc_gen/r_drw2d_rx/src/tes/dave_line.c **** 
 5631                             		.loc 1 856 12 view .LVU2084
 5632 06bf 66 0C                   		mov.L	#0, r12
 5633                             	.LVL604:
 856:../src/smc_gen/r_drw2d_rx/src/tes/dave_line.c **** 
 5634                             		.loc 1 856 12 view .LVU2085
 5635 06c1 38 2F FC                		bra	.L200
 5636                             	.LVL605:
 5637                             	.L252:
 886:../src/smc_gen/r_drw2d_rx/src/tes/dave_line.c **** 
 5638                             		.loc 1 886 7 is_stmt 1 view .LVU2086
 886:../src/smc_gen/r_drw2d_rx/src/tes/dave_line.c **** 
 5639                             		.loc 1 886 17 is_stmt 0 view .LVU2087
 5640 06c4 E3 0A                   		mov.L	r10, [r0]
 5641 06c6 66 44                   		mov.L	#4, r4
 5642 06c8 75 43 10                		mov.L	#16, r3
 5643 06cb 4B 03                   		add	r0, r3
 5644 06cd EF D2                   		mov.L	r13, r2
 5645 06cf EF 71                   		mov.L	r7, r1
 5646 06d1 05 00 00 00             		bsr	_d2_initgradients_intern
 5647                             	.LVL606:
 5648 06d5 EF 1A                   		mov.L	r1, r10
 5649                             	.LVL607:
 888:../src/smc_gen/r_drw2d_rx/src/tes/dave_line.c ****       {
 5650                             		.loc 1 888 7 is_stmt 1 view .LVU2088
 888:../src/smc_gen/r_drw2d_rx/src/tes/dave_line.c ****       {
 5651                             		.loc 1 888 9 is_stmt 0 view .LVU2089
 5652 06d7 FD 70 C1 00 00 80 00    		tst	#0x800000, r1
 5653 06de 3B 36 FC                		bne	.L202
 890:../src/smc_gen/r_drw2d_rx/src/tes/dave_line.c ****       }
 5654                             		.loc 1 890 15 view .LVU2090
 5655 06e1 66 0C                   		mov.L	#0, r12
 5656                             	.LVL608:
 890:../src/smc_gen/r_drw2d_rx/src/tes/dave_line.c ****       }
 5657                             		.loc 1 890 15 view .LVU2091
 5658 06e3 38 31 FC                		bra	.L202
 5659                             	.LVL609:
 5660                             	.L203:
 904:../src/smc_gen/r_drw2d_rx/src/tes/dave_line.c ****    {
 5661                             		.loc 1 904 9 is_stmt 1 view .LVU2092
 904:../src/smc_gen/r_drw2d_rx/src/tes/dave_line.c ****    {
 5662                             		.loc 1 904 12 is_stmt 0 view .LVU2093
 5663 06e6 ED 0F 16                		mov.L	88[r0], r15
 5664 06e9 FD 74 CF 02             		tst	#2, r15
 5665 06ed 20 17                   		beq	.L205
 907:../src/smc_gen/r_drw2d_rx/src/tes/dave_line.c ****       xp = xs;
 5666                             		.loc 1 907 7 is_stmt 1 view .LVU2094
 907:../src/smc_gen/r_drw2d_rx/src/tes/dave_line.c ****       xp = xs;
 5667                             		.loc 1 907 14 is_stmt 0 view .LVU2095
 5668 06ef DD 09 3B                		mov.W	118[r0], r9
 5669                             	.LVL610:
 907:../src/smc_gen/r_drw2d_rx/src/tes/dave_line.c ****       xp = xs;
 5670                             		.loc 1 907 9 view .LVU2096
 5671 06f2 6A 19                   		shar	#1, r9
 5672                             	.LVL611:
 908:../src/smc_gen/r_drw2d_rx/src/tes/dave_line.c ****       yp = ys;
 5673                             		.loc 1 908 7 is_stmt 1 view .LVU2097
 909:../src/smc_gen/r_drw2d_rx/src/tes/dave_line.c ****       l = 0;
 5674                             		.loc 1 909 7 view .LVU2098
 910:../src/smc_gen/r_drw2d_rx/src/tes/dave_line.c ****       cap2 = 0;
 5675                             		.loc 1 910 7 view .LVU2099
 911:../src/smc_gen/r_drw2d_rx/src/tes/dave_line.c ****    }
 5676                             		.loc 1 911 7 view .LVU2100
 909:../src/smc_gen/r_drw2d_rx/src/tes/dave_line.c ****       l = 0;
 5677                             		.loc 1 909 10 is_stmt 0 view .LVU2101
 5678 06f4 E5 00 15 1B             		mov.L	84[r0], 108[r0]
 908:../src/smc_gen/r_drw2d_rx/src/tes/dave_line.c ****       yp = ys;
 5679                             		.loc 1 908 10 view .LVU2102
 5680 06f8 E5 00 18 19             		mov.L	96[r0], 100[r0]
 911:../src/smc_gen/r_drw2d_rx/src/tes/dave_line.c ****    }
 5681                             		.loc 1 911 12 view .LVU2103
 5682 06fc 3E 84 00                		mov.L	#0, 80[r0]
 5683                             	.LVL612:
 910:../src/smc_gen/r_drw2d_rx/src/tes/dave_line.c ****       cap2 = 0;
 5684                             		.loc 1 910 9 view .LVU2104
 5685 06ff 66 08                   		mov.L	#0, r8
 5686                             	.LVL613:
 910:../src/smc_gen/r_drw2d_rx/src/tes/dave_line.c ****       cap2 = 0;
 5687                             		.loc 1 910 9 view .LVU2105
 5688 0701 38 2D FC                		bra	.L204
 5689                             	.LVL614:
 5690                             	.L205:
 916:../src/smc_gen/r_drw2d_rx/src/tes/dave_line.c ****       if(w1 > w2)
 5691                             		.loc 1 916 7 is_stmt 1 view .LVU2106
 917:../src/smc_gen/r_drw2d_rx/src/tes/dave_line.c ****       {
 5692                             		.loc 1 917 7 view .LVU2107
 917:../src/smc_gen/r_drw2d_rx/src/tes/dave_line.c ****       {
 5693                             		.loc 1 917 9 is_stmt 0 view .LVU2108
 5694 0704 DD 05 3B                		mov.W	118[r0], r5
 5695 0707 DD 04 3A                		mov.W	116[r0], r4
 5696 070a 47 45                   		cmp	r4, r5
 5697 070c 2B 16                   		ble	.L206
 920:../src/smc_gen/r_drw2d_rx/src/tes/dave_line.c ****          xp = xs;
 5698                             		.loc 1 920 10 is_stmt 1 view .LVU2109
 920:../src/smc_gen/r_drw2d_rx/src/tes/dave_line.c ****          xp = xs;
 5699                             		.loc 1 920 17 is_stmt 0 view .LVU2110
 5700 070e EF 59                   		mov.L	r5, r9
 5701                             	.LVL615:
 920:../src/smc_gen/r_drw2d_rx/src/tes/dave_line.c ****          xp = xs;
 5702                             		.loc 1 920 12 view .LVU2111
 5703 0710 6A 19                   		shar	#1, r9
 5704                             	.LVL616:
 921:../src/smc_gen/r_drw2d_rx/src/tes/dave_line.c ****          yp = ys;
 5705                             		.loc 1 921 10 is_stmt 1 view .LVU2112
 922:../src/smc_gen/r_drw2d_rx/src/tes/dave_line.c ****          l = 0;
 5706                             		.loc 1 922 10 view .LVU2113
 923:../src/smc_gen/r_drw2d_rx/src/tes/dave_line.c ****       }
 5707                             		.loc 1 923 10 view .LVU2114
 922:../src/smc_gen/r_drw2d_rx/src/tes/dave_line.c ****          l = 0;
 5708                             		.loc 1 922 13 is_stmt 0 view .LVU2115
 5709 0712 E5 00 15 1B             		mov.L	84[r0], 108[r0]
 921:../src/smc_gen/r_drw2d_rx/src/tes/dave_line.c ****          yp = ys;
 5710                             		.loc 1 921 13 view .LVU2116
 5711 0716 E5 00 18 19             		mov.L	96[r0], 100[r0]
 916:../src/smc_gen/r_drw2d_rx/src/tes/dave_line.c ****       if(w1 > w2)
 5712                             		.loc 1 916 12 view .LVU2117
 5713 071a 3E 84 01                		mov.L	#1, 80[r0]
 5714                             	.LVL617:
 923:../src/smc_gen/r_drw2d_rx/src/tes/dave_line.c ****       }
 5715                             		.loc 1 923 12 view .LVU2118
 5716 071d 66 08                   		mov.L	#0, r8
 5717                             	.LVL618:
 923:../src/smc_gen/r_drw2d_rx/src/tes/dave_line.c ****       }
 5718                             		.loc 1 923 12 view .LVU2119
 5719 071f 38 0F FC                		bra	.L204
 5720                             	.LVL619:
 5721                             	.L206:
 928:../src/smc_gen/r_drw2d_rx/src/tes/dave_line.c ****          xp = xe;
 5722                             		.loc 1 928 10 is_stmt 1 view .LVU2120
 928:../src/smc_gen/r_drw2d_rx/src/tes/dave_line.c ****          xp = xe;
 5723                             		.loc 1 928 17 is_stmt 0 view .LVU2121
 5724 0722 DD 09 3A                		mov.W	116[r0], r9
 5725                             	.LVL620:
 928:../src/smc_gen/r_drw2d_rx/src/tes/dave_line.c ****          xp = xe;
 5726                             		.loc 1 928 12 view .LVU2122
 5727 0725 6A 19                   		shar	#1, r9
 5728                             	.LVL621:
 929:../src/smc_gen/r_drw2d_rx/src/tes/dave_line.c ****          yp = ye;
 5729                             		.loc 1 929 10 is_stmt 1 view .LVU2123
 930:../src/smc_gen/r_drw2d_rx/src/tes/dave_line.c ****          l = 1;
 5730                             		.loc 1 930 10 view .LVU2124
 931:../src/smc_gen/r_drw2d_rx/src/tes/dave_line.c ****       }
 5731                             		.loc 1 931 10 view .LVU2125
 930:../src/smc_gen/r_drw2d_rx/src/tes/dave_line.c ****          l = 1;
 5732                             		.loc 1 930 13 is_stmt 0 view .LVU2126
 5733 0727 A6 8E                   		mov.L	r6, 108[r0]
 929:../src/smc_gen/r_drw2d_rx/src/tes/dave_line.c ****          yp = ye;
 5734                             		.loc 1 929 13 view .LVU2127
 5735 0729 E5 00 17 19             		mov.L	92[r0], 100[r0]
 916:../src/smc_gen/r_drw2d_rx/src/tes/dave_line.c ****       if(w1 > w2)
 5736                             		.loc 1 916 12 view .LVU2128
 5737 072d 3E 84 01                		mov.L	#1, 80[r0]
 5738                             	.LVL622:
 931:../src/smc_gen/r_drw2d_rx/src/tes/dave_line.c ****       }
 5739                             		.loc 1 931 12 view .LVU2129
 5740 0730 ED 08 14                		mov.L	80[r0], r8
 5741                             	.LVL623:
 931:../src/smc_gen/r_drw2d_rx/src/tes/dave_line.c ****       }
 5742                             		.loc 1 931 12 view .LVU2130
 5743 0733 38 FB FB                		bra	.L204
 5744                             	.LVL624:
 5745                             	.L253:
 945:../src/smc_gen/r_drw2d_rx/src/tes/dave_line.c ****       d2_invertlimiter_intern(&edge[0], h);
 5746                             		.loc 1 945 7 is_stmt 1 view .LVU2131
 945:../src/smc_gen/r_drw2d_rx/src/tes/dave_line.c ****       d2_invertlimiter_intern(&edge[0], h);
 5747                             		.loc 1 945 11 is_stmt 0 view .LVU2132
 5748 0736 9A 8D                   		mov.W	22[r0], r5
 5749 0738 06 41 05 09             		sub	18[r0].W, r5
 945:../src/smc_gen/r_drw2d_rx/src/tes/dave_line.c ****       d2_invertlimiter_intern(&edge[0], h);
 5750                             		.loc 1 945 9 view .LVU2133
 5751 073c 6A 45                   		shar	#4, r5
 5752 073e A5 85                   		mov.L	r5, 88[r0]
 5753                             	.LVL625:
 946:../src/smc_gen/r_drw2d_rx/src/tes/dave_line.c ****       d2_invertlimiter_intern(&edge[1], h);
 5754                             		.loc 1 946 7 is_stmt 1 view .LVU2134
 5755 0740 EF 52                   		mov.L	r5, r2
 5756 0742 71 01 20                		add	#32, r0, r1
 5757 0745 05 00 00 00             		bsr	_d2_invertlimiter_intern
 5758                             	.LVL626:
 947:../src/smc_gen/r_drw2d_rx/src/tes/dave_line.c ****       d2_invertlimiter_intern(&edge[2], h);
 5759                             		.loc 1 947 7 view .LVU2135
 5760 0749 AD 82                   		mov.L	88[r0], r2
 5761 074b 71 01 2C                		add	#44, r0, r1
 5762 074e 05 00 00 00             		bsr	_d2_invertlimiter_intern
 5763                             	.LVL627:
 948:../src/smc_gen/r_drw2d_rx/src/tes/dave_line.c ****       d2_invertlimiter_intern(&edge[3], h);
 5764                             		.loc 1 948 7 view .LVU2136
 5765 0752 AD 82                   		mov.L	88[r0], r2
 5766 0754 71 01 38                		add	#56, r0, r1
 5767 0757 05 00 00 00             		bsr	_d2_invertlimiter_intern
 5768                             	.LVL628:
 949:../src/smc_gen/r_drw2d_rx/src/tes/dave_line.c ****    }
 5769                             		.loc 1 949 7 view .LVU2137
 5770 075b AD 82                   		mov.L	88[r0], r2
 5771 075d 71 01 44                		add	#0x44, r0, r1
 5772 0760 05 00 00 00             		bsr	_d2_invertlimiter_intern
 5773                             	.LVL629:
 5774 0764 38 04 FC                		bra	.L208
 5775                             	.LVL630:
 5776                             	.L254:
 5777                             	.LBB694:
 5778                             	.LBB632:
 5779                             	.LBB630:
 5780                             	.LBI630:
 319:../src/smc_gen/r_drw2d_rx/src/tes/dave_intern.h **** {
 5781                             		.loc 2 319 23 view .LVU2138
 5782                             	.LBB631:
 5783                             		.loc 2 330 7 view .LVU2139
 5784                             		.loc 2 330 13 is_stmt 0 view .LVU2140
 5785 0767 ED 7A 70                		mov.L	448[r7], r10
 5786                             		.loc 2 330 7 view .LVU2141
 5787 076a EF 71                   		mov.L	r7, r1
 5788 076c 7F 1A                   		jsr	r10
 5789                             	.LVL631:
 5790                             		.loc 2 330 7 view .LVU2142
 5791 076e 38 18 FC                		bra	.L209
 5792                             	.LVL632:
 5793                             	.L255:
 5794                             		.loc 2 330 7 view .LVU2143
 5795                             	.LBE631:
 5796                             	.LBE630:
 5797                             	.LBE632:
 5798                             	.LBE694:
 959:../src/smc_gen/r_drw2d_rx/src/tes/dave_line.c ****    {
 5799                             		.loc 1 959 87 discriminator 1 view .LVU2144
 5800 0771 ED 0A 1C                		mov.L	112[r0], r10
 5801 0774 61 2A                   		cmp	#2, r10
 5802 0776 3A 1A FC                		beq	.L210
 961:../src/smc_gen/r_drw2d_rx/src/tes/dave_line.c ****       {
 5803                             		.loc 1 961 7 is_stmt 1 view .LVU2145
 961:../src/smc_gen/r_drw2d_rx/src/tes/dave_line.c ****       {
 5804                             		.loc 1 961 9 is_stmt 0 view .LVU2146
 5805 0779 FD 78 CB 00 02          		tst	#0x200, r11
 5806 077e 21 26                   		bne	.L211
 963:../src/smc_gen/r_drw2d_rx/src/tes/dave_line.c ****          edge[0].xadd  = ((edge[0].xadd*16)  / ctx->blurring);
 5807                             		.loc 1 963 10 is_stmt 1 view .LVU2147
 963:../src/smc_gen/r_drw2d_rx/src/tes/dave_line.c ****          edge[0].xadd  = ((edge[0].xadd*16)  / ctx->blurring);
 5808                             		.loc 1 963 35 is_stmt 0 view .LVU2148
 5809 0780 ED 0A 08                		mov.L	32[r0], r10
 963:../src/smc_gen/r_drw2d_rx/src/tes/dave_line.c ****          edge[0].xadd  = ((edge[0].xadd*16)  / ctx->blurring);
 5810                             		.loc 1 963 41 view .LVU2149
 5811 0783 6C 4A                   		shll	#4, r10
 963:../src/smc_gen/r_drw2d_rx/src/tes/dave_line.c ****          edge[0].xadd  = ((edge[0].xadd*16)  / ctx->blurring);
 5812                             		.loc 1 963 51 view .LVU2150
 5813 0785 DD D5 0A                		mov.W	20[r13], r5
 963:../src/smc_gen/r_drw2d_rx/src/tes/dave_line.c ****          edge[0].xadd  = ((edge[0].xadd*16)  / ctx->blurring);
 5814                             		.loc 1 963 46 view .LVU2151
 5815 0788 FC 23 5A                		div	r5, r10
 963:../src/smc_gen/r_drw2d_rx/src/tes/dave_line.c ****          edge[0].xadd  = ((edge[0].xadd*16)  / ctx->blurring);
 5816                             		.loc 1 963 24 view .LVU2152
 5817 078b E7 0A 08                		mov.L	r10, 32[r0]
 964:../src/smc_gen/r_drw2d_rx/src/tes/dave_line.c ****          edge[0].yadd  = ((edge[0].yadd*16)  / ctx->blurring);
 5818                             		.loc 1 964 10 is_stmt 1 view .LVU2153
 964:../src/smc_gen/r_drw2d_rx/src/tes/dave_line.c ****          edge[0].yadd  = ((edge[0].yadd*16)  / ctx->blurring);
 5819                             		.loc 1 964 35 is_stmt 0 view .LVU2154
 5820 078e ED 0A 09                		mov.L	36[r0], r10
 964:../src/smc_gen/r_drw2d_rx/src/tes/dave_line.c ****          edge[0].yadd  = ((edge[0].yadd*16)  / ctx->blurring);
 5821                             		.loc 1 964 40 view .LVU2155
 5822 0791 6C 4A                   		shll	#4, r10
 964:../src/smc_gen/r_drw2d_rx/src/tes/dave_line.c ****          edge[0].yadd  = ((edge[0].yadd*16)  / ctx->blurring);
 5823                             		.loc 1 964 46 view .LVU2156
 5824 0793 FC 23 5A                		div	r5, r10
 964:../src/smc_gen/r_drw2d_rx/src/tes/dave_line.c ****          edge[0].yadd  = ((edge[0].yadd*16)  / ctx->blurring);
 5825                             		.loc 1 964 24 view .LVU2157
 5826 0796 E7 0A 09                		mov.L	r10, 36[r0]
 965:../src/smc_gen/r_drw2d_rx/src/tes/dave_line.c ****       }
 5827                             		.loc 1 965 10 is_stmt 1 view .LVU2158
 965:../src/smc_gen/r_drw2d_rx/src/tes/dave_line.c ****       }
 5828                             		.loc 1 965 35 is_stmt 0 view .LVU2159
 5829 0799 ED 0A 0A                		mov.L	40[r0], r10
 965:../src/smc_gen/r_drw2d_rx/src/tes/dave_line.c ****       }
 5830                             		.loc 1 965 40 view .LVU2160
 5831 079c 6C 4A                   		shll	#4, r10
 965:../src/smc_gen/r_drw2d_rx/src/tes/dave_line.c ****       }
 5832                             		.loc 1 965 46 view .LVU2161
 5833 079e FC 23 5A                		div	r5, r10
 965:../src/smc_gen/r_drw2d_rx/src/tes/dave_line.c ****       }
 5834                             		.loc 1 965 24 view .LVU2162
 5835 07a1 E7 0A 0A                		mov.L	r10, 40[r0]
 5836                             	.L211:
 967:../src/smc_gen/r_drw2d_rx/src/tes/dave_line.c ****       {
 5837                             		.loc 1 967 7 is_stmt 1 view .LVU2163
 967:../src/smc_gen/r_drw2d_rx/src/tes/dave_line.c ****       {
 5838                             		.loc 1 967 9 is_stmt 0 view .LVU2164
 5839 07a4 FD 78 CB 00 04          		tst	#0x400, r11
 5840 07a9 3B E7 FB                		bne	.L210
 969:../src/smc_gen/r_drw2d_rx/src/tes/dave_line.c ****          edge[1].xadd  = ((edge[1].xadd*16)  / ctx->blurring);
 5841                             		.loc 1 969 10 is_stmt 1 view .LVU2165
 969:../src/smc_gen/r_drw2d_rx/src/tes/dave_line.c ****          edge[1].xadd  = ((edge[1].xadd*16)  / ctx->blurring);
 5842                             		.loc 1 969 35 is_stmt 0 view .LVU2166
 5843 07ac ED 0A 0B                		mov.L	44[r0], r10
 969:../src/smc_gen/r_drw2d_rx/src/tes/dave_line.c ****          edge[1].xadd  = ((edge[1].xadd*16)  / ctx->blurring);
 5844                             		.loc 1 969 41 view .LVU2167
 5845 07af 6C 4A                   		shll	#4, r10
 969:../src/smc_gen/r_drw2d_rx/src/tes/dave_line.c ****          edge[1].xadd  = ((edge[1].xadd*16)  / ctx->blurring);
 5846                             		.loc 1 969 51 view .LVU2168
 5847 07b1 DD D5 0A                		mov.W	20[r13], r5
 969:../src/smc_gen/r_drw2d_rx/src/tes/dave_line.c ****          edge[1].xadd  = ((edge[1].xadd*16)  / ctx->blurring);
 5848                             		.loc 1 969 46 view .LVU2169
 5849 07b4 FC 23 5A                		div	r5, r10
 969:../src/smc_gen/r_drw2d_rx/src/tes/dave_line.c ****          edge[1].xadd  = ((edge[1].xadd*16)  / ctx->blurring);
 5850                             		.loc 1 969 24 view .LVU2170
 5851 07b7 E7 0A 0B                		mov.L	r10, 44[r0]
 970:../src/smc_gen/r_drw2d_rx/src/tes/dave_line.c ****          edge[1].yadd  = ((edge[1].yadd*16)  / ctx->blurring);
 5852                             		.loc 1 970 10 is_stmt 1 view .LVU2171
 970:../src/smc_gen/r_drw2d_rx/src/tes/dave_line.c ****          edge[1].yadd  = ((edge[1].yadd*16)  / ctx->blurring);
 5853                             		.loc 1 970 35 is_stmt 0 view .LVU2172
 5854 07ba ED 0A 0C                		mov.L	48[r0], r10
 970:../src/smc_gen/r_drw2d_rx/src/tes/dave_line.c ****          edge[1].yadd  = ((edge[1].yadd*16)  / ctx->blurring);
 5855                             		.loc 1 970 40 view .LVU2173
 5856 07bd 6C 4A                   		shll	#4, r10
 970:../src/smc_gen/r_drw2d_rx/src/tes/dave_line.c ****          edge[1].yadd  = ((edge[1].yadd*16)  / ctx->blurring);
 5857                             		.loc 1 970 46 view .LVU2174
 5858 07bf FC 23 5A                		div	r5, r10
 970:../src/smc_gen/r_drw2d_rx/src/tes/dave_line.c ****          edge[1].yadd  = ((edge[1].yadd*16)  / ctx->blurring);
 5859                             		.loc 1 970 24 view .LVU2175
 5860 07c2 E7 0A 0C                		mov.L	r10, 48[r0]
 971:../src/smc_gen/r_drw2d_rx/src/tes/dave_line.c ****       }
 5861                             		.loc 1 971 10 is_stmt 1 view .LVU2176
 971:../src/smc_gen/r_drw2d_rx/src/tes/dave_line.c ****       }
 5862                             		.loc 1 971 35 is_stmt 0 view .LVU2177
 5863 07c5 ED 0A 0D                		mov.L	52[r0], r10
 971:../src/smc_gen/r_drw2d_rx/src/tes/dave_line.c ****       }
 5864                             		.loc 1 971 40 view .LVU2178
 5865 07c8 6C 4A                   		shll	#4, r10
 971:../src/smc_gen/r_drw2d_rx/src/tes/dave_line.c ****       }
 5866                             		.loc 1 971 46 view .LVU2179
 5867 07ca FC 23 5A                		div	r5, r10
 971:../src/smc_gen/r_drw2d_rx/src/tes/dave_line.c ****       }
 5868                             		.loc 1 971 24 view .LVU2180
 5869 07cd E7 0A 0D                		mov.L	r10, 52[r0]
 5870 07d0 38 C0 FB                		bra	.L210
 5871                             	.LVL633:
 5872                             	.L256:
 5873                             	.LBB695:
 5874                             	.LBB637:
 5875                             	.LBB635:
 5876                             	.LBI635:
 319:../src/smc_gen/r_drw2d_rx/src/tes/dave_intern.h **** {
 5877                             		.loc 2 319 23 is_stmt 1 view .LVU2181
 5878                             	.LBB636:
 5879                             		.loc 2 330 7 view .LVU2182
 5880                             		.loc 2 330 13 is_stmt 0 view .LVU2183
 5881 07d3 ED 7A 70                		mov.L	448[r7], r10
 5882                             		.loc 2 330 7 view .LVU2184
 5883 07d6 EF 71                   		mov.L	r7, r1
 5884 07d8 7F 1A                   		jsr	r10
 5885                             	.LVL634:
 5886                             		.loc 2 330 7 view .LVU2185
 5887 07da 38 D6 FB                		bra	.L212
 5888                             	.LVL635:
 5889                             	.L257:
 5890                             		.loc 2 330 7 view .LVU2186
 5891                             	.LBE636:
 5892                             	.LBE635:
 5893                             	.LBE637:
 5894                             	.LBE695:
 5895                             	.LBB696:
 5896                             	.LBB642:
 5897                             	.LBB640:
 5898                             	.LBI640:
 319:../src/smc_gen/r_drw2d_rx/src/tes/dave_intern.h **** {
 5899                             		.loc 2 319 23 is_stmt 1 view .LVU2187
 5900                             	.LBB641:
 5901                             		.loc 2 330 7 view .LVU2188
 5902                             		.loc 2 330 13 is_stmt 0 view .LVU2189
 5903 07dd ED 7A 70                		mov.L	448[r7], r10
 5904                             		.loc 2 330 7 view .LVU2190
 5905 07e0 EF 71                   		mov.L	r7, r1
 5906 07e2 7F 1A                   		jsr	r10
 5907                             	.LVL636:
 5908                             		.loc 2 330 7 view .LVU2191
 5909 07e4 38 EC FB                		bra	.L213
 5910                             	.LVL637:
 5911                             	.L258:
 5912                             		.loc 2 330 7 view .LVU2192
 5913                             	.LBE641:
 5914                             	.LBE640:
 5915                             	.LBE642:
 5916                             	.LBE696:
 5917                             	.LBB697:
 5918                             	.LBB647:
 5919                             	.LBB645:
 5920                             	.LBI645:
 319:../src/smc_gen/r_drw2d_rx/src/tes/dave_intern.h **** {
 5921                             		.loc 2 319 23 is_stmt 1 view .LVU2193
 5922                             	.LBB646:
 5923                             		.loc 2 330 7 view .LVU2194
 5924                             		.loc 2 330 13 is_stmt 0 view .LVU2195
 5925 07e7 ED 7A 70                		mov.L	448[r7], r10
 5926                             		.loc 2 330 7 view .LVU2196
 5927 07ea EF 71                   		mov.L	r7, r1
 5928 07ec 7F 1A                   		jsr	r10
 5929                             	.LVL638:
 5930                             		.loc 2 330 7 view .LVU2197
 5931 07ee 38 02 FC                		bra	.L214
 5932                             	.LVL639:
 5933                             	.L259:
 5934                             		.loc 2 330 7 view .LVU2198
 5935                             	.LBE646:
 5936                             	.LBE645:
 5937                             	.LBE647:
 5938                             	.LBE697:
 5939                             	.LBB698:
 5940                             	.LBB652:
 5941                             	.LBB650:
 5942                             	.LBI650:
 319:../src/smc_gen/r_drw2d_rx/src/tes/dave_intern.h **** {
 5943                             		.loc 2 319 23 is_stmt 1 view .LVU2199
 5944                             	.LBB651:
 5945                             		.loc 2 330 7 view .LVU2200
 5946                             		.loc 2 330 13 is_stmt 0 view .LVU2201
 5947 07f1 ED 7A 70                		mov.L	448[r7], r10
 5948                             		.loc 2 330 7 view .LVU2202
 5949 07f4 EF 71                   		mov.L	r7, r1
 5950 07f6 7F 1A                   		jsr	r10
 5951                             	.LVL640:
 5952                             		.loc 2 330 7 view .LVU2203
 5953 07f8 38 18 FC                		bra	.L215
 5954                             	.LVL641:
 5955                             	.L260:
 5956                             		.loc 2 330 7 view .LVU2204
 5957                             	.LBE651:
 5958                             	.LBE650:
 5959                             	.LBE652:
 5960                             	.LBE698:
 5961                             	.LBB699:
 5962                             	.LBB657:
 5963                             	.LBB655:
 5964                             	.LBI655:
 319:../src/smc_gen/r_drw2d_rx/src/tes/dave_intern.h **** {
 5965                             		.loc 2 319 23 is_stmt 1 view .LVU2205
 5966                             	.LBB656:
 5967                             		.loc 2 330 7 view .LVU2206
 5968                             		.loc 2 330 13 is_stmt 0 view .LVU2207
 5969 07fb ED 7A 70                		mov.L	448[r7], r10
 5970                             		.loc 2 330 7 view .LVU2208
 5971 07fe EF 71                   		mov.L	r7, r1
 5972 0800 7F 1A                   		jsr	r10
 5973                             	.LVL642:
 5974                             		.loc 2 330 7 view .LVU2209
 5975 0802 38 2E FC                		bra	.L216
 5976                             	.LVL643:
 5977                             	.L261:
 5978                             		.loc 2 330 7 view .LVU2210
 5979                             	.LBE656:
 5980                             	.LBE655:
 5981                             	.LBE657:
 5982                             	.LBE699:
 5983                             	.LBB700:
 5984                             	.LBB662:
 5985                             	.LBB660:
 5986                             	.LBI660:
 319:../src/smc_gen/r_drw2d_rx/src/tes/dave_intern.h **** {
 5987                             		.loc 2 319 23 is_stmt 1 view .LVU2211
 5988                             	.LBB661:
 5989                             		.loc 2 330 7 view .LVU2212
 5990                             		.loc 2 330 13 is_stmt 0 view .LVU2213
 5991 0805 ED 7A 70                		mov.L	448[r7], r10
 5992                             		.loc 2 330 7 view .LVU2214
 5993 0808 EF 71                   		mov.L	r7, r1
 5994 080a 7F 1A                   		jsr	r10
 5995                             	.LVL644:
 5996                             		.loc 2 330 7 view .LVU2215
 5997 080c 38 44 FC                		bra	.L217
 5998                             	.LVL645:
 5999                             	.L262:
 6000                             		.loc 2 330 7 view .LVU2216
 6001                             	.LBE661:
 6002                             	.LBE660:
 6003                             	.LBE662:
 6004                             	.LBE700:
 6005                             	.LBB701:
 6006                             	.LBB667:
 6007                             	.LBB665:
 6008                             	.LBI665:
 319:../src/smc_gen/r_drw2d_rx/src/tes/dave_intern.h **** {
 6009                             		.loc 2 319 23 is_stmt 1 view .LVU2217
 6010                             	.LBB666:
 6011                             		.loc 2 330 7 view .LVU2218
 6012                             		.loc 2 330 13 is_stmt 0 view .LVU2219
 6013 080f ED 7A 70                		mov.L	448[r7], r10
 6014                             		.loc 2 330 7 view .LVU2220
 6015 0812 EF 71                   		mov.L	r7, r1
 6016 0814 7F 1A                   		jsr	r10
 6017                             	.LVL646:
 6018                             		.loc 2 330 7 view .LVU2221
 6019 0816 38 5A FC                		bra	.L218
 6020                             	.LVL647:
 6021                             	.L263:
 6022                             		.loc 2 330 7 view .LVU2222
 6023                             	.LBE666:
 6024                             	.LBE665:
 6025                             	.LBE667:
 6026                             	.LBE701:
 6027                             	.LBB702:
 6028                             	.LBB672:
 6029                             	.LBB670:
 6030                             	.LBI670:
 319:../src/smc_gen/r_drw2d_rx/src/tes/dave_intern.h **** {
 6031                             		.loc 2 319 23 is_stmt 1 view .LVU2223
 6032                             	.LBB671:
 6033                             		.loc 2 330 7 view .LVU2224
 6034                             		.loc 2 330 13 is_stmt 0 view .LVU2225
 6035 0819 ED 7A 70                		mov.L	448[r7], r10
 6036                             		.loc 2 330 7 view .LVU2226
 6037 081c EF 71                   		mov.L	r7, r1
 6038 081e 7F 1A                   		jsr	r10
 6039                             	.LVL648:
 6040                             		.loc 2 330 7 view .LVU2227
 6041 0820 38 70 FC                		bra	.L219
 6042                             	.LVL649:
 6043                             	.L264:
 6044                             		.loc 2 330 7 view .LVU2228
 6045                             	.LBE671:
 6046                             	.LBE670:
 6047                             	.LBE672:
 6048                             	.LBE702:
 6049                             	.LBB703:
 6050                             	.LBB677:
 6051                             	.LBB675:
 6052                             	.LBI675:
 319:../src/smc_gen/r_drw2d_rx/src/tes/dave_intern.h **** {
 6053                             		.loc 2 319 23 is_stmt 1 view .LVU2229
 6054                             	.LBB676:
 6055                             		.loc 2 330 7 view .LVU2230
 6056                             		.loc 2 330 13 is_stmt 0 view .LVU2231
 6057 0823 ED 7A 70                		mov.L	448[r7], r10
 6058                             		.loc 2 330 7 view .LVU2232
 6059 0826 EF 71                   		mov.L	r7, r1
 6060 0828 7F 1A                   		jsr	r10
 6061                             	.LVL650:
 6062                             		.loc 2 330 7 view .LVU2233
 6063 082a 38 86 FC                		bra	.L220
 6064                             	.LVL651:
 6065                             	.L265:
 6066                             		.loc 2 330 7 view .LVU2234
 6067                             	.LBE676:
 6068                             	.LBE675:
 6069                             	.LBE677:
 6070                             	.LBE703:
 6071                             	.LBB704:
 6072                             	.LBB682:
 6073                             	.LBB680:
 6074                             	.LBI680:
 319:../src/smc_gen/r_drw2d_rx/src/tes/dave_intern.h **** {
 6075                             		.loc 2 319 23 is_stmt 1 view .LVU2235
 6076                             	.LBB681:
 6077                             		.loc 2 330 7 view .LVU2236
 6078                             		.loc 2 330 13 is_stmt 0 view .LVU2237
 6079 082d ED 7A 70                		mov.L	448[r7], r10
 6080                             		.loc 2 330 7 view .LVU2238
 6081 0830 EF 71                   		mov.L	r7, r1
 6082 0832 7F 1A                   		jsr	r10
 6083                             	.LVL652:
 6084                             		.loc 2 330 7 view .LVU2239
 6085 0834 38 9C FC                		bra	.L221
 6086                             	.LVL653:
 6087                             	.L266:
 6088                             		.loc 2 330 7 view .LVU2240
 6089                             	.LBE681:
 6090                             	.LBE680:
 6091                             	.LBE682:
 6092                             	.LBE704:
 6093                             	.LBB705:
 6094                             	.LBB687:
 6095                             	.LBB685:
 6096                             	.LBI685:
 319:../src/smc_gen/r_drw2d_rx/src/tes/dave_intern.h **** {
 6097                             		.loc 2 319 23 is_stmt 1 view .LVU2241
 6098                             	.LBB686:
 6099                             		.loc 2 330 7 view .LVU2242
 6100                             		.loc 2 330 13 is_stmt 0 view .LVU2243
 6101 0837 ED 7A 70                		mov.L	448[r7], r10
 6102                             		.loc 2 330 7 view .LVU2244
 6103 083a EF 71                   		mov.L	r7, r1
 6104 083c 7F 1A                   		jsr	r10
 6105                             	.LVL654:
 6106                             		.loc 2 330 7 view .LVU2245
 6107 083e 38 B2 FC                		bra	.L222
 6108                             	.LVL655:
 6109                             	.L267:
 6110                             		.loc 2 330 7 view .LVU2246
 6111                             	.LBE686:
 6112                             	.LBE685:
 6113                             	.LBE687:
 6114                             	.LBE705:
 6115                             	.LBB706:
 6116                             	.LBB692:
 6117                             	.LBB690:
 6118                             	.LBI690:
 319:../src/smc_gen/r_drw2d_rx/src/tes/dave_intern.h **** {
 6119                             		.loc 2 319 23 is_stmt 1 view .LVU2247
 6120                             	.LBB691:
 6121                             		.loc 2 330 7 view .LVU2248
 6122                             		.loc 2 330 13 is_stmt 0 view .LVU2249
 6123 0841 ED 7A 70                		mov.L	448[r7], r10
 6124                             		.loc 2 330 7 view .LVU2250
 6125 0844 EF 71                   		mov.L	r7, r1
 6126 0846 7F 1A                   		jsr	r10
 6127                             	.LVL656:
 6128                             		.loc 2 330 7 view .LVU2251
 6129 0848 38 C8 FC                		bra	.L223
 6130                             	.LVL657:
 6131                             	.L224:
 6132                             		.loc 2 330 7 view .LVU2252
 6133                             	.LBE691:
 6134                             	.LBE690:
 6135                             	.LBE692:
 6136                             	.LBE706:
 996:../src/smc_gen/r_drw2d_rx/src/tes/dave_line.c ****    }
 6137                             		.loc 1 996 7 is_stmt 1 view .LVU2253
 6138 084b AE 83                   		mov.L	104[r0], r3
 6139 084d 75 42 10                		mov.L	#16, r2
 6140 0850 4B 02                   		add	r0, r2
 6141 0852 EF 71                   		mov.L	r7, r1
 6142 0854 05 00 00 00             		bsr	_d2_startrender_intern
 6143                             	.LVL658:
 6144 0858 38 CA FC                		bra	.L225
 6145                             	.L268:
1005:../src/smc_gen/r_drw2d_rx/src/tes/dave_line.c ****    bbox2.ymin = (d2_point) D2_FLOOR4( yp - r );
 6146                             		.loc 1 1005 4 view .LVU2254
1005:../src/smc_gen/r_drw2d_rx/src/tes/dave_line.c ****    bbox2.ymin = (d2_point) D2_FLOOR4( yp - r );
 6147                             		.loc 1 1005 28 is_stmt 0 view .LVU2255
 6148 085b ED 0A 19                		mov.L	100[r0], r10
 6149 085e 43 9A                   		sub	r9, r10
1005:../src/smc_gen/r_drw2d_rx/src/tes/dave_line.c ****    bbox2.ymin = (d2_point) D2_FLOOR4( yp - r );
 6150                             		.loc 1 1005 17 view .LVU2256
 6151 0860 75 2A F0                		and #-16, r10
1005:../src/smc_gen/r_drw2d_rx/src/tes/dave_line.c ****    bbox2.ymin = (d2_point) D2_FLOOR4( yp - r );
 6152                             		.loc 1 1005 15 view .LVU2257
 6153 0863 D7 0A 0C                		mov.W	r10, 24[r0]
1006:../src/smc_gen/r_drw2d_rx/src/tes/dave_line.c ****    bbox2.xmax = (d2_point) D2_CEIL4( xp + r );
 6154                             		.loc 1 1006 4 is_stmt 1 view .LVU2258
1006:../src/smc_gen/r_drw2d_rx/src/tes/dave_line.c ****    bbox2.xmax = (d2_point) D2_CEIL4( xp + r );
 6155                             		.loc 1 1006 28 is_stmt 0 view .LVU2259
 6156 0866 ED 0A 1B                		mov.L	108[r0], r10
 6157 0869 43 9A                   		sub	r9, r10
1006:../src/smc_gen/r_drw2d_rx/src/tes/dave_line.c ****    bbox2.xmax = (d2_point) D2_CEIL4( xp + r );
 6158                             		.loc 1 1006 17 view .LVU2260
 6159 086b 75 2A F0                		and #-16, r10
1006:../src/smc_gen/r_drw2d_rx/src/tes/dave_line.c ****    bbox2.xmax = (d2_point) D2_CEIL4( xp + r );
 6160                             		.loc 1 1006 15 view .LVU2261
 6161 086e D7 0A 0D                		mov.W	r10, 26[r0]
1007:../src/smc_gen/r_drw2d_rx/src/tes/dave_line.c ****    bbox2.ymax = (d2_point) D2_CEIL4( yp + r );
 6162                             		.loc 1 1007 4 is_stmt 1 view .LVU2262
1007:../src/smc_gen/r_drw2d_rx/src/tes/dave_line.c ****    bbox2.ymax = (d2_point) D2_CEIL4( yp + r );
 6163                             		.loc 1 1007 28 is_stmt 0 view .LVU2263
 6164 0871 ED 0A 19                		mov.L	100[r0], r10
 6165 0874 4B 9A                   		add	r9, r10
 6166 0876 62 FA                   		add	#15, r10
1007:../src/smc_gen/r_drw2d_rx/src/tes/dave_line.c ****    bbox2.ymax = (d2_point) D2_CEIL4( yp + r );
 6167                             		.loc 1 1007 17 view .LVU2264
 6168 0878 75 2A F0                		and #-16, r10
1007:../src/smc_gen/r_drw2d_rx/src/tes/dave_line.c ****    bbox2.ymax = (d2_point) D2_CEIL4( yp + r );
 6169                             		.loc 1 1007 15 view .LVU2265
 6170 087b D7 0A 0E                		mov.W	r10, 28[r0]
1008:../src/smc_gen/r_drw2d_rx/src/tes/dave_line.c **** 
 6171                             		.loc 1 1008 4 is_stmt 1 view .LVU2266
1008:../src/smc_gen/r_drw2d_rx/src/tes/dave_line.c **** 
 6172                             		.loc 1 1008 28 is_stmt 0 view .LVU2267
 6173 087e ED 0A 1B                		mov.L	108[r0], r10
 6174 0881 4B 9A                   		add	r9, r10
 6175 0883 62 FA                   		add	#15, r10
1008:../src/smc_gen/r_drw2d_rx/src/tes/dave_line.c **** 
 6176                             		.loc 1 1008 17 view .LVU2268
 6177 0885 75 2A F0                		and #-16, r10
1008:../src/smc_gen/r_drw2d_rx/src/tes/dave_line.c **** 
 6178                             		.loc 1 1008 15 view .LVU2269
 6179 0888 D7 0A 0F                		mov.W	r10, 30[r0]
1011:../src/smc_gen/r_drw2d_rx/src/tes/dave_line.c ****    {
 6180                             		.loc 1 1011 4 is_stmt 1 view .LVU2270
1011:../src/smc_gen/r_drw2d_rx/src/tes/dave_line.c ****    {
 6181                             		.loc 1 1011 12 is_stmt 0 view .LVU2271
 6182 088b 71 02 18                		add	#24, r0, r2
 6183 088e EF 71                   		mov.L	r7, r1
 6184 0890 05 00 00 00             		bsr	_d2_clipbbox_intern
 6185                             	.LVL659:
1011:../src/smc_gen/r_drw2d_rx/src/tes/dave_line.c ****    {
 6186                             		.loc 1 1011 6 view .LVU2272
 6187 0894 61 01                   		cmp	#0, r1
 6188 0896 21 31                   		bne	.L269
 6189                             	.LVL660:
 6190                             	.L226:
1081:../src/smc_gen/r_drw2d_rx/src/tes/dave_line.c ****    {
 6191                             		.loc 1 1081 4 is_stmt 1 view .LVU2273
1081:../src/smc_gen/r_drw2d_rx/src/tes/dave_line.c ****    {
 6192                             		.loc 1 1081 6 is_stmt 0 view .LVU2274
 6193 0898 ED 0A 14                		mov.L	80[r0], r10
 6194 089b 61 0A                   		cmp	#0, r10
 6195 089d 3A E5 02                		beq	.L244
1084:../src/smc_gen/r_drw2d_rx/src/tes/dave_line.c ****       {
 6196                             		.loc 1 1084 7 is_stmt 1 view .LVU2275
1084:../src/smc_gen/r_drw2d_rx/src/tes/dave_line.c ****       {
 6197                             		.loc 1 1084 9 is_stmt 0 view .LVU2276
 6198 08a0 61 18                   		cmp	#1, r8
 6199 08a2 3A D3 02                		beq	.L270
 6200                             	.LVL661:
 6201                             	.L239:
1099:../src/smc_gen/r_drw2d_rx/src/tes/dave_line.c ****    }
 6202                             		.loc 1 1099 7 is_stmt 1 view .LVU2277
1099:../src/smc_gen/r_drw2d_rx/src/tes/dave_line.c ****    }
 6203                             		.loc 1 1099 13 is_stmt 0 view .LVU2278
 6204 08a5 E5 00 27 03             		mov.L	156[r0], 12[r0]
 6205 08a9 E5 00 26 02             		mov.L	152[r0], 8[r0]
 6206 08ad 3E 01 01                		mov.L	#1, 4[r0]
 6207 08b0 ED 0A 23                		mov.L	140[r0], r10
 6208 08b3 D3 0A                   		mov.W	r10, [r0]
 6209 08b5 DF 64                   		mov.W	r6, r4
 6210 08b7 ED 0A 17                		mov.L	92[r0], r10
 6211 08ba DF A3                   		mov.W	r10, r3
 6212 08bc EF D2                   		mov.L	r13, r2
 6213 08be EF 71                   		mov.L	r7, r1
 6214 08c0 05 00 00 00             		bsr	_d2_renderlinedot_intern
 6215                             	.LVL662:
 6216 08c4 38 81 F7                		bra	.L171
 6217                             	.LVL663:
 6218                             	.L269:
1014:../src/smc_gen/r_drw2d_rx/src/tes/dave_line.c ****       yp = yp - bbox2.ymin;
 6219                             		.loc 1 1014 7 is_stmt 1 view .LVU2279
1014:../src/smc_gen/r_drw2d_rx/src/tes/dave_line.c ****       yp = yp - bbox2.ymin;
 6220                             		.loc 1 1014 22 is_stmt 0 view .LVU2280
 6221 08c7 9B 04                   		mov.W	24[r0], r4
 6222                             	.LVL664:
1015:../src/smc_gen/r_drw2d_rx/src/tes/dave_line.c **** 
 6223                             		.loc 1 1015 7 is_stmt 1 view .LVU2281
1015:../src/smc_gen/r_drw2d_rx/src/tes/dave_line.c **** 
 6224                             		.loc 1 1015 10 is_stmt 0 view .LVU2282
 6225 08c9 ED 0A 1B                		mov.L	108[r0], r10
 6226 08cc 06 41 0A 0D             		sub	26[r0].W, r10
 6227                             	.LVL665:
1018:../src/smc_gen/r_drw2d_rx/src/tes/dave_line.c **** 
 6228                             		.loc 1 1018 7 is_stmt 1 view .LVU2283
 6229 08d0 3E 03 00                		mov.L	#0, 12[r0]
 6230 08d3 3E 02 00                		mov.L	#0, 8[r0]
 6231 08d6 3E 01 00                		mov.L	#0, 4[r0]
 6232 08d9 D7 09 01                		mov.W	r9, 2[r0]
 6233 08dc D3 0A                   		mov.W	r10, [r0]
 6234 08de ED 0A 19                		mov.L	100[r0], r10
 6235                             	.LVL666:
1018:../src/smc_gen/r_drw2d_rx/src/tes/dave_line.c **** 
 6236                             		.loc 1 1018 7 is_stmt 0 view .LVU2284
 6237 08e1 FF 04 4A                		sub	r4, r10, r4
 6238                             	.LVL667:
1018:../src/smc_gen/r_drw2d_rx/src/tes/dave_line.c **** 
 6239                             		.loc 1 1018 7 view .LVU2285
 6240 08e4 66 03                   		mov.L	#0, r3
 6241 08e6 EF D2                   		mov.L	r13, r2
 6242 08e8 EF 71                   		mov.L	r7, r1
 6243 08ea 05 00 00 00             		bsr	_d2_circlesetup_intern
 6244                             	.LVL668:
1020:../src/smc_gen/r_drw2d_rx/src/tes/dave_line.c **** 
 6245                             		.loc 1 1020 7 is_stmt 1 view .LVU2286
1020:../src/smc_gen/r_drw2d_rx/src/tes/dave_line.c **** 
 6246                             		.loc 1 1020 15 is_stmt 0 view .LVU2287
 6247 08ee 62 F9                   		add	#15, r9
 6248                             	.LVL669:
1020:../src/smc_gen/r_drw2d_rx/src/tes/dave_line.c **** 
 6249                             		.loc 1 1020 13 view .LVU2288
 6250 08f0 68 49                   		shlr	#4, r9
 6251                             	.LVL670:
1023:../src/smc_gen/r_drw2d_rx/src/tes/dave_line.c ****       {
 6252                             		.loc 1 1023 7 is_stmt 1 view .LVU2289
1023:../src/smc_gen/r_drw2d_rx/src/tes/dave_line.c ****       {
 6253                             		.loc 1 1023 9 is_stmt 0 view .LVU2290
 6254 08f2 61 0C                   		cmp	#0, r12
 6255 08f4 3A 08 02                		beq	.L227
1025:../src/smc_gen/r_drw2d_rx/src/tes/dave_line.c ****          ny = D2_INT4(bbox2.ymin - bbox.ymin) - h;  /* PRQA S 0502 */ /* $Misra: #PERF_ARITHMETIC_S
 6256                             		.loc 1 1025 10 is_stmt 1 view .LVU2291
1025:../src/smc_gen/r_drw2d_rx/src/tes/dave_line.c ****          ny = D2_INT4(bbox2.ymin - bbox.ymin) - h;  /* PRQA S 0502 */ /* $Misra: #PERF_ARITHMETIC_S
 6257                             		.loc 1 1025 15 is_stmt 0 view .LVU2292
 6258 08f7 DD 0A 0C                		mov.W	24[r0], r10
 6259 08fa 9A 05                   		mov.W	16[r0], r5
 6260 08fc 43 5A                   		sub	r5, r10
1025:../src/smc_gen/r_drw2d_rx/src/tes/dave_line.c ****          ny = D2_INT4(bbox2.ymin - bbox.ymin) - h;  /* PRQA S 0502 */ /* $Misra: #PERF_ARITHMETIC_S
 6261                             		.loc 1 1025 13 view .LVU2293
 6262 08fe 6A 4A                   		shar	#4, r10
 6263                             	.LVL671:
1026:../src/smc_gen/r_drw2d_rx/src/tes/dave_line.c ****          edge[l].yadd = -edge[l].yadd;
 6264                             		.loc 1 1026 10 is_stmt 1 view .LVU2294
1026:../src/smc_gen/r_drw2d_rx/src/tes/dave_line.c ****          edge[l].yadd = -edge[l].yadd;
 6265                             		.loc 1 1026 15 is_stmt 0 view .LVU2295
 6266 0900 DD 0B 0D                		mov.W	26[r0], r11
 6267                             	.LVL672:
1026:../src/smc_gen/r_drw2d_rx/src/tes/dave_line.c ****          edge[l].yadd = -edge[l].yadd;
 6268                             		.loc 1 1026 15 view .LVU2296
 6269 0903 06 41 0B 09             		sub	18[r0].W, r11
 6270 0907 6A 4B                   		shar	#4, r11
1026:../src/smc_gen/r_drw2d_rx/src/tes/dave_line.c ****          edge[l].yadd = -edge[l].yadd;
 6271                             		.loc 1 1026 13 view .LVU2297
 6272 0909 ED 0E 16                		mov.L	88[r0], r14
 6273 090c 43 EB                   		sub	r14, r11
 6274                             	.LVL673:
1027:../src/smc_gen/r_drw2d_rx/src/tes/dave_line.c ****          edge[2].yadd = -edge[2].yadd;
 6275                             		.loc 1 1027 10 is_stmt 1 view .LVU2298
1027:../src/smc_gen/r_drw2d_rx/src/tes/dave_line.c ****          edge[2].yadd = -edge[2].yadd;
 6276                             		.loc 1 1027 33 is_stmt 0 view .LVU2299
 6277 090e 66 C5                   		mov.L	#12, r5
 6278 0910 4F 85                   		mul	r8, r5
 6279 0912 75 4F 10                		mov.L	#16, r15
 6280 0915 4B 0F                   		add	r0, r15
 6281 0917 4B F5                   		add	r15, r5
 6282 0919 A9 D4                   		mov.L	24[r5], r4
1027:../src/smc_gen/r_drw2d_rx/src/tes/dave_line.c ****          edge[2].yadd = -edge[2].yadd;
 6283                             		.loc 1 1027 25 view .LVU2300
 6284 091b 7E 14                   		neg	r4
1027:../src/smc_gen/r_drw2d_rx/src/tes/dave_line.c ****          edge[2].yadd = -edge[2].yadd;
 6285                             		.loc 1 1027 23 view .LVU2301
 6286 091d A1 D4                   		mov.L	r4, 24[r5]
1028:../src/smc_gen/r_drw2d_rx/src/tes/dave_line.c ****          edge[3].yadd = -edge[3].yadd;
 6287                             		.loc 1 1028 10 is_stmt 1 view .LVU2302
1028:../src/smc_gen/r_drw2d_rx/src/tes/dave_line.c ****          edge[3].yadd = -edge[3].yadd;
 6288                             		.loc 1 1028 33 is_stmt 0 view .LVU2303
 6289 091f AC 05                   		mov.L	64[r0], r5
1028:../src/smc_gen/r_drw2d_rx/src/tes/dave_line.c ****          edge[3].yadd = -edge[3].yadd;
 6290                             		.loc 1 1028 25 view .LVU2304
 6291 0921 7E 15                   		neg	r5
1028:../src/smc_gen/r_drw2d_rx/src/tes/dave_line.c ****          edge[3].yadd = -edge[3].yadd;
 6292                             		.loc 1 1028 23 view .LVU2305
 6293 0923 A4 05                   		mov.L	r5, 64[r0]
1029:../src/smc_gen/r_drw2d_rx/src/tes/dave_line.c ****       }
 6294                             		.loc 1 1029 10 is_stmt 1 view .LVU2306
1029:../src/smc_gen/r_drw2d_rx/src/tes/dave_line.c ****       }
 6295                             		.loc 1 1029 33 is_stmt 0 view .LVU2307
 6296 0925 AC 8D                   		mov.L	76[r0], r5
1029:../src/smc_gen/r_drw2d_rx/src/tes/dave_line.c ****       }
 6297                             		.loc 1 1029 25 view .LVU2308
 6298 0927 7E 15                   		neg	r5
1029:../src/smc_gen/r_drw2d_rx/src/tes/dave_line.c ****       }
 6299                             		.loc 1 1029 23 view .LVU2309
 6300 0929 A4 8D                   		mov.L	r5, 76[r0]
 6301                             	.L228:
1037:../src/smc_gen/r_drw2d_rx/src/tes/dave_line.c ****       d2_setuptexture( handle, ctx, &bbox2, 0 );
 6302                             		.loc 1 1037 7 is_stmt 1 view .LVU2310
 6303 092b 66 04                   		mov.L	#0, r4
 6304 092d 75 43 18                		mov.L	#24, r3
 6305 0930 4B 03                   		add	r0, r3
 6306 0932 EF D2                   		mov.L	r13, r2
 6307 0934 EF 71                   		mov.L	r7, r1
 6308 0936 05 00 00 00             		bsr	_d2_setuppattern
 6309                             	.LVL674:
1038:../src/smc_gen/r_drw2d_rx/src/tes/dave_line.c **** 
 6310                             		.loc 1 1038 7 view .LVU2311
 6311 093a 66 04                   		mov.L	#0, r4
 6312 093c 75 43 18                		mov.L	#24, r3
 6313 093f 4B 03                   		add	r0, r3
 6314 0941 EF D2                   		mov.L	r13, r2
 6315 0943 EF 71                   		mov.L	r7, r1
 6316 0945 05 00 00 00             		bsr	_d2_setuptexture
 6317                             	.LVL675:
1040:../src/smc_gen/r_drw2d_rx/src/tes/dave_line.c ****       D2_DLISTWRITES( D2_L3XADD , edge[2].xadd );
 6318                             		.loc 1 1040 7 view .LVU2312
 6319 0949 AB 8D                   		mov.L	60[r0], r5
 6320 094b 4F A5                   		mul	r10, r5
 6321 094d 06 89 05 0E             		add	56[r0], r5
 6322 0951 AC 04                   		mov.L	64[r0], r4
 6323 0953 4F B4                   		mul	r11, r4
 6324 0955 4B 45                   		add	r4, r5
 6325                             	.LVL676:
 6326                             	.LBB707:
 6327                             	.LBI707:
 319:../src/smc_gen/r_drw2d_rx/src/tes/dave_intern.h **** {
 6328                             		.loc 2 319 23 view .LVU2313
 6329                             	.LBB708:
 321:../src/smc_gen/r_drw2d_rx/src/tes/dave_intern.h ****    handle->dlscratch_pos++;
 6330                             		.loc 2 321 4 view .LVU2314
 321:../src/smc_gen/r_drw2d_rx/src/tes/dave_intern.h ****    handle->dlscratch_pos++;
 6331                             		.loc 2 321 28 is_stmt 0 view .LVU2315
 6332 0957 ED 74 6E                		mov.L	440[r7], r4
 6333                             	.LVL677:
 322:../src/smc_gen/r_drw2d_rx/src/tes/dave_intern.h **** 
 6334                             		.loc 2 322 4 is_stmt 1 view .LVU2316
 322:../src/smc_gen/r_drw2d_rx/src/tes/dave_intern.h **** 
 6335                             		.loc 2 322 25 is_stmt 0 view .LVU2317
 6336 095a 71 43 08                		add	#8, r4, r3
 6337 095d E7 73 6E                		mov.L	r3, 440[r7]
 324:../src/smc_gen/r_drw2d_rx/src/tes/dave_intern.h ****    entry->value = value;
 6338                             		.loc 2 324 4 is_stmt 1 view .LVU2318
 324:../src/smc_gen/r_drw2d_rx/src/tes/dave_intern.h ****    entry->value = value;
 6339                             		.loc 2 324 17 is_stmt 0 view .LVU2319
 6340 0960 F8 46 06                		mov.L	#6, [r4]
 325:../src/smc_gen/r_drw2d_rx/src/tes/dave_intern.h **** 
 6341                             		.loc 2 325 4 is_stmt 1 view .LVU2320
 325:../src/smc_gen/r_drw2d_rx/src/tes/dave_intern.h **** 
 6342                             		.loc 2 325 17 is_stmt 0 view .LVU2321
 6343 0963 A0 4D                   		mov.L	r5, 4[r4]
 327:../src/smc_gen/r_drw2d_rx/src/tes/dave_intern.h ****    if(handle->dlscratch_cnt <= 0)
 6344                             		.loc 2 327 4 is_stmt 1 view .LVU2322
 327:../src/smc_gen/r_drw2d_rx/src/tes/dave_intern.h ****    if(handle->dlscratch_cnt <= 0)
 6345                             		.loc 2 327 12 is_stmt 0 view .LVU2323
 6346 0965 ED 75 6F                		mov.L	444[r7], r5
 6347                             	.LVL678:
 327:../src/smc_gen/r_drw2d_rx/src/tes/dave_intern.h ****    if(handle->dlscratch_cnt <= 0)
 6348                             		.loc 2 327 4 view .LVU2324
 6349 0968 60 15                   		sub	#1, r5
 6350 096a E7 75 6F                		mov.L	r5, 444[r7]
 6351                             	.LVL679:
 328:../src/smc_gen/r_drw2d_rx/src/tes/dave_intern.h ****    {
 6352                             		.loc 2 328 4 is_stmt 1 view .LVU2325
 328:../src/smc_gen/r_drw2d_rx/src/tes/dave_intern.h ****    {
 6353                             		.loc 2 328 6 is_stmt 0 view .LVU2326
 6354 096d 61 05                   		cmp	#0, r5
 6355 096f 2A 05 38 A0 01          		ble	.L271
 6356                             	.LVL680:
 6357                             	.L229:
 328:../src/smc_gen/r_drw2d_rx/src/tes/dave_intern.h ****    {
 6358                             		.loc 2 328 6 view .LVU2327
 6359                             	.LBE708:
 6360                             	.LBE707:
1041:../src/smc_gen/r_drw2d_rx/src/tes/dave_line.c ****       D2_DLISTWRITES( D2_L3YADD , edge[2].yadd );
 6361                             		.loc 1 1041 7 is_stmt 1 view .LVU2328
 6362 0974 AB 8C                   		mov.L	60[r0], r4
 6363                             	.LVL681:
 6364                             	.LBB712:
 6365                             	.LBI712:
 319:../src/smc_gen/r_drw2d_rx/src/tes/dave_intern.h **** {
 6366                             		.loc 2 319 23 view .LVU2329
 6367                             	.LBB713:
 321:../src/smc_gen/r_drw2d_rx/src/tes/dave_intern.h ****    handle->dlscratch_pos++;
 6368                             		.loc 2 321 4 view .LVU2330
 321:../src/smc_gen/r_drw2d_rx/src/tes/dave_intern.h ****    handle->dlscratch_pos++;
 6369                             		.loc 2 321 28 is_stmt 0 view .LVU2331
 6370 0976 ED 75 6E                		mov.L	440[r7], r5
 6371                             	.LVL682:
 322:../src/smc_gen/r_drw2d_rx/src/tes/dave_intern.h **** 
 6372                             		.loc 2 322 4 is_stmt 1 view .LVU2332
 322:../src/smc_gen/r_drw2d_rx/src/tes/dave_intern.h **** 
 6373                             		.loc 2 322 25 is_stmt 0 view .LVU2333
 6374 0979 71 53 08                		add	#8, r5, r3
 6375 097c E7 73 6E                		mov.L	r3, 440[r7]
 324:../src/smc_gen/r_drw2d_rx/src/tes/dave_intern.h ****    entry->value = value;
 6376                             		.loc 2 324 4 is_stmt 1 view .LVU2334
 324:../src/smc_gen/r_drw2d_rx/src/tes/dave_intern.h ****    entry->value = value;
 6377                             		.loc 2 324 17 is_stmt 0 view .LVU2335
 6378 097f F8 56 0C                		mov.L	#12, [r5]
 325:../src/smc_gen/r_drw2d_rx/src/tes/dave_intern.h **** 
 6379                             		.loc 2 325 4 is_stmt 1 view .LVU2336
 325:../src/smc_gen/r_drw2d_rx/src/tes/dave_intern.h **** 
 6380                             		.loc 2 325 17 is_stmt 0 view .LVU2337
 6381 0982 A0 5C                   		mov.L	r4, 4[r5]
 327:../src/smc_gen/r_drw2d_rx/src/tes/dave_intern.h ****    if(handle->dlscratch_cnt <= 0)
 6382                             		.loc 2 327 4 is_stmt 1 view .LVU2338
 327:../src/smc_gen/r_drw2d_rx/src/tes/dave_intern.h ****    if(handle->dlscratch_cnt <= 0)
 6383                             		.loc 2 327 12 is_stmt 0 view .LVU2339
 6384 0984 ED 75 6F                		mov.L	444[r7], r5
 6385                             	.LVL683:
 327:../src/smc_gen/r_drw2d_rx/src/tes/dave_intern.h ****    if(handle->dlscratch_cnt <= 0)
 6386                             		.loc 2 327 4 view .LVU2340
 6387 0987 60 15                   		sub	#1, r5
 6388 0989 E7 75 6F                		mov.L	r5, 444[r7]
 328:../src/smc_gen/r_drw2d_rx/src/tes/dave_intern.h ****    {
 6389                             		.loc 2 328 4 is_stmt 1 view .LVU2341
 328:../src/smc_gen/r_drw2d_rx/src/tes/dave_intern.h ****    {
 6390                             		.loc 2 328 6 is_stmt 0 view .LVU2342
 6391 098c 61 05                   		cmp	#0, r5
 6392 098e 2A 05 38 8B 01          		ble	.L272
 6393                             	.LVL684:
 6394                             	.L230:
 328:../src/smc_gen/r_drw2d_rx/src/tes/dave_intern.h ****    {
 6395                             		.loc 2 328 6 view .LVU2343
 6396                             	.LBE713:
 6397                             	.LBE712:
1042:../src/smc_gen/r_drw2d_rx/src/tes/dave_line.c ****       D2_DLISTWRITES( D2_L4START, edge[3].start + (edge[3].xadd * nx) + (edge[3].yadd * ny) );
 6398                             		.loc 1 1042 7 is_stmt 1 view .LVU2344
 6399 0993 AC 04                   		mov.L	64[r0], r4
 6400                             	.LVL685:
 6401                             	.LBB717:
 6402                             	.LBI717:
 319:../src/smc_gen/r_drw2d_rx/src/tes/dave_intern.h **** {
 6403                             		.loc 2 319 23 view .LVU2345
 6404                             	.LBB718:
 321:../src/smc_gen/r_drw2d_rx/src/tes/dave_intern.h ****    handle->dlscratch_pos++;
 6405                             		.loc 2 321 4 view .LVU2346
 321:../src/smc_gen/r_drw2d_rx/src/tes/dave_intern.h ****    handle->dlscratch_pos++;
 6406                             		.loc 2 321 28 is_stmt 0 view .LVU2347
 6407 0995 ED 75 6E                		mov.L	440[r7], r5
 6408                             	.LVL686:
 322:../src/smc_gen/r_drw2d_rx/src/tes/dave_intern.h **** 
 6409                             		.loc 2 322 4 is_stmt 1 view .LVU2348
 322:../src/smc_gen/r_drw2d_rx/src/tes/dave_intern.h **** 
 6410                             		.loc 2 322 25 is_stmt 0 view .LVU2349
 6411 0998 71 53 08                		add	#8, r5, r3
 6412 099b E7 73 6E                		mov.L	r3, 440[r7]
 324:../src/smc_gen/r_drw2d_rx/src/tes/dave_intern.h ****    entry->value = value;
 6413                             		.loc 2 324 4 is_stmt 1 view .LVU2350
 324:../src/smc_gen/r_drw2d_rx/src/tes/dave_intern.h ****    entry->value = value;
 6414                             		.loc 2 324 17 is_stmt 0 view .LVU2351
 6415 099e F8 56 12                		mov.L	#18, [r5]
 325:../src/smc_gen/r_drw2d_rx/src/tes/dave_intern.h **** 
 6416                             		.loc 2 325 4 is_stmt 1 view .LVU2352
 325:../src/smc_gen/r_drw2d_rx/src/tes/dave_intern.h **** 
 6417                             		.loc 2 325 17 is_stmt 0 view .LVU2353
 6418 09a1 A0 5C                   		mov.L	r4, 4[r5]
 327:../src/smc_gen/r_drw2d_rx/src/tes/dave_intern.h ****    if(handle->dlscratch_cnt <= 0)
 6419                             		.loc 2 327 4 is_stmt 1 view .LVU2354
 327:../src/smc_gen/r_drw2d_rx/src/tes/dave_intern.h ****    if(handle->dlscratch_cnt <= 0)
 6420                             		.loc 2 327 12 is_stmt 0 view .LVU2355
 6421 09a3 ED 75 6F                		mov.L	444[r7], r5
 6422                             	.LVL687:
 327:../src/smc_gen/r_drw2d_rx/src/tes/dave_intern.h ****    if(handle->dlscratch_cnt <= 0)
 6423                             		.loc 2 327 4 view .LVU2356
 6424 09a6 60 15                   		sub	#1, r5
 6425 09a8 E7 75 6F                		mov.L	r5, 444[r7]
 328:../src/smc_gen/r_drw2d_rx/src/tes/dave_intern.h ****    {
 6426                             		.loc 2 328 4 is_stmt 1 view .LVU2357
 328:../src/smc_gen/r_drw2d_rx/src/tes/dave_intern.h ****    {
 6427                             		.loc 2 328 6 is_stmt 0 view .LVU2358
 6428 09ab 61 05                   		cmp	#0, r5
 6429 09ad 2A 05 38 76 01          		ble	.L273
 6430                             	.LVL688:
 6431                             	.L231:
 328:../src/smc_gen/r_drw2d_rx/src/tes/dave_intern.h ****    {
 6432                             		.loc 2 328 6 view .LVU2359
 6433                             	.LBE718:
 6434                             	.LBE717:
1043:../src/smc_gen/r_drw2d_rx/src/tes/dave_line.c ****       D2_DLISTWRITES( D2_L4XADD , edge[3].xadd );
 6435                             		.loc 1 1043 7 is_stmt 1 view .LVU2360
 6436 09b2 AC 85                   		mov.L	72[r0], r5
 6437 09b4 4F A5                   		mul	r10, r5
 6438 09b6 06 89 05 11             		add	68[r0], r5
 6439 09ba AC 8C                   		mov.L	76[r0], r4
 6440 09bc 4F B4                   		mul	r11, r4
 6441 09be 4B 45                   		add	r4, r5
 6442                             	.LVL689:
 6443                             	.LBB722:
 6444                             	.LBI722:
 319:../src/smc_gen/r_drw2d_rx/src/tes/dave_intern.h **** {
 6445                             		.loc 2 319 23 view .LVU2361
 6446                             	.LBB723:
 321:../src/smc_gen/r_drw2d_rx/src/tes/dave_intern.h ****    handle->dlscratch_pos++;
 6447                             		.loc 2 321 4 view .LVU2362
 321:../src/smc_gen/r_drw2d_rx/src/tes/dave_intern.h ****    handle->dlscratch_pos++;
 6448                             		.loc 2 321 28 is_stmt 0 view .LVU2363
 6449 09c0 ED 74 6E                		mov.L	440[r7], r4
 6450                             	.LVL690:
 322:../src/smc_gen/r_drw2d_rx/src/tes/dave_intern.h **** 
 6451                             		.loc 2 322 4 is_stmt 1 view .LVU2364
 322:../src/smc_gen/r_drw2d_rx/src/tes/dave_intern.h **** 
 6452                             		.loc 2 322 25 is_stmt 0 view .LVU2365
 6453 09c3 71 43 08                		add	#8, r4, r3
 6454 09c6 E7 73 6E                		mov.L	r3, 440[r7]
 324:../src/smc_gen/r_drw2d_rx/src/tes/dave_intern.h ****    entry->value = value;
 6455                             		.loc 2 324 4 is_stmt 1 view .LVU2366
 324:../src/smc_gen/r_drw2d_rx/src/tes/dave_intern.h ****    entry->value = value;
 6456                             		.loc 2 324 17 is_stmt 0 view .LVU2367
 6457 09c9 F8 46 07                		mov.L	#7, [r4]
 325:../src/smc_gen/r_drw2d_rx/src/tes/dave_intern.h **** 
 6458                             		.loc 2 325 4 is_stmt 1 view .LVU2368
 325:../src/smc_gen/r_drw2d_rx/src/tes/dave_intern.h **** 
 6459                             		.loc 2 325 17 is_stmt 0 view .LVU2369
 6460 09cc A0 4D                   		mov.L	r5, 4[r4]
 327:../src/smc_gen/r_drw2d_rx/src/tes/dave_intern.h ****    if(handle->dlscratch_cnt <= 0)
 6461                             		.loc 2 327 4 is_stmt 1 view .LVU2370
 327:../src/smc_gen/r_drw2d_rx/src/tes/dave_intern.h ****    if(handle->dlscratch_cnt <= 0)
 6462                             		.loc 2 327 12 is_stmt 0 view .LVU2371
 6463 09ce ED 75 6F                		mov.L	444[r7], r5
 6464                             	.LVL691:
 327:../src/smc_gen/r_drw2d_rx/src/tes/dave_intern.h ****    if(handle->dlscratch_cnt <= 0)
 6465                             		.loc 2 327 4 view .LVU2372
 6466 09d1 60 15                   		sub	#1, r5
 6467 09d3 E7 75 6F                		mov.L	r5, 444[r7]
 6468                             	.LVL692:
 328:../src/smc_gen/r_drw2d_rx/src/tes/dave_intern.h ****    {
 6469                             		.loc 2 328 4 is_stmt 1 view .LVU2373
 328:../src/smc_gen/r_drw2d_rx/src/tes/dave_intern.h ****    {
 6470                             		.loc 2 328 6 is_stmt 0 view .LVU2374
 6471 09d6 61 05                   		cmp	#0, r5
 6472 09d8 2A 05 38 55 01          		ble	.L274
 6473                             	.LVL693:
 6474                             	.L232:
 328:../src/smc_gen/r_drw2d_rx/src/tes/dave_intern.h ****    {
 6475                             		.loc 2 328 6 view .LVU2375
 6476                             	.LBE723:
 6477                             	.LBE722:
1044:../src/smc_gen/r_drw2d_rx/src/tes/dave_line.c ****       D2_DLISTWRITES( D2_L4YADD , edge[3].yadd );
 6478                             		.loc 1 1044 7 is_stmt 1 view .LVU2376
 6479 09dd AC 84                   		mov.L	72[r0], r4
 6480                             	.LVL694:
 6481                             	.LBB727:
 6482                             	.LBI727:
 319:../src/smc_gen/r_drw2d_rx/src/tes/dave_intern.h **** {
 6483                             		.loc 2 319 23 view .LVU2377
 6484                             	.LBB728:
 321:../src/smc_gen/r_drw2d_rx/src/tes/dave_intern.h ****    handle->dlscratch_pos++;
 6485                             		.loc 2 321 4 view .LVU2378
 321:../src/smc_gen/r_drw2d_rx/src/tes/dave_intern.h ****    handle->dlscratch_pos++;
 6486                             		.loc 2 321 28 is_stmt 0 view .LVU2379
 6487 09df ED 75 6E                		mov.L	440[r7], r5
 6488                             	.LVL695:
 322:../src/smc_gen/r_drw2d_rx/src/tes/dave_intern.h **** 
 6489                             		.loc 2 322 4 is_stmt 1 view .LVU2380
 322:../src/smc_gen/r_drw2d_rx/src/tes/dave_intern.h **** 
 6490                             		.loc 2 322 25 is_stmt 0 view .LVU2381
 6491 09e2 71 53 08                		add	#8, r5, r3
 6492 09e5 E7 73 6E                		mov.L	r3, 440[r7]
 324:../src/smc_gen/r_drw2d_rx/src/tes/dave_intern.h ****    entry->value = value;
 6493                             		.loc 2 324 4 is_stmt 1 view .LVU2382
 324:../src/smc_gen/r_drw2d_rx/src/tes/dave_intern.h ****    entry->value = value;
 6494                             		.loc 2 324 17 is_stmt 0 view .LVU2383
 6495 09e8 F8 56 0D                		mov.L	#13, [r5]
 325:../src/smc_gen/r_drw2d_rx/src/tes/dave_intern.h **** 
 6496                             		.loc 2 325 4 is_stmt 1 view .LVU2384
 325:../src/smc_gen/r_drw2d_rx/src/tes/dave_intern.h **** 
 6497                             		.loc 2 325 17 is_stmt 0 view .LVU2385
 6498 09eb A0 5C                   		mov.L	r4, 4[r5]
 327:../src/smc_gen/r_drw2d_rx/src/tes/dave_intern.h ****    if(handle->dlscratch_cnt <= 0)
 6499                             		.loc 2 327 4 is_stmt 1 view .LVU2386
 327:../src/smc_gen/r_drw2d_rx/src/tes/dave_intern.h ****    if(handle->dlscratch_cnt <= 0)
 6500                             		.loc 2 327 12 is_stmt 0 view .LVU2387
 6501 09ed ED 75 6F                		mov.L	444[r7], r5
 6502                             	.LVL696:
 327:../src/smc_gen/r_drw2d_rx/src/tes/dave_intern.h ****    if(handle->dlscratch_cnt <= 0)
 6503                             		.loc 2 327 4 view .LVU2388
 6504 09f0 60 15                   		sub	#1, r5
 6505 09f2 E7 75 6F                		mov.L	r5, 444[r7]
 328:../src/smc_gen/r_drw2d_rx/src/tes/dave_intern.h ****    {
 6506                             		.loc 2 328 4 is_stmt 1 view .LVU2389
 328:../src/smc_gen/r_drw2d_rx/src/tes/dave_intern.h ****    {
 6507                             		.loc 2 328 6 is_stmt 0 view .LVU2390
 6508 09f5 61 05                   		cmp	#0, r5
 6509 09f7 2A 05 38 40 01          		ble	.L275
 6510                             	.LVL697:
 6511                             	.L233:
 328:../src/smc_gen/r_drw2d_rx/src/tes/dave_intern.h ****    {
 6512                             		.loc 2 328 6 view .LVU2391
 6513                             	.LBE728:
 6514                             	.LBE727:
1045:../src/smc_gen/r_drw2d_rx/src/tes/dave_line.c ****       D2_DLISTWRITES( D2_L5START, 
 6515                             		.loc 1 1045 7 is_stmt 1 view .LVU2392
 6516 09fc AC 8C                   		mov.L	76[r0], r4
 6517                             	.LVL698:
 6518                             	.LBB732:
 6519                             	.LBI732:
 319:../src/smc_gen/r_drw2d_rx/src/tes/dave_intern.h **** {
 6520                             		.loc 2 319 23 view .LVU2393
 6521                             	.LBB733:
 321:../src/smc_gen/r_drw2d_rx/src/tes/dave_intern.h ****    handle->dlscratch_pos++;
 6522                             		.loc 2 321 4 view .LVU2394
 321:../src/smc_gen/r_drw2d_rx/src/tes/dave_intern.h ****    handle->dlscratch_pos++;
 6523                             		.loc 2 321 28 is_stmt 0 view .LVU2395
 6524 09fe ED 75 6E                		mov.L	440[r7], r5
 6525                             	.LVL699:
 322:../src/smc_gen/r_drw2d_rx/src/tes/dave_intern.h **** 
 6526                             		.loc 2 322 4 is_stmt 1 view .LVU2396
 322:../src/smc_gen/r_drw2d_rx/src/tes/dave_intern.h **** 
 6527                             		.loc 2 322 25 is_stmt 0 view .LVU2397
 6528 0a01 71 53 08                		add	#8, r5, r3
 6529 0a04 E7 73 6E                		mov.L	r3, 440[r7]
 324:../src/smc_gen/r_drw2d_rx/src/tes/dave_intern.h ****    entry->value = value;
 6530                             		.loc 2 324 4 is_stmt 1 view .LVU2398
 324:../src/smc_gen/r_drw2d_rx/src/tes/dave_intern.h ****    entry->value = value;
 6531                             		.loc 2 324 17 is_stmt 0 view .LVU2399
 6532 0a07 F8 56 13                		mov.L	#19, [r5]
 325:../src/smc_gen/r_drw2d_rx/src/tes/dave_intern.h **** 
 6533                             		.loc 2 325 4 is_stmt 1 view .LVU2400
 325:../src/smc_gen/r_drw2d_rx/src/tes/dave_intern.h **** 
 6534                             		.loc 2 325 17 is_stmt 0 view .LVU2401
 6535 0a0a A0 5C                   		mov.L	r4, 4[r5]
 327:../src/smc_gen/r_drw2d_rx/src/tes/dave_intern.h ****    if(handle->dlscratch_cnt <= 0)
 6536                             		.loc 2 327 4 is_stmt 1 view .LVU2402
 327:../src/smc_gen/r_drw2d_rx/src/tes/dave_intern.h ****    if(handle->dlscratch_cnt <= 0)
 6537                             		.loc 2 327 12 is_stmt 0 view .LVU2403
 6538 0a0c ED 75 6F                		mov.L	444[r7], r5
 6539                             	.LVL700:
 327:../src/smc_gen/r_drw2d_rx/src/tes/dave_intern.h ****    if(handle->dlscratch_cnt <= 0)
 6540                             		.loc 2 327 4 view .LVU2404
 6541 0a0f 60 15                   		sub	#1, r5
 6542 0a11 E7 75 6F                		mov.L	r5, 444[r7]
 328:../src/smc_gen/r_drw2d_rx/src/tes/dave_intern.h ****    {
 6543                             		.loc 2 328 4 is_stmt 1 view .LVU2405
 328:../src/smc_gen/r_drw2d_rx/src/tes/dave_intern.h ****    {
 6544                             		.loc 2 328 6 is_stmt 0 view .LVU2406
 6545 0a14 61 05                   		cmp	#0, r5
 6546 0a16 2A 05 38 2B 01          		ble	.L276
 6547                             	.LVL701:
 6548                             	.L234:
 328:../src/smc_gen/r_drw2d_rx/src/tes/dave_intern.h ****    {
 6549                             		.loc 2 328 6 view .LVU2407
 6550                             	.LBE733:
 6551                             	.LBE732:
1046:../src/smc_gen/r_drw2d_rx/src/tes/dave_line.c ****                       (
 6552                             		.loc 1 1046 7 is_stmt 1 view .LVU2408
 6553 0a1b 66 C4                   		mov.L	#12, r4
 6554 0a1d 4F 84                   		mul	r8, r4
 6555 0a1f 75 43 10                		mov.L	#16, r3
 6556 0a22 4B 03                   		add	r0, r3
 6557 0a24 4B 34                   		add	r3, r4
 6558 0a26 A9 43                   		mov.L	16[r4], r3
 6559 0a28 FB 5E 00 00 01          		mov.L	#0x10000, r5
 6560 0a2d 43 35                   		sub	r3, r5
 6561 0a2f A9 4B                   		mov.L	20[r4], r3
 6562 0a31 4F 3A                   		mul	r3, r10
 6563                             	.LVL702:
1046:../src/smc_gen/r_drw2d_rx/src/tes/dave_line.c ****                       (
 6564                             		.loc 1 1046 7 is_stmt 0 view .LVU2409
 6565 0a33 FF 0A A5                		sub	r10, r5, r10
 6566 0a36 A9 C5                   		mov.L	24[r4], r5
 6567 0a38 4F 5B                   		mul	r5, r11
 6568                             	.LVL703:
1046:../src/smc_gen/r_drw2d_rx/src/tes/dave_line.c ****                       (
 6569                             		.loc 1 1046 7 view .LVU2410
 6570 0a3a 43 BA                   		sub	r11, r10
 6571 0a3c 62 1A                   		add	#1, r10
 6572                             	.LVL704:
 6573                             	.LBB737:
 6574                             	.LBI737:
 319:../src/smc_gen/r_drw2d_rx/src/tes/dave_intern.h **** {
 6575                             		.loc 2 319 23 is_stmt 1 view .LVU2411
 6576                             	.LBB738:
 321:../src/smc_gen/r_drw2d_rx/src/tes/dave_intern.h ****    handle->dlscratch_pos++;
 6577                             		.loc 2 321 4 view .LVU2412
 321:../src/smc_gen/r_drw2d_rx/src/tes/dave_intern.h ****    handle->dlscratch_pos++;
 6578                             		.loc 2 321 28 is_stmt 0 view .LVU2413
 6579 0a3e ED 75 6E                		mov.L	440[r7], r5
 6580                             	.LVL705:
 322:../src/smc_gen/r_drw2d_rx/src/tes/dave_intern.h **** 
 6581                             		.loc 2 322 4 is_stmt 1 view .LVU2414
 322:../src/smc_gen/r_drw2d_rx/src/tes/dave_intern.h **** 
 6582                             		.loc 2 322 25 is_stmt 0 view .LVU2415
 6583 0a41 71 54 08                		add	#8, r5, r4
 6584 0a44 E7 74 6E                		mov.L	r4, 440[r7]
 324:../src/smc_gen/r_drw2d_rx/src/tes/dave_intern.h ****    entry->value = value;
 6585                             		.loc 2 324 4 is_stmt 1 view .LVU2416
 324:../src/smc_gen/r_drw2d_rx/src/tes/dave_intern.h ****    entry->value = value;
 6586                             		.loc 2 324 17 is_stmt 0 view .LVU2417
 6587 0a47 F8 56 08                		mov.L	#8, [r5]
 325:../src/smc_gen/r_drw2d_rx/src/tes/dave_intern.h **** 
 6588                             		.loc 2 325 4 is_stmt 1 view .LVU2418
 325:../src/smc_gen/r_drw2d_rx/src/tes/dave_intern.h **** 
 6589                             		.loc 2 325 17 is_stmt 0 view .LVU2419
 6590 0a4a E7 5A 01                		mov.L	r10, 4[r5]
 327:../src/smc_gen/r_drw2d_rx/src/tes/dave_intern.h ****    if(handle->dlscratch_cnt <= 0)
 6591                             		.loc 2 327 4 is_stmt 1 view .LVU2420
 327:../src/smc_gen/r_drw2d_rx/src/tes/dave_intern.h ****    if(handle->dlscratch_cnt <= 0)
 6592                             		.loc 2 327 12 is_stmt 0 view .LVU2421
 6593 0a4d ED 7A 6F                		mov.L	444[r7], r10
 6594                             	.LVL706:
 327:../src/smc_gen/r_drw2d_rx/src/tes/dave_intern.h ****    if(handle->dlscratch_cnt <= 0)
 6595                             		.loc 2 327 4 view .LVU2422
 6596 0a50 60 1A                   		sub	#1, r10
 6597 0a52 E7 7A 6F                		mov.L	r10, 444[r7]
 6598                             	.LVL707:
 328:../src/smc_gen/r_drw2d_rx/src/tes/dave_intern.h ****    {
 6599                             		.loc 2 328 4 is_stmt 1 view .LVU2423
 328:../src/smc_gen/r_drw2d_rx/src/tes/dave_intern.h ****    {
 6600                             		.loc 2 328 6 is_stmt 0 view .LVU2424
 6601 0a55 61 0A                   		cmp	#0, r10
 6602 0a57 2A 05 38 F4 00          		ble	.L277
 6603                             	.LVL708:
 6604                             	.L235:
 328:../src/smc_gen/r_drw2d_rx/src/tes/dave_intern.h ****    {
 6605                             		.loc 2 328 6 view .LVU2425
 6606                             	.LBE738:
 6607                             	.LBE737:
1060:../src/smc_gen/r_drw2d_rx/src/tes/dave_line.c ****       D2_DLISTWRITES( D2_L5YADD , -edge[l].yadd );
 6608                             		.loc 1 1060 7 is_stmt 1 view .LVU2426
 6609 0a5c 66 CA                   		mov.L	#12, r10
 6610 0a5e 4F 8A                   		mul	r8, r10
 6611 0a60 75 44 10                		mov.L	#16, r4
 6612 0a63 4B 04                   		add	r0, r4
 6613 0a65 4B 4A                   		add	r4, r10
 6614 0a67 ED A5 05                		mov.L	20[r10], r5
 6615 0a6a 7E 15                   		neg	r5
 6616                             	.LVL709:
 6617                             	.LBB742:
 6618                             	.LBI742:
 319:../src/smc_gen/r_drw2d_rx/src/tes/dave_intern.h **** {
 6619                             		.loc 2 319 23 view .LVU2427
 6620                             	.LBB743:
 321:../src/smc_gen/r_drw2d_rx/src/tes/dave_intern.h ****    handle->dlscratch_pos++;
 6621                             		.loc 2 321 4 view .LVU2428
 321:../src/smc_gen/r_drw2d_rx/src/tes/dave_intern.h ****    handle->dlscratch_pos++;
 6622                             		.loc 2 321 28 is_stmt 0 view .LVU2429
 6623 0a6c ED 7A 6E                		mov.L	440[r7], r10
 6624                             	.LVL710:
 322:../src/smc_gen/r_drw2d_rx/src/tes/dave_intern.h **** 
 6625                             		.loc 2 322 4 is_stmt 1 view .LVU2430
 322:../src/smc_gen/r_drw2d_rx/src/tes/dave_intern.h **** 
 6626                             		.loc 2 322 25 is_stmt 0 view .LVU2431
 6627 0a6f 71 A4 08                		add	#8, r10, r4
 6628 0a72 E7 74 6E                		mov.L	r4, 440[r7]
 324:../src/smc_gen/r_drw2d_rx/src/tes/dave_intern.h ****    entry->value = value;
 6629                             		.loc 2 324 4 is_stmt 1 view .LVU2432
 324:../src/smc_gen/r_drw2d_rx/src/tes/dave_intern.h ****    entry->value = value;
 6630                             		.loc 2 324 17 is_stmt 0 view .LVU2433
 6631 0a75 F8 A6 0E                		mov.L	#14, [r10]
 325:../src/smc_gen/r_drw2d_rx/src/tes/dave_intern.h **** 
 6632                             		.loc 2 325 4 is_stmt 1 view .LVU2434
 325:../src/smc_gen/r_drw2d_rx/src/tes/dave_intern.h **** 
 6633                             		.loc 2 325 17 is_stmt 0 view .LVU2435
 6634 0a78 E7 A5 01                		mov.L	r5, 4[r10]
 327:../src/smc_gen/r_drw2d_rx/src/tes/dave_intern.h ****    if(handle->dlscratch_cnt <= 0)
 6635                             		.loc 2 327 4 is_stmt 1 view .LVU2436
 327:../src/smc_gen/r_drw2d_rx/src/tes/dave_intern.h ****    if(handle->dlscratch_cnt <= 0)
 6636                             		.loc 2 327 12 is_stmt 0 view .LVU2437
 6637 0a7b ED 7A 6F                		mov.L	444[r7], r10
 6638                             	.LVL711:
 327:../src/smc_gen/r_drw2d_rx/src/tes/dave_intern.h ****    if(handle->dlscratch_cnt <= 0)
 6639                             		.loc 2 327 4 view .LVU2438
 6640 0a7e 60 1A                   		sub	#1, r10
 6641 0a80 E7 7A 6F                		mov.L	r10, 444[r7]
 328:../src/smc_gen/r_drw2d_rx/src/tes/dave_intern.h ****    {
 6642                             		.loc 2 328 4 is_stmt 1 view .LVU2439
 328:../src/smc_gen/r_drw2d_rx/src/tes/dave_intern.h ****    {
 6643                             		.loc 2 328 6 is_stmt 0 view .LVU2440
 6644 0a83 61 0A                   		cmp	#0, r10
 6645 0a85 2A 05 38 D0 00          		ble	.L278
 6646                             	.LVL712:
 6647                             	.L236:
 328:../src/smc_gen/r_drw2d_rx/src/tes/dave_intern.h ****    {
 6648                             		.loc 2 328 6 view .LVU2441
 6649                             	.LBE743:
 6650                             	.LBE742:
1061:../src/smc_gen/r_drw2d_rx/src/tes/dave_line.c **** 
 6651                             		.loc 1 1061 7 is_stmt 1 view .LVU2442
 6652 0a8a 66 CA                   		mov.L	#12, r10
 6653 0a8c 4F 8A                   		mul	r8, r10
 6654 0a8e 75 45 10                		mov.L	#16, r5
 6655 0a91 4B 05                   		add	r0, r5
 6656 0a93 4B 5A                   		add	r5, r10
 6657 0a95 ED A5 06                		mov.L	24[r10], r5
 6658 0a98 7E 15                   		neg	r5
 6659                             	.LVL713:
 6660                             	.LBB747:
 6661                             	.LBI747:
 319:../src/smc_gen/r_drw2d_rx/src/tes/dave_intern.h **** {
 6662                             		.loc 2 319 23 view .LVU2443
 6663                             	.LBB748:
 321:../src/smc_gen/r_drw2d_rx/src/tes/dave_intern.h ****    handle->dlscratch_pos++;
 6664                             		.loc 2 321 4 view .LVU2444
 321:../src/smc_gen/r_drw2d_rx/src/tes/dave_intern.h ****    handle->dlscratch_pos++;
 6665                             		.loc 2 321 28 is_stmt 0 view .LVU2445
 6666 0a9a ED 7A 6E                		mov.L	440[r7], r10
 6667                             	.LVL714:
 322:../src/smc_gen/r_drw2d_rx/src/tes/dave_intern.h **** 
 6668                             		.loc 2 322 4 is_stmt 1 view .LVU2446
 322:../src/smc_gen/r_drw2d_rx/src/tes/dave_intern.h **** 
 6669                             		.loc 2 322 25 is_stmt 0 view .LVU2447
 6670 0a9d 71 A4 08                		add	#8, r10, r4
 6671 0aa0 E7 74 6E                		mov.L	r4, 440[r7]
 324:../src/smc_gen/r_drw2d_rx/src/tes/dave_intern.h ****    entry->value = value;
 6672                             		.loc 2 324 4 is_stmt 1 view .LVU2448
 324:../src/smc_gen/r_drw2d_rx/src/tes/dave_intern.h ****    entry->value = value;
 6673                             		.loc 2 324 17 is_stmt 0 view .LVU2449
 6674 0aa3 F8 A6 14                		mov.L	#20, [r10]
 325:../src/smc_gen/r_drw2d_rx/src/tes/dave_intern.h **** 
 6675                             		.loc 2 325 4 is_stmt 1 view .LVU2450
 325:../src/smc_gen/r_drw2d_rx/src/tes/dave_intern.h **** 
 6676                             		.loc 2 325 17 is_stmt 0 view .LVU2451
 6677 0aa6 E7 A5 01                		mov.L	r5, 4[r10]
 327:../src/smc_gen/r_drw2d_rx/src/tes/dave_intern.h ****    if(handle->dlscratch_cnt <= 0)
 6678                             		.loc 2 327 4 is_stmt 1 view .LVU2452
 327:../src/smc_gen/r_drw2d_rx/src/tes/dave_intern.h ****    if(handle->dlscratch_cnt <= 0)
 6679                             		.loc 2 327 12 is_stmt 0 view .LVU2453
 6680 0aa9 ED 7A 6F                		mov.L	444[r7], r10
 6681                             	.LVL715:
 327:../src/smc_gen/r_drw2d_rx/src/tes/dave_intern.h ****    if(handle->dlscratch_cnt <= 0)
 6682                             		.loc 2 327 4 view .LVU2454
 6683 0aac 60 1A                   		sub	#1, r10
 6684 0aae E7 7A 6F                		mov.L	r10, 444[r7]
 328:../src/smc_gen/r_drw2d_rx/src/tes/dave_intern.h ****    {
 6685                             		.loc 2 328 4 is_stmt 1 view .LVU2455
 328:../src/smc_gen/r_drw2d_rx/src/tes/dave_intern.h ****    {
 6686                             		.loc 2 328 6 is_stmt 0 view .LVU2456
 6687 0ab1 61 0A                   		cmp	#0, r10
 6688 0ab3 2A 05 38 AC 00          		ble	.L279
 6689                             	.LVL716:
 6690                             	.L237:
 328:../src/smc_gen/r_drw2d_rx/src/tes/dave_intern.h ****    {
 6691                             		.loc 2 328 6 view .LVU2457
 6692                             	.LBE748:
 6693                             	.LBE747:
1063:../src/smc_gen/r_drw2d_rx/src/tes/dave_line.c ****          D2C_LIM1ENABLE   | 
 6694                             		.loc 1 1063 7 is_stmt 1 view .LVU2458
1067:../src/smc_gen/r_drw2d_rx/src/tes/dave_line.c ****          D2C_LIM3ENABLE   | 
 6695                             		.loc 1 1067 14 is_stmt 0 view .LVU2459
 6696 0ab8 ED DA 4A                		mov.L	296[r13], r10
1067:../src/smc_gen/r_drw2d_rx/src/tes/dave_line.c ****          D2C_LIM3ENABLE   | 
 6697                             		.loc 1 1067 30 view .LVU2460
 6698 0abb 76 2A 00 1A             		and #0x1a00, r10
1063:../src/smc_gen/r_drw2d_rx/src/tes/dave_line.c ****          D2C_LIM1ENABLE   | 
 6699                             		.loc 1 1063 15 view .LVU2461
 6700 0abf 77 3A 5D 20 40          		or	#0x40205d, r10
 6701                             	.LVL717:
1073:../src/smc_gen/r_drw2d_rx/src/tes/dave_line.c **** 
 6702                             		.loc 1 1073 7 is_stmt 1 view .LVU2462
1073:../src/smc_gen/r_drw2d_rx/src/tes/dave_line.c **** 
 6703                             		.loc 1 1073 17 is_stmt 0 view .LVU2463
 6704 0ac4 E3 0A                   		mov.L	r10, [r0]
 6705 0ac6 66 54                   		mov.L	#5, r4
 6706 0ac8 71 03 18                		add	#24, r0, r3
 6707 0acb EF D2                   		mov.L	r13, r2
 6708 0acd EF 71                   		mov.L	r7, r1
 6709 0acf 05 00 00 00             		bsr	_d2_initgradients_intern
 6710                             	.LVL718:
1075:../src/smc_gen/r_drw2d_rx/src/tes/dave_line.c **** 
 6711                             		.loc 1 1075 7 is_stmt 1 view .LVU2464
 6712                             	.LBB752:
 6713                             	.LBI752:
 319:../src/smc_gen/r_drw2d_rx/src/tes/dave_intern.h **** {
 6714                             		.loc 2 319 23 view .LVU2465
 6715                             	.LBB753:
 321:../src/smc_gen/r_drw2d_rx/src/tes/dave_intern.h ****    handle->dlscratch_pos++;
 6716                             		.loc 2 321 4 view .LVU2466
 321:../src/smc_gen/r_drw2d_rx/src/tes/dave_intern.h ****    handle->dlscratch_pos++;
 6717                             		.loc 2 321 28 is_stmt 0 view .LVU2467
 6718 0ad3 ED 7A 6E                		mov.L	440[r7], r10
 6719                             	.LVL719:
 322:../src/smc_gen/r_drw2d_rx/src/tes/dave_intern.h **** 
 6720                             		.loc 2 322 4 is_stmt 1 view .LVU2468
 322:../src/smc_gen/r_drw2d_rx/src/tes/dave_intern.h **** 
 6721                             		.loc 2 322 25 is_stmt 0 view .LVU2469
 6722 0ad6 71 A5 08                		add	#8, r10, r5
 6723 0ad9 E7 75 6E                		mov.L	r5, 440[r7]
 324:../src/smc_gen/r_drw2d_rx/src/tes/dave_intern.h ****    entry->value = value;
 6724                             		.loc 2 324 4 is_stmt 1 view .LVU2470
 324:../src/smc_gen/r_drw2d_rx/src/tes/dave_intern.h ****    entry->value = value;
 6725                             		.loc 2 324 17 is_stmt 0 view .LVU2471
 6726 0adc F8 A6 00                		mov.L	#0, [r10]
 325:../src/smc_gen/r_drw2d_rx/src/tes/dave_intern.h **** 
 6727                             		.loc 2 325 4 is_stmt 1 view .LVU2472
 325:../src/smc_gen/r_drw2d_rx/src/tes/dave_intern.h **** 
 6728                             		.loc 2 325 17 is_stmt 0 view .LVU2473
 6729 0adf E7 A1 01                		mov.L	r1, 4[r10]
 327:../src/smc_gen/r_drw2d_rx/src/tes/dave_intern.h ****    if(handle->dlscratch_cnt <= 0)
 6730                             		.loc 2 327 4 is_stmt 1 view .LVU2474
 327:../src/smc_gen/r_drw2d_rx/src/tes/dave_intern.h ****    if(handle->dlscratch_cnt <= 0)
 6731                             		.loc 2 327 12 is_stmt 0 view .LVU2475
 6732 0ae2 ED 7A 6F                		mov.L	444[r7], r10
 6733                             	.LVL720:
 327:../src/smc_gen/r_drw2d_rx/src/tes/dave_intern.h ****    if(handle->dlscratch_cnt <= 0)
 6734                             		.loc 2 327 4 view .LVU2476
 6735 0ae5 60 1A                   		sub	#1, r10
 6736 0ae7 E7 7A 6F                		mov.L	r10, 444[r7]
 328:../src/smc_gen/r_drw2d_rx/src/tes/dave_intern.h ****    {
 6737                             		.loc 2 328 4 is_stmt 1 view .LVU2477
 328:../src/smc_gen/r_drw2d_rx/src/tes/dave_intern.h ****    {
 6738                             		.loc 2 328 6 is_stmt 0 view .LVU2478
 6739 0aea 61 0A                   		cmp	#0, r10
 6740 0aec 2B 7F                   		ble	.L280
 6741                             	.LVL721:
 6742                             	.L238:
 328:../src/smc_gen/r_drw2d_rx/src/tes/dave_intern.h ****    {
 6743                             		.loc 2 328 6 view .LVU2479
 6744                             	.LBE753:
 6745                             	.LBE752:
1078:../src/smc_gen/r_drw2d_rx/src/tes/dave_line.c ****    }
 6746                             		.loc 1 1078 7 is_stmt 1 view .LVU2480
 6747 0aee EF 93                   		mov.L	r9, r3
 6748 0af0 71 02 18                		add	#24, r0, r2
 6749 0af3 EF 71                   		mov.L	r7, r1
 6750 0af5 05 00 00 00             		bsr	_d2_startrender_intern
 6751                             	.LVL722:
 6752 0af9 38 9F FD                		bra	.L226
 6753                             	.LVL723:
 6754                             	.L227:
1033:../src/smc_gen/r_drw2d_rx/src/tes/dave_line.c ****          ny = D2_INT4(bbox2.ymin - bbox.ymin);      /* PRQA S 0502 */ /* $Misra: #PERF_ARITHMETIC_S
 6755                             		.loc 1 1033 10 view .LVU2481
1033:../src/smc_gen/r_drw2d_rx/src/tes/dave_line.c ****          ny = D2_INT4(bbox2.ymin - bbox.ymin);      /* PRQA S 0502 */ /* $Misra: #PERF_ARITHMETIC_S
 6756                             		.loc 1 1033 15 is_stmt 0 view .LVU2482
 6757 0afc DD 0A 0C                		mov.W	24[r0], r10
1033:../src/smc_gen/r_drw2d_rx/src/tes/dave_line.c ****          ny = D2_INT4(bbox2.ymin - bbox.ymin);      /* PRQA S 0502 */ /* $Misra: #PERF_ARITHMETIC_S
 6758                             		.loc 1 1033 15 view .LVU2483
 6759 0aff 9A 05                   		mov.W	16[r0], r5
 6760 0b01 43 5A                   		sub	r5, r10
1033:../src/smc_gen/r_drw2d_rx/src/tes/dave_line.c ****          ny = D2_INT4(bbox2.ymin - bbox.ymin);      /* PRQA S 0502 */ /* $Misra: #PERF_ARITHMETIC_S
 6761                             		.loc 1 1033 13 view .LVU2484
 6762 0b03 6A 4A                   		shar	#4, r10
 6763                             	.LVL724:
1034:../src/smc_gen/r_drw2d_rx/src/tes/dave_line.c ****       }
 6764                             		.loc 1 1034 10 is_stmt 1 view .LVU2485
1034:../src/smc_gen/r_drw2d_rx/src/tes/dave_line.c ****       }
 6765                             		.loc 1 1034 15 is_stmt 0 view .LVU2486
 6766 0b05 DD 0B 0D                		mov.W	26[r0], r11
 6767                             	.LVL725:
1034:../src/smc_gen/r_drw2d_rx/src/tes/dave_line.c ****       }
 6768                             		.loc 1 1034 15 view .LVU2487
 6769 0b08 06 41 0B 09             		sub	18[r0].W, r11
1034:../src/smc_gen/r_drw2d_rx/src/tes/dave_line.c ****       }
 6770                             		.loc 1 1034 13 view .LVU2488
 6771 0b0c 6A 4B                   		shar	#4, r11
 6772                             	.LVL726:
1034:../src/smc_gen/r_drw2d_rx/src/tes/dave_line.c ****       }
 6773                             		.loc 1 1034 13 view .LVU2489
 6774 0b0e 38 1D FE                		bra	.L228
 6775                             	.LVL727:
 6776                             	.L271:
 6777                             	.LBB757:
 6778                             	.LBB711:
 6779                             	.LBB709:
 6780                             	.LBI709:
 319:../src/smc_gen/r_drw2d_rx/src/tes/dave_intern.h **** {
 6781                             		.loc 2 319 23 is_stmt 1 view .LVU2490
 6782                             	.LBB710:
 6783                             		.loc 2 330 7 view .LVU2491
 6784                             		.loc 2 330 13 is_stmt 0 view .LVU2492
 6785 0b11 ED 75 70                		mov.L	448[r7], r5
 6786                             		.loc 2 330 7 view .LVU2493
 6787 0b14 EF 71                   		mov.L	r7, r1
 6788 0b16 7F 15                   		jsr	r5
 6789                             	.LVL728:
 6790                             		.loc 2 330 7 view .LVU2494
 6791 0b18 38 5C FE                		bra	.L229
 6792                             	.LVL729:
 6793                             	.L272:
 6794                             		.loc 2 330 7 view .LVU2495
 6795                             	.LBE710:
 6796                             	.LBE709:
 6797                             	.LBE711:
 6798                             	.LBE757:
 6799                             	.LBB758:
 6800                             	.LBB716:
 6801                             	.LBB714:
 6802                             	.LBI714:
 319:../src/smc_gen/r_drw2d_rx/src/tes/dave_intern.h **** {
 6803                             		.loc 2 319 23 is_stmt 1 view .LVU2496
 6804                             	.LBB715:
 6805                             		.loc 2 330 7 view .LVU2497
 6806                             		.loc 2 330 13 is_stmt 0 view .LVU2498
 6807 0b1b ED 75 70                		mov.L	448[r7], r5
 6808                             		.loc 2 330 7 view .LVU2499
 6809 0b1e EF 71                   		mov.L	r7, r1
 6810 0b20 7F 15                   		jsr	r5
 6811                             	.LVL730:
 6812                             		.loc 2 330 7 view .LVU2500
 6813 0b22 38 71 FE                		bra	.L230
 6814                             	.LVL731:
 6815                             	.L273:
 6816                             		.loc 2 330 7 view .LVU2501
 6817                             	.LBE715:
 6818                             	.LBE714:
 6819                             	.LBE716:
 6820                             	.LBE758:
 6821                             	.LBB759:
 6822                             	.LBB721:
 6823                             	.LBB719:
 6824                             	.LBI719:
 319:../src/smc_gen/r_drw2d_rx/src/tes/dave_intern.h **** {
 6825                             		.loc 2 319 23 is_stmt 1 view .LVU2502
 6826                             	.LBB720:
 6827                             		.loc 2 330 7 view .LVU2503
 6828                             		.loc 2 330 13 is_stmt 0 view .LVU2504
 6829 0b25 ED 75 70                		mov.L	448[r7], r5
 6830                             		.loc 2 330 7 view .LVU2505
 6831 0b28 EF 71                   		mov.L	r7, r1
 6832 0b2a 7F 15                   		jsr	r5
 6833                             	.LVL732:
 6834                             		.loc 2 330 7 view .LVU2506
 6835 0b2c 38 86 FE                		bra	.L231
 6836                             	.LVL733:
 6837                             	.L274:
 6838                             		.loc 2 330 7 view .LVU2507
 6839                             	.LBE720:
 6840                             	.LBE719:
 6841                             	.LBE721:
 6842                             	.LBE759:
 6843                             	.LBB760:
 6844                             	.LBB726:
 6845                             	.LBB724:
 6846                             	.LBI724:
 319:../src/smc_gen/r_drw2d_rx/src/tes/dave_intern.h **** {
 6847                             		.loc 2 319 23 is_stmt 1 view .LVU2508
 6848                             	.LBB725:
 6849                             		.loc 2 330 7 view .LVU2509
 6850                             		.loc 2 330 13 is_stmt 0 view .LVU2510
 6851 0b2f ED 75 70                		mov.L	448[r7], r5
 6852                             		.loc 2 330 7 view .LVU2511
 6853 0b32 EF 71                   		mov.L	r7, r1
 6854 0b34 7F 15                   		jsr	r5
 6855                             	.LVL734:
 6856                             		.loc 2 330 7 view .LVU2512
 6857 0b36 38 A7 FE                		bra	.L232
 6858                             	.LVL735:
 6859                             	.L275:
 6860                             		.loc 2 330 7 view .LVU2513
 6861                             	.LBE725:
 6862                             	.LBE724:
 6863                             	.LBE726:
 6864                             	.LBE760:
 6865                             	.LBB761:
 6866                             	.LBB731:
 6867                             	.LBB729:
 6868                             	.LBI729:
 319:../src/smc_gen/r_drw2d_rx/src/tes/dave_intern.h **** {
 6869                             		.loc 2 319 23 is_stmt 1 view .LVU2514
 6870                             	.LBB730:
 6871                             		.loc 2 330 7 view .LVU2515
 6872                             		.loc 2 330 13 is_stmt 0 view .LVU2516
 6873 0b39 ED 75 70                		mov.L	448[r7], r5
 6874                             		.loc 2 330 7 view .LVU2517
 6875 0b3c EF 71                   		mov.L	r7, r1
 6876 0b3e 7F 15                   		jsr	r5
 6877                             	.LVL736:
 6878                             		.loc 2 330 7 view .LVU2518
 6879 0b40 38 BC FE                		bra	.L233
 6880                             	.LVL737:
 6881                             	.L276:
 6882                             		.loc 2 330 7 view .LVU2519
 6883                             	.LBE730:
 6884                             	.LBE729:
 6885                             	.LBE731:
 6886                             	.LBE761:
 6887                             	.LBB762:
 6888                             	.LBB736:
 6889                             	.LBB734:
 6890                             	.LBI734:
 319:../src/smc_gen/r_drw2d_rx/src/tes/dave_intern.h **** {
 6891                             		.loc 2 319 23 is_stmt 1 view .LVU2520
 6892                             	.LBB735:
 6893                             		.loc 2 330 7 view .LVU2521
 6894                             		.loc 2 330 13 is_stmt 0 view .LVU2522
 6895 0b43 ED 75 70                		mov.L	448[r7], r5
 6896                             		.loc 2 330 7 view .LVU2523
 6897 0b46 EF 71                   		mov.L	r7, r1
 6898 0b48 7F 15                   		jsr	r5
 6899                             	.LVL738:
 6900                             		.loc 2 330 7 view .LVU2524
 6901 0b4a 38 D1 FE                		bra	.L234
 6902                             	.LVL739:
 6903                             	.L277:
 6904                             		.loc 2 330 7 view .LVU2525
 6905                             	.LBE735:
 6906                             	.LBE734:
 6907                             	.LBE736:
 6908                             	.LBE762:
 6909                             	.LBB763:
 6910                             	.LBB741:
 6911                             	.LBB739:
 6912                             	.LBI739:
 319:../src/smc_gen/r_drw2d_rx/src/tes/dave_intern.h **** {
 6913                             		.loc 2 319 23 is_stmt 1 view .LVU2526
 6914                             	.LBB740:
 6915                             		.loc 2 330 7 view .LVU2527
 6916                             		.loc 2 330 13 is_stmt 0 view .LVU2528
 6917 0b4d ED 7A 70                		mov.L	448[r7], r10
 6918                             		.loc 2 330 7 view .LVU2529
 6919 0b50 EF 71                   		mov.L	r7, r1
 6920 0b52 7F 1A                   		jsr	r10
 6921                             	.LVL740:
 6922                             		.loc 2 330 7 view .LVU2530
 6923 0b54 38 08 FF                		bra	.L235
 6924                             	.LVL741:
 6925                             	.L278:
 6926                             		.loc 2 330 7 view .LVU2531
 6927                             	.LBE740:
 6928                             	.LBE739:
 6929                             	.LBE741:
 6930                             	.LBE763:
 6931                             	.LBB764:
 6932                             	.LBB746:
 6933                             	.LBB744:
 6934                             	.LBI744:
 319:../src/smc_gen/r_drw2d_rx/src/tes/dave_intern.h **** {
 6935                             		.loc 2 319 23 is_stmt 1 view .LVU2532
 6936                             	.LBB745:
 6937                             		.loc 2 330 7 view .LVU2533
 6938                             		.loc 2 330 13 is_stmt 0 view .LVU2534
 6939 0b57 ED 7A 70                		mov.L	448[r7], r10
 6940                             		.loc 2 330 7 view .LVU2535
 6941 0b5a EF 71                   		mov.L	r7, r1
 6942 0b5c 7F 1A                   		jsr	r10
 6943                             	.LVL742:
 6944                             		.loc 2 330 7 view .LVU2536
 6945 0b5e 38 2C FF                		bra	.L236
 6946                             	.LVL743:
 6947                             	.L279:
 6948                             		.loc 2 330 7 view .LVU2537
 6949                             	.LBE745:
 6950                             	.LBE744:
 6951                             	.LBE746:
 6952                             	.LBE764:
 6953                             	.LBB765:
 6954                             	.LBB751:
 6955                             	.LBB749:
 6956                             	.LBI749:
 319:../src/smc_gen/r_drw2d_rx/src/tes/dave_intern.h **** {
 6957                             		.loc 2 319 23 is_stmt 1 view .LVU2538
 6958                             	.LBB750:
 6959                             		.loc 2 330 7 view .LVU2539
 6960                             		.loc 2 330 13 is_stmt 0 view .LVU2540
 6961 0b61 ED 7A 70                		mov.L	448[r7], r10
 6962                             		.loc 2 330 7 view .LVU2541
 6963 0b64 EF 71                   		mov.L	r7, r1
 6964 0b66 7F 1A                   		jsr	r10
 6965                             	.LVL744:
 6966                             		.loc 2 330 7 view .LVU2542
 6967 0b68 38 50 FF                		bra	.L237
 6968                             	.LVL745:
 6969                             	.L280:
 6970                             		.loc 2 330 7 view .LVU2543
 6971                             	.LBE750:
 6972                             	.LBE749:
 6973                             	.LBE751:
 6974                             	.LBE765:
 6975                             	.LBB766:
 6976                             	.LBB756:
 6977                             	.LBB754:
 6978                             	.LBI754:
 319:../src/smc_gen/r_drw2d_rx/src/tes/dave_intern.h **** {
 6979                             		.loc 2 319 23 is_stmt 1 view .LVU2544
 6980                             	.LBB755:
 6981                             		.loc 2 330 7 view .LVU2545
 6982                             		.loc 2 330 13 is_stmt 0 view .LVU2546
 6983 0b6b ED 7A 70                		mov.L	448[r7], r10
 6984                             		.loc 2 330 7 view .LVU2547
 6985 0b6e EF 71                   		mov.L	r7, r1
 6986                             	.LVL746:
 6987                             		.loc 2 330 7 view .LVU2548
 6988 0b70 7F 1A                   		jsr	r10
 6989                             	.LVL747:
 6990                             		.loc 2 330 7 view .LVU2549
 6991 0b72 38 7C FF                		bra	.L238
 6992                             	.LVL748:
 6993                             	.L270:
 6994                             		.loc 2 330 7 view .LVU2550
 6995                             	.LBE755:
 6996                             	.LBE754:
 6997                             	.LBE756:
 6998                             	.LBE766:
1089:../src/smc_gen/r_drw2d_rx/src/tes/dave_line.c ****       }
 6999                             		.loc 1 1089 13 view .LVU2551
 7000 0b75 AD 0E                   		mov.L	84[r0], r6
 7001                             	.LVL749:
1088:../src/smc_gen/r_drw2d_rx/src/tes/dave_line.c ****          yp = ys;
 7002                             		.loc 1 1088 13 view .LVU2552
 7003 0b77 E5 00 18 17             		mov.L	96[r0], 92[r0]
 7004                             	.LVL750:
1087:../src/smc_gen/r_drw2d_rx/src/tes/dave_line.c ****          xp = xs;
 7005                             		.loc 1 1087 12 view .LVU2553
 7006 0b7b E5 00 25 23             		mov.L	148[r0], 140[r0]
1087:../src/smc_gen/r_drw2d_rx/src/tes/dave_line.c ****          xp = xs;
 7007                             		.loc 1 1087 12 view .LVU2554
 7008 0b7f 38 26 FD                		bra	.L239
 7009                             	.LVL751:
 7010                             	.L244:
1102:../src/smc_gen/r_drw2d_rx/src/tes/dave_line.c **** }
 7011                             		.loc 1 1102 11 view .LVU2555
 7012 0b82 3E 84 01                		mov.L	#1, 80[r0]
 7013                             	.LVL752:
1102:../src/smc_gen/r_drw2d_rx/src/tes/dave_line.c **** }
 7014                             		.loc 1 1102 11 view .LVU2556
 7015 0b85 38 C0 F4                		bra	.L171
 7016                             	.LFE7:
 7018                             		.section	.text.d2_renderline_intern_split,"ax",@progbits
 7019                             		.global	_d2_renderline_intern_split
 7021                             	_d2_renderline_intern_split:
 7022                             	.LVL753:
 7023                             	.LFB9:
1228:../src/smc_gen/r_drw2d_rx/src/tes/dave_line.c **** 
1229:../src/smc_gen/r_drw2d_rx/src/tes/dave_line.c **** /*--------------------------------------------------------------------------
1230:../src/smc_gen/r_drw2d_rx/src/tes/dave_line.c ****  *
1231:../src/smc_gen/r_drw2d_rx/src/tes/dave_line.c ****  * */
1232:../src/smc_gen/r_drw2d_rx/src/tes/dave_line.c **** d2_s32 d2_renderline_intern_split( d2_devicedata *handle, d2_contextdata *ctx, d2_point x1, d2_poin
1233:../src/smc_gen/r_drw2d_rx/src/tes/dave_line.c **** {
 7024                             		.loc 1 1233 1 is_stmt 1 view -0
 7025                             		.loc 1 1233 1 is_stmt 0 view .LVU2558
 7026 0000 6E 6D                   		pushm	r6-r13
 7027                             	.LCFI6:
 7028                             		.loc 1 1233 1 view .LVU2559
 7029 0002 71 00 A4                		add	#-92, r0
 7030                             	.LCFI7:
 7031 0005 75 47 80                		mov.L	#0x80, r7
 7032 0008 4B 07                   		add	r0, r7
 7033 000a EF 1C                   		mov.L	r1, r12
 7034 000c EF 2A                   		mov.L	r2, r10
 7035 000e DF 39                   		mov.W	r3, r9
 7036 0010 DF 48                   		mov.W	r4, r8
 7037 0012 DC 7D                   		mov.W	[r7], r13
 7038 0014 D5 70 01 1C             		mov.W	2[r7], 56[r0]
 7039 0018 98 F6                   		mov.W	4[r7], r6
 7040 001a ED 7B 02                		mov.L	8[r7], r11
 7041 001d E5 70 03 0F             		mov.L	12[r7], 60[r0]
 7042 0021 E5 70 04 10             		mov.L	16[r7], 64[r0]
 7043 0025 A9 7F                   		mov.L	20[r7], r7
1234:../src/smc_gen/r_drw2d_rx/src/tes/dave_line.c ****    if(0 != (ctx->features & d2_feat_blur))
 7044                             		.loc 1 1234 4 is_stmt 1 view .LVU2560
 7045                             		.loc 1 1234 16 is_stmt 0 view .LVU2561
 7046 0027 CD 25 D5                		mov.B	213[r2], r5
 7047                             		.loc 1 1234 6 view .LVU2562
 7048 002a FD 74 C5 01             		tst	#1, r5
 7049 002e 21 37                   		bne	.L287
1235:../src/smc_gen/r_drw2d_rx/src/tes/dave_line.c ****    {
1236:../src/smc_gen/r_drw2d_rx/src/tes/dave_line.c ****       d2_limdata tmp_edge_buffer[2];
1237:../src/smc_gen/r_drw2d_rx/src/tes/dave_line.c ****       d2_bbox    tmp_edge_bbox;
1238:../src/smc_gen/r_drw2d_rx/src/tes/dave_line.c **** 
1239:../src/smc_gen/r_drw2d_rx/src/tes/dave_line.c ****       (void)d2_renderline2_intern(handle, ctx, x1, y1, x2, y2, w, w, flags, tmp_edge_buffer, &tmp_e
1240:../src/smc_gen/r_drw2d_rx/src/tes/dave_line.c ****    }
1241:../src/smc_gen/r_drw2d_rx/src/tes/dave_line.c ****    else
1242:../src/smc_gen/r_drw2d_rx/src/tes/dave_line.c ****    {
1243:../src/smc_gen/r_drw2d_rx/src/tes/dave_line.c ****       if ( (w >= D2_FIX4(3)) && (d2_lc_round == ctx->linecap) && ((flags & d2_le_exclude_both) != d
 7050                             		.loc 1 1243 7 is_stmt 1 view .LVU2563
 7051                             		.loc 1 1243 10 is_stmt 0 view .LVU2564
 7052 0030 DF 65                   		mov.W	r6, r5
 7053 0032 75 55 2F                		cmp	#47, r5
 7054 0035 2B 09                   		ble	.L284
 7055                             		.loc 1 1243 30 discriminator 1 view .LVU2565
 7056 0037 59 25 D6                		movu.B	214[r2], r5
 7057 003a 61 25                   		cmp	#2, r5
 7058 003c 20 48                   		beq	.L288
 7059                             	.L284:
1244:../src/smc_gen/r_drw2d_rx/src/tes/dave_line.c ****       {
1245:../src/smc_gen/r_drw2d_rx/src/tes/dave_line.c ****          /* FIX to avoid overflowing hw register in quad mode we split geometry. sad thing! */
1246:../src/smc_gen/r_drw2d_rx/src/tes/dave_line.c ****          if(0 != d2_renderline_intern( handle, ctx, x1,y1, x2,y2, w, flags | d2_le_exclude_both | d
1247:../src/smc_gen/r_drw2d_rx/src/tes/dave_line.c ****          {
1248:../src/smc_gen/r_drw2d_rx/src/tes/dave_line.c ****             if(0 == (flags & d2_le_exclude_start))
1249:../src/smc_gen/r_drw2d_rx/src/tes/dave_line.c ****             {
1250:../src/smc_gen/r_drw2d_rx/src/tes/dave_line.c ****                (void)d2_renderlinedot_intern( handle, ctx, x1, y1, w, 1, edge_buffer, edge_bbox );
1251:../src/smc_gen/r_drw2d_rx/src/tes/dave_line.c ****             }
1252:../src/smc_gen/r_drw2d_rx/src/tes/dave_line.c **** 
1253:../src/smc_gen/r_drw2d_rx/src/tes/dave_line.c ****             if(0 == (flags & d2_le_exclude_end))
1254:../src/smc_gen/r_drw2d_rx/src/tes/dave_line.c ****             {
1255:../src/smc_gen/r_drw2d_rx/src/tes/dave_line.c ****                (void)d2_renderlinedot_intern( handle, ctx, x2, y2, w, 2, edge_buffer, edge_bbox );
1256:../src/smc_gen/r_drw2d_rx/src/tes/dave_line.c ****             }
1257:../src/smc_gen/r_drw2d_rx/src/tes/dave_line.c ****          }
1258:../src/smc_gen/r_drw2d_rx/src/tes/dave_line.c ****       } 
1259:../src/smc_gen/r_drw2d_rx/src/tes/dave_line.c ****       else
1260:../src/smc_gen/r_drw2d_rx/src/tes/dave_line.c ****       {
1261:../src/smc_gen/r_drw2d_rx/src/tes/dave_line.c ****          (void)d2_renderline_intern( handle, ctx, x1,y1, x2,y2, w, flags, edge_buffer, edge_bbox, c
 7060                             		.loc 1 1261 10 is_stmt 1 view .LVU2566
 7061                             		.loc 1 1261 16 is_stmt 0 view .LVU2567
 7062 003e A1 0F                   		mov.L	r7, 20[r0]
 7063 0040 E5 00 10 04             		mov.L	64[r0], 16[r0]
 7064 0044 E5 00 0F 03             		mov.L	60[r0], 12[r0]
 7065 0048 E7 0B 02                		mov.L	r11, 8[r0]
 7066 004b 90 86                   		mov.W	r6, 4[r0]
 7067 004d D5 00 1C 01             		mov.W	56[r0], 2[r0]
 7068 0051 D3 0D                   		mov.W	r13, [r0]
 7069 0053 DF 84                   		mov.W	r8, r4
 7070                             	.LVL754:
 7071                             		.loc 1 1261 16 view .LVU2568
 7072 0055 DF 93                   		mov.W	r9, r3
 7073                             	.LVL755:
 7074                             		.loc 1 1261 16 view .LVU2569
 7075 0057 EF A2                   		mov.L	r10, r2
 7076                             	.LVL756:
 7077                             		.loc 1 1261 16 view .LVU2570
 7078 0059 EF C1                   		mov.L	r12, r1
 7079                             	.LVL757:
 7080                             		.loc 1 1261 16 view .LVU2571
 7081 005b 05 00 00 00             		bsr	_d2_renderline_intern
 7082                             	.LVL758:
 7083 005f 03                      		.balign 8,3,1
 7084                             	.L283:
1262:../src/smc_gen/r_drw2d_rx/src/tes/dave_line.c ****       }
1263:../src/smc_gen/r_drw2d_rx/src/tes/dave_line.c ****    }
1264:../src/smc_gen/r_drw2d_rx/src/tes/dave_line.c ****    return 1;
 7085                             		.loc 1 1264 4 is_stmt 1 view .LVU2572
1265:../src/smc_gen/r_drw2d_rx/src/tes/dave_line.c **** }
 7086                             		.loc 1 1265 1 is_stmt 0 view .LVU2573
 7087 0060 66 11                   		mov.L	#1, r1
 7088 0062 3F 6D 1F                		rtsd	#124, r6-r13
 7089                             	.LVL759:
 7090                             	.L287:
 7091                             	.LBB767:
1236:../src/smc_gen/r_drw2d_rx/src/tes/dave_line.c ****       d2_bbox    tmp_edge_bbox;
 7092                             		.loc 1 1236 7 is_stmt 1 view .LVU2574
1237:../src/smc_gen/r_drw2d_rx/src/tes/dave_line.c **** 
 7093                             		.loc 1 1237 7 view .LVU2575
1239:../src/smc_gen/r_drw2d_rx/src/tes/dave_line.c ****    }
 7094                             		.loc 1 1239 7 view .LVU2576
1239:../src/smc_gen/r_drw2d_rx/src/tes/dave_line.c ****    }
 7095                             		.loc 1 1239 13 is_stmt 0 view .LVU2577
 7096 0065 71 07 30                		add	#48, r0, r7
 7097 0068 A1 07                   		mov.L	r7, 16[r0]
 7098 006a 75 47 18                		mov.L	#24, r7
 7099 006d 4B 07                   		add	r0, r7
 7100 006f A0 8F                   		mov.L	r7, 12[r0]
 7101 0071 E7 0B 02                		mov.L	r11, 8[r0]
 7102 0074 90 8E                   		mov.W	r6, 6[r0]
 7103 0076 90 86                   		mov.W	r6, 4[r0]
 7104 0078 D5 00 1C 01             		mov.W	56[r0], 2[r0]
 7105 007c D3 0D                   		mov.W	r13, [r0]
 7106 007e 05 00 00 00             		bsr	_d2_renderline2_intern
 7107                             	.LVL760:
1239:../src/smc_gen/r_drw2d_rx/src/tes/dave_line.c ****    }
 7108                             		.loc 1 1239 13 view .LVU2578
 7109                             	.LBE767:
 7110 0082 2E DE                   		bra	.L283
 7111                             	.LVL761:
 7112                             	.L288:
1243:../src/smc_gen/r_drw2d_rx/src/tes/dave_line.c ****       {
 7113                             		.loc 1 1243 74 discriminator 2 view .LVU2579
 7114 0084 66 35                   		mov.L	#3, r5
 7115 0086 53 B5                   		and	r11, r5
1243:../src/smc_gen/r_drw2d_rx/src/tes/dave_line.c ****       {
 7116                             		.loc 1 1243 63 discriminator 2 view .LVU2580
 7117 0088 61 35                   		cmp	#3, r5
 7118 008a 20 B4                   		beq	.L284
1246:../src/smc_gen/r_drw2d_rx/src/tes/dave_line.c ****          {
 7119                             		.loc 1 1246 10 is_stmt 1 view .LVU2581
1246:../src/smc_gen/r_drw2d_rx/src/tes/dave_line.c ****          {
 7120                             		.loc 1 1246 18 is_stmt 0 view .LVU2582
 7121 008c A1 0F                   		mov.L	r7, 20[r0]
 7122 008e E5 00 10 04             		mov.L	64[r0], 16[r0]
 7123 0092 E5 00 0F 03             		mov.L	60[r0], 12[r0]
 7124 0096 FB 7A 03 18             		mov.L	#0x1803, r7
 7125 009a 57 B7                   		or	r11, r7
 7126 009c A0 87                   		mov.L	r7, 8[r0]
 7127 009e 90 86                   		mov.W	r6, 4[r0]
 7128 00a0 D5 00 1C 01             		mov.W	56[r0], 2[r0]
 7129 00a4 D3 0D                   		mov.W	r13, [r0]
 7130 00a6 05 00 00 00             		bsr	_d2_renderline_intern
 7131                             	.LVL762:
1246:../src/smc_gen/r_drw2d_rx/src/tes/dave_line.c ****          {
 7132                             		.loc 1 1246 12 view .LVU2583
 7133 00aa 61 01                   		cmp	#0, r1
 7134 00ac 20 B4                   		beq	.L283
1248:../src/smc_gen/r_drw2d_rx/src/tes/dave_line.c ****             {
 7135                             		.loc 1 1248 13 is_stmt 1 view .LVU2584
1248:../src/smc_gen/r_drw2d_rx/src/tes/dave_line.c ****             {
 7136                             		.loc 1 1248 15 is_stmt 0 view .LVU2585
 7137 00ae FD 74 CB 01             		tst	#1, r11
 7138 00b2 20 23                   		beq	.L289
 7139                             	.L285:
1253:../src/smc_gen/r_drw2d_rx/src/tes/dave_line.c ****             {
 7140                             		.loc 1 1253 13 is_stmt 1 view .LVU2586
1253:../src/smc_gen/r_drw2d_rx/src/tes/dave_line.c ****             {
 7141                             		.loc 1 1253 15 is_stmt 0 view .LVU2587
 7142 00b4 FD 74 CB 02             		tst	#2, r11
 7143 00b8 21 A8                   		bne	.L283
1255:../src/smc_gen/r_drw2d_rx/src/tes/dave_line.c ****             }
 7144                             		.loc 1 1255 16 is_stmt 1 view .LVU2588
1255:../src/smc_gen/r_drw2d_rx/src/tes/dave_line.c ****             }
 7145                             		.loc 1 1255 22 is_stmt 0 view .LVU2589
 7146 00ba E5 00 10 03             		mov.L	64[r0], 12[r0]
 7147 00be E5 00 0F 02             		mov.L	60[r0], 8[r0]
 7148 00c2 3E 01 02                		mov.L	#2, 4[r0]
 7149 00c5 D3 06                   		mov.W	r6, [r0]
 7150 00c7 9F 04                   		mov.W	56[r0], r4
 7151 00c9 DF D3                   		mov.W	r13, r3
 7152 00cb EF A2                   		mov.L	r10, r2
 7153 00cd EF C1                   		mov.L	r12, r1
 7154 00cf 05 00 00 00             		bsr	_d2_renderlinedot_intern
 7155                             	.LVL763:
 7156 00d3 2E 8D                   		bra	.L283
 7157                             	.L289:
1250:../src/smc_gen/r_drw2d_rx/src/tes/dave_line.c ****             }
 7158                             		.loc 1 1250 16 is_stmt 1 view .LVU2590
1250:../src/smc_gen/r_drw2d_rx/src/tes/dave_line.c ****             }
 7159                             		.loc 1 1250 22 is_stmt 0 view .LVU2591
 7160 00d5 E5 00 10 03             		mov.L	64[r0], 12[r0]
 7161 00d9 E5 00 0F 02             		mov.L	60[r0], 8[r0]
 7162 00dd 3E 01 01                		mov.L	#1, 4[r0]
 7163 00e0 D3 06                   		mov.W	r6, [r0]
 7164 00e2 DF 84                   		mov.W	r8, r4
 7165 00e4 DF 93                   		mov.W	r9, r3
 7166 00e6 EF A2                   		mov.L	r10, r2
 7167 00e8 EF C1                   		mov.L	r12, r1
 7168 00ea 05 00 00 00             		bsr	_d2_renderlinedot_intern
 7169                             	.LVL764:
 7170 00ee 2E C6                   		bra	.L285
 7171                             	.LFE9:
 7173                             		.section	.text.d2_renderline_solid,"ax",@progbits
 7174                             		.global	_d2_renderline_solid
 7176                             	_d2_renderline_solid:
 7177                             	.LVL765:
 7178                             	.LFB10:
1266:../src/smc_gen/r_drw2d_rx/src/tes/dave_line.c **** 
1267:../src/smc_gen/r_drw2d_rx/src/tes/dave_line.c **** /*--------------------------------------------------------------------------
1268:../src/smc_gen/r_drw2d_rx/src/tes/dave_line.c ****  *
1269:../src/smc_gen/r_drw2d_rx/src/tes/dave_line.c ****  * */
1270:../src/smc_gen/r_drw2d_rx/src/tes/dave_line.c **** d2_s32 d2_renderline_solid( d2_device *handle, d2_point x1, d2_point y1, d2_point x2, d2_point y2, 
1271:../src/smc_gen/r_drw2d_rx/src/tes/dave_line.c **** {
 7179                             		.loc 1 1271 1 is_stmt 1 view -0
 7180                             		.loc 1 1271 1 is_stmt 0 view .LVU2593
 7181 0000 6E 67                   		pushm	r6-r7
 7182                             	.LCFI8:
 7183                             		.loc 1 1271 1 view .LVU2594
 7184 0002 71 00 C0                		add	#-64, r0
 7185                             	.LCFI9:
 7186 0005 75 47 4C                		mov.L	#0x4c, r7
 7187 0008 4B 07                   		add	r0, r7
1272:../src/smc_gen/r_drw2d_rx/src/tes/dave_line.c ****    d2_limdata edge_buffer[2];
 7188                             		.loc 1 1272 4 is_stmt 1 view .LVU2595
1273:../src/smc_gen/r_drw2d_rx/src/tes/dave_line.c ****    d2_bbox    edge_bbox;
 7189                             		.loc 1 1273 4 view .LVU2596
1274:../src/smc_gen/r_drw2d_rx/src/tes/dave_line.c **** 
1275:../src/smc_gen/r_drw2d_rx/src/tes/dave_line.c ****    (void)d2_renderline_intern_split( D2_DEV(handle), D2_DEV(handle)->ctxsolid, x1, y1, x2, y2, w, f
 7190                             		.loc 1 1275 4 view .LVU2597
 7191                             		.loc 1 1275 10 is_stmt 0 view .LVU2598
 7192 000a AA 95                   		mov.L	40[r1], r5
 7193 000c 3E 05 00                		mov.L	#0, 20[r0]
 7194 000f 71 0E 30                		add	#48, r0, r14
 7195 0012 E7 0E 04                		mov.L	r14, 16[r0]
 7196 0015 75 46 18                		mov.L	#24, r6
 7197 0018 4B 06                   		add	r0, r6
 7198 001a A0 8E                   		mov.L	r6, 12[r0]
 7199 001c E5 70 01 02             		mov.L	4[r7], 8[r0]
 7200 0020 D5 70 01 02             		mov.W	2[r7], 4[r0]
 7201 0024 D4 70 01                		mov.W	[r7], 2[r0]
 7202 0027 D3 04                   		mov.W	r4, [r0]
 7203 0029 DF 34                   		mov.W	r3, r4
 7204                             	.LVL766:
 7205                             		.loc 1 1275 10 view .LVU2599
 7206 002b DF 23                   		mov.W	r2, r3
 7207                             	.LVL767:
 7208                             		.loc 1 1275 10 view .LVU2600
 7209 002d EF 52                   		mov.L	r5, r2
 7210                             	.LVL768:
 7211                             		.loc 1 1275 10 view .LVU2601
 7212 002f 05 00 00 00             		bsr	_d2_renderline_intern_split
 7213                             	.LVL769:
1276:../src/smc_gen/r_drw2d_rx/src/tes/dave_line.c **** 
1277:../src/smc_gen/r_drw2d_rx/src/tes/dave_line.c ****    return D2_OK;
 7214                             		.loc 1 1277 4 is_stmt 1 view .LVU2602
1278:../src/smc_gen/r_drw2d_rx/src/tes/dave_line.c **** }
 7215                             		.loc 1 1278 1 is_stmt 0 view .LVU2603
 7216 0033 66 01                   		mov.L	#0, r1
 7217 0035 3F 67 12                		rtsd	#72, r6-r7
 7218                             	.LFE10:
 7220                             		.section	.text.d2_renderline_outline_I,"ax",@progbits
 7221                             		.global	_d2_renderline_outline_I
 7223                             	_d2_renderline_outline_I:
 7224                             	.LVL770:
 7225                             	.LFB11:
1279:../src/smc_gen/r_drw2d_rx/src/tes/dave_line.c **** 
1280:../src/smc_gen/r_drw2d_rx/src/tes/dave_line.c **** /*--------------------------------------------------------------------------
1281:../src/smc_gen/r_drw2d_rx/src/tes/dave_line.c ****  *
1282:../src/smc_gen/r_drw2d_rx/src/tes/dave_line.c ****  * */
1283:../src/smc_gen/r_drw2d_rx/src/tes/dave_line.c **** d2_s32 d2_renderline_outline_I( d2_device *handle, d2_point x1, d2_point y1, d2_point x2, d2_point 
1284:../src/smc_gen/r_drw2d_rx/src/tes/dave_line.c **** {
 7226                             		.loc 1 1284 1 is_stmt 1 view -0
 7227                             		.loc 1 1284 1 is_stmt 0 view .LVU2605
 7228 0000 6E 67                   		pushm	r6-r7
 7229                             	.LCFI10:
 7230                             		.loc 1 1284 1 view .LVU2606
 7231 0002 71 00 C0                		add	#-64, r0
 7232                             	.LCFI11:
 7233 0005 75 47 4C                		mov.L	#0x4c, r7
 7234 0008 4B 07                   		add	r0, r7
1285:../src/smc_gen/r_drw2d_rx/src/tes/dave_line.c ****    d2_limdata edge_buffer[2];
 7235                             		.loc 1 1285 4 is_stmt 1 view .LVU2607
1286:../src/smc_gen/r_drw2d_rx/src/tes/dave_line.c ****    d2_bbox    edge_bbox;
 7236                             		.loc 1 1286 4 view .LVU2608
1287:../src/smc_gen/r_drw2d_rx/src/tes/dave_line.c **** 
1288:../src/smc_gen/r_drw2d_rx/src/tes/dave_line.c ****    (void)d2_renderline_intern_split( D2_DEV(handle), D2_DEV(handle)->ctxoutline, x1, y1, x2, y2, w,
 7237                             		.loc 1 1288 4 view .LVU2609
 7238                             		.loc 1 1288 10 is_stmt 0 view .LVU2610
 7239 000a AA 9D                   		mov.L	44[r1], r5
 7240 000c 3E 05 00                		mov.L	#0, 20[r0]
 7241 000f 71 0E 30                		add	#48, r0, r14
 7242 0012 E7 0E 04                		mov.L	r14, 16[r0]
 7243 0015 75 46 18                		mov.L	#24, r6
 7244 0018 4B 06                   		add	r0, r6
 7245 001a A0 8E                   		mov.L	r6, 12[r0]
 7246 001c E5 70 01 02             		mov.L	4[r7], 8[r0]
 7247 0020 D5 70 01 02             		mov.W	2[r7], 4[r0]
 7248 0024 D4 70 01                		mov.W	[r7], 2[r0]
 7249 0027 D3 04                   		mov.W	r4, [r0]
 7250 0029 DF 34                   		mov.W	r3, r4
 7251                             	.LVL771:
 7252                             		.loc 1 1288 10 view .LVU2611
 7253 002b DF 23                   		mov.W	r2, r3
 7254                             	.LVL772:
 7255                             		.loc 1 1288 10 view .LVU2612
 7256 002d EF 52                   		mov.L	r5, r2
 7257                             	.LVL773:
 7258                             		.loc 1 1288 10 view .LVU2613
 7259 002f 05 00 00 00             		bsr	_d2_renderline_intern_split
 7260                             	.LVL774:
1289:../src/smc_gen/r_drw2d_rx/src/tes/dave_line.c **** 
1290:../src/smc_gen/r_drw2d_rx/src/tes/dave_line.c ****    return D2_OK;
 7261                             		.loc 1 1290 4 is_stmt 1 view .LVU2614
1291:../src/smc_gen/r_drw2d_rx/src/tes/dave_line.c **** }
 7262                             		.loc 1 1291 1 is_stmt 0 view .LVU2615
 7263 0033 66 01                   		mov.L	#0, r1
 7264 0035 3F 67 12                		rtsd	#72, r6-r7
 7265                             	.LFE11:
 7267                             		.section	.text.d2_renderline_outline,"ax",@progbits
 7268                             		.global	_d2_renderline_outline
 7270                             	_d2_renderline_outline:
 7271                             	.LVL775:
 7272                             	.LFB12:
1292:../src/smc_gen/r_drw2d_rx/src/tes/dave_line.c **** 
1293:../src/smc_gen/r_drw2d_rx/src/tes/dave_line.c **** /*--------------------------------------------------------------------------
1294:../src/smc_gen/r_drw2d_rx/src/tes/dave_line.c ****  *
1295:../src/smc_gen/r_drw2d_rx/src/tes/dave_line.c ****  * */
1296:../src/smc_gen/r_drw2d_rx/src/tes/dave_line.c **** d2_s32 d2_renderline_outline( d2_device *handle, d2_point x1, d2_point y1, d2_point x2, d2_point y2
1297:../src/smc_gen/r_drw2d_rx/src/tes/dave_line.c **** {
 7273                             		.loc 1 1297 1 is_stmt 1 view -0
 7274                             		.loc 1 1297 1 is_stmt 0 view .LVU2617
 7275 0000 6E 67                   		pushm	r6-r7
 7276                             	.LCFI12:
 7277                             		.loc 1 1297 1 view .LVU2618
 7278 0002 71 00 C0                		add	#-64, r0
 7279                             	.LCFI13:
 7280 0005 75 47 4C                		mov.L	#0x4c, r7
 7281 0008 4B 07                   		add	r0, r7
 7282 000a DD 7F 01                		mov.W	2[r7], r15
1298:../src/smc_gen/r_drw2d_rx/src/tes/dave_line.c ****    d2_limdata edge_buffer[2];
 7283                             		.loc 1 1298 4 is_stmt 1 view .LVU2619
1299:../src/smc_gen/r_drw2d_rx/src/tes/dave_line.c ****    d2_bbox    edge_bbox;
 7284                             		.loc 1 1299 4 view .LVU2620
1300:../src/smc_gen/r_drw2d_rx/src/tes/dave_line.c **** 
1301:../src/smc_gen/r_drw2d_rx/src/tes/dave_line.c ****    (void)d2_renderline_intern_split( D2_DEV(handle), D2_DEV(handle)->ctxoutline, x1, y1, x2, y2, (d
 7285                             		.loc 1 1301 4 view .LVU2621
 7286                             		.loc 1 1301 128 is_stmt 0 view .LVU2622
 7287 000d DD 15 36                		mov.W	108[r1], r5
 7288                             		.loc 1 1301 143 view .LVU2623
 7289 0010 4B 55                   		add	r5, r5
 7290                             		.loc 1 1301 111 view .LVU2624
 7291 0012 4B F5                   		add	r15, r5
 7292                             		.loc 1 1301 10 view .LVU2625
 7293 0014 3E 05 00                		mov.L	#0, 20[r0]
 7294 0017 71 0F 30                		add	#48, r0, r15
 7295 001a E7 0F 04                		mov.L	r15, 16[r0]
 7296 001d 75 46 18                		mov.L	#24, r6
 7297 0020 4B 06                   		add	r0, r6
 7298 0022 A0 8E                   		mov.L	r6, 12[r0]
 7299 0024 E5 70 01 02             		mov.L	4[r7], 8[r0]
 7300 0028 90 85                   		mov.W	r5, 4[r0]
 7301 002a D4 70 01                		mov.W	[r7], 2[r0]
 7302 002d D3 04                   		mov.W	r4, [r0]
 7303 002f DF 34                   		mov.W	r3, r4
 7304                             	.LVL776:
 7305                             		.loc 1 1301 10 view .LVU2626
 7306 0031 DF 23                   		mov.W	r2, r3
 7307                             	.LVL777:
 7308                             		.loc 1 1301 10 view .LVU2627
 7309 0033 AA 9A                   		mov.L	44[r1], r2
 7310                             	.LVL778:
 7311                             		.loc 1 1301 10 view .LVU2628
 7312 0035 05 00 00 00             		bsr	_d2_renderline_intern_split
 7313                             	.LVL779:
1302:../src/smc_gen/r_drw2d_rx/src/tes/dave_line.c **** 
1303:../src/smc_gen/r_drw2d_rx/src/tes/dave_line.c ****    return D2_OK;
 7314                             		.loc 1 1303 4 is_stmt 1 view .LVU2629
1304:../src/smc_gen/r_drw2d_rx/src/tes/dave_line.c **** }
 7315                             		.loc 1 1304 1 is_stmt 0 view .LVU2630
 7316 0039 66 01                   		mov.L	#0, r1
 7317 003b 3F 67 12                		rtsd	#72, r6-r7
 7318                             	.LFE12:
 7320                             		.section	.text.d2_renderline_shadow,"ax",@progbits
 7321                             		.global	_d2_renderline_shadow
 7323                             	_d2_renderline_shadow:
 7324                             	.LVL780:
 7325                             	.LFB13:
1305:../src/smc_gen/r_drw2d_rx/src/tes/dave_line.c **** 
1306:../src/smc_gen/r_drw2d_rx/src/tes/dave_line.c **** /*--------------------------------------------------------------------------
1307:../src/smc_gen/r_drw2d_rx/src/tes/dave_line.c ****  *
1308:../src/smc_gen/r_drw2d_rx/src/tes/dave_line.c ****  * */
1309:../src/smc_gen/r_drw2d_rx/src/tes/dave_line.c **** d2_s32 d2_renderline_shadow( d2_device *handle, d2_point x1, d2_point y1, d2_point x2, d2_point y2,
1310:../src/smc_gen/r_drw2d_rx/src/tes/dave_line.c **** {
 7326                             		.loc 1 1310 1 is_stmt 1 view -0
 7327                             		.loc 1 1310 1 is_stmt 0 view .LVU2632
 7328 0000 6E 6B                   		pushm	r6-r11
 7329                             	.LCFI14:
 7330                             		.loc 1 1310 1 view .LVU2633
 7331 0002 71 00 C0                		add	#-64, r0
 7332                             	.LCFI15:
 7333 0005 75 47 5C                		mov.L	#0x5c, r7
 7334 0008 4B 07                   		add	r0, r7
 7335 000a DC 7E                   		mov.W	[r7], r14
1311:../src/smc_gen/r_drw2d_rx/src/tes/dave_line.c ****    d2_point   sx,sy;
 7336                             		.loc 1 1311 4 is_stmt 1 view .LVU2634
1312:../src/smc_gen/r_drw2d_rx/src/tes/dave_line.c ****    d2_limdata edge_buffer[2];
 7337                             		.loc 1 1312 4 view .LVU2635
1313:../src/smc_gen/r_drw2d_rx/src/tes/dave_line.c ****    d2_bbox    edge_bbox;
 7338                             		.loc 1 1313 4 view .LVU2636
1314:../src/smc_gen/r_drw2d_rx/src/tes/dave_line.c **** 
1315:../src/smc_gen/r_drw2d_rx/src/tes/dave_line.c ****    sx = D2_DEV(handle)->soffx;
 7339                             		.loc 1 1315 4 view .LVU2637
 7340                             		.loc 1 1315 7 is_stmt 0 view .LVU2638
 7341 000c DD 1F 37                		mov.W	110[r1], r15
 7342                             	.LVL781:
1316:../src/smc_gen/r_drw2d_rx/src/tes/dave_line.c ****    sy = D2_DEV(handle)->soffy;
 7343                             		.loc 1 1316 4 is_stmt 1 view .LVU2639
 7344                             		.loc 1 1316 7 is_stmt 0 view .LVU2640
 7345 000f DD 16 38                		mov.W	112[r1], r6
 7346                             	.LVL782:
1317:../src/smc_gen/r_drw2d_rx/src/tes/dave_line.c **** 
1318:../src/smc_gen/r_drw2d_rx/src/tes/dave_line.c ****    (void)d2_renderline_intern_split( D2_DEV(handle), D2_DEV(handle)->ctxoutline, (d2_point)(x1 + sx
 7347                             		.loc 1 1318 4 is_stmt 1 view .LVU2641
 7348                             		.loc 1 1318 138 is_stmt 0 view .LVU2642
 7349 0012 4B F4                   		add	r15, r4
 7350                             	.LVL783:
 7351                             		.loc 1 1318 159 view .LVU2643
 7352 0014 4B 6E                   		add	r6, r14
 7353                             		.loc 1 1318 10 view .LVU2644
 7354 0016 3E 05 00                		mov.L	#0, 20[r0]
 7355 0019 71 0A 30                		add	#48, r0, r10
 7356 001c E7 0A 04                		mov.L	r10, 16[r0]
 7357 001f 75 4B 18                		mov.L	#24, r11
 7358 0022 4B 0B                   		add	r0, r11
 7359 0024 E7 0B 03                		mov.L	r11, 12[r0]
 7360 0027 E5 70 01 02             		mov.L	4[r7], 8[r0]
 7361 002b D5 70 01 02             		mov.W	2[r7], 4[r0]
 7362 002f D7 0E 01                		mov.W	r14, 2[r0]
 7363 0032 D3 04                   		mov.W	r4, [r0]
 7364 0034 FF 24 63                		add	r6, r3, r4
 7365 0037 FF 23 F2                		add	r15, r2, r3
 7366                             	.LVL784:
 7367                             		.loc 1 1318 10 view .LVU2645
 7368 003a AA 9A                   		mov.L	44[r1], r2
 7369                             	.LVL785:
 7370                             		.loc 1 1318 10 view .LVU2646
 7371 003c 05 00 00 00             		bsr	_d2_renderline_intern_split
 7372                             	.LVL786:
1319:../src/smc_gen/r_drw2d_rx/src/tes/dave_line.c **** 
1320:../src/smc_gen/r_drw2d_rx/src/tes/dave_line.c ****    return D2_OK;
 7373                             		.loc 1 1320 4 is_stmt 1 view .LVU2647
1321:../src/smc_gen/r_drw2d_rx/src/tes/dave_line.c **** }
 7374                             		.loc 1 1321 1 is_stmt 0 view .LVU2648
 7375 0040 66 01                   		mov.L	#0, r1
 7376 0042 3F 6B 16                		rtsd	#88, r6-r11
 7377                             		.loc 1 1321 1 view .LVU2649
 7378                             	.LFE13:
 7380                             		.section	.text.d2_renderline_solidshadow,"ax",@progbits
 7381                             		.global	_d2_renderline_solidshadow
 7383                             	_d2_renderline_solidshadow:
 7384                             	.LVL787:
 7385                             	.LFB14:
1322:../src/smc_gen/r_drw2d_rx/src/tes/dave_line.c **** 
1323:../src/smc_gen/r_drw2d_rx/src/tes/dave_line.c **** 
1324:../src/smc_gen/r_drw2d_rx/src/tes/dave_line.c **** /*--------------------------------------------------------------------------
1325:../src/smc_gen/r_drw2d_rx/src/tes/dave_line.c ****  *
1326:../src/smc_gen/r_drw2d_rx/src/tes/dave_line.c ****  * */
1327:../src/smc_gen/r_drw2d_rx/src/tes/dave_line.c **** d2_s32 d2_renderline_solidshadow( d2_device *handle, d2_point x1, d2_point y1, d2_point x2, d2_poin
1328:../src/smc_gen/r_drw2d_rx/src/tes/dave_line.c **** {
 7386                             		.loc 1 1328 1 is_stmt 1 view -0
 7387                             		.loc 1 1328 1 is_stmt 0 view .LVU2651
 7388 0000 6E 6D                   		pushm	r6-r13
 7389                             	.LCFI16:
 7390                             		.loc 1 1328 1 view .LVU2652
 7391 0002 71 00 C0                		add	#-64, r0
 7392                             	.LCFI17:
 7393 0005 75 47 64                		mov.L	#0x64, r7
 7394 0008 4B 07                   		add	r0, r7
 7395 000a EF 1A                   		mov.L	r1, r10
 7396 000c DF 26                   		mov.W	r2, r6
 7397 000e DF 3B                   		mov.W	r3, r11
 7398 0010 DF 4C                   		mov.W	r4, r12
 7399 0012 DC 79                   		mov.W	[r7], r9
 7400 0014 DD 78 01                		mov.W	2[r7], r8
 7401 0017 A8 7F                   		mov.L	4[r7], r7
1329:../src/smc_gen/r_drw2d_rx/src/tes/dave_line.c ****    d2_point   sx,sy;
 7402                             		.loc 1 1329 4 is_stmt 1 view .LVU2653
1330:../src/smc_gen/r_drw2d_rx/src/tes/dave_line.c ****    d2_limdata edge_buffer[2];
 7403                             		.loc 1 1330 4 view .LVU2654
1331:../src/smc_gen/r_drw2d_rx/src/tes/dave_line.c ****    d2_bbox    edge_bbox;
 7404                             		.loc 1 1331 4 view .LVU2655
1332:../src/smc_gen/r_drw2d_rx/src/tes/dave_line.c **** 
1333:../src/smc_gen/r_drw2d_rx/src/tes/dave_line.c ****    sx = D2_DEV(handle)->soffx;
 7405                             		.loc 1 1333 4 view .LVU2656
 7406                             		.loc 1 1333 7 is_stmt 0 view .LVU2657
 7407 0019 DD 13 37                		mov.W	110[r1], r3
 7408                             	.LVL788:
1334:../src/smc_gen/r_drw2d_rx/src/tes/dave_line.c ****    sy = D2_DEV(handle)->soffy;
 7409                             		.loc 1 1334 4 is_stmt 1 view .LVU2658
 7410                             		.loc 1 1334 7 is_stmt 0 view .LVU2659
 7411 001c DD 14 38                		mov.W	112[r1], r4
 7412                             	.LVL789:
1335:../src/smc_gen/r_drw2d_rx/src/tes/dave_line.c **** 
1336:../src/smc_gen/r_drw2d_rx/src/tes/dave_line.c ****    /* render shadow */
1337:../src/smc_gen/r_drw2d_rx/src/tes/dave_line.c ****    (void)d2_renderline_intern_split( D2_DEV(handle), D2_DEV(handle)->ctxoutline, (d2_point)(x1 + sx
 7413                             		.loc 1 1337 4 is_stmt 1 view .LVU2660
 7414                             		.loc 1 1337 138 is_stmt 0 view .LVU2661
 7415 001f FF 25 3C                		add	r3, r12, r5
 7416                             		.loc 1 1337 159 view .LVU2662
 7417 0022 FF 22 49                		add	r4, r9, r2
 7418                             	.LVL790:
 7419                             		.loc 1 1337 10 view .LVU2663
 7420 0025 3E 05 00                		mov.L	#0, 20[r0]
 7421 0028 71 0D 30                		add	#48, r0, r13
 7422 002b E7 0D 04                		mov.L	r13, 16[r0]
 7423 002e 75 4E 18                		mov.L	#24, r14
 7424 0031 4B 0E                   		add	r0, r14
 7425 0033 E7 0E 03                		mov.L	r14, 12[r0]
 7426 0036 A0 87                   		mov.L	r7, 8[r0]
 7427 0038 D7 08 02                		mov.W	r8, 4[r0]
 7428 003b 90 0A                   		mov.W	r2, 2[r0]
 7429 003d D3 05                   		mov.W	r5, [r0]
 7430 003f 4B B4                   		add	r11, r4
 7431                             	.LVL791:
 7432                             		.loc 1 1337 10 view .LVU2664
 7433 0041 4B 63                   		add	r6, r3
 7434                             	.LVL792:
 7435                             		.loc 1 1337 10 view .LVU2665
 7436 0043 AA 9A                   		mov.L	44[r1], r2
 7437 0045 05 00 00 00             		bsr	_d2_renderline_intern_split
 7438                             	.LVL793:
1338:../src/smc_gen/r_drw2d_rx/src/tes/dave_line.c **** 
1339:../src/smc_gen/r_drw2d_rx/src/tes/dave_line.c ****    /* render solid [base part] */
1340:../src/smc_gen/r_drw2d_rx/src/tes/dave_line.c ****    d2_rendertolayer_intern( handle );
 7439                             		.loc 1 1340 4 is_stmt 1 view .LVU2666
 7440 0049 EF A1                   		mov.L	r10, r1
 7441 004b 05 00 00 00             		bsr	_d2_rendertolayer_intern
 7442                             	.LVL794:
1341:../src/smc_gen/r_drw2d_rx/src/tes/dave_line.c ****    (void)d2_renderline_intern_split( D2_DEV(handle), D2_DEV(handle)->ctxsolid, x1,y1, x2,y2, w, fla
 7443                             		.loc 1 1341 4 view .LVU2667
 7444                             		.loc 1 1341 10 is_stmt 0 view .LVU2668
 7445 004f 3E 05 00                		mov.L	#0, 20[r0]
 7446 0052 E7 0D 04                		mov.L	r13, 16[r0]
 7447 0055 75 45 18                		mov.L	#24, r5
 7448 0058 4B 05                   		add	r0, r5
 7449 005a A0 8D                   		mov.L	r5, 12[r0]
 7450 005c A0 87                   		mov.L	r7, 8[r0]
 7451 005e D7 08 02                		mov.W	r8, 4[r0]
 7452 0061 D7 09 01                		mov.W	r9, 2[r0]
 7453 0064 D3 0C                   		mov.W	r12, [r0]
 7454 0066 DF B4                   		mov.W	r11, r4
 7455 0068 DF 63                   		mov.W	r6, r3
 7456 006a ED A2 0A                		mov.L	40[r10], r2
 7457 006d EF A1                   		mov.L	r10, r1
 7458 006f 05 00 00 00             		bsr	_d2_renderline_intern_split
 7459                             	.LVL795:
1342:../src/smc_gen/r_drw2d_rx/src/tes/dave_line.c ****    d2_rendertobase_intern( handle );
 7460                             		.loc 1 1342 4 is_stmt 1 view .LVU2669
 7461 0073 EF A1                   		mov.L	r10, r1
 7462 0075 05 00 00 00             		bsr	_d2_rendertobase_intern
 7463                             	.LVL796:
1343:../src/smc_gen/r_drw2d_rx/src/tes/dave_line.c **** 
1344:../src/smc_gen/r_drw2d_rx/src/tes/dave_line.c ****    return D2_OK;
 7464                             		.loc 1 1344 4 view .LVU2670
1345:../src/smc_gen/r_drw2d_rx/src/tes/dave_line.c **** }
 7465                             		.loc 1 1345 1 is_stmt 0 view .LVU2671
 7466 0079 66 01                   		mov.L	#0, r1
 7467 007b 3F 6D 18                		rtsd	#96, r6-r13
 7468                             		.loc 1 1345 1 view .LVU2672
 7469                             	.LFE14:
 7471                             		.section	.text.d2_renderline_solidoutline,"ax",@progbits
 7472                             		.global	_d2_renderline_solidoutline
 7474                             	_d2_renderline_solidoutline:
 7475                             	.LVL797:
 7476                             	.LFB15:
1346:../src/smc_gen/r_drw2d_rx/src/tes/dave_line.c **** 
1347:../src/smc_gen/r_drw2d_rx/src/tes/dave_line.c **** /*--------------------------------------------------------------------------
1348:../src/smc_gen/r_drw2d_rx/src/tes/dave_line.c ****  *
1349:../src/smc_gen/r_drw2d_rx/src/tes/dave_line.c ****  * */
1350:../src/smc_gen/r_drw2d_rx/src/tes/dave_line.c **** d2_s32 d2_renderline_solidoutline( d2_device *handle, d2_point x1, d2_point y1, d2_point x2, d2_poi
1351:../src/smc_gen/r_drw2d_rx/src/tes/dave_line.c **** {
 7477                             		.loc 1 1351 1 is_stmt 1 view -0
 7478                             		.loc 1 1351 1 is_stmt 0 view .LVU2674
 7479 0000 6E 6D                   		pushm	r6-r13
 7480                             	.LCFI18:
 7481                             		.loc 1 1351 1 view .LVU2675
 7482 0002 71 00 C0                		add	#-64, r0
 7483                             	.LCFI19:
 7484 0005 75 47 64                		mov.L	#0x64, r7
 7485 0008 4B 07                   		add	r0, r7
 7486 000a EF 1A                   		mov.L	r1, r10
 7487 000c DF 26                   		mov.W	r2, r6
 7488 000e DF 3B                   		mov.W	r3, r11
 7489 0010 DF 4C                   		mov.W	r4, r12
 7490 0012 DC 79                   		mov.W	[r7], r9
 7491 0014 DD 78 01                		mov.W	2[r7], r8
 7492 0017 A8 7F                   		mov.L	4[r7], r7
1352:../src/smc_gen/r_drw2d_rx/src/tes/dave_line.c ****    d2_limdata edge_buffer[2];
 7493                             		.loc 1 1352 4 is_stmt 1 view .LVU2676
1353:../src/smc_gen/r_drw2d_rx/src/tes/dave_line.c ****    d2_bbox    edge_bbox;
 7494                             		.loc 1 1353 4 view .LVU2677
1354:../src/smc_gen/r_drw2d_rx/src/tes/dave_line.c **** 
1355:../src/smc_gen/r_drw2d_rx/src/tes/dave_line.c ****    /* render outline */
1356:../src/smc_gen/r_drw2d_rx/src/tes/dave_line.c ****    (void)d2_renderline_intern_split( D2_DEV(handle), D2_DEV(handle)->ctxoutline, x1, y1, x2, y2, (d
 7495                             		.loc 1 1356 4 view .LVU2678
 7496                             		.loc 1 1356 128 is_stmt 0 view .LVU2679
 7497 0019 DD 15 36                		mov.W	108[r1], r5
 7498                             		.loc 1 1356 143 view .LVU2680
 7499 001c 4B 55                   		add	r5, r5
 7500                             		.loc 1 1356 111 view .LVU2681
 7501 001e 4B 85                   		add	r8, r5
 7502                             		.loc 1 1356 10 view .LVU2682
 7503 0020 3E 05 00                		mov.L	#0, 20[r0]
 7504 0023 71 0D 30                		add	#48, r0, r13
 7505 0026 E7 0D 04                		mov.L	r13, 16[r0]
 7506 0029 75 44 18                		mov.L	#24, r4
 7507                             	.LVL798:
 7508                             		.loc 1 1356 10 view .LVU2683
 7509 002c 4B 04                   		add	r0, r4
 7510 002e A0 8C                   		mov.L	r4, 12[r0]
 7511 0030 A0 87                   		mov.L	r7, 8[r0]
 7512 0032 90 85                   		mov.W	r5, 4[r0]
 7513 0034 D7 09 01                		mov.W	r9, 2[r0]
 7514 0037 D3 0C                   		mov.W	r12, [r0]
 7515 0039 DF 34                   		mov.W	r3, r4
 7516 003b DF 23                   		mov.W	r2, r3
 7517                             	.LVL799:
 7518                             		.loc 1 1356 10 view .LVU2684
 7519 003d AA 9A                   		mov.L	44[r1], r2
 7520                             	.LVL800:
 7521                             		.loc 1 1356 10 view .LVU2685
 7522 003f 05 00 00 00             		bsr	_d2_renderline_intern_split
 7523                             	.LVL801:
1357:../src/smc_gen/r_drw2d_rx/src/tes/dave_line.c **** 
1358:../src/smc_gen/r_drw2d_rx/src/tes/dave_line.c ****    /* render solid [base part] */
1359:../src/smc_gen/r_drw2d_rx/src/tes/dave_line.c ****    d2_rendertolayer_intern( handle );
 7524                             		.loc 1 1359 4 is_stmt 1 view .LVU2686
 7525 0043 EF A1                   		mov.L	r10, r1
 7526 0045 05 00 00 00             		bsr	_d2_rendertolayer_intern
 7527                             	.LVL802:
1360:../src/smc_gen/r_drw2d_rx/src/tes/dave_line.c ****    (void)d2_renderline_intern_split( D2_DEV(handle), D2_DEV(handle)->ctxsolid, x1, y1, x2, y2, w, f
 7528                             		.loc 1 1360 4 view .LVU2687
 7529                             		.loc 1 1360 10 is_stmt 0 view .LVU2688
 7530 0049 3E 05 00                		mov.L	#0, 20[r0]
 7531 004c E7 0D 04                		mov.L	r13, 16[r0]
 7532 004f 75 45 18                		mov.L	#24, r5
 7533 0052 4B 05                   		add	r0, r5
 7534 0054 A0 8D                   		mov.L	r5, 12[r0]
 7535 0056 A0 87                   		mov.L	r7, 8[r0]
 7536 0058 D7 08 02                		mov.W	r8, 4[r0]
 7537 005b D7 09 01                		mov.W	r9, 2[r0]
 7538 005e D3 0C                   		mov.W	r12, [r0]
 7539 0060 DF B4                   		mov.W	r11, r4
 7540 0062 DF 63                   		mov.W	r6, r3
 7541 0064 ED A2 0A                		mov.L	40[r10], r2
 7542 0067 EF A1                   		mov.L	r10, r1
 7543 0069 05 00 00 00             		bsr	_d2_renderline_intern_split
 7544                             	.LVL803:
1361:../src/smc_gen/r_drw2d_rx/src/tes/dave_line.c ****    d2_rendertobase_intern( handle );
 7545                             		.loc 1 1361 4 is_stmt 1 view .LVU2689
 7546 006d EF A1                   		mov.L	r10, r1
 7547 006f 05 00 00 00             		bsr	_d2_rendertobase_intern
 7548                             	.LVL804:
1362:../src/smc_gen/r_drw2d_rx/src/tes/dave_line.c **** 
1363:../src/smc_gen/r_drw2d_rx/src/tes/dave_line.c ****    return D2_OK;
 7549                             		.loc 1 1363 4 view .LVU2690
1364:../src/smc_gen/r_drw2d_rx/src/tes/dave_line.c **** }
 7550                             		.loc 1 1364 1 is_stmt 0 view .LVU2691
 7551 0073 66 01                   		mov.L	#0, r1
 7552 0075 3F 6D 18                		rtsd	#96, r6-r13
 7553                             		.loc 1 1364 1 view .LVU2692
 7554                             	.LFE15:
 7556                             		.section	.text.d2_renderline2_solid,"ax",@progbits
 7557                             		.global	_d2_renderline2_solid
 7559                             	_d2_renderline2_solid:
 7560                             	.LVL805:
 7561                             	.LFB16:
1365:../src/smc_gen/r_drw2d_rx/src/tes/dave_line.c **** 
1366:../src/smc_gen/r_drw2d_rx/src/tes/dave_line.c **** /*--------------------------------------------------------------------------
1367:../src/smc_gen/r_drw2d_rx/src/tes/dave_line.c ****  *
1368:../src/smc_gen/r_drw2d_rx/src/tes/dave_line.c ****  * */
1369:../src/smc_gen/r_drw2d_rx/src/tes/dave_line.c **** d2_s32 d2_renderline2_solid( d2_device *handle, d2_point x1, d2_point y1, d2_point x2, d2_point y2,
1370:../src/smc_gen/r_drw2d_rx/src/tes/dave_line.c **** {
 7562                             		.loc 1 1370 1 is_stmt 1 view -0
 7563                             		.loc 1 1370 1 is_stmt 0 view .LVU2694
 7564 0000 6E 67                   		pushm	r6-r7
 7565                             	.LCFI20:
 7566                             		.loc 1 1370 1 view .LVU2695
 7567 0002 71 00 C0                		add	#-64, r0
 7568                             	.LCFI21:
 7569 0005 75 47 4C                		mov.L	#0x4c, r7
 7570 0008 4B 07                   		add	r0, r7
1371:../src/smc_gen/r_drw2d_rx/src/tes/dave_line.c ****    d2_limdata edge_buffer[2];
 7571                             		.loc 1 1371 4 is_stmt 1 view .LVU2696
1372:../src/smc_gen/r_drw2d_rx/src/tes/dave_line.c ****    d2_bbox    edge_bbox;
 7572                             		.loc 1 1372 4 view .LVU2697
1373:../src/smc_gen/r_drw2d_rx/src/tes/dave_line.c **** 
1374:../src/smc_gen/r_drw2d_rx/src/tes/dave_line.c ****    (void)d2_renderline2_intern( D2_DEV(handle), D2_DEV(handle)->ctxsolid, x1, y1, x2, y2, w1, w2, f
 7573                             		.loc 1 1374 4 view .LVU2698
 7574                             		.loc 1 1374 10 is_stmt 0 view .LVU2699
 7575 000a AA 95                   		mov.L	40[r1], r5
 7576 000c 71 0E 2C                		add	#44, r0, r14
 7577 000f E7 0E 04                		mov.L	r14, 16[r0]
 7578 0012 75 46 14                		mov.L	#20, r6
 7579 0015 4B 06                   		add	r0, r6
 7580 0017 A0 8E                   		mov.L	r6, 12[r0]
 7581 0019 E5 70 02 02             		mov.L	8[r7], 8[r0]
 7582 001d D5 70 02 03             		mov.W	4[r7], 6[r0]
 7583 0021 D5 70 01 02             		mov.W	2[r7], 4[r0]
 7584 0025 D4 70 01                		mov.W	[r7], 2[r0]
 7585 0028 D3 04                   		mov.W	r4, [r0]
 7586 002a DF 34                   		mov.W	r3, r4
 7587                             	.LVL806:
 7588                             		.loc 1 1374 10 view .LVU2700
 7589 002c DF 23                   		mov.W	r2, r3
 7590                             	.LVL807:
 7591                             		.loc 1 1374 10 view .LVU2701
 7592 002e EF 52                   		mov.L	r5, r2
 7593                             	.LVL808:
 7594                             		.loc 1 1374 10 view .LVU2702
 7595 0030 05 00 00 00             		bsr	_d2_renderline2_intern
 7596                             	.LVL809:
1375:../src/smc_gen/r_drw2d_rx/src/tes/dave_line.c **** 
1376:../src/smc_gen/r_drw2d_rx/src/tes/dave_line.c ****    return D2_OK;
 7597                             		.loc 1 1376 4 is_stmt 1 view .LVU2703
1377:../src/smc_gen/r_drw2d_rx/src/tes/dave_line.c **** }
 7598                             		.loc 1 1377 1 is_stmt 0 view .LVU2704
 7599 0034 66 01                   		mov.L	#0, r1
 7600 0036 3F 67 12                		rtsd	#72, r6-r7
 7601                             	.LFE16:
 7603                             		.section	.text.d2_renderline2_outline,"ax",@progbits
 7604                             		.global	_d2_renderline2_outline
 7606                             	_d2_renderline2_outline:
 7607                             	.LVL810:
 7608                             	.LFB17:
1378:../src/smc_gen/r_drw2d_rx/src/tes/dave_line.c **** 
1379:../src/smc_gen/r_drw2d_rx/src/tes/dave_line.c **** /*--------------------------------------------------------------------------
1380:../src/smc_gen/r_drw2d_rx/src/tes/dave_line.c ****  *
1381:../src/smc_gen/r_drw2d_rx/src/tes/dave_line.c ****  * */
1382:../src/smc_gen/r_drw2d_rx/src/tes/dave_line.c **** d2_s32 d2_renderline2_outline( d2_device *handle, d2_point x1, d2_point y1, d2_point x2, d2_point y
1383:../src/smc_gen/r_drw2d_rx/src/tes/dave_line.c **** {
 7609                             		.loc 1 1383 1 is_stmt 1 view -0
 7610                             		.loc 1 1383 1 is_stmt 0 view .LVU2706
 7611 0000 6E 6A                   		pushm	r6-r10
 7612                             	.LCFI22:
 7613                             		.loc 1 1383 1 view .LVU2707
 7614 0002 71 00 C0                		add	#-64, r0
 7615                             	.LCFI23:
 7616 0005 75 47 58                		mov.L	#0x58, r7
 7617 0008 4B 07                   		add	r0, r7
 7618 000a DD 7E 01                		mov.W	2[r7], r14
 7619 000d 98 F6                   		mov.W	4[r7], r6
1384:../src/smc_gen/r_drw2d_rx/src/tes/dave_line.c ****    d2_width   ow;
 7620                             		.loc 1 1384 4 is_stmt 1 view .LVU2708
1385:../src/smc_gen/r_drw2d_rx/src/tes/dave_line.c ****    d2_limdata edge_buffer[2];
 7621                             		.loc 1 1385 4 view .LVU2709
1386:../src/smc_gen/r_drw2d_rx/src/tes/dave_line.c ****    d2_bbox    edge_bbox;
 7622                             		.loc 1 1386 4 view .LVU2710
1387:../src/smc_gen/r_drw2d_rx/src/tes/dave_line.c **** 
1388:../src/smc_gen/r_drw2d_rx/src/tes/dave_line.c ****    ow = (d2_width)(D2_DEV(handle)->outlinewidth * 2);
 7623                             		.loc 1 1388 4 view .LVU2711
 7624                             		.loc 1 1388 34 is_stmt 0 view .LVU2712
 7625 000f DD 15 36                		mov.W	108[r1], r5
 7626                             		.loc 1 1388 49 view .LVU2713
 7627 0012 4B 55                   		add	r5, r5
 7628                             	.LVL811:
1389:../src/smc_gen/r_drw2d_rx/src/tes/dave_line.c ****    (void)d2_renderline2_intern( D2_DEV(handle), D2_DEV(handle)->ctxoutline, x1, y1, x2, y2, (d2_wid
 7629                             		.loc 1 1389 4 is_stmt 1 view .LVU2714
 7630                             		.loc 1 1389 107 is_stmt 0 view .LVU2715
 7631 0014 4B 5E                   		add	r5, r14
 7632                             		.loc 1 1389 128 view .LVU2716
 7633 0016 4B 65                   		add	r6, r5
 7634                             	.LVL812:
 7635                             		.loc 1 1389 10 view .LVU2717
 7636 0018 71 0A 2C                		add	#44, r0, r10
 7637 001b E7 0A 04                		mov.L	r10, 16[r0]
 7638                             	.LVL813:
 7639                             		.loc 1 1389 10 view .LVU2718
 7640 001e 75 46 14                		mov.L	#20, r6
 7641 0021 4B 06                   		add	r0, r6
 7642 0023 A0 8E                   		mov.L	r6, 12[r0]
 7643 0025 E5 70 02 02             		mov.L	8[r7], 8[r0]
 7644 0029 90 8D                   		mov.W	r5, 6[r0]
 7645 002b D7 0E 02                		mov.W	r14, 4[r0]
 7646 002e D4 70 01                		mov.W	[r7], 2[r0]
 7647 0031 D3 04                   		mov.W	r4, [r0]
 7648 0033 DF 34                   		mov.W	r3, r4
 7649                             	.LVL814:
 7650                             		.loc 1 1389 10 view .LVU2719
 7651 0035 DF 23                   		mov.W	r2, r3
 7652                             	.LVL815:
 7653                             		.loc 1 1389 10 view .LVU2720
 7654 0037 AA 9A                   		mov.L	44[r1], r2
 7655                             	.LVL816:
 7656                             		.loc 1 1389 10 view .LVU2721
 7657 0039 05 00 00 00             		bsr	_d2_renderline2_intern
 7658                             	.LVL817:
1390:../src/smc_gen/r_drw2d_rx/src/tes/dave_line.c **** 
1391:../src/smc_gen/r_drw2d_rx/src/tes/dave_line.c ****    return D2_OK;
 7659                             		.loc 1 1391 4 is_stmt 1 view .LVU2722
1392:../src/smc_gen/r_drw2d_rx/src/tes/dave_line.c **** }
 7660                             		.loc 1 1392 1 is_stmt 0 view .LVU2723
 7661 003d 66 01                   		mov.L	#0, r1
 7662 003f 3F 6A 15                		rtsd	#84, r6-r10
 7663                             	.LFE17:
 7665                             		.section	.text.d2_renderline2_shadow,"ax",@progbits
 7666                             		.global	_d2_renderline2_shadow
 7668                             	_d2_renderline2_shadow:
 7669                             	.LVL818:
 7670                             	.LFB18:
1393:../src/smc_gen/r_drw2d_rx/src/tes/dave_line.c **** 
1394:../src/smc_gen/r_drw2d_rx/src/tes/dave_line.c **** /*--------------------------------------------------------------------------
1395:../src/smc_gen/r_drw2d_rx/src/tes/dave_line.c ****  *
1396:../src/smc_gen/r_drw2d_rx/src/tes/dave_line.c ****  * */
1397:../src/smc_gen/r_drw2d_rx/src/tes/dave_line.c **** d2_s32 d2_renderline2_shadow( d2_device *handle, d2_point x1, d2_point y1, d2_point x2, d2_point y2
1398:../src/smc_gen/r_drw2d_rx/src/tes/dave_line.c **** {
 7671                             		.loc 1 1398 1 is_stmt 1 view -0
 7672                             		.loc 1 1398 1 is_stmt 0 view .LVU2725
 7673 0000 6E 6B                   		pushm	r6-r11
 7674                             	.LCFI24:
 7675                             		.loc 1 1398 1 view .LVU2726
 7676 0002 71 00 C0                		add	#-64, r0
 7677                             	.LCFI25:
 7678 0005 75 47 5C                		mov.L	#0x5c, r7
 7679 0008 4B 07                   		add	r0, r7
 7680 000a DC 7E                   		mov.W	[r7], r14
1399:../src/smc_gen/r_drw2d_rx/src/tes/dave_line.c ****    d2_point   sx,sy;
 7681                             		.loc 1 1399 4 is_stmt 1 view .LVU2727
1400:../src/smc_gen/r_drw2d_rx/src/tes/dave_line.c ****    d2_limdata edge_buffer[2];
 7682                             		.loc 1 1400 4 view .LVU2728
1401:../src/smc_gen/r_drw2d_rx/src/tes/dave_line.c ****    d2_bbox    edge_bbox;
 7683                             		.loc 1 1401 4 view .LVU2729
1402:../src/smc_gen/r_drw2d_rx/src/tes/dave_line.c **** 
1403:../src/smc_gen/r_drw2d_rx/src/tes/dave_line.c ****    sx = D2_DEV(handle)->soffx;
 7684                             		.loc 1 1403 4 view .LVU2730
 7685                             		.loc 1 1403 7 is_stmt 0 view .LVU2731
 7686 000c DD 1F 37                		mov.W	110[r1], r15
 7687                             	.LVL819:
1404:../src/smc_gen/r_drw2d_rx/src/tes/dave_line.c ****    sy = D2_DEV(handle)->soffy;
 7688                             		.loc 1 1404 4 is_stmt 1 view .LVU2732
 7689                             		.loc 1 1404 7 is_stmt 0 view .LVU2733
 7690 000f DD 16 38                		mov.W	112[r1], r6
 7691                             	.LVL820:
1405:../src/smc_gen/r_drw2d_rx/src/tes/dave_line.c **** 
1406:../src/smc_gen/r_drw2d_rx/src/tes/dave_line.c ****    (void)d2_renderline2_intern( D2_DEV(handle), D2_DEV(handle)->ctxoutline, (d2_point)(x1 + sx), (d
 7692                             		.loc 1 1406 4 is_stmt 1 view .LVU2734
 7693                             		.loc 1 1406 133 is_stmt 0 view .LVU2735
 7694 0012 4B F4                   		add	r15, r4
 7695                             	.LVL821:
 7696                             		.loc 1 1406 154 view .LVU2736
 7697 0014 4B 6E                   		add	r6, r14
 7698                             		.loc 1 1406 10 view .LVU2737
 7699 0016 71 0A 2C                		add	#44, r0, r10
 7700 0019 E7 0A 04                		mov.L	r10, 16[r0]
 7701 001c 75 4B 14                		mov.L	#20, r11
 7702 001f 4B 0B                   		add	r0, r11
 7703 0021 E7 0B 03                		mov.L	r11, 12[r0]
 7704 0024 E5 70 02 02             		mov.L	8[r7], 8[r0]
 7705 0028 D5 70 02 03             		mov.W	4[r7], 6[r0]
 7706 002c D5 70 01 02             		mov.W	2[r7], 4[r0]
 7707 0030 D7 0E 01                		mov.W	r14, 2[r0]
 7708 0033 D3 04                   		mov.W	r4, [r0]
 7709 0035 FF 24 63                		add	r6, r3, r4
 7710 0038 FF 23 F2                		add	r15, r2, r3
 7711                             	.LVL822:
 7712                             		.loc 1 1406 10 view .LVU2738
 7713 003b AA 9A                   		mov.L	44[r1], r2
 7714                             	.LVL823:
 7715                             		.loc 1 1406 10 view .LVU2739
 7716 003d 05 00 00 00             		bsr	_d2_renderline2_intern
 7717                             	.LVL824:
1407:../src/smc_gen/r_drw2d_rx/src/tes/dave_line.c **** 
1408:../src/smc_gen/r_drw2d_rx/src/tes/dave_line.c ****    return D2_OK;
 7718                             		.loc 1 1408 4 is_stmt 1 view .LVU2740
1409:../src/smc_gen/r_drw2d_rx/src/tes/dave_line.c **** }
 7719                             		.loc 1 1409 1 is_stmt 0 view .LVU2741
 7720 0041 66 01                   		mov.L	#0, r1
 7721 0043 3F 6B 16                		rtsd	#88, r6-r11
 7722                             		.loc 1 1409 1 view .LVU2742
 7723                             	.LFE18:
 7725                             		.section	.text.d2_renderline2_solidshadow,"ax",@progbits
 7726                             		.global	_d2_renderline2_solidshadow
 7728                             	_d2_renderline2_solidshadow:
 7729                             	.LVL825:
 7730                             	.LFB19:
1410:../src/smc_gen/r_drw2d_rx/src/tes/dave_line.c **** 
1411:../src/smc_gen/r_drw2d_rx/src/tes/dave_line.c **** 
1412:../src/smc_gen/r_drw2d_rx/src/tes/dave_line.c **** /*--------------------------------------------------------------------------
1413:../src/smc_gen/r_drw2d_rx/src/tes/dave_line.c ****  *
1414:../src/smc_gen/r_drw2d_rx/src/tes/dave_line.c ****  * */
1415:../src/smc_gen/r_drw2d_rx/src/tes/dave_line.c **** d2_s32 d2_renderline2_solidshadow( d2_device *handle, d2_point x1, d2_point y1, d2_point x2, d2_poi
1416:../src/smc_gen/r_drw2d_rx/src/tes/dave_line.c **** {
 7731                             		.loc 1 1416 1 is_stmt 1 view -0
 7732                             		.loc 1 1416 1 is_stmt 0 view .LVU2744
 7733 0000 6E 6D                   		pushm	r6-r13
 7734                             	.LCFI26:
 7735                             		.loc 1 1416 1 view .LVU2745
 7736 0002 71 00 BC                		add	#-68, r0
 7737                             	.LCFI27:
 7738 0005 75 47 68                		mov.L	#0x68, r7
 7739 0008 4B 07                   		add	r0, r7
 7740 000a EF 1A                   		mov.L	r1, r10
 7741 000c DF 26                   		mov.W	r2, r6
 7742 000e DF 3B                   		mov.W	r3, r11
 7743 0010 DF 4C                   		mov.W	r4, r12
 7744 0012 DC 79                   		mov.W	[r7], r9
 7745 0014 D5 70 01 1A             		mov.W	2[r7], 52[r0]
 7746 0018 DD 78 02                		mov.W	4[r7], r8
 7747 001b A8 F7                   		mov.L	8[r7], r7
1417:../src/smc_gen/r_drw2d_rx/src/tes/dave_line.c ****    d2_point   sx,sy;
 7748                             		.loc 1 1417 4 is_stmt 1 view .LVU2746
1418:../src/smc_gen/r_drw2d_rx/src/tes/dave_line.c ****    d2_limdata edge_buffer[2];
 7749                             		.loc 1 1418 4 view .LVU2747
1419:../src/smc_gen/r_drw2d_rx/src/tes/dave_line.c ****    d2_bbox    edge_bbox;
 7750                             		.loc 1 1419 4 view .LVU2748
1420:../src/smc_gen/r_drw2d_rx/src/tes/dave_line.c **** 
1421:../src/smc_gen/r_drw2d_rx/src/tes/dave_line.c ****    sx = D2_DEV(handle)->soffx;
 7751                             		.loc 1 1421 4 view .LVU2749
 7752                             		.loc 1 1421 7 is_stmt 0 view .LVU2750
 7753 001d DD 13 37                		mov.W	110[r1], r3
 7754                             	.LVL826:
1422:../src/smc_gen/r_drw2d_rx/src/tes/dave_line.c ****    sy = D2_DEV(handle)->soffy;
 7755                             		.loc 1 1422 4 is_stmt 1 view .LVU2751
 7756                             		.loc 1 1422 7 is_stmt 0 view .LVU2752
 7757 0020 DD 14 38                		mov.W	112[r1], r4
 7758                             	.LVL827:
1423:../src/smc_gen/r_drw2d_rx/src/tes/dave_line.c **** 
1424:../src/smc_gen/r_drw2d_rx/src/tes/dave_line.c ****    /* render shadow */
1425:../src/smc_gen/r_drw2d_rx/src/tes/dave_line.c ****    (void)d2_renderline2_intern( D2_DEV(handle), D2_DEV(handle)->ctxoutline, (d2_point)(x1 + sx), (d
 7759                             		.loc 1 1425 4 is_stmt 1 view .LVU2753
 7760                             		.loc 1 1425 133 is_stmt 0 view .LVU2754
 7761 0023 FF 25 3C                		add	r3, r12, r5
 7762                             		.loc 1 1425 154 view .LVU2755
 7763 0026 FF 22 49                		add	r4, r9, r2
 7764                             	.LVL828:
 7765                             		.loc 1 1425 10 view .LVU2756
 7766 0029 71 0D 2C                		add	#44, r0, r13
 7767 002c E7 0D 04                		mov.L	r13, 16[r0]
 7768 002f 75 4E 14                		mov.L	#20, r14
 7769 0032 4B 0E                   		add	r0, r14
 7770 0034 E7 0E 03                		mov.L	r14, 12[r0]
 7771 0037 A0 87                   		mov.L	r7, 8[r0]
 7772 0039 D7 08 03                		mov.W	r8, 6[r0]
 7773 003c D5 00 1A 02             		mov.W	52[r0], 4[r0]
 7774 0040 90 0A                   		mov.W	r2, 2[r0]
 7775 0042 D3 05                   		mov.W	r5, [r0]
 7776 0044 4B B4                   		add	r11, r4
 7777                             	.LVL829:
 7778                             		.loc 1 1425 10 view .LVU2757
 7779 0046 4B 63                   		add	r6, r3
 7780                             	.LVL830:
 7781                             		.loc 1 1425 10 view .LVU2758
 7782 0048 AA 9A                   		mov.L	44[r1], r2
 7783 004a 05 00 00 00             		bsr	_d2_renderline2_intern
 7784                             	.LVL831:
1426:../src/smc_gen/r_drw2d_rx/src/tes/dave_line.c **** 
1427:../src/smc_gen/r_drw2d_rx/src/tes/dave_line.c ****    /* render solid [base part] */
1428:../src/smc_gen/r_drw2d_rx/src/tes/dave_line.c ****    d2_rendertolayer_intern( handle );
 7785                             		.loc 1 1428 4 is_stmt 1 view .LVU2759
 7786 004e EF A1                   		mov.L	r10, r1
 7787 0050 05 00 00 00             		bsr	_d2_rendertolayer_intern
 7788                             	.LVL832:
1429:../src/smc_gen/r_drw2d_rx/src/tes/dave_line.c ****    (void)d2_renderline2_intern( D2_DEV(handle), D2_DEV(handle)->ctxsolid, x1, y1, x2, y2, w1, w2, f
 7789                             		.loc 1 1429 4 view .LVU2760
 7790                             		.loc 1 1429 10 is_stmt 0 view .LVU2761
 7791 0054 E7 0D 04                		mov.L	r13, 16[r0]
 7792 0057 75 45 14                		mov.L	#20, r5
 7793 005a 4B 05                   		add	r0, r5
 7794 005c A0 8D                   		mov.L	r5, 12[r0]
 7795 005e A0 87                   		mov.L	r7, 8[r0]
 7796 0060 D7 08 03                		mov.W	r8, 6[r0]
 7797 0063 D5 00 1A 02             		mov.W	52[r0], 4[r0]
 7798 0067 D7 09 01                		mov.W	r9, 2[r0]
 7799 006a D3 0C                   		mov.W	r12, [r0]
 7800 006c DF B4                   		mov.W	r11, r4
 7801 006e DF 63                   		mov.W	r6, r3
 7802 0070 ED A2 0A                		mov.L	40[r10], r2
 7803 0073 EF A1                   		mov.L	r10, r1
 7804 0075 05 00 00 00             		bsr	_d2_renderline2_intern
 7805                             	.LVL833:
1430:../src/smc_gen/r_drw2d_rx/src/tes/dave_line.c ****    d2_rendertobase_intern( handle );
 7806                             		.loc 1 1430 4 is_stmt 1 view .LVU2762
 7807 0079 EF A1                   		mov.L	r10, r1
 7808 007b 05 00 00 00             		bsr	_d2_rendertobase_intern
 7809                             	.LVL834:
1431:../src/smc_gen/r_drw2d_rx/src/tes/dave_line.c **** 
1432:../src/smc_gen/r_drw2d_rx/src/tes/dave_line.c ****    return D2_OK;
 7810                             		.loc 1 1432 4 view .LVU2763
1433:../src/smc_gen/r_drw2d_rx/src/tes/dave_line.c **** }
 7811                             		.loc 1 1433 1 is_stmt 0 view .LVU2764
 7812 007f 66 01                   		mov.L	#0, r1
 7813 0081 3F 6D 19                		rtsd	#100, r6-r13
 7814                             		.loc 1 1433 1 view .LVU2765
 7815                             	.LFE19:
 7817                             		.section	.text.d2_renderline2_solidoutline,"ax",@progbits
 7818                             		.global	_d2_renderline2_solidoutline
 7820                             	_d2_renderline2_solidoutline:
 7821                             	.LVL835:
 7822                             	.LFB20:
1434:../src/smc_gen/r_drw2d_rx/src/tes/dave_line.c **** 
1435:../src/smc_gen/r_drw2d_rx/src/tes/dave_line.c **** /*--------------------------------------------------------------------------
1436:../src/smc_gen/r_drw2d_rx/src/tes/dave_line.c ****  *
1437:../src/smc_gen/r_drw2d_rx/src/tes/dave_line.c ****  * */
1438:../src/smc_gen/r_drw2d_rx/src/tes/dave_line.c **** d2_s32 d2_renderline2_solidoutline( d2_device *handle, d2_point x1, d2_point y1, d2_point x2, d2_po
1439:../src/smc_gen/r_drw2d_rx/src/tes/dave_line.c **** {
 7823                             		.loc 1 1439 1 is_stmt 1 view -0
 7824                             		.loc 1 1439 1 is_stmt 0 view .LVU2767
 7825 0000 6E 6D                   		pushm	r6-r13
 7826                             	.LCFI28:
 7827                             		.loc 1 1439 1 view .LVU2768
 7828 0002 71 00 BC                		add	#-68, r0
 7829                             	.LCFI29:
 7830 0005 75 47 68                		mov.L	#0x68, r7
 7831 0008 4B 07                   		add	r0, r7
 7832 000a EF 1A                   		mov.L	r1, r10
 7833 000c DF 26                   		mov.W	r2, r6
 7834 000e DF 3B                   		mov.W	r3, r11
 7835 0010 DF 4C                   		mov.W	r4, r12
 7836 0012 D4 70 1A                		mov.W	[r7], 52[r0]
 7837 0015 DD 79 01                		mov.W	2[r7], r9
 7838 0018 DD 78 02                		mov.W	4[r7], r8
 7839 001b A8 F7                   		mov.L	8[r7], r7
1440:../src/smc_gen/r_drw2d_rx/src/tes/dave_line.c ****    d2_width   ow;
 7840                             		.loc 1 1440 4 is_stmt 1 view .LVU2769
1441:../src/smc_gen/r_drw2d_rx/src/tes/dave_line.c ****    d2_limdata edge_buffer[2];
 7841                             		.loc 1 1441 4 view .LVU2770
1442:../src/smc_gen/r_drw2d_rx/src/tes/dave_line.c ****    d2_bbox    edge_bbox;
 7842                             		.loc 1 1442 4 view .LVU2771
1443:../src/smc_gen/r_drw2d_rx/src/tes/dave_line.c **** 
1444:../src/smc_gen/r_drw2d_rx/src/tes/dave_line.c ****    ow = (d2_width)(D2_DEV(handle)->outlinewidth * 2);
 7843                             		.loc 1 1444 4 view .LVU2772
 7844                             		.loc 1 1444 34 is_stmt 0 view .LVU2773
 7845 001d DD 15 36                		mov.W	108[r1], r5
 7846                             		.loc 1 1444 49 view .LVU2774
 7847 0020 4B 55                   		add	r5, r5
 7848                             	.LVL836:
1445:../src/smc_gen/r_drw2d_rx/src/tes/dave_line.c **** 
1446:../src/smc_gen/r_drw2d_rx/src/tes/dave_line.c ****    /* render outline */
1447:../src/smc_gen/r_drw2d_rx/src/tes/dave_line.c ****    (void)d2_renderline2_intern( D2_DEV(handle), D2_DEV(handle)->ctxoutline, x1, y1, x2, y2, (d2_wid
 7849                             		.loc 1 1447 4 is_stmt 1 view .LVU2775
 7850                             		.loc 1 1447 107 is_stmt 0 view .LVU2776
 7851 0022 FF 24 95                		add	r9, r5, r4
 7852                             	.LVL837:
 7853                             		.loc 1 1447 128 view .LVU2777
 7854 0025 4B 85                   		add	r8, r5
 7855                             	.LVL838:
 7856                             		.loc 1 1447 10 view .LVU2778
 7857 0027 71 0D 2C                		add	#44, r0, r13
 7858 002a E7 0D 04                		mov.L	r13, 16[r0]
 7859                             	.LVL839:
 7860                             		.loc 1 1447 10 view .LVU2779
 7861 002d 75 43 14                		mov.L	#20, r3
 7862                             	.LVL840:
 7863                             		.loc 1 1447 10 view .LVU2780
 7864 0030 4B 03                   		add	r0, r3
 7865 0032 A0 8B                   		mov.L	r3, 12[r0]
 7866 0034 A0 87                   		mov.L	r7, 8[r0]
 7867 0036 90 8D                   		mov.W	r5, 6[r0]
 7868 0038 90 84                   		mov.W	r4, 4[r0]
 7869 003a D5 00 1A 01             		mov.W	52[r0], 2[r0]
 7870 003e D3 0C                   		mov.W	r12, [r0]
 7871 0040 DF B4                   		mov.W	r11, r4
 7872 0042 DF 23                   		mov.W	r2, r3
 7873 0044 AA 9A                   		mov.L	44[r1], r2
 7874                             	.LVL841:
 7875                             		.loc 1 1447 10 view .LVU2781
 7876 0046 05 00 00 00             		bsr	_d2_renderline2_intern
 7877                             	.LVL842:
1448:../src/smc_gen/r_drw2d_rx/src/tes/dave_line.c **** 
1449:../src/smc_gen/r_drw2d_rx/src/tes/dave_line.c ****    /* render solid [base part] */
1450:../src/smc_gen/r_drw2d_rx/src/tes/dave_line.c ****    d2_rendertolayer_intern( handle );
 7878                             		.loc 1 1450 4 is_stmt 1 view .LVU2782
 7879 004a EF A1                   		mov.L	r10, r1
 7880 004c 05 00 00 00             		bsr	_d2_rendertolayer_intern
 7881                             	.LVL843:
1451:../src/smc_gen/r_drw2d_rx/src/tes/dave_line.c ****    (void)d2_renderline2_intern( D2_DEV(handle), D2_DEV(handle)->ctxsolid, x1, y1, x2, y2, w1, w2, f
 7882                             		.loc 1 1451 4 view .LVU2783
 7883                             		.loc 1 1451 10 is_stmt 0 view .LVU2784
 7884 0050 E7 0D 04                		mov.L	r13, 16[r0]
 7885 0053 75 45 14                		mov.L	#20, r5
 7886 0056 4B 05                   		add	r0, r5
 7887 0058 A0 8D                   		mov.L	r5, 12[r0]
 7888 005a A0 87                   		mov.L	r7, 8[r0]
 7889 005c D7 08 03                		mov.W	r8, 6[r0]
 7890 005f D7 09 02                		mov.W	r9, 4[r0]
 7891 0062 D5 00 1A 01             		mov.W	52[r0], 2[r0]
 7892 0066 D3 0C                   		mov.W	r12, [r0]
 7893 0068 DF B4                   		mov.W	r11, r4
 7894 006a DF 63                   		mov.W	r6, r3
 7895 006c ED A2 0A                		mov.L	40[r10], r2
 7896 006f EF A1                   		mov.L	r10, r1
 7897 0071 05 00 00 00             		bsr	_d2_renderline2_intern
 7898                             	.LVL844:
1452:../src/smc_gen/r_drw2d_rx/src/tes/dave_line.c ****    d2_rendertobase_intern( handle );
 7899                             		.loc 1 1452 4 is_stmt 1 view .LVU2785
 7900 0075 EF A1                   		mov.L	r10, r1
 7901 0077 05 00 00 00             		bsr	_d2_rendertobase_intern
 7902                             	.LVL845:
1453:../src/smc_gen/r_drw2d_rx/src/tes/dave_line.c **** 
1454:../src/smc_gen/r_drw2d_rx/src/tes/dave_line.c ****    return D2_OK;
 7903                             		.loc 1 1454 4 view .LVU2786
1455:../src/smc_gen/r_drw2d_rx/src/tes/dave_line.c **** }
 7904                             		.loc 1 1455 1 is_stmt 0 view .LVU2787
 7905 007b 66 01                   		mov.L	#0, r1
 7906 007d 3F 6D 19                		rtsd	#100, r6-r13
 7907                             		.loc 1 1455 1 view .LVU2788
 7908                             	.LFE20:
 8346                             	.Letext0:
 8347                             		.file 3 "D:\\e2_studio\\workspace\\FULLMONI_WIDE\\Firmware\\src\\smc_gen\\r_drw2d_rx\\inc\\tes/dav
 8348                             		.file 4 "D:\\e2_studio\\workspace\\FULLMONI_WIDE\\Firmware\\src\\smc_gen\\r_drw2d_rx\\inc\\tes/dav
 8349                             		.file 5 "../src/smc_gen/r_drw2d_rx/src/tes/dave_dlist.h"
 8350                             		.file 6 "../src/smc_gen/r_drw2d_rx/src/tes/dave_rbuffer.h"
 8351                             		.file 7 "../src/smc_gen/r_drw2d_rx/src/tes/dave_gradient.h"
 8352                             		.file 8 "../src/smc_gen/r_drw2d_rx/src/tes/dave_context.h"
 8353                             		.file 9 "../src/smc_gen/r_drw2d_rx/src/tes/dave_viewport.h"
 8354                             		.file 10 "../src/smc_gen/r_drw2d_rx/src/tes/dave_curve.h"
 8355                             		.file 11 "../src/smc_gen/r_drw2d_rx/src/tes/dave_render.h"
 8356                             		.file 12 "../src/smc_gen/r_drw2d_rx/src/tes/dave_pattern.h"
 8357                             		.file 13 "../src/smc_gen/r_drw2d_rx/src/tes/dave_texture.h"
 8358                             		.file 14 "D:\\e2_studio\\workspace\\FULLMONI_WIDE\\Firmware\\src\\smc_gen\\r_drw2d_rx\\inc\\tes/da
 8359                             		.file 15 "../src/smc_gen/r_drw2d_rx/src/tes/dave_edge.h"
