   1                             		.file	"dave_edge.c"
   2                             		.section P,"ax"
   3                             	.Ltext0:
   4                             		.section	.text.d2_lineedge_setup3blur_intern,"ax",@progbits
   5                             		.global	_d2_lineedge_setup3blur_intern
   7                             	_d2_lineedge_setup3blur_intern:
   8                             	.LVL0:
   9                             	.LFB6:
  10                             		.file 1 "../src/smc_gen/r_drw2d_rx/src/tes/dave_edge.c"
   1:../src/smc_gen/r_drw2d_rx/src/tes/dave_edge.c **** /*--------------------------------------------------------------------------
   2:../src/smc_gen/r_drw2d_rx/src/tes/dave_edge.c ****  * Project: D/AVE
   3:../src/smc_gen/r_drw2d_rx/src/tes/dave_edge.c ****  * File:    dave_edge.c (%version: 14 %)
   4:../src/smc_gen/r_drw2d_rx/src/tes/dave_edge.c ****  *          created Mon Jan 31 18:40:01 2005 by hh04027
   5:../src/smc_gen/r_drw2d_rx/src/tes/dave_edge.c ****  *
   6:../src/smc_gen/r_drw2d_rx/src/tes/dave_edge.c ****  * Description:
   7:../src/smc_gen/r_drw2d_rx/src/tes/dave_edge.c ****  *  %date_modified: Thu Jan 04 13:51:46 2007 %  (%derived_by:  hh04027 %)
   8:../src/smc_gen/r_drw2d_rx/src/tes/dave_edge.c ****  *
   9:../src/smc_gen/r_drw2d_rx/src/tes/dave_edge.c ****  * Changes:
  10:../src/smc_gen/r_drw2d_rx/src/tes/dave_edge.c ****  *  2008-01-14 ASc  changed comments from C++ to C, removed tabs
  11:../src/smc_gen/r_drw2d_rx/src/tes/dave_edge.c ****  *  2010-09-28 MRe  use 64bit arithmetic for blurring calculation
  12:../src/smc_gen/r_drw2d_rx/src/tes/dave_edge.c ****  *  2012-09-25 BSp  MISRA cleanup
  13:../src/smc_gen/r_drw2d_rx/src/tes/dave_edge.c ****  *-------------------------------------------------------------------------- */
  14:../src/smc_gen/r_drw2d_rx/src/tes/dave_edge.c **** 
  15:../src/smc_gen/r_drw2d_rx/src/tes/dave_edge.c **** #include "dave_driver.h"
  16:../src/smc_gen/r_drw2d_rx/src/tes/dave_edge.c **** #include "dave_intern.h"
  17:../src/smc_gen/r_drw2d_rx/src/tes/dave_edge.c **** #include "dave_edge.h"
  18:../src/smc_gen/r_drw2d_rx/src/tes/dave_edge.c **** 
  19:../src/smc_gen/r_drw2d_rx/src/tes/dave_edge.c **** 
  20:../src/smc_gen/r_drw2d_rx/src/tes/dave_edge.c **** /*--------------------------------------------------------------------------
  21:../src/smc_gen/r_drw2d_rx/src/tes/dave_edge.c ****  * line length may not be zero.
  22:../src/smc_gen/r_drw2d_rx/src/tes/dave_edge.c ****  * */
  23:../src/smc_gen/r_drw2d_rx/src/tes/dave_edge.c **** void d2_lineedge_setup3blur_intern( d2_limdata *lim, d2_point px, d2_point py, d2_s32 dx, d2_s32 dy
  24:../src/smc_gen/r_drw2d_rx/src/tes/dave_edge.c **** {
  11                             		.loc 1 24 1 view -0
  12                             		.loc 1 24 1 is_stmt 0 view .LVU1
  13 0000 6E 6D                   		pushm	r6-r13
  14                             	.LCFI0:
  15                             		.loc 1 24 1 view .LVU2
  16 0002 71 00 EC                		add	#-20, r0
  17                             	.LCFI1:
  18 0005 75 47 38                		mov.L	#56, r7
  19 0008 4B 07                   		add	r0, r7
  20 000a EF 1A                   		mov.L	r1, r10
  21 000c D3 02                   		mov.W	r2, [r0]
  22 000e 90 0B                   		mov.W	r3, 2[r0]
  23 0010 EF 4B                   		mov.L	r4, r11
  24 0012 EC 76                   		mov.L	[r7], r6
  25 0014 A8 7D                   		mov.L	4[r7], r5
  26 0016 ED 78 02                		mov.L	8[r7], r8
  27 0019 ED 7D 03                		mov.L	12[r7], r13
  25:../src/smc_gen/r_drw2d_rx/src/tes/dave_edge.c ****    d2_s32 xa, ya, l;
  28                             		.loc 1 25 4 is_stmt 1 view .LVU3
  26:../src/smc_gen/r_drw2d_rx/src/tes/dave_edge.c ****    d2_s32 s1, s2, s3;
  29                             		.loc 1 26 4 view .LVU4
  27:../src/smc_gen/r_drw2d_rx/src/tes/dave_edge.c ****    d2_s32 oa, ob;
  30                             		.loc 1 27 4 view .LVU5
  28:../src/smc_gen/r_drw2d_rx/src/tes/dave_edge.c **** 
  29:../src/smc_gen/r_drw2d_rx/src/tes/dave_edge.c ****    /* get extension offsets */
  30:../src/smc_gen/r_drw2d_rx/src/tes/dave_edge.c ****    if(0 != (flags & d2_le_exclude_start))
  31                             		.loc 1 30 4 view .LVU6
  32                             		.loc 1 30 6 is_stmt 0 view .LVU7
  33 001c FD 74 C5 01             		tst	#1, r5
  34 0020 1D                      		bne	.L5
  31:../src/smc_gen/r_drw2d_rx/src/tes/dave_edge.c ****    {
  32:../src/smc_gen/r_drw2d_rx/src/tes/dave_edge.c ****       oa = 0;
  33:../src/smc_gen/r_drw2d_rx/src/tes/dave_edge.c ****    }
  34:../src/smc_gen/r_drw2d_rx/src/tes/dave_edge.c ****    else
  35:../src/smc_gen/r_drw2d_rx/src/tes/dave_edge.c ****    {
  36:../src/smc_gen/r_drw2d_rx/src/tes/dave_edge.c ****       oa = (d2_s32) (ctx->invblur << 0);
  35                             		.loc 1 36 7 is_stmt 1 view .LVU8
  36                             		.loc 1 36 35 is_stmt 0 view .LVU9
  37 0021 ED 89 44                		mov.L	272[r8], r9
  38                             	.LVL1:
  39                             		.loc 1 36 35 view .LVU10
  40 0024 0B                      		bra	.L2
  41                             	.LVL2:
  42                             	.L5:
  32:../src/smc_gen/r_drw2d_rx/src/tes/dave_edge.c ****    }
  43                             		.loc 1 32 10 view .LVU11
  44 0025 66 09                   		mov.L	#0, r9
  45                             	.L2:
  46                             	.LVL3:
  37:../src/smc_gen/r_drw2d_rx/src/tes/dave_edge.c ****    }
  38:../src/smc_gen/r_drw2d_rx/src/tes/dave_edge.c **** 
  39:../src/smc_gen/r_drw2d_rx/src/tes/dave_edge.c ****    if(0 != (flags & d2_le_exclude_end))
  47                             		.loc 1 39 4 is_stmt 1 view .LVU12
  48                             		.loc 1 39 6 is_stmt 0 view .LVU13
  49 0027 FD 74 C5 02             		tst	#2, r5
  50 002b 1D                      		bne	.L6
  40:../src/smc_gen/r_drw2d_rx/src/tes/dave_edge.c ****    {
  41:../src/smc_gen/r_drw2d_rx/src/tes/dave_edge.c ****       ob = 0;
  42:../src/smc_gen/r_drw2d_rx/src/tes/dave_edge.c ****    }
  43:../src/smc_gen/r_drw2d_rx/src/tes/dave_edge.c ****    else
  44:../src/smc_gen/r_drw2d_rx/src/tes/dave_edge.c ****    {
  45:../src/smc_gen/r_drw2d_rx/src/tes/dave_edge.c ****       ob = (d2_s32) (ctx->invblur << 0);
  51                             		.loc 1 45 7 is_stmt 1 view .LVU14
  52                             		.loc 1 45 35 is_stmt 0 view .LVU15
  53 002c ED 8C 44                		mov.L	272[r8], r12
  54                             	.LVL4:
  55                             		.loc 1 45 35 view .LVU16
  56 002f 0B                      		bra	.L3
  57                             	.LVL5:
  58                             	.L6:
  41:../src/smc_gen/r_drw2d_rx/src/tes/dave_edge.c ****    }
  59                             		.loc 1 41 10 view .LVU17
  60 0030 66 0C                   		mov.L	#0, r12
  61                             	.L3:
  62                             	.LVL6:
  46:../src/smc_gen/r_drw2d_rx/src/tes/dave_edge.c ****    }
  47:../src/smc_gen/r_drw2d_rx/src/tes/dave_edge.c **** 
  48:../src/smc_gen/r_drw2d_rx/src/tes/dave_edge.c ****    l = ((d2_s32)(ctx->invblur * 16u)) / d2_sqrt( (d2_u32) ((dx * dx) + (dy * dy)) );
  63                             		.loc 1 48 4 is_stmt 1 view .LVU18
  64                             		.loc 1 48 21 is_stmt 0 view .LVU19
  65 0032 ED 87 44                		mov.L	272[r8], r7
  66                             		.loc 1 48 31 view .LVU20
  67 0035 6C 47                   		shll	#4, r7
  68                             		.loc 1 48 64 view .LVU21
  69 0037 FF 31 BB                		mul	r11, r11, r1
  70                             	.LVL7:
  71                             		.loc 1 48 76 view .LVU22
  72 003a FF 35 66                		mul	r6, r6, r5
  73                             		.loc 1 48 41 view .LVU23
  74 003d 4B 51                   		add	r5, r1
  75 003f 05 00 00 00             		bsr	_d2_sqrt
  76                             	.LVL8:
  77                             		.loc 1 48 6 view .LVU24
  78 0043 FC 23 17                		div	r1, r7
  79                             	.LVL9:
  49:../src/smc_gen/r_drw2d_rx/src/tes/dave_edge.c **** 
  50:../src/smc_gen/r_drw2d_rx/src/tes/dave_edge.c ****    if(NULL != length)
  80                             		.loc 1 50 4 is_stmt 1 view .LVU25
  81                             		.loc 1 50 6 is_stmt 0 view .LVU26
  82 0046 61 0D                   		cmp	#0, r13
  83 0048 13                      		beq	.L4
  51:../src/smc_gen/r_drw2d_rx/src/tes/dave_edge.c ****    {
  52:../src/smc_gen/r_drw2d_rx/src/tes/dave_edge.c ****       *length = l;
  84                             		.loc 1 52 7 is_stmt 1 view .LVU27
  85                             		.loc 1 52 15 is_stmt 0 view .LVU28
  86 0049 E3 D7                   		mov.L	r7, [r13]
  87                             	.L4:
  53:../src/smc_gen/r_drw2d_rx/src/tes/dave_edge.c ****    }
  54:../src/smc_gen/r_drw2d_rx/src/tes/dave_edge.c **** 
  55:../src/smc_gen/r_drw2d_rx/src/tes/dave_edge.c ****    xa = (-dy * l) >> 4;                              /* PRQA S 0502 */ /* $Misra: #PERF_ARITHMETIC_
  88                             		.loc 1 55 4 is_stmt 1 view .LVU29
  89                             		.loc 1 55 10 is_stmt 0 view .LVU30
  90 004b FC 07 65                		neg	r6, r5
  91                             		.loc 1 55 14 view .LVU31
  92 004e 4F 75                   		mul	r7, r5
  93                             		.loc 1 55 7 view .LVU32
  94 0050 6A 45                   		shar	#4, r5
  95                             	.LVL10:
  56:../src/smc_gen/r_drw2d_rx/src/tes/dave_edge.c ****    ya = ( dx * l) >> 4;                              /* PRQA S 0502 */ /* $Misra: #PERF_ARITHMETIC_
  96                             		.loc 1 56 4 is_stmt 1 view .LVU33
  97                             		.loc 1 56 14 is_stmt 0 view .LVU34
  98 0052 4F B7                   		mul	r11, r7
  99                             	.LVL11:
 100                             		.loc 1 56 7 view .LVU35
 101 0054 6A 47                   		shar	#4, r7
 102                             	.LVL12:
  57:../src/smc_gen/r_drw2d_rx/src/tes/dave_edge.c ****    s1 = (((-px * xa) - (py * ya) ) >> 4);            /* PRQA S 0502 */ /* $Misra: #PERF_ARITHMETIC_
 103                             		.loc 1 57 4 is_stmt 1 view .LVU36
 104                             		.loc 1 57 12 is_stmt 0 view .LVU37
 105 0056 DC 04                   		mov.W	[r0], r4
 106 0058 FC 07 43                		neg	r4, r3
 107                             		.loc 1 57 16 view .LVU38
 108 005b FF 32 53                		mul	r5, r3, r2
 109                             		.loc 1 57 28 view .LVU39
 110 005e 98 09                   		mov.W	2[r0], r1
 111 0060 FF 3D 71                		mul	r7, r1, r13
 112                             		.loc 1 57 22 view .LVU40
 113 0063 43 D2                   		sub	r13, r2
 114                             		.loc 1 57 7 view .LVU41
 115 0065 6A 42                   		shar	#4, r2
 116                             	.LVL13:
  58:../src/smc_gen/r_drw2d_rx/src/tes/dave_edge.c ****    s2 = (((-px * ya) + (py * xa) ) >> 4);            /* PRQA S 0502 */ /* $Misra: #PERF_ARITHMETIC_
 117                             		.loc 1 58 4 is_stmt 1 view .LVU42
 118                             		.loc 1 58 16 is_stmt 0 view .LVU43
 119 0067 4F 73                   		mul	r7, r3
 120                             		.loc 1 58 28 view .LVU44
 121 0069 FF 3D 51                		mul	r5, r1, r13
 122                             		.loc 1 58 22 view .LVU45
 123 006c 4B D3                   		add	r13, r3
 124                             		.loc 1 58 7 view .LVU46
 125 006e 6A 43                   		shar	#4, r3
 126                             	.LVL14:
  59:../src/smc_gen/r_drw2d_rx/src/tes/dave_edge.c ****    s3 = (((px + dx) * ya) - ((py + dy) * xa)) >> 4;  /* PRQA S 0502 */ /* $Misra: #PERF_ARITHMETIC_
 127                             		.loc 1 59 4 is_stmt 1 view .LVU47
 128                             		.loc 1 59 15 is_stmt 0 view .LVU48
 129 0070 4B B4                   		add	r11, r4
 130                             		.loc 1 59 21 view .LVU49
 131 0072 4F 74                   		mul	r7, r4
 132                             		.loc 1 59 34 view .LVU50
 133 0074 4B 16                   		add	r1, r6
 134                             		.loc 1 59 40 view .LVU51
 135 0076 4F 56                   		mul	r5, r6
 136                             		.loc 1 59 27 view .LVU52
 137 0078 43 64                   		sub	r6, r4
 138                             		.loc 1 59 7 view .LVU53
 139 007a 6A 44                   		shar	#4, r4
 140                             	.LVL15:
  60:../src/smc_gen/r_drw2d_rx/src/tes/dave_edge.c **** 
  61:../src/smc_gen/r_drw2d_rx/src/tes/dave_edge.c ****    /* store limiter parameters */
  62:../src/smc_gen/r_drw2d_rx/src/tes/dave_edge.c ****    lim[0].start = s1 + (d2_s32)(ctx->invblur / 2u);
 141                             		.loc 1 62 4 is_stmt 1 view .LVU54
 142                             		.loc 1 62 36 is_stmt 0 view .LVU55
 143 007c ED 81 44                		mov.L	272[r8], r1
 144                             		.loc 1 62 46 view .LVU56
 145 007f 68 11                   		shlr	#1, r1
 146                             		.loc 1 62 22 view .LVU57
 147 0081 4B 12                   		add	r1, r2
 148                             	.LVL16:
 149                             		.loc 1 62 17 view .LVU58
 150 0083 E3 A2                   		mov.L	r2, [r10]
  63:../src/smc_gen/r_drw2d_rx/src/tes/dave_edge.c ****    lim[0].xadd  = xa;
 151                             		.loc 1 63 4 is_stmt 1 view .LVU59
 152                             		.loc 1 63 17 is_stmt 0 view .LVU60
 153 0085 E7 A5 01                		mov.L	r5, 4[r10]
  64:../src/smc_gen/r_drw2d_rx/src/tes/dave_edge.c ****    lim[0].yadd  = ya;
 154                             		.loc 1 64 4 is_stmt 1 view .LVU61
 155                             		.loc 1 64 17 is_stmt 0 view .LVU62
 156 0088 E7 A7 02                		mov.L	r7, 8[r10]
  65:../src/smc_gen/r_drw2d_rx/src/tes/dave_edge.c ****    lim[1].start = s2 + oa;
 157                             		.loc 1 65 4 is_stmt 1 view .LVU63
 158                             		.loc 1 65 22 is_stmt 0 view .LVU64
 159 008b 4B 39                   		add	r3, r9
 160                             	.LVL17:
 161                             		.loc 1 65 17 view .LVU65
 162 008d E7 A9 03                		mov.L	r9, 12[r10]
  66:../src/smc_gen/r_drw2d_rx/src/tes/dave_edge.c ****    lim[1].xadd  = ya;
 163                             		.loc 1 66 4 is_stmt 1 view .LVU66
 164                             		.loc 1 66 17 is_stmt 0 view .LVU67
 165 0090 E7 A7 04                		mov.L	r7, 16[r10]
  67:../src/smc_gen/r_drw2d_rx/src/tes/dave_edge.c ****    lim[1].yadd  = -xa;
 166                             		.loc 1 67 4 is_stmt 1 view .LVU68
 167                             		.loc 1 67 19 is_stmt 0 view .LVU69
 168 0093 FC 07 53                		neg	r5, r3
 169                             	.LVL18:
 170                             		.loc 1 67 17 view .LVU70
 171 0096 E7 A3 05                		mov.L	r3, 20[r10]
  68:../src/smc_gen/r_drw2d_rx/src/tes/dave_edge.c ****    lim[2].start = s3 + ob;
 172                             		.loc 1 68 4 is_stmt 1 view .LVU71
 173                             		.loc 1 68 22 is_stmt 0 view .LVU72
 174 0099 4B 4C                   		add	r4, r12
 175                             	.LVL19:
 176                             		.loc 1 68 17 view .LVU73
 177 009b E7 AC 06                		mov.L	r12, 24[r10]
  69:../src/smc_gen/r_drw2d_rx/src/tes/dave_edge.c ****    lim[2].xadd  = -ya;
 178                             		.loc 1 69 4 is_stmt 1 view .LVU74
 179                             		.loc 1 69 19 is_stmt 0 view .LVU75
 180 009e 7E 17                   		neg	r7
 181                             	.LVL20:
 182                             		.loc 1 69 17 view .LVU76
 183 00a0 E7 A7 07                		mov.L	r7, 28[r10]
  70:../src/smc_gen/r_drw2d_rx/src/tes/dave_edge.c ****    lim[2].yadd  = xa;
 184                             		.loc 1 70 4 is_stmt 1 view .LVU77
 185                             		.loc 1 70 17 is_stmt 0 view .LVU78
 186 00a3 E7 A5 08                		mov.L	r5, 32[r10]
  71:../src/smc_gen/r_drw2d_rx/src/tes/dave_edge.c **** }
 187                             		.loc 1 71 1 view .LVU79
 188 00a6 3F 6D 0D                		rtsd	#52, r6-r13
 189                             		.loc 1 71 1 view .LVU80
 190                             	.LFE6:
 192                             		.section	.text.d2_lineedge_setup3sqrt_intern,"ax",@progbits
 193                             		.global	_d2_lineedge_setup3sqrt_intern
 195                             	_d2_lineedge_setup3sqrt_intern:
 196                             	.LVL21:
 197                             	.LFB7:
  72:../src/smc_gen/r_drw2d_rx/src/tes/dave_edge.c **** 
  73:../src/smc_gen/r_drw2d_rx/src/tes/dave_edge.c **** 
  74:../src/smc_gen/r_drw2d_rx/src/tes/dave_edge.c **** /*--------------------------------------------------------------------------
  75:../src/smc_gen/r_drw2d_rx/src/tes/dave_edge.c ****  * line length may not be zero.
  76:../src/smc_gen/r_drw2d_rx/src/tes/dave_edge.c ****  * */
  77:../src/smc_gen/r_drw2d_rx/src/tes/dave_edge.c **** void d2_lineedge_setup3sqrt_intern( d2_limdata *lim, d2_point px, d2_point py, d2_s32 dx, d2_s32 dy
  78:../src/smc_gen/r_drw2d_rx/src/tes/dave_edge.c **** {
 198                             		.loc 1 78 1 is_stmt 1 view -0
 199                             		.loc 1 78 1 is_stmt 0 view .LVU82
 200 0000 6E 6D                   		pushm	r6-r13
 201                             	.LCFI2:
 202                             		.loc 1 78 1 view .LVU83
 203 0002 60 C0                   		sub	#12, r0
 204                             	.LCFI3:
 205 0004 75 47 30                		mov.L	#48, r7
 206 0007 4B 07                   		add	r0, r7
 207 0009 EF 1A                   		mov.L	r1, r10
 208 000b DF 28                   		mov.W	r2, r8
 209 000d DF 3C                   		mov.W	r3, r12
 210 000f EF 49                   		mov.L	r4, r9
 211 0011 EC 7B                   		mov.L	[r7], r11
 212 0013 A8 7D                   		mov.L	4[r7], r5
 213 0015 ED 7D 02                		mov.L	8[r7], r13
  79:../src/smc_gen/r_drw2d_rx/src/tes/dave_edge.c ****    d2_s32 xa, ya, l;
 214                             		.loc 1 79 4 is_stmt 1 view .LVU84
  80:../src/smc_gen/r_drw2d_rx/src/tes/dave_edge.c ****    d2_s32 s1, s2, s3;
 215                             		.loc 1 80 4 view .LVU85
  81:../src/smc_gen/r_drw2d_rx/src/tes/dave_edge.c ****    d2_s32 oa, ob;
 216                             		.loc 1 81 4 view .LVU86
  82:../src/smc_gen/r_drw2d_rx/src/tes/dave_edge.c **** 
  83:../src/smc_gen/r_drw2d_rx/src/tes/dave_edge.c ****    /* get extension offsets */
  84:../src/smc_gen/r_drw2d_rx/src/tes/dave_edge.c ****    if(0 != (flags & d2_le_exclude_start))
 217                             		.loc 1 84 4 view .LVU87
 218                             		.loc 1 84 6 is_stmt 0 view .LVU88
 219 0018 FD 74 C5 01             		tst	#1, r5
 220 001c 3A 83 00                		beq	.L12
  85:../src/smc_gen/r_drw2d_rx/src/tes/dave_edge.c ****    {
  86:../src/smc_gen/r_drw2d_rx/src/tes/dave_edge.c ****       oa = 0;
 221                             		.loc 1 86 10 view .LVU89
 222 001f 66 06                   		mov.L	#0, r6
 223                             	.L9:
 224                             	.LVL22:
  87:../src/smc_gen/r_drw2d_rx/src/tes/dave_edge.c ****    }
  88:../src/smc_gen/r_drw2d_rx/src/tes/dave_edge.c ****    else
  89:../src/smc_gen/r_drw2d_rx/src/tes/dave_edge.c ****    {
  90:../src/smc_gen/r_drw2d_rx/src/tes/dave_edge.c ****       oa = D2_FIX16(1);
  91:../src/smc_gen/r_drw2d_rx/src/tes/dave_edge.c ****    }
  92:../src/smc_gen/r_drw2d_rx/src/tes/dave_edge.c **** 
  93:../src/smc_gen/r_drw2d_rx/src/tes/dave_edge.c ****    if(0 != (flags & d2_le_exclude_end))
 225                             		.loc 1 93 4 is_stmt 1 view .LVU90
 226                             		.loc 1 93 6 is_stmt 0 view .LVU91
 227 0021 FD 74 C5 02             		tst	#2, r5
 228 0025 3A 82 00                		beq	.L13
  94:../src/smc_gen/r_drw2d_rx/src/tes/dave_edge.c ****    {
  95:../src/smc_gen/r_drw2d_rx/src/tes/dave_edge.c ****       ob = 0;
 229                             		.loc 1 95 10 view .LVU92
 230 0028 66 07                   		mov.L	#0, r7
 231                             	.L10:
 232                             	.LVL23:
  96:../src/smc_gen/r_drw2d_rx/src/tes/dave_edge.c ****    }
  97:../src/smc_gen/r_drw2d_rx/src/tes/dave_edge.c ****    else
  98:../src/smc_gen/r_drw2d_rx/src/tes/dave_edge.c ****    {
  99:../src/smc_gen/r_drw2d_rx/src/tes/dave_edge.c ****       ob = D2_FIX16(1);
 100:../src/smc_gen/r_drw2d_rx/src/tes/dave_edge.c ****    }
 101:../src/smc_gen/r_drw2d_rx/src/tes/dave_edge.c **** 
 102:../src/smc_gen/r_drw2d_rx/src/tes/dave_edge.c ****    l = (65536 * 16) / d2_sqrt( (d2_u32)( (dx * dx) + (dy * dy) ) );
 233                             		.loc 1 102 4 is_stmt 1 view .LVU93
 234                             		.loc 1 102 46 is_stmt 0 view .LVU94
 235 002a FF 31 99                		mul	r9, r9, r1
 236                             	.LVL24:
 237                             		.loc 1 102 58 view .LVU95
 238 002d FF 35 BB                		mul	r11, r11, r5
 239                             		.loc 1 102 23 view .LVU96
 240 0030 4B 51                   		add	r5, r1
 241 0032 05 00 00 00             		bsr	_d2_sqrt
 242                             	.LVL25:
 243                             		.loc 1 102 6 view .LVU97
 244 0036 FB 5E 00 00 10          		mov.L	#0x100000, r5
 245 003b FC 23 15                		div	r1, r5
 246                             	.LVL26:
 103:../src/smc_gen/r_drw2d_rx/src/tes/dave_edge.c **** 
 104:../src/smc_gen/r_drw2d_rx/src/tes/dave_edge.c ****    if(NULL != length)
 247                             		.loc 1 104 4 is_stmt 1 view .LVU98
 248                             		.loc 1 104 6 is_stmt 0 view .LVU99
 249 003e 61 0D                   		cmp	#0, r13
 250 0040 13                      		beq	.L11
 105:../src/smc_gen/r_drw2d_rx/src/tes/dave_edge.c ****    {
 106:../src/smc_gen/r_drw2d_rx/src/tes/dave_edge.c ****       *length = l;
 251                             		.loc 1 106 7 is_stmt 1 view .LVU100
 252                             		.loc 1 106 15 is_stmt 0 view .LVU101
 253 0041 E3 D5                   		mov.L	r5, [r13]
 254                             	.L11:
 107:../src/smc_gen/r_drw2d_rx/src/tes/dave_edge.c ****    }
 108:../src/smc_gen/r_drw2d_rx/src/tes/dave_edge.c **** 
 109:../src/smc_gen/r_drw2d_rx/src/tes/dave_edge.c ****    xa = (-dy * l) >> 4;                              /* PRQA S 0502 */ /* $Misra: #PERF_ARITHMETIC_
 255                             		.loc 1 109 4 is_stmt 1 view .LVU102
 256                             		.loc 1 109 10 is_stmt 0 view .LVU103
 257 0043 FC 07 B4                		neg	r11, r4
 258                             		.loc 1 109 14 view .LVU104
 259 0046 4F 54                   		mul	r5, r4
 260                             		.loc 1 109 7 view .LVU105
 261 0048 6A 44                   		shar	#4, r4
 262                             	.LVL27:
 110:../src/smc_gen/r_drw2d_rx/src/tes/dave_edge.c ****    ya = ( dx * l) >> 4;                              /* PRQA S 0502 */ /* $Misra: #PERF_ARITHMETIC_
 263                             		.loc 1 110 4 is_stmt 1 view .LVU106
 264                             		.loc 1 110 14 is_stmt 0 view .LVU107
 265 004a 4F 95                   		mul	r9, r5
 266                             	.LVL28:
 267                             		.loc 1 110 7 view .LVU108
 268 004c 6A 45                   		shar	#4, r5
 269                             	.LVL29:
 111:../src/smc_gen/r_drw2d_rx/src/tes/dave_edge.c ****    s1 = ((-px * xa) - (py * ya) ) >> 4;              /* PRQA S 0502 */ /* $Misra: #PERF_ARITHMETIC_
 270                             		.loc 1 111 4 is_stmt 1 view .LVU109
 271                             		.loc 1 111 11 is_stmt 0 view .LVU110
 272 004e DF 82                   		mov.W	r8, r2
 273 0050 FC 07 23                		neg	r2, r3
 274                             		.loc 1 111 15 view .LVU111
 275 0053 FF 31 43                		mul	r4, r3, r1
 276                             	.LVL30:
 277                             		.loc 1 111 27 view .LVU112
 278 0056 DF CC                   		mov.W	r12, r12
 279                             		.loc 1 111 27 view .LVU113
 280 0058 FF 38 5C                		mul	r5, r12, r8
 281                             	.LVL31:
 282                             		.loc 1 111 21 view .LVU114
 283 005b 43 81                   		sub	r8, r1
 284                             		.loc 1 111 7 view .LVU115
 285 005d 6A 41                   		shar	#4, r1
 286                             	.LVL32:
 112:../src/smc_gen/r_drw2d_rx/src/tes/dave_edge.c ****    s2 = ((-px * ya) + (py * xa) ) >> 4;              /* PRQA S 0502 */ /* $Misra: #PERF_ARITHMETIC_
 287                             		.loc 1 112 4 is_stmt 1 view .LVU116
 288                             		.loc 1 112 15 is_stmt 0 view .LVU117
 289 005f 4F 53                   		mul	r5, r3
 290                             		.loc 1 112 27 view .LVU118
 291 0061 FF 38 4C                		mul	r4, r12, r8
 292                             		.loc 1 112 21 view .LVU119
 293 0064 4B 83                   		add	r8, r3
 294                             		.loc 1 112 7 view .LVU120
 295 0066 6A 43                   		shar	#4, r3
 296                             	.LVL33:
 113:../src/smc_gen/r_drw2d_rx/src/tes/dave_edge.c ****    s3 = (((px + dx) * ya) - ((py + dy) * xa)) >> 4;  /* PRQA S 0502 */ /* $Misra: #PERF_ARITHMETIC_
 297                             		.loc 1 113 4 is_stmt 1 view .LVU121
 298                             		.loc 1 113 15 is_stmt 0 view .LVU122
 299 0068 4B 92                   		add	r9, r2
 300                             	.LVL34:
 301                             		.loc 1 113 21 view .LVU123
 302 006a 4F 52                   		mul	r5, r2
 303                             		.loc 1 113 34 view .LVU124
 304 006c 4B BC                   		add	r11, r12
 305                             	.LVL35:
 306                             		.loc 1 113 40 view .LVU125
 307 006e 4F 4C                   		mul	r4, r12
 308                             		.loc 1 113 27 view .LVU126
 309 0070 43 C2                   		sub	r12, r2
 310                             		.loc 1 113 7 view .LVU127
 311 0072 6A 42                   		shar	#4, r2
 312                             	.LVL36:
 114:../src/smc_gen/r_drw2d_rx/src/tes/dave_edge.c **** 
 115:../src/smc_gen/r_drw2d_rx/src/tes/dave_edge.c ****    /* store limiter parameters */
 116:../src/smc_gen/r_drw2d_rx/src/tes/dave_edge.c ****    lim[0].start = s1 + (D2_FIX16(1) / 2);
 313                             		.loc 1 116 4 is_stmt 1 view .LVU128
 314                             		.loc 1 116 22 is_stmt 0 view .LVU129
 315 0074 73 11 00 80 00          		add	#0x8000, r1
 316                             	.LVL37:
 317                             		.loc 1 116 17 view .LVU130
 318 0079 E3 A1                   		mov.L	r1, [r10]
 117:../src/smc_gen/r_drw2d_rx/src/tes/dave_edge.c ****    lim[0].xadd  = xa;
 319                             		.loc 1 117 4 is_stmt 1 view .LVU131
 320                             		.loc 1 117 17 is_stmt 0 view .LVU132
 321 007b E7 A4 01                		mov.L	r4, 4[r10]
 118:../src/smc_gen/r_drw2d_rx/src/tes/dave_edge.c ****    lim[0].yadd  = ya;
 322                             		.loc 1 118 4 is_stmt 1 view .LVU133
 323                             		.loc 1 118 17 is_stmt 0 view .LVU134
 324 007e E7 A5 02                		mov.L	r5, 8[r10]
 119:../src/smc_gen/r_drw2d_rx/src/tes/dave_edge.c ****    lim[1].start = s2 + oa;
 325                             		.loc 1 119 4 is_stmt 1 view .LVU135
 326                             		.loc 1 119 22 is_stmt 0 view .LVU136
 327 0081 4B 36                   		add	r3, r6
 328                             	.LVL38:
 329                             		.loc 1 119 17 view .LVU137
 330 0083 E7 A6 03                		mov.L	r6, 12[r10]
 120:../src/smc_gen/r_drw2d_rx/src/tes/dave_edge.c ****    lim[1].xadd  = ya;
 331                             		.loc 1 120 4 is_stmt 1 view .LVU138
 332                             		.loc 1 120 17 is_stmt 0 view .LVU139
 333 0086 E7 A5 04                		mov.L	r5, 16[r10]
 121:../src/smc_gen/r_drw2d_rx/src/tes/dave_edge.c ****    lim[1].yadd  = -xa;
 334                             		.loc 1 121 4 is_stmt 1 view .LVU140
 335                             		.loc 1 121 19 is_stmt 0 view .LVU141
 336 0089 FC 07 43                		neg	r4, r3
 337                             	.LVL39:
 338                             		.loc 1 121 17 view .LVU142
 339 008c E7 A3 05                		mov.L	r3, 20[r10]
 122:../src/smc_gen/r_drw2d_rx/src/tes/dave_edge.c ****    lim[2].start = s3 + ob;
 340                             		.loc 1 122 4 is_stmt 1 view .LVU143
 341                             		.loc 1 122 22 is_stmt 0 view .LVU144
 342 008f 4B 72                   		add	r7, r2
 343                             	.LVL40:
 344                             		.loc 1 122 17 view .LVU145
 345 0091 E7 A2 06                		mov.L	r2, 24[r10]
 123:../src/smc_gen/r_drw2d_rx/src/tes/dave_edge.c ****    lim[2].xadd  = -ya;
 346                             		.loc 1 123 4 is_stmt 1 view .LVU146
 347                             		.loc 1 123 19 is_stmt 0 view .LVU147
 348 0094 7E 15                   		neg	r5
 349                             	.LVL41:
 350                             		.loc 1 123 17 view .LVU148
 351 0096 E7 A5 07                		mov.L	r5, 28[r10]
 124:../src/smc_gen/r_drw2d_rx/src/tes/dave_edge.c ****    lim[2].yadd  = xa;
 352                             		.loc 1 124 4 is_stmt 1 view .LVU149
 353                             		.loc 1 124 17 is_stmt 0 view .LVU150
 354 0099 E7 A4 08                		mov.L	r4, 32[r10]
 125:../src/smc_gen/r_drw2d_rx/src/tes/dave_edge.c **** }
 355                             		.loc 1 125 1 view .LVU151
 356 009c 3F 6D 0B                		rtsd	#44, r6-r13
 357                             	.LVL42:
 358                             	.L12:
  90:../src/smc_gen/r_drw2d_rx/src/tes/dave_edge.c ****    }
 359                             		.loc 1 90 10 view .LVU152
 360 009f FB 6E 00 00 01          		mov.L	#0x10000, r6
 361 00a4 38 7D FF                		bra	.L9
 362                             	.LVL43:
 363                             	.L13:
  99:../src/smc_gen/r_drw2d_rx/src/tes/dave_edge.c ****    }
 364                             		.loc 1 99 10 view .LVU153
 365 00a7 FB 7E 00 00 01          		mov.L	#0x10000, r7
 366 00ac 38 7E FF                		bra	.L10
 367                             	.LFE7:
 369                             		.section	.text.d2_lineedge_setup3_intern,"ax",@progbits
 370                             		.global	_d2_lineedge_setup3_intern
 372                             	_d2_lineedge_setup3_intern:
 373                             	.LVL44:
 374                             	.LFB8:
 126:../src/smc_gen/r_drw2d_rx/src/tes/dave_edge.c **** 
 127:../src/smc_gen/r_drw2d_rx/src/tes/dave_edge.c **** /*--------------------------------------------------------------------------
 128:../src/smc_gen/r_drw2d_rx/src/tes/dave_edge.c ****  * note use for thin lines (w<2) only (due to l1 norm approximation)
 129:../src/smc_gen/r_drw2d_rx/src/tes/dave_edge.c ****  * line length may not be zero.
 130:../src/smc_gen/r_drw2d_rx/src/tes/dave_edge.c ****  * */
 131:../src/smc_gen/r_drw2d_rx/src/tes/dave_edge.c **** void d2_lineedge_setup3_intern( d2_limdata *lim, d2_point px, d2_point py, d2_s32 dx, d2_s32 dy, d2
 132:../src/smc_gen/r_drw2d_rx/src/tes/dave_edge.c **** {
 375                             		.loc 1 132 1 is_stmt 1 view -0
 376                             		.loc 1 132 1 is_stmt 0 view .LVU155
 377 0000 6E 6C                   		pushm	r6-r12
 378                             	.LCFI4:
 379                             		.loc 1 132 1 view .LVU156
 380 0002 60 C0                   		sub	#12, r0
 381                             	.LCFI5:
 382 0004 75 47 2C                		mov.L	#44, r7
 383 0007 4B 07                   		add	r0, r7
 384 0009 EC 7A                   		mov.L	[r7], r10
 385 000b A8 7D                   		mov.L	4[r7], r5
 386 000d ED 7C 02                		mov.L	8[r7], r12
 133:../src/smc_gen/r_drw2d_rx/src/tes/dave_edge.c ****    d2_s32 n, xa, ya;
 387                             		.loc 1 133 4 is_stmt 1 view .LVU157
 134:../src/smc_gen/r_drw2d_rx/src/tes/dave_edge.c ****    d2_s32 s1, s2, s3;
 388                             		.loc 1 134 4 view .LVU158
 135:../src/smc_gen/r_drw2d_rx/src/tes/dave_edge.c ****    d2_s32 oa, ob;
 389                             		.loc 1 135 4 view .LVU159
 136:../src/smc_gen/r_drw2d_rx/src/tes/dave_edge.c **** 
 137:../src/smc_gen/r_drw2d_rx/src/tes/dave_edge.c ****    /* get extension offsets */
 138:../src/smc_gen/r_drw2d_rx/src/tes/dave_edge.c ****    if(0 != (flags & d2_le_exclude_start))
 390                             		.loc 1 138 4 view .LVU160
 391                             		.loc 1 138 6 is_stmt 0 view .LVU161
 392 0010 FD 74 C5 01             		tst	#1, r5
 393 0014 3A 8A 00                		beq	.L26
 139:../src/smc_gen/r_drw2d_rx/src/tes/dave_edge.c ****    {
 140:../src/smc_gen/r_drw2d_rx/src/tes/dave_edge.c ****       oa = 0;
 394                             		.loc 1 140 10 view .LVU162
 395 0017 66 0B                   		mov.L	#0, r11
 396                             	.L16:
 397                             	.LVL45:
 141:../src/smc_gen/r_drw2d_rx/src/tes/dave_edge.c ****    }
 142:../src/smc_gen/r_drw2d_rx/src/tes/dave_edge.c ****    else
 143:../src/smc_gen/r_drw2d_rx/src/tes/dave_edge.c ****    {
 144:../src/smc_gen/r_drw2d_rx/src/tes/dave_edge.c ****       oa = D2_FIX16(1);
 145:../src/smc_gen/r_drw2d_rx/src/tes/dave_edge.c ****    }
 146:../src/smc_gen/r_drw2d_rx/src/tes/dave_edge.c **** 
 147:../src/smc_gen/r_drw2d_rx/src/tes/dave_edge.c ****    if(0 != (flags & d2_le_exclude_end))
 398                             		.loc 1 147 4 is_stmt 1 view .LVU163
 399                             		.loc 1 147 6 is_stmt 0 view .LVU164
 400 0019 FD 74 C5 02             		tst	#2, r5
 401 001d 3A 89 00                		beq	.L27
 148:../src/smc_gen/r_drw2d_rx/src/tes/dave_edge.c ****    {
 149:../src/smc_gen/r_drw2d_rx/src/tes/dave_edge.c ****       ob = 0;
 402                             		.loc 1 149 10 view .LVU165
 403 0020 66 06                   		mov.L	#0, r6
 404                             	.L17:
 405                             	.LVL46:
 150:../src/smc_gen/r_drw2d_rx/src/tes/dave_edge.c ****    }
 151:../src/smc_gen/r_drw2d_rx/src/tes/dave_edge.c ****    else
 152:../src/smc_gen/r_drw2d_rx/src/tes/dave_edge.c ****    {
 153:../src/smc_gen/r_drw2d_rx/src/tes/dave_edge.c ****       ob = D2_FIX16(1);
 154:../src/smc_gen/r_drw2d_rx/src/tes/dave_edge.c ****    }
 155:../src/smc_gen/r_drw2d_rx/src/tes/dave_edge.c **** 
 156:../src/smc_gen/r_drw2d_rx/src/tes/dave_edge.c ****    /* find line octant */
 157:../src/smc_gen/r_drw2d_rx/src/tes/dave_edge.c ****    if(dx < 0)
 406                             		.loc 1 157 4 is_stmt 1 view .LVU166
 407                             		.loc 1 157 6 is_stmt 0 view .LVU167
 408 0022 61 04                   		cmp	#0, r4
 409 0024 28 05 38 88 00          		blt	.L37
 158:../src/smc_gen/r_drw2d_rx/src/tes/dave_edge.c ****    {
 159:../src/smc_gen/r_drw2d_rx/src/tes/dave_edge.c ****       if(dy < 0)
 160:../src/smc_gen/r_drw2d_rx/src/tes/dave_edge.c ****       {
 161:../src/smc_gen/r_drw2d_rx/src/tes/dave_edge.c ****          /* dx -
 162:../src/smc_gen/r_drw2d_rx/src/tes/dave_edge.c ****           * dy - */
 163:../src/smc_gen/r_drw2d_rx/src/tes/dave_edge.c ****          if(dx < dy)
 164:../src/smc_gen/r_drw2d_rx/src/tes/dave_edge.c ****          {
 165:../src/smc_gen/r_drw2d_rx/src/tes/dave_edge.c ****             /* 3. octant
 166:../src/smc_gen/r_drw2d_rx/src/tes/dave_edge.c ****              * l = -dx, nx = -dy / -dx, ny = -1 */
 167:../src/smc_gen/r_drw2d_rx/src/tes/dave_edge.c **** 
 168:../src/smc_gen/r_drw2d_rx/src/tes/dave_edge.c ****             n = (dy << 16) / dx;                                       /* PRQA S 4131 */ /* $Misra:
 169:../src/smc_gen/r_drw2d_rx/src/tes/dave_edge.c ****             s1 = (py << (16 - 4)) - ((px * n) >> 4);                   /* PRQA S 4131 */ /* $Misra:
 170:../src/smc_gen/r_drw2d_rx/src/tes/dave_edge.c ****             s2 = (px << (16 - 4)) + ((py * n) >> 4);                   /* PRQA S 4131 */ /* $Misra:
 171:../src/smc_gen/r_drw2d_rx/src/tes/dave_edge.c ****             s3 = -((px + dx) << (16 - 4)) - (((py + dy) * n) >> 4);    /* PRQA S 4131 */ /* $Misra:
 172:../src/smc_gen/r_drw2d_rx/src/tes/dave_edge.c ****             xa = n;
 173:../src/smc_gen/r_drw2d_rx/src/tes/dave_edge.c ****             ya = D2_FIX16( -1 );                                       /* PRQA S 4131 */ /* $Misra:
 174:../src/smc_gen/r_drw2d_rx/src/tes/dave_edge.c **** 
 175:../src/smc_gen/r_drw2d_rx/src/tes/dave_edge.c ****             if(NULL != length)
 176:../src/smc_gen/r_drw2d_rx/src/tes/dave_edge.c ****             {
 177:../src/smc_gen/r_drw2d_rx/src/tes/dave_edge.c ****                *length = -dx;
 178:../src/smc_gen/r_drw2d_rx/src/tes/dave_edge.c ****             }
 179:../src/smc_gen/r_drw2d_rx/src/tes/dave_edge.c **** 
 180:../src/smc_gen/r_drw2d_rx/src/tes/dave_edge.c ****          }
 181:../src/smc_gen/r_drw2d_rx/src/tes/dave_edge.c ****          else
 182:../src/smc_gen/r_drw2d_rx/src/tes/dave_edge.c ****          {
 183:../src/smc_gen/r_drw2d_rx/src/tes/dave_edge.c ****             /* 4. octant
 184:../src/smc_gen/r_drw2d_rx/src/tes/dave_edge.c ****              * l = -dy, nx = 1, ny = dx / -dy */
 185:../src/smc_gen/r_drw2d_rx/src/tes/dave_edge.c **** 
 186:../src/smc_gen/r_drw2d_rx/src/tes/dave_edge.c ****             n = (dx << 16) / -dy;                                      /* PRQA S 4131 */ /* $Misra:
 187:../src/smc_gen/r_drw2d_rx/src/tes/dave_edge.c ****             s1 = (-px << (16 - 4)) - ((py * n) >> 4);                  /* PRQA S 4131 */ /* $Misra:
 188:../src/smc_gen/r_drw2d_rx/src/tes/dave_edge.c ****             s2 = ( py << (16 - 4)) - ((px * n) >> 4);                  /* PRQA S 4131 */ /* $Misra:
 189:../src/smc_gen/r_drw2d_rx/src/tes/dave_edge.c ****             s3 = (((px + dx) * n) >> 4) - ((py + dy) << (16 - 4));     /* PRQA S 4131 */ /* $Misra:
 190:../src/smc_gen/r_drw2d_rx/src/tes/dave_edge.c ****             xa = D2_FIX16( 1 );                                        /* PRQA S 4131 */ /* $Misra:
 191:../src/smc_gen/r_drw2d_rx/src/tes/dave_edge.c ****             ya = n;
 192:../src/smc_gen/r_drw2d_rx/src/tes/dave_edge.c **** 
 193:../src/smc_gen/r_drw2d_rx/src/tes/dave_edge.c ****             if(NULL != length)
 194:../src/smc_gen/r_drw2d_rx/src/tes/dave_edge.c ****             {
 195:../src/smc_gen/r_drw2d_rx/src/tes/dave_edge.c ****                *length = -dy;
 196:../src/smc_gen/r_drw2d_rx/src/tes/dave_edge.c ****             }
 197:../src/smc_gen/r_drw2d_rx/src/tes/dave_edge.c ****          }
 198:../src/smc_gen/r_drw2d_rx/src/tes/dave_edge.c ****       }
 199:../src/smc_gen/r_drw2d_rx/src/tes/dave_edge.c ****       else
 200:../src/smc_gen/r_drw2d_rx/src/tes/dave_edge.c ****       {
 201:../src/smc_gen/r_drw2d_rx/src/tes/dave_edge.c ****          /* dx -
 202:../src/smc_gen/r_drw2d_rx/src/tes/dave_edge.c ****           * dy + */
 203:../src/smc_gen/r_drw2d_rx/src/tes/dave_edge.c ****          if(-dx > dy)
 204:../src/smc_gen/r_drw2d_rx/src/tes/dave_edge.c ****          {
 205:../src/smc_gen/r_drw2d_rx/src/tes/dave_edge.c ****             /* 5. octant
 206:../src/smc_gen/r_drw2d_rx/src/tes/dave_edge.c ****              * l = dx, nx = -dy / -dx, ny = -1 */
 207:../src/smc_gen/r_drw2d_rx/src/tes/dave_edge.c **** 
 208:../src/smc_gen/r_drw2d_rx/src/tes/dave_edge.c ****             n = (dy << 16) / dx;                                     /* PRQA S 4131 */ /* $Misra: #
 209:../src/smc_gen/r_drw2d_rx/src/tes/dave_edge.c ****             s1 = (py << (16 - 4)) - ((px * n) >> 4);                 /* PRQA S 4131 */ /* $Misra: #
 210:../src/smc_gen/r_drw2d_rx/src/tes/dave_edge.c ****             s2 = (px << (16 - 4)) + ((py * n) >> 4);                 /* PRQA S 4131 */ /* $Misra: #
 211:../src/smc_gen/r_drw2d_rx/src/tes/dave_edge.c ****             s3 = -((px + dx) << (16 - 4)) - (((py + dy) * n) >> 4);  /* PRQA S 4131 */ /* $Misra: #
 212:../src/smc_gen/r_drw2d_rx/src/tes/dave_edge.c ****             xa = n;
 213:../src/smc_gen/r_drw2d_rx/src/tes/dave_edge.c ****             ya = D2_FIX16( -1 );                                     /* PRQA S 4131 */ /* $Misra: #
 214:../src/smc_gen/r_drw2d_rx/src/tes/dave_edge.c **** 
 215:../src/smc_gen/r_drw2d_rx/src/tes/dave_edge.c ****             if(NULL != length)
 216:../src/smc_gen/r_drw2d_rx/src/tes/dave_edge.c ****             {
 217:../src/smc_gen/r_drw2d_rx/src/tes/dave_edge.c ****                *length = dx;
 218:../src/smc_gen/r_drw2d_rx/src/tes/dave_edge.c ****             }
 219:../src/smc_gen/r_drw2d_rx/src/tes/dave_edge.c **** 
 220:../src/smc_gen/r_drw2d_rx/src/tes/dave_edge.c ****          }
 221:../src/smc_gen/r_drw2d_rx/src/tes/dave_edge.c ****          else
 222:../src/smc_gen/r_drw2d_rx/src/tes/dave_edge.c ****          {
 223:../src/smc_gen/r_drw2d_rx/src/tes/dave_edge.c ****             /* 6. octant
 224:../src/smc_gen/r_drw2d_rx/src/tes/dave_edge.c ****              * l = dy, nx = -1, ny = dx / dy */
 225:../src/smc_gen/r_drw2d_rx/src/tes/dave_edge.c **** 
 226:../src/smc_gen/r_drw2d_rx/src/tes/dave_edge.c ****             n = (dx << 16) / dy;                                    /* PRQA S 4131 */ /* $Misra: #P
 227:../src/smc_gen/r_drw2d_rx/src/tes/dave_edge.c ****             s1 = ( px << (16 - 4)) - ((py * n) >> 4);               /* PRQA S 4131 */ /* $Misra: #P
 228:../src/smc_gen/r_drw2d_rx/src/tes/dave_edge.c ****             s2 = (-py << (16 - 4)) - ((px * n) >> 4);               /* PRQA S 4131 */ /* $Misra: #P
 229:../src/smc_gen/r_drw2d_rx/src/tes/dave_edge.c ****             s3 = (((px + dx) * n) >> 4) + ((py + dy) << (16 - 4));  /* PRQA S 4131 */ /* $Misra: #P
 230:../src/smc_gen/r_drw2d_rx/src/tes/dave_edge.c ****             xa = D2_FIX16( -1 );                                    /* PRQA S 4131 */ /* $Misra: #P
 231:../src/smc_gen/r_drw2d_rx/src/tes/dave_edge.c ****             ya = n;
 232:../src/smc_gen/r_drw2d_rx/src/tes/dave_edge.c **** 
 233:../src/smc_gen/r_drw2d_rx/src/tes/dave_edge.c ****             if(NULL != length)
 234:../src/smc_gen/r_drw2d_rx/src/tes/dave_edge.c ****             {
 235:../src/smc_gen/r_drw2d_rx/src/tes/dave_edge.c ****                *length = dy;
 236:../src/smc_gen/r_drw2d_rx/src/tes/dave_edge.c ****             }
 237:../src/smc_gen/r_drw2d_rx/src/tes/dave_edge.c ****          }
 238:../src/smc_gen/r_drw2d_rx/src/tes/dave_edge.c ****       }
 239:../src/smc_gen/r_drw2d_rx/src/tes/dave_edge.c ****    }
 240:../src/smc_gen/r_drw2d_rx/src/tes/dave_edge.c ****    else
 241:../src/smc_gen/r_drw2d_rx/src/tes/dave_edge.c ****    {
 242:../src/smc_gen/r_drw2d_rx/src/tes/dave_edge.c ****       if(dy < 0)
 410                             		.loc 1 242 7 is_stmt 1 view .LVU168
 411                             		.loc 1 242 9 is_stmt 0 view .LVU169
 412 0029 61 0A                   		cmp	#0, r10
 413 002b 28 05 38 8A 01          		blt	.L38
 243:../src/smc_gen/r_drw2d_rx/src/tes/dave_edge.c ****       {
 244:../src/smc_gen/r_drw2d_rx/src/tes/dave_edge.c ****          /* dx +
 245:../src/smc_gen/r_drw2d_rx/src/tes/dave_edge.c ****           * dy - */
 246:../src/smc_gen/r_drw2d_rx/src/tes/dave_edge.c ****          if(dx > -dy)
 247:../src/smc_gen/r_drw2d_rx/src/tes/dave_edge.c ****          {
 248:../src/smc_gen/r_drw2d_rx/src/tes/dave_edge.c ****             /* 1. octant
 249:../src/smc_gen/r_drw2d_rx/src/tes/dave_edge.c ****              * l = dx, nx = -dy / dx, ny = 1 */
 250:../src/smc_gen/r_drw2d_rx/src/tes/dave_edge.c **** 
 251:../src/smc_gen/r_drw2d_rx/src/tes/dave_edge.c ****             n = (dy << 16) / -dx;                                   /* PRQA S 4131 */ /* $Misra: #P
 252:../src/smc_gen/r_drw2d_rx/src/tes/dave_edge.c ****             s1 = (-py << (16 - 4)) - ((px * n) >> 4);               /* PRQA S 4131 */ /* $Misra: #P
 253:../src/smc_gen/r_drw2d_rx/src/tes/dave_edge.c ****             s2 = (-px << (16 - 4)) + ((py * n) >> 4);               /* PRQA S 4131 */ /* $Misra: #P
 254:../src/smc_gen/r_drw2d_rx/src/tes/dave_edge.c ****             s3 = ((px + dx) << (16 - 4)) - (((py + dy) * n) >> 4);  /* PRQA S 4131 */ /* $Misra: #P
 255:../src/smc_gen/r_drw2d_rx/src/tes/dave_edge.c ****             xa = n;
 256:../src/smc_gen/r_drw2d_rx/src/tes/dave_edge.c ****             ya = D2_FIX16( 1 );                                     /* PRQA S 4131 */ /* $Misra: #P
 257:../src/smc_gen/r_drw2d_rx/src/tes/dave_edge.c **** 
 258:../src/smc_gen/r_drw2d_rx/src/tes/dave_edge.c ****             if(NULL != length)
 259:../src/smc_gen/r_drw2d_rx/src/tes/dave_edge.c ****             {
 260:../src/smc_gen/r_drw2d_rx/src/tes/dave_edge.c ****                *length = dx;
 261:../src/smc_gen/r_drw2d_rx/src/tes/dave_edge.c ****             }
 262:../src/smc_gen/r_drw2d_rx/src/tes/dave_edge.c **** 
 263:../src/smc_gen/r_drw2d_rx/src/tes/dave_edge.c ****          }
 264:../src/smc_gen/r_drw2d_rx/src/tes/dave_edge.c ****          else
 265:../src/smc_gen/r_drw2d_rx/src/tes/dave_edge.c ****          {
 266:../src/smc_gen/r_drw2d_rx/src/tes/dave_edge.c ****             /* 2. octant
 267:../src/smc_gen/r_drw2d_rx/src/tes/dave_edge.c ****              * l = -dy, nx = 1, ny =  dx / -dy */
 268:../src/smc_gen/r_drw2d_rx/src/tes/dave_edge.c **** 
 269:../src/smc_gen/r_drw2d_rx/src/tes/dave_edge.c ****             n = (dx << 16) / -dy;                                   /* PRQA S 4131 */ /* $Misra: #P
 270:../src/smc_gen/r_drw2d_rx/src/tes/dave_edge.c ****             s1 = (-px << (16 - 4)) - ((py * n) >> 4);               /* PRQA S 4131 */ /* $Misra: #P
 271:../src/smc_gen/r_drw2d_rx/src/tes/dave_edge.c ****             s2 = ( py << (16 - 4)) - ((px * n) >> 4);               /* PRQA S 4131 */ /* $Misra: #P
 272:../src/smc_gen/r_drw2d_rx/src/tes/dave_edge.c ****             s3 = (((px + dx) * n) >> 4) - ((py + dy) << (16 - 4));  /* PRQA S 4131 */ /* $Misra: #P
 273:../src/smc_gen/r_drw2d_rx/src/tes/dave_edge.c ****             xa = D2_FIX16( 1 );                                     /* PRQA S 4131 */ /* $Misra: #P
 274:../src/smc_gen/r_drw2d_rx/src/tes/dave_edge.c ****             ya = n;
 275:../src/smc_gen/r_drw2d_rx/src/tes/dave_edge.c ****             
 276:../src/smc_gen/r_drw2d_rx/src/tes/dave_edge.c ****             if(NULL != length)
 277:../src/smc_gen/r_drw2d_rx/src/tes/dave_edge.c ****             {
 278:../src/smc_gen/r_drw2d_rx/src/tes/dave_edge.c ****                *length = -dy;
 279:../src/smc_gen/r_drw2d_rx/src/tes/dave_edge.c ****             }
 280:../src/smc_gen/r_drw2d_rx/src/tes/dave_edge.c ****          }
 281:../src/smc_gen/r_drw2d_rx/src/tes/dave_edge.c ****       }
 282:../src/smc_gen/r_drw2d_rx/src/tes/dave_edge.c ****       else
 283:../src/smc_gen/r_drw2d_rx/src/tes/dave_edge.c ****       {
 284:../src/smc_gen/r_drw2d_rx/src/tes/dave_edge.c ****          /* dx +
 285:../src/smc_gen/r_drw2d_rx/src/tes/dave_edge.c ****           * dy + */
 286:../src/smc_gen/r_drw2d_rx/src/tes/dave_edge.c ****          if(dx > dy)
 414                             		.loc 1 286 10 is_stmt 1 view .LVU170
 415                             		.loc 1 286 12 is_stmt 0 view .LVU171
 416 0030 47 A4                   		cmp	r10, r4
 417 0032 2A 05 38 07 02          		ble	.L25
 287:../src/smc_gen/r_drw2d_rx/src/tes/dave_edge.c ****          {
 288:../src/smc_gen/r_drw2d_rx/src/tes/dave_edge.c ****             /* 8. octant
 289:../src/smc_gen/r_drw2d_rx/src/tes/dave_edge.c ****              * l = dx, nx = -dy / dx, ny = 1 */
 290:../src/smc_gen/r_drw2d_rx/src/tes/dave_edge.c **** 
 291:../src/smc_gen/r_drw2d_rx/src/tes/dave_edge.c ****             n = (dy << 16) / -dx;                                   /* PRQA S 4131 */ /* $Misra: #P
 418                             		.loc 1 291 13 is_stmt 1 view .LVU172
 419                             		.loc 1 291 21 is_stmt 0 view .LVU173
 420 0037 FD D0 AF                		shll	#16, r10, r15
 421                             		.loc 1 291 30 view .LVU174
 422 003a FC 07 47                		neg	r4, r7
 423                             		.loc 1 291 15 view .LVU175
 424 003d FC 23 7F                		div	r7, r15
 425                             	.LVL47:
 292:../src/smc_gen/r_drw2d_rx/src/tes/dave_edge.c ****             s1 = (-py << (16 - 4)) - ((px * n) >> 4);               /* PRQA S 4131 */ /* $Misra: #P
 426                             		.loc 1 292 13 is_stmt 1 view .LVU176
 427                             		.loc 1 292 19 is_stmt 0 view .LVU177
 428 0040 DF 35                   		mov.W	r3, r5
 429 0042 FC 07 53                		neg	r5, r3
 430                             	.LVL48:
 431                             		.loc 1 292 23 view .LVU178
 432 0045 6C C3                   		shll	#12, r3
 433                             		.loc 1 292 43 view .LVU179
 434 0047 DF 22                   		mov.W	r2, r2
 435                             		.loc 1 292 43 view .LVU180
 436 0049 FF 37 F2                		mul	r15, r2, r7
 437                             		.loc 1 292 48 view .LVU181
 438 004c 6A 47                   		shar	#4, r7
 439                             		.loc 1 292 16 view .LVU182
 440 004e 43 73                   		sub	r7, r3
 441                             	.LVL49:
 293:../src/smc_gen/r_drw2d_rx/src/tes/dave_edge.c ****             s2 = (-px << (16 - 4)) + ((py * n) >> 4);               /* PRQA S 4131 */ /* $Misra: #P
 442                             		.loc 1 293 13 is_stmt 1 view .LVU183
 443                             		.loc 1 293 19 is_stmt 0 view .LVU184
 444 0050 FC 07 2E                		neg	r2, r14
 445                             		.loc 1 293 23 view .LVU185
 446 0053 6C CE                   		shll	#12, r14
 447                             		.loc 1 293 43 view .LVU186
 448 0055 FF 37 F5                		mul	r15, r5, r7
 449                             		.loc 1 293 48 view .LVU187
 450 0058 6A 47                   		shar	#4, r7
 451                             		.loc 1 293 16 view .LVU188
 452 005a 4B 7E                   		add	r7, r14
 453                             	.LVL50:
 294:../src/smc_gen/r_drw2d_rx/src/tes/dave_edge.c ****             s3 = ((px + dx) << (16 - 4)) - (((py + dy) * n) >> 4);  /* PRQA S 4131 */ /* $Misra: #P
 454                             		.loc 1 294 13 is_stmt 1 view .LVU189
 455                             		.loc 1 294 23 is_stmt 0 view .LVU190
 456 005c FF 27 42                		add	r4, r2, r7
 457                             		.loc 1 294 29 view .LVU191
 458 005f 6C C7                   		shll	#12, r7
 459                             		.loc 1 294 50 view .LVU192
 460 0061 4B 5A                   		add	r5, r10
 461                             		.loc 1 294 56 view .LVU193
 462 0063 4F FA                   		mul	r15, r10
 463                             		.loc 1 294 61 view .LVU194
 464 0065 6A 4A                   		shar	#4, r10
 465                             		.loc 1 294 16 view .LVU195
 466 0067 43 A7                   		sub	r10, r7
 467                             	.LVL51:
 295:../src/smc_gen/r_drw2d_rx/src/tes/dave_edge.c ****             xa = n;
 468                             		.loc 1 295 13 is_stmt 1 view .LVU196
 296:../src/smc_gen/r_drw2d_rx/src/tes/dave_edge.c ****             ya = D2_FIX16( 1 );                                     /* PRQA S 4131 */ /* $Misra: #P
 469                             		.loc 1 296 13 view .LVU197
 297:../src/smc_gen/r_drw2d_rx/src/tes/dave_edge.c **** 
 298:../src/smc_gen/r_drw2d_rx/src/tes/dave_edge.c ****             if(NULL != length)
 470                             		.loc 1 298 13 view .LVU198
 471                             		.loc 1 298 15 is_stmt 0 view .LVU199
 472 0069 61 0C                   		cmp	#0, r12
 473 006b 3A 3B 02                		beq	.L34
 299:../src/smc_gen/r_drw2d_rx/src/tes/dave_edge.c ****             {
 300:../src/smc_gen/r_drw2d_rx/src/tes/dave_edge.c ****                *length = dx;
 474                             		.loc 1 300 16 is_stmt 1 view .LVU200
 475                             		.loc 1 300 24 is_stmt 0 view .LVU201
 476 006e E3 C4                   		mov.L	r4, [r12]
 296:../src/smc_gen/r_drw2d_rx/src/tes/dave_edge.c **** 
 477                             		.loc 1 296 16 view .LVU202
 478 0070 FB 5E 00 00 01          		mov.L	#0x10000, r5
 479                             	.LVL52:
 480 0075 FC 13 00                		.balign 8,3,4
 481                             	.L21:
 301:../src/smc_gen/r_drw2d_rx/src/tes/dave_edge.c ****             }
 302:../src/smc_gen/r_drw2d_rx/src/tes/dave_edge.c **** 
 303:../src/smc_gen/r_drw2d_rx/src/tes/dave_edge.c ****          }
 304:../src/smc_gen/r_drw2d_rx/src/tes/dave_edge.c ****          else
 305:../src/smc_gen/r_drw2d_rx/src/tes/dave_edge.c ****          {
 306:../src/smc_gen/r_drw2d_rx/src/tes/dave_edge.c ****             /* 7. octant
 307:../src/smc_gen/r_drw2d_rx/src/tes/dave_edge.c ****              * l = dy, nx = -1, ny =  dx / dy */
 308:../src/smc_gen/r_drw2d_rx/src/tes/dave_edge.c **** 
 309:../src/smc_gen/r_drw2d_rx/src/tes/dave_edge.c ****             n = (dx << 16) / dy;                                    /* PRQA S 4131 */ /* $Misra: #P
 310:../src/smc_gen/r_drw2d_rx/src/tes/dave_edge.c ****             s1 = ( px << (16 - 4)) - ((py * n) >> 4);               /* PRQA S 4131 */ /* $Misra: #P
 311:../src/smc_gen/r_drw2d_rx/src/tes/dave_edge.c ****             s2 = (-py << (16 - 4)) - ((px * n) >> 4);               /* PRQA S 4131 */ /* $Misra: #P
 312:../src/smc_gen/r_drw2d_rx/src/tes/dave_edge.c ****             s3 = (((px + dx) * n) >> 4) + ((py + dy) << (16 - 4));  /* PRQA S 4131 */ /* $Misra: #P
 313:../src/smc_gen/r_drw2d_rx/src/tes/dave_edge.c ****             xa = D2_FIX16( -1 );                                    /* PRQA S 4131 */ /* $Misra: #P
 314:../src/smc_gen/r_drw2d_rx/src/tes/dave_edge.c ****             ya = n;
 315:../src/smc_gen/r_drw2d_rx/src/tes/dave_edge.c **** 
 316:../src/smc_gen/r_drw2d_rx/src/tes/dave_edge.c ****             if(NULL != length)
 317:../src/smc_gen/r_drw2d_rx/src/tes/dave_edge.c ****             {
 318:../src/smc_gen/r_drw2d_rx/src/tes/dave_edge.c ****                *length = dy;
 319:../src/smc_gen/r_drw2d_rx/src/tes/dave_edge.c ****             }
 320:../src/smc_gen/r_drw2d_rx/src/tes/dave_edge.c ****          }
 321:../src/smc_gen/r_drw2d_rx/src/tes/dave_edge.c ****       }
 322:../src/smc_gen/r_drw2d_rx/src/tes/dave_edge.c ****    }
 323:../src/smc_gen/r_drw2d_rx/src/tes/dave_edge.c **** 
 324:../src/smc_gen/r_drw2d_rx/src/tes/dave_edge.c ****    /* store limiter parameters */
 325:../src/smc_gen/r_drw2d_rx/src/tes/dave_edge.c ****    lim[0].start = s1 + (D2_FIX16(1) / 2);                           /* PRQA S 4131 */ /* $Misra: #P
 482                             		.loc 1 325 4 is_stmt 1 view .LVU203
 483                             		.loc 1 325 22 is_stmt 0 view .LVU204
 484 0078 73 33 00 80 00          		add	#0x8000, r3
 485                             	.LVL53:
 486                             		.loc 1 325 17 view .LVU205
 487 007d E3 13                   		mov.L	r3, [r1]
 326:../src/smc_gen/r_drw2d_rx/src/tes/dave_edge.c ****    lim[0].xadd  = xa;
 488                             		.loc 1 326 4 is_stmt 1 view .LVU206
 489                             		.loc 1 326 17 is_stmt 0 view .LVU207
 490 007f E7 1F 01                		mov.L	r15, 4[r1]
 327:../src/smc_gen/r_drw2d_rx/src/tes/dave_edge.c ****    lim[0].yadd  = ya;
 491                             		.loc 1 327 4 is_stmt 1 view .LVU208
 492                             		.loc 1 327 17 is_stmt 0 view .LVU209
 493 0082 A0 95                   		mov.L	r5, 8[r1]
 328:../src/smc_gen/r_drw2d_rx/src/tes/dave_edge.c ****    lim[1].start = s2 + oa;
 494                             		.loc 1 328 4 is_stmt 1 view .LVU210
 495                             		.loc 1 328 22 is_stmt 0 view .LVU211
 496 0084 FF 24 BE                		add	r11, r14, r4
 497                             	.LVL54:
 498                             		.loc 1 328 17 view .LVU212
 499 0087 A0 9C                   		mov.L	r4, 12[r1]
 329:../src/smc_gen/r_drw2d_rx/src/tes/dave_edge.c ****    lim[1].xadd  = ya;
 500                             		.loc 1 329 4 is_stmt 1 view .LVU213
 501                             		.loc 1 329 17 is_stmt 0 view .LVU214
 502 0089 A1 15                   		mov.L	r5, 16[r1]
 330:../src/smc_gen/r_drw2d_rx/src/tes/dave_edge.c ****    lim[1].yadd  = -xa;
 503                             		.loc 1 330 4 is_stmt 1 view .LVU215
 504                             		.loc 1 330 19 is_stmt 0 view .LVU216
 505 008b FC 07 F4                		neg	r15, r4
 506                             		.loc 1 330 17 view .LVU217
 507 008e A1 1C                   		mov.L	r4, 20[r1]
 331:../src/smc_gen/r_drw2d_rx/src/tes/dave_edge.c ****    lim[2].start = s3 + ob;
 508                             		.loc 1 331 4 is_stmt 1 view .LVU218
 509                             		.loc 1 331 22 is_stmt 0 view .LVU219
 510 0090 4B 67                   		add	r6, r7
 511                             	.LVL55:
 512                             		.loc 1 331 17 view .LVU220
 513 0092 A1 97                   		mov.L	r7, 24[r1]
 332:../src/smc_gen/r_drw2d_rx/src/tes/dave_edge.c ****    lim[2].xadd  = -ya;
 514                             		.loc 1 332 4 is_stmt 1 view .LVU221
 515                             		.loc 1 332 19 is_stmt 0 view .LVU222
 516 0094 7E 15                   		neg	r5
 517                             	.LVL56:
 518                             		.loc 1 332 17 view .LVU223
 519 0096 A1 9D                   		mov.L	r5, 28[r1]
 333:../src/smc_gen/r_drw2d_rx/src/tes/dave_edge.c ****    lim[2].yadd  = xa;
 520                             		.loc 1 333 4 is_stmt 1 view .LVU224
 521                             		.loc 1 333 17 is_stmt 0 view .LVU225
 522 0098 E7 1F 08                		mov.L	r15, 32[r1]
 334:../src/smc_gen/r_drw2d_rx/src/tes/dave_edge.c **** }
 523                             		.loc 1 334 1 view .LVU226
 524 009b 3F 6C 0A                		rtsd	#40, r6-r12
 525                             	.LVL57:
 526                             	.L26:
 144:../src/smc_gen/r_drw2d_rx/src/tes/dave_edge.c ****    }
 527                             		.loc 1 144 10 view .LVU227
 528 009e FB BE 00 00 01          		mov.L	#0x10000, r11
 529 00a3 38 76 FF                		bra	.L16
 530                             	.LVL58:
 531                             	.L27:
 153:../src/smc_gen/r_drw2d_rx/src/tes/dave_edge.c ****    }
 532                             		.loc 1 153 10 view .LVU228
 533 00a6 FB 6E 00 00 01          		mov.L	#0x10000, r6
 534 00ab 38 77 FF                		bra	.L17
 535                             	.LVL59:
 536                             	.L37:
 159:../src/smc_gen/r_drw2d_rx/src/tes/dave_edge.c ****       {
 537                             		.loc 1 159 7 is_stmt 1 view .LVU229
 159:../src/smc_gen/r_drw2d_rx/src/tes/dave_edge.c ****       {
 538                             		.loc 1 159 9 is_stmt 0 view .LVU230
 539 00ae 61 0A                   		cmp	#0, r10
 540 00b0 29 47                   		blt	.L39
 203:../src/smc_gen/r_drw2d_rx/src/tes/dave_edge.c ****          {
 541                             		.loc 1 203 10 is_stmt 1 view .LVU231
 203:../src/smc_gen/r_drw2d_rx/src/tes/dave_edge.c ****          {
 542                             		.loc 1 203 13 is_stmt 0 view .LVU232
 543 00b2 FC 07 47                		neg	r4, r7
 203:../src/smc_gen/r_drw2d_rx/src/tes/dave_edge.c ****          {
 544                             		.loc 1 203 12 view .LVU233
 545 00b5 47 A7                   		cmp	r10, r7
 546 00b7 2A 05 38 C2 00          		ble	.L22
 208:../src/smc_gen/r_drw2d_rx/src/tes/dave_edge.c ****             s1 = (py << (16 - 4)) - ((px * n) >> 4);                 /* PRQA S 4131 */ /* $Misra: #
 547                             		.loc 1 208 13 is_stmt 1 view .LVU234
 208:../src/smc_gen/r_drw2d_rx/src/tes/dave_edge.c ****             s1 = (py << (16 - 4)) - ((px * n) >> 4);                 /* PRQA S 4131 */ /* $Misra: #
 548                             		.loc 1 208 21 is_stmt 0 view .LVU235
 549 00bc FD D0 AF                		shll	#16, r10, r15
 208:../src/smc_gen/r_drw2d_rx/src/tes/dave_edge.c ****             s1 = (py << (16 - 4)) - ((px * n) >> 4);                 /* PRQA S 4131 */ /* $Misra: #
 550                             		.loc 1 208 15 view .LVU236
 551 00bf FC 23 4F                		div	r4, r15
 552                             	.LVL60:
 209:../src/smc_gen/r_drw2d_rx/src/tes/dave_edge.c ****             s2 = (px << (16 - 4)) + ((py * n) >> 4);                 /* PRQA S 4131 */ /* $Misra: #
 553                             		.loc 1 209 13 is_stmt 1 view .LVU237
 209:../src/smc_gen/r_drw2d_rx/src/tes/dave_edge.c ****             s2 = (px << (16 - 4)) + ((py * n) >> 4);                 /* PRQA S 4131 */ /* $Misra: #
 554                             		.loc 1 209 22 is_stmt 0 view .LVU238
 555 00c2 DF 35                   		mov.W	r3, r5
 556 00c4 FD CC 53                		shll	#12, r5, r3
 557                             	.LVL61:
 209:../src/smc_gen/r_drw2d_rx/src/tes/dave_edge.c ****             s2 = (px << (16 - 4)) + ((py * n) >> 4);                 /* PRQA S 4131 */ /* $Misra: #
 558                             		.loc 1 209 42 view .LVU239
 559 00c7 DF 22                   		mov.W	r2, r2
 209:../src/smc_gen/r_drw2d_rx/src/tes/dave_edge.c ****             s2 = (px << (16 - 4)) + ((py * n) >> 4);                 /* PRQA S 4131 */ /* $Misra: #
 560                             		.loc 1 209 42 view .LVU240
 561 00c9 FF 37 F2                		mul	r15, r2, r7
 209:../src/smc_gen/r_drw2d_rx/src/tes/dave_edge.c ****             s2 = (px << (16 - 4)) + ((py * n) >> 4);                 /* PRQA S 4131 */ /* $Misra: #
 562                             		.loc 1 209 47 view .LVU241
 563 00cc 6A 47                   		shar	#4, r7
 209:../src/smc_gen/r_drw2d_rx/src/tes/dave_edge.c ****             s2 = (px << (16 - 4)) + ((py * n) >> 4);                 /* PRQA S 4131 */ /* $Misra: #
 564                             		.loc 1 209 16 view .LVU242
 565 00ce 43 73                   		sub	r7, r3
 566                             	.LVL62:
 210:../src/smc_gen/r_drw2d_rx/src/tes/dave_edge.c ****             s3 = -((px + dx) << (16 - 4)) - (((py + dy) * n) >> 4);  /* PRQA S 4131 */ /* $Misra: #
 567                             		.loc 1 210 13 is_stmt 1 view .LVU243
 210:../src/smc_gen/r_drw2d_rx/src/tes/dave_edge.c ****             s3 = -((px + dx) << (16 - 4)) - (((py + dy) * n) >> 4);  /* PRQA S 4131 */ /* $Misra: #
 568                             		.loc 1 210 22 is_stmt 0 view .LVU244
 569 00d0 FD CC 2E                		shll	#12, r2, r14
 210:../src/smc_gen/r_drw2d_rx/src/tes/dave_edge.c ****             s3 = -((px + dx) << (16 - 4)) - (((py + dy) * n) >> 4);  /* PRQA S 4131 */ /* $Misra: #
 570                             		.loc 1 210 42 view .LVU245
 571 00d3 FF 37 F5                		mul	r15, r5, r7
 210:../src/smc_gen/r_drw2d_rx/src/tes/dave_edge.c ****             s3 = -((px + dx) << (16 - 4)) - (((py + dy) * n) >> 4);  /* PRQA S 4131 */ /* $Misra: #
 572                             		.loc 1 210 47 view .LVU246
 573 00d6 6A 47                   		shar	#4, r7
 210:../src/smc_gen/r_drw2d_rx/src/tes/dave_edge.c ****             s3 = -((px + dx) << (16 - 4)) - (((py + dy) * n) >> 4);  /* PRQA S 4131 */ /* $Misra: #
 574                             		.loc 1 210 16 view .LVU247
 575 00d8 4B 7E                   		add	r7, r14
 576                             	.LVL63:
 211:../src/smc_gen/r_drw2d_rx/src/tes/dave_edge.c ****             xa = n;
 577                             		.loc 1 211 13 is_stmt 1 view .LVU248
 211:../src/smc_gen/r_drw2d_rx/src/tes/dave_edge.c ****             xa = n;
 578                             		.loc 1 211 24 is_stmt 0 view .LVU249
 579 00da 4B 42                   		add	r4, r2
 580                             	.LVL64:
 211:../src/smc_gen/r_drw2d_rx/src/tes/dave_edge.c ****             xa = n;
 581                             		.loc 1 211 30 view .LVU250
 582 00dc FD CC 27                		shll	#12, r2, r7
 211:../src/smc_gen/r_drw2d_rx/src/tes/dave_edge.c ****             xa = n;
 583                             		.loc 1 211 18 view .LVU251
 584 00df 7E 17                   		neg	r7
 211:../src/smc_gen/r_drw2d_rx/src/tes/dave_edge.c ****             xa = n;
 585                             		.loc 1 211 51 view .LVU252
 586 00e1 4B 5A                   		add	r5, r10
 211:../src/smc_gen/r_drw2d_rx/src/tes/dave_edge.c ****             xa = n;
 587                             		.loc 1 211 57 view .LVU253
 588 00e3 4F FA                   		mul	r15, r10
 211:../src/smc_gen/r_drw2d_rx/src/tes/dave_edge.c ****             xa = n;
 589                             		.loc 1 211 62 view .LVU254
 590 00e5 6A 4A                   		shar	#4, r10
 211:../src/smc_gen/r_drw2d_rx/src/tes/dave_edge.c ****             xa = n;
 591                             		.loc 1 211 16 view .LVU255
 592 00e7 43 A7                   		sub	r10, r7
 593                             	.LVL65:
 212:../src/smc_gen/r_drw2d_rx/src/tes/dave_edge.c ****             ya = D2_FIX16( -1 );                                     /* PRQA S 4131 */ /* $Misra: #
 594                             		.loc 1 212 13 is_stmt 1 view .LVU256
 213:../src/smc_gen/r_drw2d_rx/src/tes/dave_edge.c **** 
 595                             		.loc 1 213 13 view .LVU257
 215:../src/smc_gen/r_drw2d_rx/src/tes/dave_edge.c ****             {
 596                             		.loc 1 215 13 view .LVU258
 215:../src/smc_gen/r_drw2d_rx/src/tes/dave_edge.c ****             {
 597                             		.loc 1 215 15 is_stmt 0 view .LVU259
 598 00e9 61 0C                   		cmp	#0, r12
 599 00eb 3A 9B 01                		beq	.L30
 217:../src/smc_gen/r_drw2d_rx/src/tes/dave_edge.c ****             }
 600                             		.loc 1 217 16 is_stmt 1 view .LVU260
 217:../src/smc_gen/r_drw2d_rx/src/tes/dave_edge.c ****             }
 601                             		.loc 1 217 24 is_stmt 0 view .LVU261
 602 00ee E3 C4                   		mov.L	r4, [r12]
 213:../src/smc_gen/r_drw2d_rx/src/tes/dave_edge.c **** 
 603                             		.loc 1 213 16 view .LVU262
 604 00f0 FB 5E 00 00 FF          		mov.L	#-65536, r5
 605                             	.LVL66:
 213:../src/smc_gen/r_drw2d_rx/src/tes/dave_edge.c **** 
 606                             		.loc 1 213 16 view .LVU263
 607 00f5 2E 83                   		bra	.L21
 608                             	.LVL67:
 609                             	.L39:
 163:../src/smc_gen/r_drw2d_rx/src/tes/dave_edge.c ****          {
 610                             		.loc 1 163 10 is_stmt 1 view .LVU264
 163:../src/smc_gen/r_drw2d_rx/src/tes/dave_edge.c ****          {
 611                             		.loc 1 163 12 is_stmt 0 view .LVU265
 612 00f7 47 A4                   		cmp	r10, r4
 613 00f9 28 41                   		bge	.L20
 168:../src/smc_gen/r_drw2d_rx/src/tes/dave_edge.c ****             s1 = (py << (16 - 4)) - ((px * n) >> 4);                   /* PRQA S 4131 */ /* $Misra:
 614                             		.loc 1 168 13 is_stmt 1 view .LVU266
 168:../src/smc_gen/r_drw2d_rx/src/tes/dave_edge.c ****             s1 = (py << (16 - 4)) - ((px * n) >> 4);                   /* PRQA S 4131 */ /* $Misra:
 615                             		.loc 1 168 21 is_stmt 0 view .LVU267
 616 00fb FD D0 AF                		shll	#16, r10, r15
 168:../src/smc_gen/r_drw2d_rx/src/tes/dave_edge.c ****             s1 = (py << (16 - 4)) - ((px * n) >> 4);                   /* PRQA S 4131 */ /* $Misra:
 617                             		.loc 1 168 15 view .LVU268
 618 00fe FC 23 4F                		div	r4, r15
 619                             	.LVL68:
 169:../src/smc_gen/r_drw2d_rx/src/tes/dave_edge.c ****             s2 = (px << (16 - 4)) + ((py * n) >> 4);                   /* PRQA S 4131 */ /* $Misra:
 620                             		.loc 1 169 13 is_stmt 1 view .LVU269
 169:../src/smc_gen/r_drw2d_rx/src/tes/dave_edge.c ****             s2 = (px << (16 - 4)) + ((py * n) >> 4);                   /* PRQA S 4131 */ /* $Misra:
 621                             		.loc 1 169 22 is_stmt 0 view .LVU270
 622 0101 DF 35                   		mov.W	r3, r5
 623 0103 FD CC 53                		shll	#12, r5, r3
 624                             	.LVL69:
 169:../src/smc_gen/r_drw2d_rx/src/tes/dave_edge.c ****             s2 = (px << (16 - 4)) + ((py * n) >> 4);                   /* PRQA S 4131 */ /* $Misra:
 625                             		.loc 1 169 42 view .LVU271
 626 0106 DF 22                   		mov.W	r2, r2
 169:../src/smc_gen/r_drw2d_rx/src/tes/dave_edge.c ****             s2 = (px << (16 - 4)) + ((py * n) >> 4);                   /* PRQA S 4131 */ /* $Misra:
 627                             		.loc 1 169 42 view .LVU272
 628 0108 FF 37 F2                		mul	r15, r2, r7
 169:../src/smc_gen/r_drw2d_rx/src/tes/dave_edge.c ****             s2 = (px << (16 - 4)) + ((py * n) >> 4);                   /* PRQA S 4131 */ /* $Misra:
 629                             		.loc 1 169 47 view .LVU273
 630 010b 6A 47                   		shar	#4, r7
 169:../src/smc_gen/r_drw2d_rx/src/tes/dave_edge.c ****             s2 = (px << (16 - 4)) + ((py * n) >> 4);                   /* PRQA S 4131 */ /* $Misra:
 631                             		.loc 1 169 16 view .LVU274
 632 010d 43 73                   		sub	r7, r3
 633                             	.LVL70:
 170:../src/smc_gen/r_drw2d_rx/src/tes/dave_edge.c ****             s3 = -((px + dx) << (16 - 4)) - (((py + dy) * n) >> 4);    /* PRQA S 4131 */ /* $Misra:
 634                             		.loc 1 170 13 is_stmt 1 view .LVU275
 170:../src/smc_gen/r_drw2d_rx/src/tes/dave_edge.c ****             s3 = -((px + dx) << (16 - 4)) - (((py + dy) * n) >> 4);    /* PRQA S 4131 */ /* $Misra:
 635                             		.loc 1 170 22 is_stmt 0 view .LVU276
 636 010f FD CC 2E                		shll	#12, r2, r14
 170:../src/smc_gen/r_drw2d_rx/src/tes/dave_edge.c ****             s3 = -((px + dx) << (16 - 4)) - (((py + dy) * n) >> 4);    /* PRQA S 4131 */ /* $Misra:
 637                             		.loc 1 170 42 view .LVU277
 638 0112 FF 37 F5                		mul	r15, r5, r7
 170:../src/smc_gen/r_drw2d_rx/src/tes/dave_edge.c ****             s3 = -((px + dx) << (16 - 4)) - (((py + dy) * n) >> 4);    /* PRQA S 4131 */ /* $Misra:
 639                             		.loc 1 170 47 view .LVU278
 640 0115 6A 47                   		shar	#4, r7
 170:../src/smc_gen/r_drw2d_rx/src/tes/dave_edge.c ****             s3 = -((px + dx) << (16 - 4)) - (((py + dy) * n) >> 4);    /* PRQA S 4131 */ /* $Misra:
 641                             		.loc 1 170 16 view .LVU279
 642 0117 4B 7E                   		add	r7, r14
 643                             	.LVL71:
 171:../src/smc_gen/r_drw2d_rx/src/tes/dave_edge.c ****             xa = n;
 644                             		.loc 1 171 13 is_stmt 1 view .LVU280
 171:../src/smc_gen/r_drw2d_rx/src/tes/dave_edge.c ****             xa = n;
 645                             		.loc 1 171 24 is_stmt 0 view .LVU281
 646 0119 4B 42                   		add	r4, r2
 647                             	.LVL72:
 171:../src/smc_gen/r_drw2d_rx/src/tes/dave_edge.c ****             xa = n;
 648                             		.loc 1 171 30 view .LVU282
 649 011b FD CC 27                		shll	#12, r2, r7
 171:../src/smc_gen/r_drw2d_rx/src/tes/dave_edge.c ****             xa = n;
 650                             		.loc 1 171 18 view .LVU283
 651 011e 7E 17                   		neg	r7
 171:../src/smc_gen/r_drw2d_rx/src/tes/dave_edge.c ****             xa = n;
 652                             		.loc 1 171 51 view .LVU284
 653 0120 4B 5A                   		add	r5, r10
 171:../src/smc_gen/r_drw2d_rx/src/tes/dave_edge.c ****             xa = n;
 654                             		.loc 1 171 57 view .LVU285
 655 0122 4F FA                   		mul	r15, r10
 171:../src/smc_gen/r_drw2d_rx/src/tes/dave_edge.c ****             xa = n;
 656                             		.loc 1 171 62 view .LVU286
 657 0124 6A 4A                   		shar	#4, r10
 171:../src/smc_gen/r_drw2d_rx/src/tes/dave_edge.c ****             xa = n;
 658                             		.loc 1 171 16 view .LVU287
 659 0126 43 A7                   		sub	r10, r7
 660                             	.LVL73:
 172:../src/smc_gen/r_drw2d_rx/src/tes/dave_edge.c ****             ya = D2_FIX16( -1 );                                       /* PRQA S 4131 */ /* $Misra:
 661                             		.loc 1 172 13 is_stmt 1 view .LVU288
 173:../src/smc_gen/r_drw2d_rx/src/tes/dave_edge.c **** 
 662                             		.loc 1 173 13 view .LVU289
 175:../src/smc_gen/r_drw2d_rx/src/tes/dave_edge.c ****             {
 663                             		.loc 1 175 13 view .LVU290
 175:../src/smc_gen/r_drw2d_rx/src/tes/dave_edge.c ****             {
 664                             		.loc 1 175 15 is_stmt 0 view .LVU291
 665 0128 61 0C                   		cmp	#0, r12
 666 012a 3A 4C 01                		beq	.L28
 177:../src/smc_gen/r_drw2d_rx/src/tes/dave_edge.c ****             }
 667                             		.loc 1 177 16 is_stmt 1 view .LVU292
 177:../src/smc_gen/r_drw2d_rx/src/tes/dave_edge.c ****             }
 668                             		.loc 1 177 26 is_stmt 0 view .LVU293
 669 012d FC 07 42                		neg	r4, r2
 177:../src/smc_gen/r_drw2d_rx/src/tes/dave_edge.c ****             }
 670                             		.loc 1 177 24 view .LVU294
 671 0130 E3 C2                   		mov.L	r2, [r12]
 173:../src/smc_gen/r_drw2d_rx/src/tes/dave_edge.c **** 
 672                             		.loc 1 173 16 view .LVU295
 673 0132 FB 5E 00 00 FF          		mov.L	#-65536, r5
 674                             	.LVL74:
 173:../src/smc_gen/r_drw2d_rx/src/tes/dave_edge.c **** 
 675                             		.loc 1 173 16 view .LVU296
 676 0137 38 41 FF                		bra	.L21
 677                             	.LVL75:
 678                             	.L20:
 186:../src/smc_gen/r_drw2d_rx/src/tes/dave_edge.c ****             s1 = (-px << (16 - 4)) - ((py * n) >> 4);                  /* PRQA S 4131 */ /* $Misra:
 679                             		.loc 1 186 13 is_stmt 1 view .LVU297
 186:../src/smc_gen/r_drw2d_rx/src/tes/dave_edge.c ****             s1 = (-px << (16 - 4)) - ((py * n) >> 4);                  /* PRQA S 4131 */ /* $Misra:
 680                             		.loc 1 186 21 is_stmt 0 view .LVU298
 681 013a FD D0 45                		shll	#16, r4, r5
 186:../src/smc_gen/r_drw2d_rx/src/tes/dave_edge.c ****             s1 = (-px << (16 - 4)) - ((py * n) >> 4);                  /* PRQA S 4131 */ /* $Misra:
 682                             		.loc 1 186 30 view .LVU299
 683 013d FC 07 A9                		neg	r10, r9
 186:../src/smc_gen/r_drw2d_rx/src/tes/dave_edge.c ****             s1 = (-px << (16 - 4)) - ((py * n) >> 4);                  /* PRQA S 4131 */ /* $Misra:
 684                             		.loc 1 186 15 view .LVU300
 685 0140 FC 23 95                		div	r9, r5
 686                             	.LVL76:
 187:../src/smc_gen/r_drw2d_rx/src/tes/dave_edge.c ****             s2 = ( py << (16 - 4)) - ((px * n) >> 4);                  /* PRQA S 4131 */ /* $Misra:
 687                             		.loc 1 187 13 is_stmt 1 view .LVU301
 187:../src/smc_gen/r_drw2d_rx/src/tes/dave_edge.c ****             s2 = ( py << (16 - 4)) - ((px * n) >> 4);                  /* PRQA S 4131 */ /* $Misra:
 688                             		.loc 1 187 19 is_stmt 0 view .LVU302
 689 0143 DF 22                   		mov.W	r2, r2
 187:../src/smc_gen/r_drw2d_rx/src/tes/dave_edge.c ****             s2 = ( py << (16 - 4)) - ((px * n) >> 4);                  /* PRQA S 4131 */ /* $Misra:
 690                             		.loc 1 187 19 view .LVU303
 691 0145 FC 07 2E                		neg	r2, r14
 187:../src/smc_gen/r_drw2d_rx/src/tes/dave_edge.c ****             s2 = ( py << (16 - 4)) - ((px * n) >> 4);                  /* PRQA S 4131 */ /* $Misra:
 692                             		.loc 1 187 23 view .LVU304
 693 0148 6C CE                   		shll	#12, r14
 187:../src/smc_gen/r_drw2d_rx/src/tes/dave_edge.c ****             s2 = ( py << (16 - 4)) - ((px * n) >> 4);                  /* PRQA S 4131 */ /* $Misra:
 694                             		.loc 1 187 43 view .LVU305
 695 014a DF 37                   		mov.W	r3, r7
 696 014c FF 33 57                		mul	r5, r7, r3
 697                             	.LVL77:
 187:../src/smc_gen/r_drw2d_rx/src/tes/dave_edge.c ****             s2 = ( py << (16 - 4)) - ((px * n) >> 4);                  /* PRQA S 4131 */ /* $Misra:
 698                             		.loc 1 187 48 view .LVU306
 699 014f 6A 43                   		shar	#4, r3
 187:../src/smc_gen/r_drw2d_rx/src/tes/dave_edge.c ****             s2 = ( py << (16 - 4)) - ((px * n) >> 4);                  /* PRQA S 4131 */ /* $Misra:
 700                             		.loc 1 187 16 view .LVU307
 701 0151 FF 03 3E                		sub	r3, r14, r3
 702                             	.LVL78:
 188:../src/smc_gen/r_drw2d_rx/src/tes/dave_edge.c ****             s3 = (((px + dx) * n) >> 4) - ((py + dy) << (16 - 4));     /* PRQA S 4131 */ /* $Misra:
 703                             		.loc 1 188 13 is_stmt 1 view .LVU308
 188:../src/smc_gen/r_drw2d_rx/src/tes/dave_edge.c ****             s3 = (((px + dx) * n) >> 4) - ((py + dy) << (16 - 4));     /* PRQA S 4131 */ /* $Misra:
 704                             		.loc 1 188 23 is_stmt 0 view .LVU309
 705 0154 FD CC 7F                		shll	#12, r7, r15
 188:../src/smc_gen/r_drw2d_rx/src/tes/dave_edge.c ****             s3 = (((px + dx) * n) >> 4) - ((py + dy) << (16 - 4));     /* PRQA S 4131 */ /* $Misra:
 706                             		.loc 1 188 43 view .LVU310
 707 0157 FF 3E 52                		mul	r5, r2, r14
 188:../src/smc_gen/r_drw2d_rx/src/tes/dave_edge.c ****             s3 = (((px + dx) * n) >> 4) - ((py + dy) << (16 - 4));     /* PRQA S 4131 */ /* $Misra:
 708                             		.loc 1 188 48 view .LVU311
 709 015a 6A 4E                   		shar	#4, r14
 188:../src/smc_gen/r_drw2d_rx/src/tes/dave_edge.c ****             s3 = (((px + dx) * n) >> 4) - ((py + dy) << (16 - 4));     /* PRQA S 4131 */ /* $Misra:
 710                             		.loc 1 188 16 view .LVU312
 711 015c FF 0E EF                		sub	r14, r15, r14
 712                             	.LVL79:
 189:../src/smc_gen/r_drw2d_rx/src/tes/dave_edge.c ****             xa = D2_FIX16( 1 );                                        /* PRQA S 4131 */ /* $Misra:
 713                             		.loc 1 189 13 is_stmt 1 view .LVU313
 189:../src/smc_gen/r_drw2d_rx/src/tes/dave_edge.c ****             xa = D2_FIX16( 1 );                                        /* PRQA S 4131 */ /* $Misra:
 714                             		.loc 1 189 24 is_stmt 0 view .LVU314
 715 015f 4B 42                   		add	r4, r2
 716                             	.LVL80:
 189:../src/smc_gen/r_drw2d_rx/src/tes/dave_edge.c ****             xa = D2_FIX16( 1 );                                        /* PRQA S 4131 */ /* $Misra:
 717                             		.loc 1 189 30 view .LVU315
 718 0161 4F 52                   		mul	r5, r2
 189:../src/smc_gen/r_drw2d_rx/src/tes/dave_edge.c ****             xa = D2_FIX16( 1 );                                        /* PRQA S 4131 */ /* $Misra:
 719                             		.loc 1 189 35 view .LVU316
 720 0163 6A 42                   		shar	#4, r2
 189:../src/smc_gen/r_drw2d_rx/src/tes/dave_edge.c ****             xa = D2_FIX16( 1 );                                        /* PRQA S 4131 */ /* $Misra:
 721                             		.loc 1 189 48 view .LVU317
 722 0165 4B A7                   		add	r10, r7
 723                             	.LVL81:
 189:../src/smc_gen/r_drw2d_rx/src/tes/dave_edge.c ****             xa = D2_FIX16( 1 );                                        /* PRQA S 4131 */ /* $Misra:
 724                             		.loc 1 189 54 view .LVU318
 725 0167 6C C7                   		shll	#12, r7
 189:../src/smc_gen/r_drw2d_rx/src/tes/dave_edge.c ****             xa = D2_FIX16( 1 );                                        /* PRQA S 4131 */ /* $Misra:
 726                             		.loc 1 189 16 view .LVU319
 727 0169 FF 07 72                		sub	r7, r2, r7
 728                             	.LVL82:
 190:../src/smc_gen/r_drw2d_rx/src/tes/dave_edge.c ****             ya = n;
 729                             		.loc 1 190 13 is_stmt 1 view .LVU320
 191:../src/smc_gen/r_drw2d_rx/src/tes/dave_edge.c **** 
 730                             		.loc 1 191 13 view .LVU321
 193:../src/smc_gen/r_drw2d_rx/src/tes/dave_edge.c ****             {
 731                             		.loc 1 193 13 view .LVU322
 193:../src/smc_gen/r_drw2d_rx/src/tes/dave_edge.c ****             {
 732                             		.loc 1 193 15 is_stmt 0 view .LVU323
 733 016c 61 0C                   		cmp	#0, r12
 734 016e 3A 10 01                		beq	.L29
 195:../src/smc_gen/r_drw2d_rx/src/tes/dave_edge.c ****             }
 735                             		.loc 1 195 16 is_stmt 1 view .LVU324
 195:../src/smc_gen/r_drw2d_rx/src/tes/dave_edge.c ****             }
 736                             		.loc 1 195 24 is_stmt 0 view .LVU325
 737 0171 E3 C9                   		mov.L	r9, [r12]
 190:../src/smc_gen/r_drw2d_rx/src/tes/dave_edge.c ****             ya = n;
 738                             		.loc 1 190 16 view .LVU326
 739 0173 FB FE 00 00 01          		mov.L	#0x10000, r15
 740 0178 38 00 FF                		bra	.L21
 741                             	.LVL83:
 742                             	.L22:
 226:../src/smc_gen/r_drw2d_rx/src/tes/dave_edge.c ****             s1 = ( px << (16 - 4)) - ((py * n) >> 4);               /* PRQA S 4131 */ /* $Misra: #P
 743                             		.loc 1 226 13 is_stmt 1 view .LVU327
 226:../src/smc_gen/r_drw2d_rx/src/tes/dave_edge.c ****             s1 = ( px << (16 - 4)) - ((py * n) >> 4);               /* PRQA S 4131 */ /* $Misra: #P
 744                             		.loc 1 226 21 is_stmt 0 view .LVU328
 745 017b FD D0 45                		shll	#16, r4, r5
 226:../src/smc_gen/r_drw2d_rx/src/tes/dave_edge.c ****             s1 = ( px << (16 - 4)) - ((py * n) >> 4);               /* PRQA S 4131 */ /* $Misra: #P
 746                             		.loc 1 226 15 view .LVU329
 747 017e FC 23 A5                		div	r10, r5
 748                             	.LVL84:
 227:../src/smc_gen/r_drw2d_rx/src/tes/dave_edge.c ****             s2 = (-py << (16 - 4)) - ((px * n) >> 4);               /* PRQA S 4131 */ /* $Misra: #P
 749                             		.loc 1 227 13 is_stmt 1 view .LVU330
 227:../src/smc_gen/r_drw2d_rx/src/tes/dave_edge.c ****             s2 = (-py << (16 - 4)) - ((px * n) >> 4);               /* PRQA S 4131 */ /* $Misra: #P
 750                             		.loc 1 227 23 is_stmt 0 view .LVU331
 751 0181 DF 22                   		mov.W	r2, r2
 227:../src/smc_gen/r_drw2d_rx/src/tes/dave_edge.c ****             s2 = (-py << (16 - 4)) - ((px * n) >> 4);               /* PRQA S 4131 */ /* $Misra: #P
 752                             		.loc 1 227 23 view .LVU332
 753 0183 FD CC 29                		shll	#12, r2, r9
 227:../src/smc_gen/r_drw2d_rx/src/tes/dave_edge.c ****             s2 = (-py << (16 - 4)) - ((px * n) >> 4);               /* PRQA S 4131 */ /* $Misra: #P
 754                             		.loc 1 227 43 view .LVU333
 755 0186 DF 37                   		mov.W	r3, r7
 756 0188 FF 33 57                		mul	r5, r7, r3
 757                             	.LVL85:
 227:../src/smc_gen/r_drw2d_rx/src/tes/dave_edge.c ****             s2 = (-py << (16 - 4)) - ((px * n) >> 4);               /* PRQA S 4131 */ /* $Misra: #P
 758                             		.loc 1 227 48 view .LVU334
 759 018b 6A 43                   		shar	#4, r3
 227:../src/smc_gen/r_drw2d_rx/src/tes/dave_edge.c ****             s2 = (-py << (16 - 4)) - ((px * n) >> 4);               /* PRQA S 4131 */ /* $Misra: #P
 760                             		.loc 1 227 16 view .LVU335
 761 018d FF 03 39                		sub	r3, r9, r3
 762                             	.LVL86:
 228:../src/smc_gen/r_drw2d_rx/src/tes/dave_edge.c ****             s3 = (((px + dx) * n) >> 4) + ((py + dy) << (16 - 4));  /* PRQA S 4131 */ /* $Misra: #P
 763                             		.loc 1 228 13 is_stmt 1 view .LVU336
 228:../src/smc_gen/r_drw2d_rx/src/tes/dave_edge.c ****             s3 = (((px + dx) * n) >> 4) + ((py + dy) << (16 - 4));  /* PRQA S 4131 */ /* $Misra: #P
 764                             		.loc 1 228 19 is_stmt 0 view .LVU337
 765 0190 FC 07 7E                		neg	r7, r14
 228:../src/smc_gen/r_drw2d_rx/src/tes/dave_edge.c ****             s3 = (((px + dx) * n) >> 4) + ((py + dy) << (16 - 4));  /* PRQA S 4131 */ /* $Misra: #P
 766                             		.loc 1 228 23 view .LVU338
 767 0193 6C CE                   		shll	#12, r14
 228:../src/smc_gen/r_drw2d_rx/src/tes/dave_edge.c ****             s3 = (((px + dx) * n) >> 4) + ((py + dy) << (16 - 4));  /* PRQA S 4131 */ /* $Misra: #P
 768                             		.loc 1 228 43 view .LVU339
 769 0195 FF 39 52                		mul	r5, r2, r9
 228:../src/smc_gen/r_drw2d_rx/src/tes/dave_edge.c ****             s3 = (((px + dx) * n) >> 4) + ((py + dy) << (16 - 4));  /* PRQA S 4131 */ /* $Misra: #P
 770                             		.loc 1 228 48 view .LVU340
 771 0198 6A 49                   		shar	#4, r9
 228:../src/smc_gen/r_drw2d_rx/src/tes/dave_edge.c ****             s3 = (((px + dx) * n) >> 4) + ((py + dy) << (16 - 4));  /* PRQA S 4131 */ /* $Misra: #P
 772                             		.loc 1 228 16 view .LVU341
 773 019a 43 9E                   		sub	r9, r14
 774                             	.LVL87:
 229:../src/smc_gen/r_drw2d_rx/src/tes/dave_edge.c ****             xa = D2_FIX16( -1 );                                    /* PRQA S 4131 */ /* $Misra: #P
 775                             		.loc 1 229 13 is_stmt 1 view .LVU342
 229:../src/smc_gen/r_drw2d_rx/src/tes/dave_edge.c ****             xa = D2_FIX16( -1 );                                    /* PRQA S 4131 */ /* $Misra: #P
 776                             		.loc 1 229 24 is_stmt 0 view .LVU343
 777 019c 4B 42                   		add	r4, r2
 778                             	.LVL88:
 229:../src/smc_gen/r_drw2d_rx/src/tes/dave_edge.c ****             xa = D2_FIX16( -1 );                                    /* PRQA S 4131 */ /* $Misra: #P
 779                             		.loc 1 229 30 view .LVU344
 780 019e 4F 52                   		mul	r5, r2
 229:../src/smc_gen/r_drw2d_rx/src/tes/dave_edge.c ****             xa = D2_FIX16( -1 );                                    /* PRQA S 4131 */ /* $Misra: #P
 781                             		.loc 1 229 35 view .LVU345
 782 01a0 6A 42                   		shar	#4, r2
 229:../src/smc_gen/r_drw2d_rx/src/tes/dave_edge.c ****             xa = D2_FIX16( -1 );                                    /* PRQA S 4131 */ /* $Misra: #P
 783                             		.loc 1 229 48 view .LVU346
 784 01a2 4B A7                   		add	r10, r7
 785                             	.LVL89:
 229:../src/smc_gen/r_drw2d_rx/src/tes/dave_edge.c ****             xa = D2_FIX16( -1 );                                    /* PRQA S 4131 */ /* $Misra: #P
 786                             		.loc 1 229 54 view .LVU347
 787 01a4 6C C7                   		shll	#12, r7
 229:../src/smc_gen/r_drw2d_rx/src/tes/dave_edge.c ****             xa = D2_FIX16( -1 );                                    /* PRQA S 4131 */ /* $Misra: #P
 788                             		.loc 1 229 16 view .LVU348
 789 01a6 4B 27                   		add	r2, r7
 790                             	.LVL90:
 230:../src/smc_gen/r_drw2d_rx/src/tes/dave_edge.c ****             ya = n;
 791                             		.loc 1 230 13 is_stmt 1 view .LVU349
 231:../src/smc_gen/r_drw2d_rx/src/tes/dave_edge.c **** 
 792                             		.loc 1 231 13 view .LVU350
 233:../src/smc_gen/r_drw2d_rx/src/tes/dave_edge.c ****             {
 793                             		.loc 1 233 13 view .LVU351
 233:../src/smc_gen/r_drw2d_rx/src/tes/dave_edge.c ****             {
 794                             		.loc 1 233 15 is_stmt 0 view .LVU352
 795 01a8 61 0C                   		cmp	#0, r12
 796 01aa 3A E4 00                		beq	.L31
 235:../src/smc_gen/r_drw2d_rx/src/tes/dave_edge.c ****             }
 797                             		.loc 1 235 16 is_stmt 1 view .LVU353
 235:../src/smc_gen/r_drw2d_rx/src/tes/dave_edge.c ****             }
 798                             		.loc 1 235 24 is_stmt 0 view .LVU354
 799 01ad E3 CA                   		mov.L	r10, [r12]
 230:../src/smc_gen/r_drw2d_rx/src/tes/dave_edge.c ****             ya = n;
 800                             		.loc 1 230 16 view .LVU355
 801 01af FB FE 00 00 FF          		mov.L	#-65536, r15
 802 01b4 38 C4 FE                		bra	.L21
 803                             	.LVL91:
 804                             	.L38:
 246:../src/smc_gen/r_drw2d_rx/src/tes/dave_edge.c ****          {
 805                             		.loc 1 246 10 is_stmt 1 view .LVU356
 246:../src/smc_gen/r_drw2d_rx/src/tes/dave_edge.c ****          {
 806                             		.loc 1 246 18 is_stmt 0 view .LVU357
 807 01b7 FC 07 AF                		neg	r10, r15
 246:../src/smc_gen/r_drw2d_rx/src/tes/dave_edge.c ****          {
 808                             		.loc 1 246 12 view .LVU358
 809 01ba 47 4F                   		cmp	r4, r15
 810 01bc 28 43                   		bge	.L24
 251:../src/smc_gen/r_drw2d_rx/src/tes/dave_edge.c ****             s1 = (-py << (16 - 4)) - ((px * n) >> 4);               /* PRQA S 4131 */ /* $Misra: #P
 811                             		.loc 1 251 13 is_stmt 1 view .LVU359
 251:../src/smc_gen/r_drw2d_rx/src/tes/dave_edge.c ****             s1 = (-py << (16 - 4)) - ((px * n) >> 4);               /* PRQA S 4131 */ /* $Misra: #P
 812                             		.loc 1 251 21 is_stmt 0 view .LVU360
 813 01be FD D0 AF                		shll	#16, r10, r15
 251:../src/smc_gen/r_drw2d_rx/src/tes/dave_edge.c ****             s1 = (-py << (16 - 4)) - ((px * n) >> 4);               /* PRQA S 4131 */ /* $Misra: #P
 814                             		.loc 1 251 30 view .LVU361
 815 01c1 FC 07 47                		neg	r4, r7
 251:../src/smc_gen/r_drw2d_rx/src/tes/dave_edge.c ****             s1 = (-py << (16 - 4)) - ((px * n) >> 4);               /* PRQA S 4131 */ /* $Misra: #P
 816                             		.loc 1 251 15 view .LVU362
 817 01c4 FC 23 7F                		div	r7, r15
 818                             	.LVL92:
 252:../src/smc_gen/r_drw2d_rx/src/tes/dave_edge.c ****             s2 = (-px << (16 - 4)) + ((py * n) >> 4);               /* PRQA S 4131 */ /* $Misra: #P
 819                             		.loc 1 252 13 is_stmt 1 view .LVU363
 252:../src/smc_gen/r_drw2d_rx/src/tes/dave_edge.c ****             s2 = (-px << (16 - 4)) + ((py * n) >> 4);               /* PRQA S 4131 */ /* $Misra: #P
 820                             		.loc 1 252 19 is_stmt 0 view .LVU364
 821 01c7 DF 35                   		mov.W	r3, r5
 822 01c9 FC 07 53                		neg	r5, r3
 823                             	.LVL93:
 252:../src/smc_gen/r_drw2d_rx/src/tes/dave_edge.c ****             s2 = (-px << (16 - 4)) + ((py * n) >> 4);               /* PRQA S 4131 */ /* $Misra: #P
 824                             		.loc 1 252 23 view .LVU365
 825 01cc 6C C3                   		shll	#12, r3
 252:../src/smc_gen/r_drw2d_rx/src/tes/dave_edge.c ****             s2 = (-px << (16 - 4)) + ((py * n) >> 4);               /* PRQA S 4131 */ /* $Misra: #P
 826                             		.loc 1 252 43 view .LVU366
 827 01ce DF 22                   		mov.W	r2, r2
 252:../src/smc_gen/r_drw2d_rx/src/tes/dave_edge.c ****             s2 = (-px << (16 - 4)) + ((py * n) >> 4);               /* PRQA S 4131 */ /* $Misra: #P
 828                             		.loc 1 252 43 view .LVU367
 829 01d0 FF 37 F2                		mul	r15, r2, r7
 252:../src/smc_gen/r_drw2d_rx/src/tes/dave_edge.c ****             s2 = (-px << (16 - 4)) + ((py * n) >> 4);               /* PRQA S 4131 */ /* $Misra: #P
 830                             		.loc 1 252 48 view .LVU368
 831 01d3 6A 47                   		shar	#4, r7
 252:../src/smc_gen/r_drw2d_rx/src/tes/dave_edge.c ****             s2 = (-px << (16 - 4)) + ((py * n) >> 4);               /* PRQA S 4131 */ /* $Misra: #P
 832                             		.loc 1 252 16 view .LVU369
 833 01d5 43 73                   		sub	r7, r3
 834                             	.LVL94:
 253:../src/smc_gen/r_drw2d_rx/src/tes/dave_edge.c ****             s3 = ((px + dx) << (16 - 4)) - (((py + dy) * n) >> 4);  /* PRQA S 4131 */ /* $Misra: #P
 835                             		.loc 1 253 13 is_stmt 1 view .LVU370
 253:../src/smc_gen/r_drw2d_rx/src/tes/dave_edge.c ****             s3 = ((px + dx) << (16 - 4)) - (((py + dy) * n) >> 4);  /* PRQA S 4131 */ /* $Misra: #P
 836                             		.loc 1 253 19 is_stmt 0 view .LVU371
 837 01d7 FC 07 2E                		neg	r2, r14
 253:../src/smc_gen/r_drw2d_rx/src/tes/dave_edge.c ****             s3 = ((px + dx) << (16 - 4)) - (((py + dy) * n) >> 4);  /* PRQA S 4131 */ /* $Misra: #P
 838                             		.loc 1 253 23 view .LVU372
 839 01da 6C CE                   		shll	#12, r14
 253:../src/smc_gen/r_drw2d_rx/src/tes/dave_edge.c ****             s3 = ((px + dx) << (16 - 4)) - (((py + dy) * n) >> 4);  /* PRQA S 4131 */ /* $Misra: #P
 840                             		.loc 1 253 43 view .LVU373
 841 01dc FF 37 F5                		mul	r15, r5, r7
 253:../src/smc_gen/r_drw2d_rx/src/tes/dave_edge.c ****             s3 = ((px + dx) << (16 - 4)) - (((py + dy) * n) >> 4);  /* PRQA S 4131 */ /* $Misra: #P
 842                             		.loc 1 253 48 view .LVU374
 843 01df 6A 47                   		shar	#4, r7
 253:../src/smc_gen/r_drw2d_rx/src/tes/dave_edge.c ****             s3 = ((px + dx) << (16 - 4)) - (((py + dy) * n) >> 4);  /* PRQA S 4131 */ /* $Misra: #P
 844                             		.loc 1 253 16 view .LVU375
 845 01e1 4B 7E                   		add	r7, r14
 846                             	.LVL95:
 254:../src/smc_gen/r_drw2d_rx/src/tes/dave_edge.c ****             xa = n;
 847                             		.loc 1 254 13 is_stmt 1 view .LVU376
 254:../src/smc_gen/r_drw2d_rx/src/tes/dave_edge.c ****             xa = n;
 848                             		.loc 1 254 23 is_stmt 0 view .LVU377
 849 01e3 FF 27 42                		add	r4, r2, r7
 254:../src/smc_gen/r_drw2d_rx/src/tes/dave_edge.c ****             xa = n;
 850                             		.loc 1 254 29 view .LVU378
 851 01e6 6C C7                   		shll	#12, r7
 254:../src/smc_gen/r_drw2d_rx/src/tes/dave_edge.c ****             xa = n;
 852                             		.loc 1 254 50 view .LVU379
 853 01e8 4B 5A                   		add	r5, r10
 254:../src/smc_gen/r_drw2d_rx/src/tes/dave_edge.c ****             xa = n;
 854                             		.loc 1 254 56 view .LVU380
 855 01ea 4F FA                   		mul	r15, r10
 254:../src/smc_gen/r_drw2d_rx/src/tes/dave_edge.c ****             xa = n;
 856                             		.loc 1 254 61 view .LVU381
 857 01ec 6A 4A                   		shar	#4, r10
 254:../src/smc_gen/r_drw2d_rx/src/tes/dave_edge.c ****             xa = n;
 858                             		.loc 1 254 16 view .LVU382
 859 01ee 43 A7                   		sub	r10, r7
 860                             	.LVL96:
 255:../src/smc_gen/r_drw2d_rx/src/tes/dave_edge.c ****             ya = D2_FIX16( 1 );                                     /* PRQA S 4131 */ /* $Misra: #P
 861                             		.loc 1 255 13 is_stmt 1 view .LVU383
 256:../src/smc_gen/r_drw2d_rx/src/tes/dave_edge.c **** 
 862                             		.loc 1 256 13 view .LVU384
 258:../src/smc_gen/r_drw2d_rx/src/tes/dave_edge.c ****             {
 863                             		.loc 1 258 13 view .LVU385
 258:../src/smc_gen/r_drw2d_rx/src/tes/dave_edge.c ****             {
 864                             		.loc 1 258 15 is_stmt 0 view .LVU386
 865 01f0 61 0C                   		cmp	#0, r12
 866 01f2 3A A4 00                		beq	.L32
 260:../src/smc_gen/r_drw2d_rx/src/tes/dave_edge.c ****             }
 867                             		.loc 1 260 16 is_stmt 1 view .LVU387
 260:../src/smc_gen/r_drw2d_rx/src/tes/dave_edge.c ****             }
 868                             		.loc 1 260 24 is_stmt 0 view .LVU388
 869 01f5 E3 C4                   		mov.L	r4, [r12]
 256:../src/smc_gen/r_drw2d_rx/src/tes/dave_edge.c **** 
 870                             		.loc 1 256 16 view .LVU389
 871 01f7 FB 5E 00 00 01          		mov.L	#0x10000, r5
 872                             	.LVL97:
 256:../src/smc_gen/r_drw2d_rx/src/tes/dave_edge.c **** 
 873                             		.loc 1 256 16 view .LVU390
 874 01fc 38 7C FE                		bra	.L21
 875                             	.LVL98:
 876                             	.L24:
 269:../src/smc_gen/r_drw2d_rx/src/tes/dave_edge.c ****             s1 = (-px << (16 - 4)) - ((py * n) >> 4);               /* PRQA S 4131 */ /* $Misra: #P
 877                             		.loc 1 269 13 is_stmt 1 view .LVU391
 269:../src/smc_gen/r_drw2d_rx/src/tes/dave_edge.c ****             s1 = (-px << (16 - 4)) - ((py * n) >> 4);               /* PRQA S 4131 */ /* $Misra: #P
 878                             		.loc 1 269 21 is_stmt 0 view .LVU392
 879 01ff FD D0 45                		shll	#16, r4, r5
 269:../src/smc_gen/r_drw2d_rx/src/tes/dave_edge.c ****             s1 = (-px << (16 - 4)) - ((py * n) >> 4);               /* PRQA S 4131 */ /* $Misra: #P
 880                             		.loc 1 269 15 view .LVU393
 881 0202 FC 23 F5                		div	r15, r5
 882                             	.LVL99:
 270:../src/smc_gen/r_drw2d_rx/src/tes/dave_edge.c ****             s2 = ( py << (16 - 4)) - ((px * n) >> 4);               /* PRQA S 4131 */ /* $Misra: #P
 883                             		.loc 1 270 13 is_stmt 1 view .LVU394
 270:../src/smc_gen/r_drw2d_rx/src/tes/dave_edge.c ****             s2 = ( py << (16 - 4)) - ((px * n) >> 4);               /* PRQA S 4131 */ /* $Misra: #P
 884                             		.loc 1 270 19 is_stmt 0 view .LVU395
 885 0205 DF 22                   		mov.W	r2, r2
 270:../src/smc_gen/r_drw2d_rx/src/tes/dave_edge.c ****             s2 = ( py << (16 - 4)) - ((px * n) >> 4);               /* PRQA S 4131 */ /* $Misra: #P
 886                             		.loc 1 270 19 view .LVU396
 887 0207 FC 07 2E                		neg	r2, r14
 270:../src/smc_gen/r_drw2d_rx/src/tes/dave_edge.c ****             s2 = ( py << (16 - 4)) - ((px * n) >> 4);               /* PRQA S 4131 */ /* $Misra: #P
 888                             		.loc 1 270 23 view .LVU397
 889 020a 6C CE                   		shll	#12, r14
 270:../src/smc_gen/r_drw2d_rx/src/tes/dave_edge.c ****             s2 = ( py << (16 - 4)) - ((px * n) >> 4);               /* PRQA S 4131 */ /* $Misra: #P
 890                             		.loc 1 270 43 view .LVU398
 891 020c DF 39                   		mov.W	r3, r9
 892 020e FF 37 59                		mul	r5, r9, r7
 270:../src/smc_gen/r_drw2d_rx/src/tes/dave_edge.c ****             s2 = ( py << (16 - 4)) - ((px * n) >> 4);               /* PRQA S 4131 */ /* $Misra: #P
 893                             		.loc 1 270 48 view .LVU399
 894 0211 6A 47                   		shar	#4, r7
 270:../src/smc_gen/r_drw2d_rx/src/tes/dave_edge.c ****             s2 = ( py << (16 - 4)) - ((px * n) >> 4);               /* PRQA S 4131 */ /* $Misra: #P
 895                             		.loc 1 270 16 view .LVU400
 896 0213 FF 03 7E                		sub	r7, r14, r3
 897                             	.LVL100:
 271:../src/smc_gen/r_drw2d_rx/src/tes/dave_edge.c ****             s3 = (((px + dx) * n) >> 4) - ((py + dy) << (16 - 4));  /* PRQA S 4131 */ /* $Misra: #P
 898                             		.loc 1 271 13 is_stmt 1 view .LVU401
 271:../src/smc_gen/r_drw2d_rx/src/tes/dave_edge.c ****             s3 = (((px + dx) * n) >> 4) - ((py + dy) << (16 - 4));  /* PRQA S 4131 */ /* $Misra: #P
 899                             		.loc 1 271 23 is_stmt 0 view .LVU402
 900 0216 FD CC 9E                		shll	#12, r9, r14
 271:../src/smc_gen/r_drw2d_rx/src/tes/dave_edge.c ****             s3 = (((px + dx) * n) >> 4) - ((py + dy) << (16 - 4));  /* PRQA S 4131 */ /* $Misra: #P
 901                             		.loc 1 271 43 view .LVU403
 902 0219 FF 37 52                		mul	r5, r2, r7
 271:../src/smc_gen/r_drw2d_rx/src/tes/dave_edge.c ****             s3 = (((px + dx) * n) >> 4) - ((py + dy) << (16 - 4));  /* PRQA S 4131 */ /* $Misra: #P
 903                             		.loc 1 271 48 view .LVU404
 904 021c 6A 47                   		shar	#4, r7
 271:../src/smc_gen/r_drw2d_rx/src/tes/dave_edge.c ****             s3 = (((px + dx) * n) >> 4) - ((py + dy) << (16 - 4));  /* PRQA S 4131 */ /* $Misra: #P
 905                             		.loc 1 271 16 view .LVU405
 906 021e 43 7E                   		sub	r7, r14
 907                             	.LVL101:
 272:../src/smc_gen/r_drw2d_rx/src/tes/dave_edge.c ****             xa = D2_FIX16( 1 );                                     /* PRQA S 4131 */ /* $Misra: #P
 908                             		.loc 1 272 13 is_stmt 1 view .LVU406
 272:../src/smc_gen/r_drw2d_rx/src/tes/dave_edge.c ****             xa = D2_FIX16( 1 );                                     /* PRQA S 4131 */ /* $Misra: #P
 909                             		.loc 1 272 24 is_stmt 0 view .LVU407
 910 0220 4B 42                   		add	r4, r2
 911                             	.LVL102:
 272:../src/smc_gen/r_drw2d_rx/src/tes/dave_edge.c ****             xa = D2_FIX16( 1 );                                     /* PRQA S 4131 */ /* $Misra: #P
 912                             		.loc 1 272 30 view .LVU408
 913 0222 FF 37 52                		mul	r5, r2, r7
 272:../src/smc_gen/r_drw2d_rx/src/tes/dave_edge.c ****             xa = D2_FIX16( 1 );                                     /* PRQA S 4131 */ /* $Misra: #P
 914                             		.loc 1 272 35 view .LVU409
 915 0225 6A 47                   		shar	#4, r7
 272:../src/smc_gen/r_drw2d_rx/src/tes/dave_edge.c ****             xa = D2_FIX16( 1 );                                     /* PRQA S 4131 */ /* $Misra: #P
 916                             		.loc 1 272 48 view .LVU410
 917 0227 4B 9A                   		add	r9, r10
 272:../src/smc_gen/r_drw2d_rx/src/tes/dave_edge.c ****             xa = D2_FIX16( 1 );                                     /* PRQA S 4131 */ /* $Misra: #P
 918                             		.loc 1 272 54 view .LVU411
 919 0229 6C CA                   		shll	#12, r10
 272:../src/smc_gen/r_drw2d_rx/src/tes/dave_edge.c ****             xa = D2_FIX16( 1 );                                     /* PRQA S 4131 */ /* $Misra: #P
 920                             		.loc 1 272 16 view .LVU412
 921 022b 43 A7                   		sub	r10, r7
 922                             	.LVL103:
 273:../src/smc_gen/r_drw2d_rx/src/tes/dave_edge.c ****             ya = n;
 923                             		.loc 1 273 13 is_stmt 1 view .LVU413
 274:../src/smc_gen/r_drw2d_rx/src/tes/dave_edge.c ****             
 924                             		.loc 1 274 13 view .LVU414
 276:../src/smc_gen/r_drw2d_rx/src/tes/dave_edge.c ****             {
 925                             		.loc 1 276 13 view .LVU415
 276:../src/smc_gen/r_drw2d_rx/src/tes/dave_edge.c ****             {
 926                             		.loc 1 276 15 is_stmt 0 view .LVU416
 927 022d 61 0C                   		cmp	#0, r12
 928 022f 20 6F                   		beq	.L33
 278:../src/smc_gen/r_drw2d_rx/src/tes/dave_edge.c ****             }
 929                             		.loc 1 278 16 is_stmt 1 view .LVU417
 278:../src/smc_gen/r_drw2d_rx/src/tes/dave_edge.c ****             }
 930                             		.loc 1 278 24 is_stmt 0 view .LVU418
 931 0231 E3 CF                   		mov.L	r15, [r12]
 273:../src/smc_gen/r_drw2d_rx/src/tes/dave_edge.c ****             ya = n;
 932                             		.loc 1 273 16 view .LVU419
 933 0233 FB FE 00 00 01          		mov.L	#0x10000, r15
 934 0238 38 40 FE                		bra	.L21
 935                             	.LVL104:
 936                             	.L25:
 309:../src/smc_gen/r_drw2d_rx/src/tes/dave_edge.c ****             s1 = ( px << (16 - 4)) - ((py * n) >> 4);               /* PRQA S 4131 */ /* $Misra: #P
 937                             		.loc 1 309 13 is_stmt 1 view .LVU420
 309:../src/smc_gen/r_drw2d_rx/src/tes/dave_edge.c ****             s1 = ( px << (16 - 4)) - ((py * n) >> 4);               /* PRQA S 4131 */ /* $Misra: #P
 938                             		.loc 1 309 21 is_stmt 0 view .LVU421
 939 023b FD D0 45                		shll	#16, r4, r5
 309:../src/smc_gen/r_drw2d_rx/src/tes/dave_edge.c ****             s1 = ( px << (16 - 4)) - ((py * n) >> 4);               /* PRQA S 4131 */ /* $Misra: #P
 940                             		.loc 1 309 15 view .LVU422
 941 023e FC 23 A5                		div	r10, r5
 942                             	.LVL105:
 310:../src/smc_gen/r_drw2d_rx/src/tes/dave_edge.c ****             s2 = (-py << (16 - 4)) - ((px * n) >> 4);               /* PRQA S 4131 */ /* $Misra: #P
 943                             		.loc 1 310 13 is_stmt 1 view .LVU423
 310:../src/smc_gen/r_drw2d_rx/src/tes/dave_edge.c ****             s2 = (-py << (16 - 4)) - ((px * n) >> 4);               /* PRQA S 4131 */ /* $Misra: #P
 944                             		.loc 1 310 23 is_stmt 0 view .LVU424
 945 0241 DF 22                   		mov.W	r2, r2
 310:../src/smc_gen/r_drw2d_rx/src/tes/dave_edge.c ****             s2 = (-py << (16 - 4)) - ((px * n) >> 4);               /* PRQA S 4131 */ /* $Misra: #P
 946                             		.loc 1 310 23 view .LVU425
 947 0243 FD CC 29                		shll	#12, r2, r9
 310:../src/smc_gen/r_drw2d_rx/src/tes/dave_edge.c ****             s2 = (-py << (16 - 4)) - ((px * n) >> 4);               /* PRQA S 4131 */ /* $Misra: #P
 948                             		.loc 1 310 43 view .LVU426
 949 0246 DF 37                   		mov.W	r3, r7
 950 0248 FF 33 57                		mul	r5, r7, r3
 951                             	.LVL106:
 310:../src/smc_gen/r_drw2d_rx/src/tes/dave_edge.c ****             s2 = (-py << (16 - 4)) - ((px * n) >> 4);               /* PRQA S 4131 */ /* $Misra: #P
 952                             		.loc 1 310 48 view .LVU427
 953 024b 6A 43                   		shar	#4, r3
 310:../src/smc_gen/r_drw2d_rx/src/tes/dave_edge.c ****             s2 = (-py << (16 - 4)) - ((px * n) >> 4);               /* PRQA S 4131 */ /* $Misra: #P
 954                             		.loc 1 310 16 view .LVU428
 955 024d FF 03 39                		sub	r3, r9, r3
 956                             	.LVL107:
 311:../src/smc_gen/r_drw2d_rx/src/tes/dave_edge.c ****             s3 = (((px + dx) * n) >> 4) + ((py + dy) << (16 - 4));  /* PRQA S 4131 */ /* $Misra: #P
 957                             		.loc 1 311 13 is_stmt 1 view .LVU429
 311:../src/smc_gen/r_drw2d_rx/src/tes/dave_edge.c ****             s3 = (((px + dx) * n) >> 4) + ((py + dy) << (16 - 4));  /* PRQA S 4131 */ /* $Misra: #P
 958                             		.loc 1 311 19 is_stmt 0 view .LVU430
 959 0250 FC 07 7E                		neg	r7, r14
 311:../src/smc_gen/r_drw2d_rx/src/tes/dave_edge.c ****             s3 = (((px + dx) * n) >> 4) + ((py + dy) << (16 - 4));  /* PRQA S 4131 */ /* $Misra: #P
 960                             		.loc 1 311 23 view .LVU431
 961 0253 6C CE                   		shll	#12, r14
 311:../src/smc_gen/r_drw2d_rx/src/tes/dave_edge.c ****             s3 = (((px + dx) * n) >> 4) + ((py + dy) << (16 - 4));  /* PRQA S 4131 */ /* $Misra: #P
 962                             		.loc 1 311 43 view .LVU432
 963 0255 FF 39 52                		mul	r5, r2, r9
 311:../src/smc_gen/r_drw2d_rx/src/tes/dave_edge.c ****             s3 = (((px + dx) * n) >> 4) + ((py + dy) << (16 - 4));  /* PRQA S 4131 */ /* $Misra: #P
 964                             		.loc 1 311 48 view .LVU433
 965 0258 6A 49                   		shar	#4, r9
 311:../src/smc_gen/r_drw2d_rx/src/tes/dave_edge.c ****             s3 = (((px + dx) * n) >> 4) + ((py + dy) << (16 - 4));  /* PRQA S 4131 */ /* $Misra: #P
 966                             		.loc 1 311 16 view .LVU434
 967 025a 43 9E                   		sub	r9, r14
 968                             	.LVL108:
 312:../src/smc_gen/r_drw2d_rx/src/tes/dave_edge.c ****             xa = D2_FIX16( -1 );                                    /* PRQA S 4131 */ /* $Misra: #P
 969                             		.loc 1 312 13 is_stmt 1 view .LVU435
 312:../src/smc_gen/r_drw2d_rx/src/tes/dave_edge.c ****             xa = D2_FIX16( -1 );                                    /* PRQA S 4131 */ /* $Misra: #P
 970                             		.loc 1 312 24 is_stmt 0 view .LVU436
 971 025c 4B 42                   		add	r4, r2
 972                             	.LVL109:
 312:../src/smc_gen/r_drw2d_rx/src/tes/dave_edge.c ****             xa = D2_FIX16( -1 );                                    /* PRQA S 4131 */ /* $Misra: #P
 973                             		.loc 1 312 30 view .LVU437
 974 025e 4F 52                   		mul	r5, r2
 312:../src/smc_gen/r_drw2d_rx/src/tes/dave_edge.c ****             xa = D2_FIX16( -1 );                                    /* PRQA S 4131 */ /* $Misra: #P
 975                             		.loc 1 312 35 view .LVU438
 976 0260 6A 42                   		shar	#4, r2
 312:../src/smc_gen/r_drw2d_rx/src/tes/dave_edge.c ****             xa = D2_FIX16( -1 );                                    /* PRQA S 4131 */ /* $Misra: #P
 977                             		.loc 1 312 48 view .LVU439
 978 0262 4B A7                   		add	r10, r7
 979                             	.LVL110:
 312:../src/smc_gen/r_drw2d_rx/src/tes/dave_edge.c ****             xa = D2_FIX16( -1 );                                    /* PRQA S 4131 */ /* $Misra: #P
 980                             		.loc 1 312 54 view .LVU440
 981 0264 6C C7                   		shll	#12, r7
 312:../src/smc_gen/r_drw2d_rx/src/tes/dave_edge.c ****             xa = D2_FIX16( -1 );                                    /* PRQA S 4131 */ /* $Misra: #P
 982                             		.loc 1 312 16 view .LVU441
 983 0266 4B 27                   		add	r2, r7
 984                             	.LVL111:
 313:../src/smc_gen/r_drw2d_rx/src/tes/dave_edge.c ****             ya = n;
 985                             		.loc 1 313 13 is_stmt 1 view .LVU442
 314:../src/smc_gen/r_drw2d_rx/src/tes/dave_edge.c **** 
 986                             		.loc 1 314 13 view .LVU443
 316:../src/smc_gen/r_drw2d_rx/src/tes/dave_edge.c ****             {
 987                             		.loc 1 316 13 view .LVU444
 316:../src/smc_gen/r_drw2d_rx/src/tes/dave_edge.c ****             {
 988                             		.loc 1 316 15 is_stmt 0 view .LVU445
 989 0268 61 0C                   		cmp	#0, r12
 990 026a 20 44                   		beq	.L35
 318:../src/smc_gen/r_drw2d_rx/src/tes/dave_edge.c ****             }
 991                             		.loc 1 318 16 is_stmt 1 view .LVU446
 318:../src/smc_gen/r_drw2d_rx/src/tes/dave_edge.c ****             }
 992                             		.loc 1 318 24 is_stmt 0 view .LVU447
 993 026c E3 CA                   		mov.L	r10, [r12]
 313:../src/smc_gen/r_drw2d_rx/src/tes/dave_edge.c ****             ya = n;
 994                             		.loc 1 313 16 view .LVU448
 995 026e FB FE 00 00 FF          		mov.L	#-65536, r15
 996 0273 38 05 FE                		bra	.L21
 997                             	.LVL112:
 998                             	.L28:
 173:../src/smc_gen/r_drw2d_rx/src/tes/dave_edge.c **** 
 999                             		.loc 1 173 16 view .LVU449
 1000 0276 FB 5E 00 00 FF          		mov.L	#-65536, r5
 1001                             	.LVL113:
 173:../src/smc_gen/r_drw2d_rx/src/tes/dave_edge.c **** 
 1002                             		.loc 1 173 16 view .LVU450
 1003 027b 38 FD FD                		bra	.L21
 1004                             	.LVL114:
 1005                             	.L29:
 190:../src/smc_gen/r_drw2d_rx/src/tes/dave_edge.c ****             ya = n;
 1006                             		.loc 1 190 16 view .LVU451
 1007 027e FB FE 00 00 01          		mov.L	#0x10000, r15
 1008 0283 38 F5 FD                		bra	.L21
 1009                             	.LVL115:
 1010                             	.L30:
 213:../src/smc_gen/r_drw2d_rx/src/tes/dave_edge.c **** 
 1011                             		.loc 1 213 16 view .LVU452
 1012 0286 FB 5E 00 00 FF          		mov.L	#-65536, r5
 1013                             	.LVL116:
 213:../src/smc_gen/r_drw2d_rx/src/tes/dave_edge.c **** 
 1014                             		.loc 1 213 16 view .LVU453
 1015 028b 38 ED FD                		bra	.L21
 1016                             	.LVL117:
 1017                             	.L31:
 230:../src/smc_gen/r_drw2d_rx/src/tes/dave_edge.c ****             ya = n;
 1018                             		.loc 1 230 16 view .LVU454
 1019 028e FB FE 00 00 FF          		mov.L	#-65536, r15
 1020 0293 38 E5 FD                		bra	.L21
 1021                             	.LVL118:
 1022                             	.L32:
 256:../src/smc_gen/r_drw2d_rx/src/tes/dave_edge.c **** 
 1023                             		.loc 1 256 16 view .LVU455
 1024 0296 FB 5E 00 00 01          		mov.L	#0x10000, r5
 1025                             	.LVL119:
 256:../src/smc_gen/r_drw2d_rx/src/tes/dave_edge.c **** 
 1026                             		.loc 1 256 16 view .LVU456
 1027 029b 38 DD FD                		bra	.L21
 1028                             	.LVL120:
 1029                             	.L33:
 273:../src/smc_gen/r_drw2d_rx/src/tes/dave_edge.c ****             ya = n;
 1030                             		.loc 1 273 16 view .LVU457
 1031 029e FB FE 00 00 01          		mov.L	#0x10000, r15
 1032 02a3 38 D5 FD                		bra	.L21
 1033                             	.LVL121:
 1034                             	.L34:
 296:../src/smc_gen/r_drw2d_rx/src/tes/dave_edge.c **** 
 1035                             		.loc 1 296 16 view .LVU458
 1036 02a6 FB 5E 00 00 01          		mov.L	#0x10000, r5
 1037                             	.LVL122:
 296:../src/smc_gen/r_drw2d_rx/src/tes/dave_edge.c **** 
 1038                             		.loc 1 296 16 view .LVU459
 1039 02ab 38 CD FD                		bra	.L21
 1040                             	.LVL123:
 1041                             	.L35:
 313:../src/smc_gen/r_drw2d_rx/src/tes/dave_edge.c ****             ya = n;
 1042                             		.loc 1 313 16 view .LVU460
 1043 02ae FB FE 00 00 FF          		mov.L	#-65536, r15
 1044 02b3 38 C5 FD                		bra	.L21
 1045                             	.LFE8:
 1047 02b6 EF 00                   		.section	.text.d2_triedge_setup_intern,"ax",@progbits
 1048                             		.global	_d2_triedge_setup_intern
 1050                             	_d2_triedge_setup_intern:
 1051                             	.LVL124:
 1052                             	.LFB9:
 335:../src/smc_gen/r_drw2d_rx/src/tes/dave_edge.c **** 
 336:../src/smc_gen/r_drw2d_rx/src/tes/dave_edge.c **** 
 337:../src/smc_gen/r_drw2d_rx/src/tes/dave_edge.c **** /*--------------------------------------------------------------------------
 338:../src/smc_gen/r_drw2d_rx/src/tes/dave_edge.c ****  * edge deltas may not both be zero. centering of start value (+0.5) is
 339:../src/smc_gen/r_drw2d_rx/src/tes/dave_edge.c ****  * omitted here. this was necessary to allow highler level to change center
 340:../src/smc_gen/r_drw2d_rx/src/tes/dave_edge.c ****  * for non shared edges.
 341:../src/smc_gen/r_drw2d_rx/src/tes/dave_edge.c ****  * */
 342:../src/smc_gen/r_drw2d_rx/src/tes/dave_edge.c **** void d2_triedge_setup_intern( d2_limdata *lim, d2_point px, d2_point py, d2_s32 dx, d2_s32 dy, d2_u
 343:../src/smc_gen/r_drw2d_rx/src/tes/dave_edge.c **** {
 1053                             		.loc 1 343 1 is_stmt 1 view -0
 1054                             		.loc 1 343 1 is_stmt 0 view .LVU462
 1055 0000 7E A7                   		push.l	r7
 1056                             	.LCFI6:
 1057                             		.loc 1 343 1 view .LVU463
 1058 0002 60 80                   		sub	#8, r0
 1059                             	.LCFI7:
 1060 0004 75 47 10                		mov.L	#16, r7
 1061 0007 4B 07                   		add	r0, r7
 1062 0009 EC 7F                   		mov.L	[r7], r15
 1063 000b ED 7E 01                		mov.L	4[r7], r14
 344:../src/smc_gen/r_drw2d_rx/src/tes/dave_edge.c ****    d2_s32 n;
 1064                             		.loc 1 344 4 is_stmt 1 view .LVU464
 345:../src/smc_gen/r_drw2d_rx/src/tes/dave_edge.c ****    d2_s32 s,xa,ya;
 1065                             		.loc 1 345 4 view .LVU465
 346:../src/smc_gen/r_drw2d_rx/src/tes/dave_edge.c **** 
 347:../src/smc_gen/r_drw2d_rx/src/tes/dave_edge.c ****    /* find edge octant */
 348:../src/smc_gen/r_drw2d_rx/src/tes/dave_edge.c ****    if(dx < 0)
 1066                             		.loc 1 348 4 view .LVU466
 1067                             		.loc 1 348 6 is_stmt 0 view .LVU467
 1068 000e 61 04                   		cmp	#0, r4
 1069 0010 29 37                   		blt	.L51
 349:../src/smc_gen/r_drw2d_rx/src/tes/dave_edge.c ****    {
 350:../src/smc_gen/r_drw2d_rx/src/tes/dave_edge.c ****       if(dy < 0)
 351:../src/smc_gen/r_drw2d_rx/src/tes/dave_edge.c ****       {
 352:../src/smc_gen/r_drw2d_rx/src/tes/dave_edge.c ****          /* dx -
 353:../src/smc_gen/r_drw2d_rx/src/tes/dave_edge.c ****           * dy - */
 354:../src/smc_gen/r_drw2d_rx/src/tes/dave_edge.c ****          px = (d2_point)(px + (d2_point) dx);
 355:../src/smc_gen/r_drw2d_rx/src/tes/dave_edge.c ****          py = (d2_point)(py + (d2_point) dy);
 356:../src/smc_gen/r_drw2d_rx/src/tes/dave_edge.c **** 
 357:../src/smc_gen/r_drw2d_rx/src/tes/dave_edge.c ****          if(dx > dy)
 358:../src/smc_gen/r_drw2d_rx/src/tes/dave_edge.c ****          {
 359:../src/smc_gen/r_drw2d_rx/src/tes/dave_edge.c ****             /* 3. octant */
 360:../src/smc_gen/r_drw2d_rx/src/tes/dave_edge.c ****             n = (dx << 16) / dy;                       /* PRQA S 4131 */ /* $Misra: #PERF_ARITHMETI
 361:../src/smc_gen/r_drw2d_rx/src/tes/dave_edge.c ****             s = ((py * n) >> 4) - (px << (16 - 4));    /* PRQA S 4131 */ /* $Misra: #PERF_ARITHMETI
 362:../src/smc_gen/r_drw2d_rx/src/tes/dave_edge.c ****             xa = D2_FIX16( 1 );                        /* PRQA S 4131 */ /* $Misra: #PERF_ARITHMETI
 363:../src/smc_gen/r_drw2d_rx/src/tes/dave_edge.c ****             ya = -n;
 364:../src/smc_gen/r_drw2d_rx/src/tes/dave_edge.c ****          }
 365:../src/smc_gen/r_drw2d_rx/src/tes/dave_edge.c ****          else
 366:../src/smc_gen/r_drw2d_rx/src/tes/dave_edge.c ****          {
 367:../src/smc_gen/r_drw2d_rx/src/tes/dave_edge.c ****             /* 4. octant */
 368:../src/smc_gen/r_drw2d_rx/src/tes/dave_edge.c ****             n = (dy << 16) / dx;                      /* PRQA S 4131 */ /* $Misra: #PERF_ARITHMETIC
 369:../src/smc_gen/r_drw2d_rx/src/tes/dave_edge.c ****             s = (py << (16 - 4)) - ((px * n) >> 4);   /* PRQA S 4131 */ /* $Misra: #PERF_ARITHMETIC
 370:../src/smc_gen/r_drw2d_rx/src/tes/dave_edge.c ****             xa = n;
 371:../src/smc_gen/r_drw2d_rx/src/tes/dave_edge.c ****             ya = D2_FIX16( -1 );                      /* PRQA S 4131 */ /* $Misra: #PERF_ARITHMETIC
 372:../src/smc_gen/r_drw2d_rx/src/tes/dave_edge.c ****          }
 373:../src/smc_gen/r_drw2d_rx/src/tes/dave_edge.c ****       }
 374:../src/smc_gen/r_drw2d_rx/src/tes/dave_edge.c ****       else
 375:../src/smc_gen/r_drw2d_rx/src/tes/dave_edge.c ****       {
 376:../src/smc_gen/r_drw2d_rx/src/tes/dave_edge.c ****          /* dx -
 377:../src/smc_gen/r_drw2d_rx/src/tes/dave_edge.c ****           * dy + */
 378:../src/smc_gen/r_drw2d_rx/src/tes/dave_edge.c ****          if(-dx > dy)
 379:../src/smc_gen/r_drw2d_rx/src/tes/dave_edge.c ****          {
 380:../src/smc_gen/r_drw2d_rx/src/tes/dave_edge.c ****             /* 5. octant */
 381:../src/smc_gen/r_drw2d_rx/src/tes/dave_edge.c ****             n = (dy << 16) / dx;                      /* PRQA S 4131 */ /* $Misra: #PERF_ARITHMETIC
 382:../src/smc_gen/r_drw2d_rx/src/tes/dave_edge.c ****             s = (py << (16 - 4)) - ((px * n) >> 4);   /* PRQA S 4131 */ /* $Misra: #PERF_ARITHMETIC
 383:../src/smc_gen/r_drw2d_rx/src/tes/dave_edge.c ****             xa = n;
 384:../src/smc_gen/r_drw2d_rx/src/tes/dave_edge.c ****             ya = D2_FIX16( -1 );                      /* PRQA S 4131 */ /* $Misra: #PERF_ARITHMETIC
 385:../src/smc_gen/r_drw2d_rx/src/tes/dave_edge.c ****          }
 386:../src/smc_gen/r_drw2d_rx/src/tes/dave_edge.c ****          else
 387:../src/smc_gen/r_drw2d_rx/src/tes/dave_edge.c ****          {
 388:../src/smc_gen/r_drw2d_rx/src/tes/dave_edge.c ****             /* 6. octant */
 389:../src/smc_gen/r_drw2d_rx/src/tes/dave_edge.c ****             n = (dx << 16) / dy;                      /* PRQA S 4131 */ /* $Misra: #PERF_ARITHMETIC
 390:../src/smc_gen/r_drw2d_rx/src/tes/dave_edge.c ****             s = (px << (16 - 4)) - ((py * n) >> 4);   /* PRQA S 4131 */ /* $Misra: #PERF_ARITHMETIC
 391:../src/smc_gen/r_drw2d_rx/src/tes/dave_edge.c ****             xa = D2_FIX16( -1 );                      /* PRQA S 4131 */ /* $Misra: #PERF_ARITHMETIC
 392:../src/smc_gen/r_drw2d_rx/src/tes/dave_edge.c ****             ya = n;
 393:../src/smc_gen/r_drw2d_rx/src/tes/dave_edge.c ****          }
 394:../src/smc_gen/r_drw2d_rx/src/tes/dave_edge.c ****       }
 395:../src/smc_gen/r_drw2d_rx/src/tes/dave_edge.c ****    }
 396:../src/smc_gen/r_drw2d_rx/src/tes/dave_edge.c ****    else
 397:../src/smc_gen/r_drw2d_rx/src/tes/dave_edge.c ****    {
 398:../src/smc_gen/r_drw2d_rx/src/tes/dave_edge.c ****       if(dy < 0)
 1070                             		.loc 1 398 7 is_stmt 1 view .LVU468
 1071                             		.loc 1 398 9 is_stmt 0 view .LVU469
 1072 0012 61 0F                   		cmp	#0, r15
 1073 0014 28 05 38 A8 00          		blt	.L52
 399:../src/smc_gen/r_drw2d_rx/src/tes/dave_edge.c ****       {
 400:../src/smc_gen/r_drw2d_rx/src/tes/dave_edge.c ****          /* dx +
 401:../src/smc_gen/r_drw2d_rx/src/tes/dave_edge.c ****           * dy - */
 402:../src/smc_gen/r_drw2d_rx/src/tes/dave_edge.c ****          px = (d2_point)(px + (d2_point) dx);
 403:../src/smc_gen/r_drw2d_rx/src/tes/dave_edge.c ****          py = (d2_point)(py + (d2_point) dy);
 404:../src/smc_gen/r_drw2d_rx/src/tes/dave_edge.c **** 
 405:../src/smc_gen/r_drw2d_rx/src/tes/dave_edge.c ****          if(dx > -dy)
 406:../src/smc_gen/r_drw2d_rx/src/tes/dave_edge.c ****          {
 407:../src/smc_gen/r_drw2d_rx/src/tes/dave_edge.c ****             /* 1. octant */
 408:../src/smc_gen/r_drw2d_rx/src/tes/dave_edge.c ****             n = (dy << 16) / dx;                     /* PRQA S 4131 */ /* $Misra: #PERF_ARITHMETIC_
 409:../src/smc_gen/r_drw2d_rx/src/tes/dave_edge.c ****             s = ((px * n) >> 4) - (py << (16 - 4));  /* PRQA S 4131 */ /* $Misra: #PERF_ARITHMETIC_
 410:../src/smc_gen/r_drw2d_rx/src/tes/dave_edge.c ****             xa = -n;
 411:../src/smc_gen/r_drw2d_rx/src/tes/dave_edge.c ****             ya = D2_FIX16( 1 );                      /* PRQA S 4131 */ /* $Misra: #PERF_ARITHMETIC_
 412:../src/smc_gen/r_drw2d_rx/src/tes/dave_edge.c ****          }
 413:../src/smc_gen/r_drw2d_rx/src/tes/dave_edge.c ****          else
 414:../src/smc_gen/r_drw2d_rx/src/tes/dave_edge.c ****          {
 415:../src/smc_gen/r_drw2d_rx/src/tes/dave_edge.c ****             /* 2. octant */
 416:../src/smc_gen/r_drw2d_rx/src/tes/dave_edge.c ****             n = (dx << 16) / dy;                     /* PRQA S 4131 */ /* $Misra: #PERF_ARITHMETIC_
 417:../src/smc_gen/r_drw2d_rx/src/tes/dave_edge.c ****             s = ((py * n) >> 4) - (px << (16 - 4));  /* PRQA S 4131 */ /* $Misra: #PERF_ARITHMETIC_
 418:../src/smc_gen/r_drw2d_rx/src/tes/dave_edge.c ****             xa = D2_FIX16( 1 );                      /* PRQA S 4131 */ /* $Misra: #PERF_ARITHMETIC_
 419:../src/smc_gen/r_drw2d_rx/src/tes/dave_edge.c ****             ya = -n;
 420:../src/smc_gen/r_drw2d_rx/src/tes/dave_edge.c ****          }
 421:../src/smc_gen/r_drw2d_rx/src/tes/dave_edge.c ****       }
 422:../src/smc_gen/r_drw2d_rx/src/tes/dave_edge.c ****       else
 423:../src/smc_gen/r_drw2d_rx/src/tes/dave_edge.c ****       {
 424:../src/smc_gen/r_drw2d_rx/src/tes/dave_edge.c ****          /* dx +
 425:../src/smc_gen/r_drw2d_rx/src/tes/dave_edge.c ****           * dy + */
 426:../src/smc_gen/r_drw2d_rx/src/tes/dave_edge.c ****          if(dx > dy)
 1074                             		.loc 1 426 10 is_stmt 1 view .LVU470
 1075                             		.loc 1 426 12 is_stmt 0 view .LVU471
 1076 0019 47 F4                   		cmp	r15, r4
 1077 001b 2A 05 38 E3 00          		ble	.L48
 427:../src/smc_gen/r_drw2d_rx/src/tes/dave_edge.c ****          {
 428:../src/smc_gen/r_drw2d_rx/src/tes/dave_edge.c ****             /* 8. octant */
 429:../src/smc_gen/r_drw2d_rx/src/tes/dave_edge.c ****             n = (dy << 16) / dx;                     /* PRQA S 4131 */ /* $Misra: #PERF_ARITHMETIC_
 1078                             		.loc 1 429 13 is_stmt 1 view .LVU472
 1079                             		.loc 1 429 21 is_stmt 0 view .LVU473
 1080 0020 6D 0F                   		shll	#16, r15
 1081                             		.loc 1 429 15 view .LVU474
 1082 0022 FC 23 4F                		div	r4, r15
 1083                             	.LVL125:
 430:../src/smc_gen/r_drw2d_rx/src/tes/dave_edge.c ****             s = ((px * n) >> 4) - (py << (16 - 4));  /* PRQA S 4131 */ /* $Misra: #PERF_ARITHMETIC_
 1084                             		.loc 1 430 13 is_stmt 1 view .LVU475
 1085                             		.loc 1 430 22 is_stmt 0 view .LVU476
 1086 0025 DF 25                   		mov.W	r2, r5
 1087 0027 4F F5                   		mul	r15, r5
 1088                             		.loc 1 430 27 view .LVU477
 1089 0029 6A 45                   		shar	#4, r5
 1090                             		.loc 1 430 39 view .LVU478
 1091 002b DF 33                   		mov.W	r3, r3
 1092                             		.loc 1 430 39 view .LVU479
 1093 002d 6C C3                   		shll	#12, r3
 1094                             	.LVL126:
 1095                             		.loc 1 430 15 view .LVU480
 1096 002f 43 35                   		sub	r3, r5
 1097                             	.LVL127:
 431:../src/smc_gen/r_drw2d_rx/src/tes/dave_edge.c ****             xa = -n;
 1098                             		.loc 1 431 13 is_stmt 1 view .LVU481
 1099                             		.loc 1 431 16 is_stmt 0 view .LVU482
 1100 0031 7E 1F                   		neg	r15
 1101                             	.LVL128:
 432:../src/smc_gen/r_drw2d_rx/src/tes/dave_edge.c ****             ya = D2_FIX16( 1 );                      /* PRQA S 4131 */ /* $Misra: #PERF_ARITHMETIC_
 1102                             		.loc 1 432 13 is_stmt 1 view .LVU483
 1103                             		.loc 1 432 16 is_stmt 0 view .LVU484
 1104 0033 FB 4E 00 00 01          		mov.L	#0x10000, r4
 1105                             	.LVL129:
 1106                             		.balign 8,3,1
 1107                             	.L44:
 433:../src/smc_gen/r_drw2d_rx/src/tes/dave_edge.c ****          }
 434:../src/smc_gen/r_drw2d_rx/src/tes/dave_edge.c ****          else
 435:../src/smc_gen/r_drw2d_rx/src/tes/dave_edge.c ****          {
 436:../src/smc_gen/r_drw2d_rx/src/tes/dave_edge.c ****             /* 7. octant */ 
 437:../src/smc_gen/r_drw2d_rx/src/tes/dave_edge.c ****             n = (dx << 16) / dy;                     /* PRQA S 4131 */ /* $Misra: #PERF_ARITHMETIC_
 438:../src/smc_gen/r_drw2d_rx/src/tes/dave_edge.c ****             s = (px << (16 - 4)) - ((py * n) >> 4);  /* PRQA S 4131 */ /* $Misra: #PERF_ARITHMETIC_
 439:../src/smc_gen/r_drw2d_rx/src/tes/dave_edge.c ****             xa = D2_FIX16( -1 );                     /* PRQA S 4131 */ /* $Misra: #PERF_ARITHMETIC_
 440:../src/smc_gen/r_drw2d_rx/src/tes/dave_edge.c ****             ya = n;
 441:../src/smc_gen/r_drw2d_rx/src/tes/dave_edge.c ****          }
 442:../src/smc_gen/r_drw2d_rx/src/tes/dave_edge.c ****       }
 443:../src/smc_gen/r_drw2d_rx/src/tes/dave_edge.c ****    }
 444:../src/smc_gen/r_drw2d_rx/src/tes/dave_edge.c **** 
 445:../src/smc_gen/r_drw2d_rx/src/tes/dave_edge.c ****    if(0 != rightedge)
 1108                             		.loc 1 445 4 is_stmt 1 view .LVU485
 1109                             		.loc 1 445 6 is_stmt 0 view .LVU486
 1110 0038 61 0E                   		cmp	#0, r14
 1111 003a 13                      		beq	.L49
 446:../src/smc_gen/r_drw2d_rx/src/tes/dave_edge.c ****    {
 447:../src/smc_gen/r_drw2d_rx/src/tes/dave_edge.c ****       s += D2_EPSILON;
 1112                             		.loc 1 447 7 is_stmt 1 view .LVU487
 1113                             		.loc 1 447 9 is_stmt 0 view .LVU488
 1114 003b 62 15                   		add	#1, r5
 1115                             	.LVL130:
 1116                             	.L49:
 448:../src/smc_gen/r_drw2d_rx/src/tes/dave_edge.c ****    }
 449:../src/smc_gen/r_drw2d_rx/src/tes/dave_edge.c **** 
 450:../src/smc_gen/r_drw2d_rx/src/tes/dave_edge.c ****    lim->start = s;
 1117                             		.loc 1 450 4 is_stmt 1 view .LVU489
 1118                             		.loc 1 450 15 is_stmt 0 view .LVU490
 1119 003d E3 15                   		mov.L	r5, [r1]
 451:../src/smc_gen/r_drw2d_rx/src/tes/dave_edge.c ****    lim->xadd  = xa;
 1120                             		.loc 1 451 4 is_stmt 1 view .LVU491
 1121                             		.loc 1 451 15 is_stmt 0 view .LVU492
 1122 003f E7 1F 01                		mov.L	r15, 4[r1]
 452:../src/smc_gen/r_drw2d_rx/src/tes/dave_edge.c ****    lim->yadd  = ya;
 1123                             		.loc 1 452 4 is_stmt 1 view .LVU493
 1124                             		.loc 1 452 15 is_stmt 0 view .LVU494
 1125 0042 A0 94                   		mov.L	r4, 8[r1]
 453:../src/smc_gen/r_drw2d_rx/src/tes/dave_edge.c **** }
 1126                             		.loc 1 453 1 view .LVU495
 1127 0044 3F 77 03                		rtsd	#12, r7-r7
 1128                             	.LVL131:
 1129                             	.L51:
 350:../src/smc_gen/r_drw2d_rx/src/tes/dave_edge.c ****       {
 1130                             		.loc 1 350 7 is_stmt 1 view .LVU496
 350:../src/smc_gen/r_drw2d_rx/src/tes/dave_edge.c ****       {
 1131                             		.loc 1 350 9 is_stmt 0 view .LVU497
 1132 0047 61 0F                   		cmp	#0, r15
 1133 0049 29 22                   		blt	.L53
 378:../src/smc_gen/r_drw2d_rx/src/tes/dave_edge.c ****          {
 1134                             		.loc 1 378 10 is_stmt 1 view .LVU498
 378:../src/smc_gen/r_drw2d_rx/src/tes/dave_edge.c ****          {
 1135                             		.loc 1 378 13 is_stmt 0 view .LVU499
 1136 004b FC 07 47                		neg	r4, r7
 378:../src/smc_gen/r_drw2d_rx/src/tes/dave_edge.c ****          {
 1137                             		.loc 1 378 12 view .LVU500
 1138 004e 47 F7                   		cmp	r15, r7
 1139 0050 2B 55                   		ble	.L45
 381:../src/smc_gen/r_drw2d_rx/src/tes/dave_edge.c ****             s = (py << (16 - 4)) - ((px * n) >> 4);   /* PRQA S 4131 */ /* $Misra: #PERF_ARITHMETIC
 1140                             		.loc 1 381 13 is_stmt 1 view .LVU501
 381:../src/smc_gen/r_drw2d_rx/src/tes/dave_edge.c ****             s = (py << (16 - 4)) - ((px * n) >> 4);   /* PRQA S 4131 */ /* $Misra: #PERF_ARITHMETIC
 1141                             		.loc 1 381 21 is_stmt 0 view .LVU502
 1142 0052 6D 0F                   		shll	#16, r15
 381:../src/smc_gen/r_drw2d_rx/src/tes/dave_edge.c ****             s = (py << (16 - 4)) - ((px * n) >> 4);   /* PRQA S 4131 */ /* $Misra: #PERF_ARITHMETIC
 1143                             		.loc 1 381 15 view .LVU503
 1144 0054 FC 23 4F                		div	r4, r15
 1145                             	.LVL132:
 382:../src/smc_gen/r_drw2d_rx/src/tes/dave_edge.c ****             xa = n;
 1146                             		.loc 1 382 13 is_stmt 1 view .LVU504
 382:../src/smc_gen/r_drw2d_rx/src/tes/dave_edge.c ****             xa = n;
 1147                             		.loc 1 382 21 is_stmt 0 view .LVU505
 1148 0057 DF 33                   		mov.W	r3, r3
 382:../src/smc_gen/r_drw2d_rx/src/tes/dave_edge.c ****             xa = n;
 1149                             		.loc 1 382 21 view .LVU506
 1150 0059 6C C3                   		shll	#12, r3
 1151                             	.LVL133:
 382:../src/smc_gen/r_drw2d_rx/src/tes/dave_edge.c ****             xa = n;
 1152                             		.loc 1 382 41 view .LVU507
 1153 005b DF 25                   		mov.W	r2, r5
 1154 005d 4F F5                   		mul	r15, r5
 382:../src/smc_gen/r_drw2d_rx/src/tes/dave_edge.c ****             xa = n;
 1155                             		.loc 1 382 46 view .LVU508
 1156 005f 6A 45                   		shar	#4, r5
 382:../src/smc_gen/r_drw2d_rx/src/tes/dave_edge.c ****             xa = n;
 1157                             		.loc 1 382 15 view .LVU509
 1158 0061 FF 05 53                		sub	r5, r3, r5
 1159                             	.LVL134:
 383:../src/smc_gen/r_drw2d_rx/src/tes/dave_edge.c ****             ya = D2_FIX16( -1 );                      /* PRQA S 4131 */ /* $Misra: #PERF_ARITHMETIC
 1160                             		.loc 1 383 13 is_stmt 1 view .LVU510
 384:../src/smc_gen/r_drw2d_rx/src/tes/dave_edge.c ****          }
 1161                             		.loc 1 384 13 view .LVU511
 384:../src/smc_gen/r_drw2d_rx/src/tes/dave_edge.c ****          }
 1162                             		.loc 1 384 16 is_stmt 0 view .LVU512
 1163 0064 FB 4E 00 00 FF          		mov.L	#-65536, r4
 1164                             	.LVL135:
 384:../src/smc_gen/r_drw2d_rx/src/tes/dave_edge.c ****          }
 1165                             		.loc 1 384 16 view .LVU513
 1166 0069 2E CF                   		bra	.L44
 1167                             	.LVL136:
 1168                             	.L53:
 354:../src/smc_gen/r_drw2d_rx/src/tes/dave_edge.c ****          py = (d2_point)(py + (d2_point) dy);
 1169                             		.loc 1 354 10 is_stmt 1 view .LVU514
 354:../src/smc_gen/r_drw2d_rx/src/tes/dave_edge.c ****          py = (d2_point)(py + (d2_point) dy);
 1170                             		.loc 1 354 29 is_stmt 0 view .LVU515
 1171 006b 4B 42                   		add	r4, r2
 1172                             	.LVL137:
 355:../src/smc_gen/r_drw2d_rx/src/tes/dave_edge.c **** 
 1173                             		.loc 1 355 10 is_stmt 1 view .LVU516
 355:../src/smc_gen/r_drw2d_rx/src/tes/dave_edge.c **** 
 1174                             		.loc 1 355 29 is_stmt 0 view .LVU517
 1175 006d 4B F3                   		add	r15, r3
 1176                             	.LVL138:
 357:../src/smc_gen/r_drw2d_rx/src/tes/dave_edge.c ****          {
 1177                             		.loc 1 357 10 is_stmt 1 view .LVU518
 357:../src/smc_gen/r_drw2d_rx/src/tes/dave_edge.c ****          {
 1178                             		.loc 1 357 12 is_stmt 0 view .LVU519
 1179 006f 47 F4                   		cmp	r15, r4
 1180 0071 2B 1C                   		ble	.L43
 360:../src/smc_gen/r_drw2d_rx/src/tes/dave_edge.c ****             s = ((py * n) >> 4) - (px << (16 - 4));    /* PRQA S 4131 */ /* $Misra: #PERF_ARITHMETI
 1181                             		.loc 1 360 13 is_stmt 1 view .LVU520
 360:../src/smc_gen/r_drw2d_rx/src/tes/dave_edge.c ****             s = ((py * n) >> 4) - (px << (16 - 4));    /* PRQA S 4131 */ /* $Misra: #PERF_ARITHMETI
 1182                             		.loc 1 360 21 is_stmt 0 view .LVU521
 1183 0073 6D 04                   		shll	#16, r4
 1184                             	.LVL139:
 360:../src/smc_gen/r_drw2d_rx/src/tes/dave_edge.c ****             s = ((py * n) >> 4) - (px << (16 - 4));    /* PRQA S 4131 */ /* $Misra: #PERF_ARITHMETI
 1185                             		.loc 1 360 15 view .LVU522
 1186 0075 FC 23 F4                		div	r15, r4
 1187                             	.LVL140:
 361:../src/smc_gen/r_drw2d_rx/src/tes/dave_edge.c ****             xa = D2_FIX16( 1 );                        /* PRQA S 4131 */ /* $Misra: #PERF_ARITHMETI
 1188                             		.loc 1 361 13 is_stmt 1 view .LVU523
 361:../src/smc_gen/r_drw2d_rx/src/tes/dave_edge.c ****             xa = D2_FIX16( 1 );                        /* PRQA S 4131 */ /* $Misra: #PERF_ARITHMETI
 1189                             		.loc 1 361 22 is_stmt 0 view .LVU524
 1190 0078 DF 35                   		mov.W	r3, r5
 1191 007a 4F 45                   		mul	r4, r5
 361:../src/smc_gen/r_drw2d_rx/src/tes/dave_edge.c ****             xa = D2_FIX16( 1 );                        /* PRQA S 4131 */ /* $Misra: #PERF_ARITHMETI
 1192                             		.loc 1 361 27 view .LVU525
 1193 007c 6A 45                   		shar	#4, r5
 361:../src/smc_gen/r_drw2d_rx/src/tes/dave_edge.c ****             xa = D2_FIX16( 1 );                        /* PRQA S 4131 */ /* $Misra: #PERF_ARITHMETI
 1194                             		.loc 1 361 39 view .LVU526
 1195 007e DF 22                   		mov.W	r2, r2
 1196                             	.LVL141:
 361:../src/smc_gen/r_drw2d_rx/src/tes/dave_edge.c ****             xa = D2_FIX16( 1 );                        /* PRQA S 4131 */ /* $Misra: #PERF_ARITHMETI
 1197                             		.loc 1 361 39 view .LVU527
 1198 0080 6C C2                   		shll	#12, r2
 361:../src/smc_gen/r_drw2d_rx/src/tes/dave_edge.c ****             xa = D2_FIX16( 1 );                        /* PRQA S 4131 */ /* $Misra: #PERF_ARITHMETI
 1199                             		.loc 1 361 15 view .LVU528
 1200 0082 43 25                   		sub	r2, r5
 1201                             	.LVL142:
 362:../src/smc_gen/r_drw2d_rx/src/tes/dave_edge.c ****             ya = -n;
 1202                             		.loc 1 362 13 is_stmt 1 view .LVU529
 363:../src/smc_gen/r_drw2d_rx/src/tes/dave_edge.c ****          }
 1203                             		.loc 1 363 13 view .LVU530
 363:../src/smc_gen/r_drw2d_rx/src/tes/dave_edge.c ****          }
 1204                             		.loc 1 363 16 is_stmt 0 view .LVU531
 1205 0084 7E 14                   		neg	r4
 1206                             	.LVL143:
 362:../src/smc_gen/r_drw2d_rx/src/tes/dave_edge.c ****             ya = -n;
 1207                             		.loc 1 362 16 view .LVU532
 1208 0086 FB FE 00 00 01          		mov.L	#0x10000, r15
 1209 008b 2E AD                   		bra	.L44
 1210                             	.LVL144:
 1211                             	.L43:
 368:../src/smc_gen/r_drw2d_rx/src/tes/dave_edge.c ****             s = (py << (16 - 4)) - ((px * n) >> 4);   /* PRQA S 4131 */ /* $Misra: #PERF_ARITHMETIC
 1212                             		.loc 1 368 13 is_stmt 1 view .LVU533
 368:../src/smc_gen/r_drw2d_rx/src/tes/dave_edge.c ****             s = (py << (16 - 4)) - ((px * n) >> 4);   /* PRQA S 4131 */ /* $Misra: #PERF_ARITHMETIC
 1213                             		.loc 1 368 21 is_stmt 0 view .LVU534
 1214 008d 6D 0F                   		shll	#16, r15
 368:../src/smc_gen/r_drw2d_rx/src/tes/dave_edge.c ****             s = (py << (16 - 4)) - ((px * n) >> 4);   /* PRQA S 4131 */ /* $Misra: #PERF_ARITHMETIC
 1215                             		.loc 1 368 15 view .LVU535
 1216 008f FC 23 4F                		div	r4, r15
 1217                             	.LVL145:
 369:../src/smc_gen/r_drw2d_rx/src/tes/dave_edge.c ****             xa = n;
 1218                             		.loc 1 369 13 is_stmt 1 view .LVU536
 369:../src/smc_gen/r_drw2d_rx/src/tes/dave_edge.c ****             xa = n;
 1219                             		.loc 1 369 21 is_stmt 0 view .LVU537
 1220 0092 DF 35                   		mov.W	r3, r5
 1221 0094 6C C5                   		shll	#12, r5
 369:../src/smc_gen/r_drw2d_rx/src/tes/dave_edge.c ****             xa = n;
 1222                             		.loc 1 369 41 view .LVU538
 1223 0096 DF 22                   		mov.W	r2, r2
 1224                             	.LVL146:
 369:../src/smc_gen/r_drw2d_rx/src/tes/dave_edge.c ****             xa = n;
 1225                             		.loc 1 369 41 view .LVU539
 1226 0098 4F F2                   		mul	r15, r2
 369:../src/smc_gen/r_drw2d_rx/src/tes/dave_edge.c ****             xa = n;
 1227                             		.loc 1 369 46 view .LVU540
 1228 009a 6A 42                   		shar	#4, r2
 369:../src/smc_gen/r_drw2d_rx/src/tes/dave_edge.c ****             xa = n;
 1229                             		.loc 1 369 15 view .LVU541
 1230 009c 43 25                   		sub	r2, r5
 1231                             	.LVL147:
 370:../src/smc_gen/r_drw2d_rx/src/tes/dave_edge.c ****             ya = D2_FIX16( -1 );                      /* PRQA S 4131 */ /* $Misra: #PERF_ARITHMETIC
 1232                             		.loc 1 370 13 is_stmt 1 view .LVU542
 371:../src/smc_gen/r_drw2d_rx/src/tes/dave_edge.c ****          }
 1233                             		.loc 1 371 13 view .LVU543
 371:../src/smc_gen/r_drw2d_rx/src/tes/dave_edge.c ****          }
 1234                             		.loc 1 371 16 is_stmt 0 view .LVU544
 1235 009e FB 4E 00 00 FF          		mov.L	#-65536, r4
 1236                             	.LVL148:
 371:../src/smc_gen/r_drw2d_rx/src/tes/dave_edge.c ****          }
 1237                             		.loc 1 371 16 view .LVU545
 1238 00a3 2E 95                   		bra	.L44
 1239                             	.LVL149:
 1240                             	.L45:
 389:../src/smc_gen/r_drw2d_rx/src/tes/dave_edge.c ****             s = (px << (16 - 4)) - ((py * n) >> 4);   /* PRQA S 4131 */ /* $Misra: #PERF_ARITHMETIC
 1241                             		.loc 1 389 13 is_stmt 1 view .LVU546
 389:../src/smc_gen/r_drw2d_rx/src/tes/dave_edge.c ****             s = (px << (16 - 4)) - ((py * n) >> 4);   /* PRQA S 4131 */ /* $Misra: #PERF_ARITHMETIC
 1242                             		.loc 1 389 21 is_stmt 0 view .LVU547
 1243 00a5 6D 04                   		shll	#16, r4
 1244                             	.LVL150:
 389:../src/smc_gen/r_drw2d_rx/src/tes/dave_edge.c ****             s = (px << (16 - 4)) - ((py * n) >> 4);   /* PRQA S 4131 */ /* $Misra: #PERF_ARITHMETIC
 1245                             		.loc 1 389 15 view .LVU548
 1246 00a7 FC 23 F4                		div	r15, r4
 1247                             	.LVL151:
 390:../src/smc_gen/r_drw2d_rx/src/tes/dave_edge.c ****             xa = D2_FIX16( -1 );                      /* PRQA S 4131 */ /* $Misra: #PERF_ARITHMETIC
 1248                             		.loc 1 390 13 is_stmt 1 view .LVU549
 390:../src/smc_gen/r_drw2d_rx/src/tes/dave_edge.c ****             xa = D2_FIX16( -1 );                      /* PRQA S 4131 */ /* $Misra: #PERF_ARITHMETIC
 1249                             		.loc 1 390 21 is_stmt 0 view .LVU550
 1250 00aa DF 25                   		mov.W	r2, r5
 1251 00ac 6C C5                   		shll	#12, r5
 390:../src/smc_gen/r_drw2d_rx/src/tes/dave_edge.c ****             xa = D2_FIX16( -1 );                      /* PRQA S 4131 */ /* $Misra: #PERF_ARITHMETIC
 1252                             		.loc 1 390 41 view .LVU551
 1253 00ae DF 33                   		mov.W	r3, r3
 390:../src/smc_gen/r_drw2d_rx/src/tes/dave_edge.c ****             xa = D2_FIX16( -1 );                      /* PRQA S 4131 */ /* $Misra: #PERF_ARITHMETIC
 1254                             		.loc 1 390 41 view .LVU552
 1255 00b0 4F 43                   		mul	r4, r3
 1256                             	.LVL152:
 390:../src/smc_gen/r_drw2d_rx/src/tes/dave_edge.c ****             xa = D2_FIX16( -1 );                      /* PRQA S 4131 */ /* $Misra: #PERF_ARITHMETIC
 1257                             		.loc 1 390 46 view .LVU553
 1258 00b2 6A 43                   		shar	#4, r3
 390:../src/smc_gen/r_drw2d_rx/src/tes/dave_edge.c ****             xa = D2_FIX16( -1 );                      /* PRQA S 4131 */ /* $Misra: #PERF_ARITHMETIC
 1259                             		.loc 1 390 15 view .LVU554
 1260 00b4 43 35                   		sub	r3, r5
 1261                             	.LVL153:
 391:../src/smc_gen/r_drw2d_rx/src/tes/dave_edge.c ****             ya = n;
 1262                             		.loc 1 391 13 is_stmt 1 view .LVU555
 392:../src/smc_gen/r_drw2d_rx/src/tes/dave_edge.c ****          }
 1263                             		.loc 1 392 13 view .LVU556
 391:../src/smc_gen/r_drw2d_rx/src/tes/dave_edge.c ****             ya = n;
 1264                             		.loc 1 391 16 is_stmt 0 view .LVU557
 1265 00b6 FB FE 00 00 FF          		mov.L	#-65536, r15
 1266 00bb 38 7D FF                		bra	.L44
 1267                             	.LVL154:
 1268                             	.L52:
 402:../src/smc_gen/r_drw2d_rx/src/tes/dave_edge.c ****          py = (d2_point)(py + (d2_point) dy);
 1269                             		.loc 1 402 10 is_stmt 1 view .LVU558
 402:../src/smc_gen/r_drw2d_rx/src/tes/dave_edge.c ****          py = (d2_point)(py + (d2_point) dy);
 1270                             		.loc 1 402 29 is_stmt 0 view .LVU559
 1271 00be 4B 42                   		add	r4, r2
 1272                             	.LVL155:
 403:../src/smc_gen/r_drw2d_rx/src/tes/dave_edge.c **** 
 1273                             		.loc 1 403 10 is_stmt 1 view .LVU560
 403:../src/smc_gen/r_drw2d_rx/src/tes/dave_edge.c **** 
 1274                             		.loc 1 403 29 is_stmt 0 view .LVU561
 1275 00c0 4B F3                   		add	r15, r3
 1276                             	.LVL156:
 405:../src/smc_gen/r_drw2d_rx/src/tes/dave_edge.c ****          {
 1277                             		.loc 1 405 10 is_stmt 1 view .LVU562
 405:../src/smc_gen/r_drw2d_rx/src/tes/dave_edge.c ****          {
 1278                             		.loc 1 405 18 is_stmt 0 view .LVU563
 1279 00c2 FC 07 F7                		neg	r15, r7
 405:../src/smc_gen/r_drw2d_rx/src/tes/dave_edge.c ****          {
 1280                             		.loc 1 405 12 view .LVU564
 1281 00c5 47 47                   		cmp	r4, r7
 1282 00c7 28 1E                   		bge	.L47
 408:../src/smc_gen/r_drw2d_rx/src/tes/dave_edge.c ****             s = ((px * n) >> 4) - (py << (16 - 4));  /* PRQA S 4131 */ /* $Misra: #PERF_ARITHMETIC_
 1283                             		.loc 1 408 13 is_stmt 1 view .LVU565
 408:../src/smc_gen/r_drw2d_rx/src/tes/dave_edge.c ****             s = ((px * n) >> 4) - (py << (16 - 4));  /* PRQA S 4131 */ /* $Misra: #PERF_ARITHMETIC_
 1284                             		.loc 1 408 21 is_stmt 0 view .LVU566
 1285 00c9 6D 0F                   		shll	#16, r15
 408:../src/smc_gen/r_drw2d_rx/src/tes/dave_edge.c ****             s = ((px * n) >> 4) - (py << (16 - 4));  /* PRQA S 4131 */ /* $Misra: #PERF_ARITHMETIC_
 1286                             		.loc 1 408 15 view .LVU567
 1287 00cb FC 23 4F                		div	r4, r15
 1288                             	.LVL157:
 409:../src/smc_gen/r_drw2d_rx/src/tes/dave_edge.c ****             xa = -n;
 1289                             		.loc 1 409 13 is_stmt 1 view .LVU568
 409:../src/smc_gen/r_drw2d_rx/src/tes/dave_edge.c ****             xa = -n;
 1290                             		.loc 1 409 22 is_stmt 0 view .LVU569
 1291 00ce DF 22                   		mov.W	r2, r2
 1292                             	.LVL158:
 409:../src/smc_gen/r_drw2d_rx/src/tes/dave_edge.c ****             xa = -n;
 1293                             		.loc 1 409 22 view .LVU570
 1294 00d0 4F F2                   		mul	r15, r2
 409:../src/smc_gen/r_drw2d_rx/src/tes/dave_edge.c ****             xa = -n;
 1295                             		.loc 1 409 27 view .LVU571
 1296 00d2 6A 42                   		shar	#4, r2
 409:../src/smc_gen/r_drw2d_rx/src/tes/dave_edge.c ****             xa = -n;
 1297                             		.loc 1 409 39 view .LVU572
 1298 00d4 DF 35                   		mov.W	r3, r5
 1299 00d6 6C C5                   		shll	#12, r5
 409:../src/smc_gen/r_drw2d_rx/src/tes/dave_edge.c ****             xa = -n;
 1300                             		.loc 1 409 15 view .LVU573
 1301 00d8 FF 05 52                		sub	r5, r2, r5
 1302                             	.LVL159:
 410:../src/smc_gen/r_drw2d_rx/src/tes/dave_edge.c ****             ya = D2_FIX16( 1 );                      /* PRQA S 4131 */ /* $Misra: #PERF_ARITHMETIC_
 1303                             		.loc 1 410 13 is_stmt 1 view .LVU574
 410:../src/smc_gen/r_drw2d_rx/src/tes/dave_edge.c ****             ya = D2_FIX16( 1 );                      /* PRQA S 4131 */ /* $Misra: #PERF_ARITHMETIC_
 1304                             		.loc 1 410 16 is_stmt 0 view .LVU575
 1305 00db 7E 1F                   		neg	r15
 1306                             	.LVL160:
 411:../src/smc_gen/r_drw2d_rx/src/tes/dave_edge.c ****          }
 1307                             		.loc 1 411 13 is_stmt 1 view .LVU576
 411:../src/smc_gen/r_drw2d_rx/src/tes/dave_edge.c ****          }
 1308                             		.loc 1 411 16 is_stmt 0 view .LVU577
 1309 00dd FB 4E 00 00 01          		mov.L	#0x10000, r4
 1310                             	.LVL161:
 411:../src/smc_gen/r_drw2d_rx/src/tes/dave_edge.c ****          }
 1311                             		.loc 1 411 16 view .LVU578
 1312 00e2 38 56 FF                		bra	.L44
 1313                             	.LVL162:
 1314                             	.L47:
 416:../src/smc_gen/r_drw2d_rx/src/tes/dave_edge.c ****             s = ((py * n) >> 4) - (px << (16 - 4));  /* PRQA S 4131 */ /* $Misra: #PERF_ARITHMETIC_
 1315                             		.loc 1 416 13 is_stmt 1 view .LVU579
 416:../src/smc_gen/r_drw2d_rx/src/tes/dave_edge.c ****             s = ((py * n) >> 4) - (px << (16 - 4));  /* PRQA S 4131 */ /* $Misra: #PERF_ARITHMETIC_
 1316                             		.loc 1 416 21 is_stmt 0 view .LVU580
 1317 00e5 6D 04                   		shll	#16, r4
 1318                             	.LVL163:
 416:../src/smc_gen/r_drw2d_rx/src/tes/dave_edge.c ****             s = ((py * n) >> 4) - (px << (16 - 4));  /* PRQA S 4131 */ /* $Misra: #PERF_ARITHMETIC_
 1319                             		.loc 1 416 15 view .LVU581
 1320 00e7 FC 23 F4                		div	r15, r4
 1321                             	.LVL164:
 417:../src/smc_gen/r_drw2d_rx/src/tes/dave_edge.c ****             xa = D2_FIX16( 1 );                      /* PRQA S 4131 */ /* $Misra: #PERF_ARITHMETIC_
 1322                             		.loc 1 417 13 is_stmt 1 view .LVU582
 417:../src/smc_gen/r_drw2d_rx/src/tes/dave_edge.c ****             xa = D2_FIX16( 1 );                      /* PRQA S 4131 */ /* $Misra: #PERF_ARITHMETIC_
 1323                             		.loc 1 417 22 is_stmt 0 view .LVU583
 1324 00ea DF 35                   		mov.W	r3, r5
 1325 00ec 4F 45                   		mul	r4, r5
 417:../src/smc_gen/r_drw2d_rx/src/tes/dave_edge.c ****             xa = D2_FIX16( 1 );                      /* PRQA S 4131 */ /* $Misra: #PERF_ARITHMETIC_
 1326                             		.loc 1 417 27 view .LVU584
 1327 00ee 6A 45                   		shar	#4, r5
 417:../src/smc_gen/r_drw2d_rx/src/tes/dave_edge.c ****             xa = D2_FIX16( 1 );                      /* PRQA S 4131 */ /* $Misra: #PERF_ARITHMETIC_
 1328                             		.loc 1 417 39 view .LVU585
 1329 00f0 DF 22                   		mov.W	r2, r2
 1330                             	.LVL165:
 417:../src/smc_gen/r_drw2d_rx/src/tes/dave_edge.c ****             xa = D2_FIX16( 1 );                      /* PRQA S 4131 */ /* $Misra: #PERF_ARITHMETIC_
 1331                             		.loc 1 417 39 view .LVU586
 1332 00f2 6C C2                   		shll	#12, r2
 417:../src/smc_gen/r_drw2d_rx/src/tes/dave_edge.c ****             xa = D2_FIX16( 1 );                      /* PRQA S 4131 */ /* $Misra: #PERF_ARITHMETIC_
 1333                             		.loc 1 417 15 view .LVU587
 1334 00f4 43 25                   		sub	r2, r5
 1335                             	.LVL166:
 418:../src/smc_gen/r_drw2d_rx/src/tes/dave_edge.c ****             ya = -n;
 1336                             		.loc 1 418 13 is_stmt 1 view .LVU588
 419:../src/smc_gen/r_drw2d_rx/src/tes/dave_edge.c ****          }
 1337                             		.loc 1 419 13 view .LVU589
 419:../src/smc_gen/r_drw2d_rx/src/tes/dave_edge.c ****          }
 1338                             		.loc 1 419 16 is_stmt 0 view .LVU590
 1339 00f6 7E 14                   		neg	r4
 1340                             	.LVL167:
 418:../src/smc_gen/r_drw2d_rx/src/tes/dave_edge.c ****             ya = -n;
 1341                             		.loc 1 418 16 view .LVU591
 1342 00f8 FB FE 00 00 01          		mov.L	#0x10000, r15
 1343 00fd 38 3B FF                		bra	.L44
 1344                             	.LVL168:
 1345                             	.L48:
 437:../src/smc_gen/r_drw2d_rx/src/tes/dave_edge.c ****             s = (px << (16 - 4)) - ((py * n) >> 4);  /* PRQA S 4131 */ /* $Misra: #PERF_ARITHMETIC_
 1346                             		.loc 1 437 13 is_stmt 1 view .LVU592
 437:../src/smc_gen/r_drw2d_rx/src/tes/dave_edge.c ****             s = (px << (16 - 4)) - ((py * n) >> 4);  /* PRQA S 4131 */ /* $Misra: #PERF_ARITHMETIC_
 1347                             		.loc 1 437 21 is_stmt 0 view .LVU593
 1348 0100 6D 04                   		shll	#16, r4
 1349                             	.LVL169:
 437:../src/smc_gen/r_drw2d_rx/src/tes/dave_edge.c ****             s = (px << (16 - 4)) - ((py * n) >> 4);  /* PRQA S 4131 */ /* $Misra: #PERF_ARITHMETIC_
 1350                             		.loc 1 437 15 view .LVU594
 1351 0102 FC 23 F4                		div	r15, r4
 1352                             	.LVL170:
 438:../src/smc_gen/r_drw2d_rx/src/tes/dave_edge.c ****             xa = D2_FIX16( -1 );                     /* PRQA S 4131 */ /* $Misra: #PERF_ARITHMETIC_
 1353                             		.loc 1 438 13 is_stmt 1 view .LVU595
 438:../src/smc_gen/r_drw2d_rx/src/tes/dave_edge.c ****             xa = D2_FIX16( -1 );                     /* PRQA S 4131 */ /* $Misra: #PERF_ARITHMETIC_
 1354                             		.loc 1 438 21 is_stmt 0 view .LVU596
 1355 0105 DF 25                   		mov.W	r2, r5
 1356 0107 6C C5                   		shll	#12, r5
 438:../src/smc_gen/r_drw2d_rx/src/tes/dave_edge.c ****             xa = D2_FIX16( -1 );                     /* PRQA S 4131 */ /* $Misra: #PERF_ARITHMETIC_
 1357                             		.loc 1 438 41 view .LVU597
 1358 0109 DF 33                   		mov.W	r3, r3
 438:../src/smc_gen/r_drw2d_rx/src/tes/dave_edge.c ****             xa = D2_FIX16( -1 );                     /* PRQA S 4131 */ /* $Misra: #PERF_ARITHMETIC_
 1359                             		.loc 1 438 41 view .LVU598
 1360 010b 4F 43                   		mul	r4, r3
 1361                             	.LVL171:
 438:../src/smc_gen/r_drw2d_rx/src/tes/dave_edge.c ****             xa = D2_FIX16( -1 );                     /* PRQA S 4131 */ /* $Misra: #PERF_ARITHMETIC_
 1362                             		.loc 1 438 46 view .LVU599
 1363 010d 6A 43                   		shar	#4, r3
 438:../src/smc_gen/r_drw2d_rx/src/tes/dave_edge.c ****             xa = D2_FIX16( -1 );                     /* PRQA S 4131 */ /* $Misra: #PERF_ARITHMETIC_
 1364                             		.loc 1 438 15 view .LVU600
 1365 010f 43 35                   		sub	r3, r5
 1366                             	.LVL172:
 439:../src/smc_gen/r_drw2d_rx/src/tes/dave_edge.c ****             ya = n;
 1367                             		.loc 1 439 13 is_stmt 1 view .LVU601
 440:../src/smc_gen/r_drw2d_rx/src/tes/dave_edge.c ****          }
 1368                             		.loc 1 440 13 view .LVU602
 439:../src/smc_gen/r_drw2d_rx/src/tes/dave_edge.c ****             ya = n;
 1369                             		.loc 1 439 16 is_stmt 0 view .LVU603
 1370 0111 FB FE 00 00 FF          		mov.L	#-65536, r15
 1371 0116 38 22 FF                		bra	.L44
 1372                             	.LFE9:
 1374 0119 FD 70 40 00 00 00 80    		.section	.text.d2_triedge_setupblur_intern,"ax",@progbits
 1375                             		.global	_d2_triedge_setupblur_intern
 1377                             	_d2_triedge_setupblur_intern:
 1378                             	.LVL173:
 1379                             	.LFB10:
 454:../src/smc_gen/r_drw2d_rx/src/tes/dave_edge.c **** 
 455:../src/smc_gen/r_drw2d_rx/src/tes/dave_edge.c **** /*--------------------------------------------------------------------------
 456:../src/smc_gen/r_drw2d_rx/src/tes/dave_edge.c ****  * note should use sqrtsetup when bluring long distance
 457:../src/smc_gen/r_drw2d_rx/src/tes/dave_edge.c ****  * edge deltas may not both be zero.
 458:../src/smc_gen/r_drw2d_rx/src/tes/dave_edge.c ****  * */
 459:../src/smc_gen/r_drw2d_rx/src/tes/dave_edge.c **** void d2_triedge_setupblur_intern( d2_limdata *lim, d2_point px, d2_point py, d2_s32 dx, d2_s32 dy, 
 460:../src/smc_gen/r_drw2d_rx/src/tes/dave_edge.c **** {
 1380                             		.loc 1 460 1 is_stmt 1 view -0
 1381                             		.loc 1 460 1 is_stmt 0 view .LVU605
 1382 0000 6E 6D                   		pushm	r6-r13
 1383                             	.LCFI8:
 1384                             		.loc 1 460 1 view .LVU606
 1385 0002 60 80                   		sub	#8, r0
 1386                             	.LCFI9:
 1387 0004 75 47 2C                		mov.L	#44, r7
 1388 0007 4B 07                   		add	r0, r7
 1389 0009 EC 7E                   		mov.L	[r7], r14
 1390 000b A8 7F                   		mov.L	4[r7], r7
 461:../src/smc_gen/r_drw2d_rx/src/tes/dave_edge.c ****    d2_int64 n;
 1391                             		.loc 1 461 4 is_stmt 1 view .LVU607
 462:../src/smc_gen/r_drw2d_rx/src/tes/dave_edge.c ****    d2_int64 tmp;
 1392                             		.loc 1 462 4 view .LVU608
 463:../src/smc_gen/r_drw2d_rx/src/tes/dave_edge.c ****    d2_s32 s,xa,ya;
 1393                             		.loc 1 463 4 view .LVU609
 464:../src/smc_gen/r_drw2d_rx/src/tes/dave_edge.c ****    d2_s32 invBlur;
 1394                             		.loc 1 464 4 view .LVU610
 465:../src/smc_gen/r_drw2d_rx/src/tes/dave_edge.c **** 
 466:../src/smc_gen/r_drw2d_rx/src/tes/dave_edge.c ****    /* reduce bitsize */
 467:../src/smc_gen/r_drw2d_rx/src/tes/dave_edge.c ****    invBlur = (d2_s32)ctx->invblur;
 1395                             		.loc 1 467 4 view .LVU611
 1396                             		.loc 1 467 25 is_stmt 0 view .LVU612
 1397 000d ED 7F 44                		mov.L	272[r7], r15
 1398                             	.LVL174:
 468:../src/smc_gen/r_drw2d_rx/src/tes/dave_edge.c **** 
 469:../src/smc_gen/r_drw2d_rx/src/tes/dave_edge.c ****    /* find edge octant */
 470:../src/smc_gen/r_drw2d_rx/src/tes/dave_edge.c ****    if ( dx < 0 )
 1399                             		.loc 1 470 4 is_stmt 1 view .LVU613
 1400                             		.loc 1 470 7 is_stmt 0 view .LVU614
 1401 0010 61 04                   		cmp	#0, r4
 1402 0012 29 61                   		blt	.L64
 471:../src/smc_gen/r_drw2d_rx/src/tes/dave_edge.c ****    {
 472:../src/smc_gen/r_drw2d_rx/src/tes/dave_edge.c ****       if ( dy < 0 )
 473:../src/smc_gen/r_drw2d_rx/src/tes/dave_edge.c ****       {
 474:../src/smc_gen/r_drw2d_rx/src/tes/dave_edge.c ****          /* dx -
 475:../src/smc_gen/r_drw2d_rx/src/tes/dave_edge.c ****           * dy - */
 476:../src/smc_gen/r_drw2d_rx/src/tes/dave_edge.c ****          px = (d2_point)(px + (d2_point) dx);
 477:../src/smc_gen/r_drw2d_rx/src/tes/dave_edge.c ****          py = (d2_point)(py + (d2_point) dy);
 478:../src/smc_gen/r_drw2d_rx/src/tes/dave_edge.c **** 
 479:../src/smc_gen/r_drw2d_rx/src/tes/dave_edge.c ****          if(dx > dy)
 480:../src/smc_gen/r_drw2d_rx/src/tes/dave_edge.c ****          {
 481:../src/smc_gen/r_drw2d_rx/src/tes/dave_edge.c ****             /* 3. octant */
 482:../src/smc_gen/r_drw2d_rx/src/tes/dave_edge.c ****             D2_CAST32TO64((dx << 16) / dy, &n); /* n = (dx << 16) / dy; */     /* PRQA S 4131 */ /*
 483:../src/smc_gen/r_drw2d_rx/src/tes/dave_edge.c ****             s = ((py * D2_CAST64TO32(&n)) >> 4) - (px << (16 - 4));            /* PRQA S 4131 */ /*
 484:../src/smc_gen/r_drw2d_rx/src/tes/dave_edge.c ****             xa = invBlur;
 485:../src/smc_gen/r_drw2d_rx/src/tes/dave_edge.c ****             D2_MUL3264(invBlur, &n, &tmp);
 486:../src/smc_gen/r_drw2d_rx/src/tes/dave_edge.c ****             D2_SHIFTRIGHT64(&tmp, 16, &n);
 487:../src/smc_gen/r_drw2d_rx/src/tes/dave_edge.c ****             ya = -D2_CAST64TO32(&n);
 488:../src/smc_gen/r_drw2d_rx/src/tes/dave_edge.c ****          }
 489:../src/smc_gen/r_drw2d_rx/src/tes/dave_edge.c ****          else
 490:../src/smc_gen/r_drw2d_rx/src/tes/dave_edge.c ****          {
 491:../src/smc_gen/r_drw2d_rx/src/tes/dave_edge.c ****             /* 4. octant */
 492:../src/smc_gen/r_drw2d_rx/src/tes/dave_edge.c ****             D2_CAST32TO64((dy << 16) / dx, &n); /* n = (dy << 16) / dx; */     /* PRQA S 4131 */ /*
 493:../src/smc_gen/r_drw2d_rx/src/tes/dave_edge.c ****             s = (py << (16 - 4)) - ((px * D2_CAST64TO32(&n)) >> 4);            /* PRQA S 4131 */ /*
 494:../src/smc_gen/r_drw2d_rx/src/tes/dave_edge.c ****             D2_MUL3264(invBlur, &n, &tmp);
 495:../src/smc_gen/r_drw2d_rx/src/tes/dave_edge.c ****             D2_SHIFTRIGHT64(&tmp, 16, &n);
 496:../src/smc_gen/r_drw2d_rx/src/tes/dave_edge.c ****             xa = D2_CAST64TO32(&n);
 497:../src/smc_gen/r_drw2d_rx/src/tes/dave_edge.c ****             ya = -invBlur;
 498:../src/smc_gen/r_drw2d_rx/src/tes/dave_edge.c ****          }
 499:../src/smc_gen/r_drw2d_rx/src/tes/dave_edge.c ****       }
 500:../src/smc_gen/r_drw2d_rx/src/tes/dave_edge.c ****       else
 501:../src/smc_gen/r_drw2d_rx/src/tes/dave_edge.c ****       {
 502:../src/smc_gen/r_drw2d_rx/src/tes/dave_edge.c ****          /* dx -
 503:../src/smc_gen/r_drw2d_rx/src/tes/dave_edge.c ****           * dy + */
 504:../src/smc_gen/r_drw2d_rx/src/tes/dave_edge.c ****          if(-dx > dy)
 505:../src/smc_gen/r_drw2d_rx/src/tes/dave_edge.c ****          {
 506:../src/smc_gen/r_drw2d_rx/src/tes/dave_edge.c ****             /* 5. octant */
 507:../src/smc_gen/r_drw2d_rx/src/tes/dave_edge.c ****             D2_CAST32TO64((dy << 16) / dx, &n); /* n = (dy << 16) / dx; */    /* PRQA S 4131 */ /* 
 508:../src/smc_gen/r_drw2d_rx/src/tes/dave_edge.c ****             s = (py << (16 - 4)) - ((px * D2_CAST64TO32(&n)) >> 4);           /* PRQA S 4131 */ /* 
 509:../src/smc_gen/r_drw2d_rx/src/tes/dave_edge.c ****             D2_MUL3264(invBlur, &n, &tmp);
 510:../src/smc_gen/r_drw2d_rx/src/tes/dave_edge.c ****             D2_SHIFTRIGHT64(&tmp, 16, &n);
 511:../src/smc_gen/r_drw2d_rx/src/tes/dave_edge.c ****             xa = D2_CAST64TO32(&n); /* (n * redinv) >> 8; */
 512:../src/smc_gen/r_drw2d_rx/src/tes/dave_edge.c ****             ya = -invBlur;
 513:../src/smc_gen/r_drw2d_rx/src/tes/dave_edge.c ****          }
 514:../src/smc_gen/r_drw2d_rx/src/tes/dave_edge.c ****          else
 515:../src/smc_gen/r_drw2d_rx/src/tes/dave_edge.c ****          {
 516:../src/smc_gen/r_drw2d_rx/src/tes/dave_edge.c ****             /* 6. octant */
 517:../src/smc_gen/r_drw2d_rx/src/tes/dave_edge.c ****             D2_CAST32TO64((dx << 16) / dy, &n); /* n = (dx << 16) / dy; */   /* PRQA S 4131 */ /* $
 518:../src/smc_gen/r_drw2d_rx/src/tes/dave_edge.c ****             s = (px << (16 - 4)) - ((py * D2_CAST64TO32(&n)) >> 4);          /* PRQA S 4131 */ /* $
 519:../src/smc_gen/r_drw2d_rx/src/tes/dave_edge.c ****             xa = -invBlur;
 520:../src/smc_gen/r_drw2d_rx/src/tes/dave_edge.c ****             D2_MUL3264(invBlur, &n, &tmp);
 521:../src/smc_gen/r_drw2d_rx/src/tes/dave_edge.c ****             D2_SHIFTRIGHT64(&tmp, 16, &n);
 522:../src/smc_gen/r_drw2d_rx/src/tes/dave_edge.c ****             ya = D2_CAST64TO32(&n); /* (n * redinv) >> 8; */
 523:../src/smc_gen/r_drw2d_rx/src/tes/dave_edge.c ****          }
 524:../src/smc_gen/r_drw2d_rx/src/tes/dave_edge.c ****       }
 525:../src/smc_gen/r_drw2d_rx/src/tes/dave_edge.c ****    }
 526:../src/smc_gen/r_drw2d_rx/src/tes/dave_edge.c ****    else
 527:../src/smc_gen/r_drw2d_rx/src/tes/dave_edge.c ****    {
 528:../src/smc_gen/r_drw2d_rx/src/tes/dave_edge.c ****       if(dy < 0)
 1403                             		.loc 1 528 7 is_stmt 1 view .LVU615
 1404                             		.loc 1 528 9 is_stmt 0 view .LVU616
 1405 0014 61 0E                   		cmp	#0, r14
 1406 0016 28 05 38 47 01          		blt	.L65
 529:../src/smc_gen/r_drw2d_rx/src/tes/dave_edge.c ****       {
 530:../src/smc_gen/r_drw2d_rx/src/tes/dave_edge.c ****          /* dx +
 531:../src/smc_gen/r_drw2d_rx/src/tes/dave_edge.c ****           * dy - */
 532:../src/smc_gen/r_drw2d_rx/src/tes/dave_edge.c ****          px = (d2_point)(px + (d2_point) dx);
 533:../src/smc_gen/r_drw2d_rx/src/tes/dave_edge.c ****          py = (d2_point)(py + (d2_point) dy);
 534:../src/smc_gen/r_drw2d_rx/src/tes/dave_edge.c **** 
 535:../src/smc_gen/r_drw2d_rx/src/tes/dave_edge.c ****          if(dx > -dy)
 536:../src/smc_gen/r_drw2d_rx/src/tes/dave_edge.c ****          {
 537:../src/smc_gen/r_drw2d_rx/src/tes/dave_edge.c ****             /* 1. octant */
 538:../src/smc_gen/r_drw2d_rx/src/tes/dave_edge.c ****             D2_CAST32TO64((dy << 16) / dx, &n); /* n = (dy << 16) / dx; */  /* PRQA S 4131 */ /* $M
 539:../src/smc_gen/r_drw2d_rx/src/tes/dave_edge.c ****             s = ((px * D2_CAST64TO32(&n)) >> 4) - (py << (16 - 4));         /* PRQA S 4131 */ /* $M
 540:../src/smc_gen/r_drw2d_rx/src/tes/dave_edge.c ****             D2_MUL3264(invBlur, &n, &tmp);
 541:../src/smc_gen/r_drw2d_rx/src/tes/dave_edge.c ****             D2_SHIFTRIGHT64(&tmp, 16, &n);
 542:../src/smc_gen/r_drw2d_rx/src/tes/dave_edge.c ****             xa = -D2_CAST64TO32(&n); /* (-n * redinv) >> 8; */
 543:../src/smc_gen/r_drw2d_rx/src/tes/dave_edge.c ****             ya = invBlur;
 544:../src/smc_gen/r_drw2d_rx/src/tes/dave_edge.c ****          }
 545:../src/smc_gen/r_drw2d_rx/src/tes/dave_edge.c ****          else
 546:../src/smc_gen/r_drw2d_rx/src/tes/dave_edge.c ****          {
 547:../src/smc_gen/r_drw2d_rx/src/tes/dave_edge.c ****             /* 2. octant */
 548:../src/smc_gen/r_drw2d_rx/src/tes/dave_edge.c ****             D2_CAST32TO64((dx << 16) / dy, &n); /* n = (dx << 16) / dy; */  /* PRQA S 4131 */ /* $M
 549:../src/smc_gen/r_drw2d_rx/src/tes/dave_edge.c ****             s = ((py * D2_CAST64TO32(&n)) >> 4) - (px << (16 - 4));         /* PRQA S 4131 */ /* $M
 550:../src/smc_gen/r_drw2d_rx/src/tes/dave_edge.c ****             xa = invBlur;
 551:../src/smc_gen/r_drw2d_rx/src/tes/dave_edge.c ****             D2_MUL3264(invBlur, &n, &tmp);
 552:../src/smc_gen/r_drw2d_rx/src/tes/dave_edge.c ****             D2_SHIFTRIGHT64(&tmp, 16, &n);
 553:../src/smc_gen/r_drw2d_rx/src/tes/dave_edge.c ****             ya = -D2_CAST64TO32(&n);
 554:../src/smc_gen/r_drw2d_rx/src/tes/dave_edge.c ****          }
 555:../src/smc_gen/r_drw2d_rx/src/tes/dave_edge.c ****       }
 556:../src/smc_gen/r_drw2d_rx/src/tes/dave_edge.c ****       else
 557:../src/smc_gen/r_drw2d_rx/src/tes/dave_edge.c ****       {
 558:../src/smc_gen/r_drw2d_rx/src/tes/dave_edge.c ****          /* dx +
 559:../src/smc_gen/r_drw2d_rx/src/tes/dave_edge.c ****           * dy + */
 560:../src/smc_gen/r_drw2d_rx/src/tes/dave_edge.c ****          if(dx > dy)
 1407                             		.loc 1 560 10 is_stmt 1 view .LVU617
 1408                             		.loc 1 560 12 is_stmt 0 view .LVU618
 1409 001b 47 E4                   		cmp	r14, r4
 1410 001d 2A 05 38 B5 01          		ble	.L62
 561:../src/smc_gen/r_drw2d_rx/src/tes/dave_edge.c ****          {
 562:../src/smc_gen/r_drw2d_rx/src/tes/dave_edge.c ****             /* 8. octant */
 563:../src/smc_gen/r_drw2d_rx/src/tes/dave_edge.c ****             D2_CAST32TO64((dy << 16) / dx, &n); /* n = (dy << 16) / dx; */  /* PRQA S 4131 */ /* $M
 1411                             		.loc 1 563 13 is_stmt 1 view .LVU619
 1412 0022 6D 0E                   		shll	#16, r14
 1413 0024 FC 23 4E                		div	r4, r14
 1414 0027 FD BF EB                		shar	#31, r14, r11
 1415                             	.LVL175:
 564:../src/smc_gen/r_drw2d_rx/src/tes/dave_edge.c ****             s = ((px * D2_CAST64TO32(&n)) >> 4) - (py << (16 - 4));         /* PRQA S 4131 */ /* $M
 1416                             		.loc 1 564 13 view .LVU620
 1417                             		.loc 1 564 22 is_stmt 0 view .LVU621
 1418 002a DF 24                   		mov.W	r2, r4
 1419                             	.LVL176:
 1420                             		.loc 1 564 22 view .LVU622
 1421 002c 4F E4                   		mul	r14, r4
 1422                             		.loc 1 564 43 view .LVU623
 1423 002e 6A 44                   		shar	#4, r4
 1424                             		.loc 1 564 55 view .LVU624
 1425 0030 DF 35                   		mov.W	r3, r5
 1426 0032 6C C5                   		shll	#12, r5
 1427                             		.loc 1 564 15 view .LVU625
 1428 0034 FF 05 54                		sub	r5, r4, r5
 1429                             	.LVL177:
 565:../src/smc_gen/r_drw2d_rx/src/tes/dave_edge.c ****             D2_MUL3264(invBlur, &n, &tmp);
 1430                             		.loc 1 565 13 is_stmt 1 view .LVU626
 1431 0037 FD BF FA                		shar	#31, r15, r10
 1432 003a 4F EA                   		mul	r14, r10
 1433 003c 4F FB                   		mul	r15, r11
 1434                             	.LVL178:
 1435                             		.loc 1 565 13 is_stmt 0 view .LVU627
 1436 003e 4B BA                   		add	r11, r10
 1437 0040 EF FB                   		mov.L	r15, r11
 1438 0042 FC 1F EB                		emulu	r14, r11
 1439 0045 EF B2                   		mov.L	r11, r2
 1440                             	.LVL179:
 1441                             		.loc 1 565 13 view .LVU628
 1442 0047 EF C3                   		mov.L	r12, r3
 1443                             	.LVL180:
 1444                             		.loc 1 565 13 view .LVU629
 1445 0049 4B A3                   		add	r10, r3
 1446                             	.LVL181:
 566:../src/smc_gen/r_drw2d_rx/src/tes/dave_edge.c ****             D2_SHIFTRIGHT64(&tmp, 16, &n);
 1447                             		.loc 1 566 13 is_stmt 1 view .LVU630
 1448 004b FD D0 3A                		shll	#16, r3, r10
 1449 004e 69 02                   		shlr	#16, r2
 1450                             	.LVL182:
 1451                             		.loc 1 566 13 is_stmt 0 view .LVU631
 1452 0050 57 A2                   		or	r10, r2
 1453                             	.LVL183:
 567:../src/smc_gen/r_drw2d_rx/src/tes/dave_edge.c ****             xa = -D2_CAST64TO32(&n);
 1454                             		.loc 1 567 13 is_stmt 1 view .LVU632
 1455                             		.loc 1 567 16 is_stmt 0 view .LVU633
 1456 0052 FC 07 23                		neg	r2, r3
 1457                             	.LVL184:
 568:../src/smc_gen/r_drw2d_rx/src/tes/dave_edge.c ****             ya = invBlur;
 1458                             		.loc 1 568 13 is_stmt 1 view .LVU634
 1459                             		.loc 1 568 16 is_stmt 0 view .LVU635
 1460 0055 EF F2                   		mov.L	r15, r2
 1461                             	.LVL185:
 1462 0057 03                      		.balign 8,3,1
 1463                             	.L58:
 569:../src/smc_gen/r_drw2d_rx/src/tes/dave_edge.c ****          }
 570:../src/smc_gen/r_drw2d_rx/src/tes/dave_edge.c ****          else
 571:../src/smc_gen/r_drw2d_rx/src/tes/dave_edge.c ****          {
 572:../src/smc_gen/r_drw2d_rx/src/tes/dave_edge.c ****             /* 7. octant */
 573:../src/smc_gen/r_drw2d_rx/src/tes/dave_edge.c ****             D2_CAST32TO64((dx << 16) / dy, &n); /* n = (dx << 16) / dy; */  /* PRQA S 4131 */ /* $M
 574:../src/smc_gen/r_drw2d_rx/src/tes/dave_edge.c ****             s = (px << (16 - 4)) - ((py * D2_CAST64TO32(&n)) >> 4);         /* PRQA S 4131 */ /* $M
 575:../src/smc_gen/r_drw2d_rx/src/tes/dave_edge.c ****             xa = -invBlur;
 576:../src/smc_gen/r_drw2d_rx/src/tes/dave_edge.c ****             D2_MUL3264(invBlur, &n, &tmp);
 577:../src/smc_gen/r_drw2d_rx/src/tes/dave_edge.c ****             D2_SHIFTRIGHT64(&tmp, 16, &n);
 578:../src/smc_gen/r_drw2d_rx/src/tes/dave_edge.c ****             ya = D2_CAST64TO32(&n); /* (n * redinv) >> 8; */
 579:../src/smc_gen/r_drw2d_rx/src/tes/dave_edge.c ****          }
 580:../src/smc_gen/r_drw2d_rx/src/tes/dave_edge.c ****       }
 581:../src/smc_gen/r_drw2d_rx/src/tes/dave_edge.c ****    }
 582:../src/smc_gen/r_drw2d_rx/src/tes/dave_edge.c **** 
 583:../src/smc_gen/r_drw2d_rx/src/tes/dave_edge.c ****    s = (s << 4) / ctx->blurring;                                            /* PRQA S 4131       */
 1464                             		.loc 1 583 4 is_stmt 1 view .LVU636
 1465                             		.loc 1 583 11 is_stmt 0 view .LVU637
 1466 0058 6C 45                   		shll	#4, r5
 1467                             	.LVL186:
 1468                             		.loc 1 583 6 view .LVU638
 1469 005a EF 54                   		mov.L	r5, r4
 1470 005c 06 61 08 74 0A          		div	20[r7].W, r4
 1471                             	.LVL187:
 584:../src/smc_gen/r_drw2d_rx/src/tes/dave_edge.c **** 
 585:../src/smc_gen/r_drw2d_rx/src/tes/dave_edge.c ****    lim->start = s + (invBlur / 2);
 1472                             		.loc 1 585 4 is_stmt 1 view .LVU639
 1473                             		.loc 1 585 30 is_stmt 0 view .LVU640
 1474 0061 FD 9F F5                		shlr	#31, r15, r5
 1475 0064 4B F5                   		add	r15, r5
 1476 0066 6A 15                   		shar	#1, r5
 1477                             		.loc 1 585 19 view .LVU641
 1478 0068 4B 45                   		add	r4, r5
 1479                             		.loc 1 585 15 view .LVU642
 1480 006a E3 15                   		mov.L	r5, [r1]
 586:../src/smc_gen/r_drw2d_rx/src/tes/dave_edge.c ****    lim->xadd  = xa;
 1481                             		.loc 1 586 4 is_stmt 1 view .LVU643
 1482                             		.loc 1 586 15 is_stmt 0 view .LVU644
 1483 006c A0 1B                   		mov.L	r3, 4[r1]
 587:../src/smc_gen/r_drw2d_rx/src/tes/dave_edge.c ****    lim->yadd  = ya;
 1484                             		.loc 1 587 4 is_stmt 1 view .LVU645
 1485                             		.loc 1 587 15 is_stmt 0 view .LVU646
 1486 006e A0 92                   		mov.L	r2, 8[r1]
 588:../src/smc_gen/r_drw2d_rx/src/tes/dave_edge.c **** }
 1487                             		.loc 1 588 1 view .LVU647
 1488 0070 3F 6D 0A                		rtsd	#40, r6-r13
 1489                             	.LVL188:
 1490                             	.L64:
 472:../src/smc_gen/r_drw2d_rx/src/tes/dave_edge.c ****       {
 1491                             		.loc 1 472 7 is_stmt 1 view .LVU648
 472:../src/smc_gen/r_drw2d_rx/src/tes/dave_edge.c ****       {
 1492                             		.loc 1 472 10 is_stmt 0 view .LVU649
 1493 0073 61 0E                   		cmp	#0, r14
 1494 0075 29 3E                   		blt	.L66
 504:../src/smc_gen/r_drw2d_rx/src/tes/dave_edge.c ****          {
 1495                             		.loc 1 504 10 is_stmt 1 view .LVU650
 504:../src/smc_gen/r_drw2d_rx/src/tes/dave_edge.c ****          {
 1496                             		.loc 1 504 13 is_stmt 0 view .LVU651
 1497 0077 FC 07 4A                		neg	r4, r10
 504:../src/smc_gen/r_drw2d_rx/src/tes/dave_edge.c ****          {
 1498                             		.loc 1 504 12 view .LVU652
 1499 007a 47 EA                   		cmp	r14, r10
 1500 007c 2A 05 38 AF 00          		ble	.L59
 507:../src/smc_gen/r_drw2d_rx/src/tes/dave_edge.c ****             s = (py << (16 - 4)) - ((px * D2_CAST64TO32(&n)) >> 4);           /* PRQA S 4131 */ /* 
 1501                             		.loc 1 507 13 is_stmt 1 view .LVU653
 1502 0081 FD D0 EA                		shll	#16, r14, r10
 1503 0084 FC 23 4A                		div	r4, r10
 1504 0087 FD BF AB                		shar	#31, r10, r11
 1505                             	.LVL189:
 508:../src/smc_gen/r_drw2d_rx/src/tes/dave_edge.c ****             D2_MUL3264(invBlur, &n, &tmp);
 1506                             		.loc 1 508 13 view .LVU654
 508:../src/smc_gen/r_drw2d_rx/src/tes/dave_edge.c ****             D2_MUL3264(invBlur, &n, &tmp);
 1507                             		.loc 1 508 21 is_stmt 0 view .LVU655
 1508 008a DF 35                   		mov.W	r3, r5
 1509 008c FD CC 54                		shll	#12, r5, r4
 1510                             	.LVL190:
 508:../src/smc_gen/r_drw2d_rx/src/tes/dave_edge.c ****             D2_MUL3264(invBlur, &n, &tmp);
 1511                             		.loc 1 508 41 view .LVU656
 1512 008f DF 25                   		mov.W	r2, r5
 1513 0091 4F A5                   		mul	r10, r5
 508:../src/smc_gen/r_drw2d_rx/src/tes/dave_edge.c ****             D2_MUL3264(invBlur, &n, &tmp);
 1514                             		.loc 1 508 62 view .LVU657
 1515 0093 6A 45                   		shar	#4, r5
 508:../src/smc_gen/r_drw2d_rx/src/tes/dave_edge.c ****             D2_MUL3264(invBlur, &n, &tmp);
 1516                             		.loc 1 508 15 view .LVU658
 1517 0095 FF 05 54                		sub	r5, r4, r5
 1518                             	.LVL191:
 509:../src/smc_gen/r_drw2d_rx/src/tes/dave_edge.c ****             D2_SHIFTRIGHT64(&tmp, 16, &n);
 1519                             		.loc 1 509 13 is_stmt 1 view .LVU659
 1520 0098 FD BF F4                		shar	#31, r15, r4
 1521 009b 4F A4                   		mul	r10, r4
 1522 009d 4F FB                   		mul	r15, r11
 1523                             	.LVL192:
 509:../src/smc_gen/r_drw2d_rx/src/tes/dave_edge.c ****             D2_SHIFTRIGHT64(&tmp, 16, &n);
 1524                             		.loc 1 509 13 is_stmt 0 view .LVU660
 1525 009f 4B B4                   		add	r11, r4
 1526 00a1 FC 1F FA                		emulu	r15, r10
 1527                             	.LVL193:
 509:../src/smc_gen/r_drw2d_rx/src/tes/dave_edge.c ****             D2_SHIFTRIGHT64(&tmp, 16, &n);
 1528                             		.loc 1 509 13 view .LVU661
 1529 00a4 4B 4B                   		add	r4, r11
 1530                             	.LVL194:
 510:../src/smc_gen/r_drw2d_rx/src/tes/dave_edge.c ****             xa = D2_CAST64TO32(&n); /* (n * redinv) >> 8; */
 1531                             		.loc 1 510 13 is_stmt 1 view .LVU662
 1532 00a6 EF B3                   		mov.L	r11, r3
 1533                             	.LVL195:
 510:../src/smc_gen/r_drw2d_rx/src/tes/dave_edge.c ****             xa = D2_CAST64TO32(&n); /* (n * redinv) >> 8; */
 1534                             		.loc 1 510 13 is_stmt 0 view .LVU663
 1535 00a8 6D 03                   		shll	#16, r3
 1536 00aa 69 0A                   		shlr	#16, r10
 1537                             	.LVL196:
 511:../src/smc_gen/r_drw2d_rx/src/tes/dave_edge.c ****             ya = -invBlur;
 1538                             		.loc 1 511 13 is_stmt 1 view .LVU664
 511:../src/smc_gen/r_drw2d_rx/src/tes/dave_edge.c ****             ya = -invBlur;
 1539                             		.loc 1 511 16 is_stmt 0 view .LVU665
 1540 00ac 57 A3                   		or	r10, r3
 1541                             	.LVL197:
 512:../src/smc_gen/r_drw2d_rx/src/tes/dave_edge.c ****          }
 1542                             		.loc 1 512 13 is_stmt 1 view .LVU666
 512:../src/smc_gen/r_drw2d_rx/src/tes/dave_edge.c ****          }
 1543                             		.loc 1 512 16 is_stmt 0 view .LVU667
 1544 00ae FC 07 F2                		neg	r15, r2
 1545                             	.LVL198:
 512:../src/smc_gen/r_drw2d_rx/src/tes/dave_edge.c ****          }
 1546                             		.loc 1 512 16 view .LVU668
 1547 00b1 2E A7                   		bra	.L58
 1548                             	.LVL199:
 1549                             	.L66:
 476:../src/smc_gen/r_drw2d_rx/src/tes/dave_edge.c ****          py = (d2_point)(py + (d2_point) dy);
 1550                             		.loc 1 476 10 is_stmt 1 view .LVU669
 476:../src/smc_gen/r_drw2d_rx/src/tes/dave_edge.c ****          py = (d2_point)(py + (d2_point) dy);
 1551                             		.loc 1 476 29 is_stmt 0 view .LVU670
 1552 00b3 FF 26 24                		add	r2, r4, r6
 1553                             	.LVL200:
 477:../src/smc_gen/r_drw2d_rx/src/tes/dave_edge.c **** 
 1554                             		.loc 1 477 10 is_stmt 1 view .LVU671
 477:../src/smc_gen/r_drw2d_rx/src/tes/dave_edge.c **** 
 1555                             		.loc 1 477 29 is_stmt 0 view .LVU672
 1556 00b6 FF 25 3E                		add	r3, r14, r5
 1557                             	.LVL201:
 479:../src/smc_gen/r_drw2d_rx/src/tes/dave_edge.c ****          {
 1558                             		.loc 1 479 10 is_stmt 1 view .LVU673
 479:../src/smc_gen/r_drw2d_rx/src/tes/dave_edge.c ****          {
 1559                             		.loc 1 479 12 is_stmt 0 view .LVU674
 1560 00b9 47 E4                   		cmp	r14, r4
 1561 00bb 2B 36                   		ble	.L57
 482:../src/smc_gen/r_drw2d_rx/src/tes/dave_edge.c ****             s = ((py * D2_CAST64TO32(&n)) >> 4) - (px << (16 - 4));            /* PRQA S 4131 */ /*
 1562                             		.loc 1 482 13 is_stmt 1 view .LVU675
 1563 00bd FD D0 42                		shll	#16, r4, r2
 1564 00c0 FC 23 E2                		div	r14, r2
 1565 00c3 FD BF 23                		shar	#31, r2, r3
 1566                             	.LVL202:
 483:../src/smc_gen/r_drw2d_rx/src/tes/dave_edge.c ****             xa = invBlur;
 1567                             		.loc 1 483 13 view .LVU676
 483:../src/smc_gen/r_drw2d_rx/src/tes/dave_edge.c ****             xa = invBlur;
 1568                             		.loc 1 483 22 is_stmt 0 view .LVU677
 1569 00c6 DF 55                   		mov.W	r5, r5
 1570                             	.LVL203:
 483:../src/smc_gen/r_drw2d_rx/src/tes/dave_edge.c ****             xa = invBlur;
 1571                             		.loc 1 483 22 view .LVU678
 1572 00c8 4F 25                   		mul	r2, r5
 483:../src/smc_gen/r_drw2d_rx/src/tes/dave_edge.c ****             xa = invBlur;
 1573                             		.loc 1 483 43 view .LVU679
 1574 00ca FD A4 5A                		shar	#4, r5, r10
 483:../src/smc_gen/r_drw2d_rx/src/tes/dave_edge.c ****             xa = invBlur;
 1575                             		.loc 1 483 55 view .LVU680
 1576 00cd DF 65                   		mov.W	r6, r5
 1577 00cf 6C C5                   		shll	#12, r5
 483:../src/smc_gen/r_drw2d_rx/src/tes/dave_edge.c ****             xa = invBlur;
 1578                             		.loc 1 483 15 view .LVU681
 1579 00d1 FF 05 5A                		sub	r5, r10, r5
 1580                             	.LVL204:
 484:../src/smc_gen/r_drw2d_rx/src/tes/dave_edge.c ****             D2_MUL3264(invBlur, &n, &tmp);
 1581                             		.loc 1 484 13 is_stmt 1 view .LVU682
 485:../src/smc_gen/r_drw2d_rx/src/tes/dave_edge.c ****             D2_SHIFTRIGHT64(&tmp, 16, &n);
 1582                             		.loc 1 485 13 view .LVU683
 1583 00d4 FD BF FA                		shar	#31, r15, r10
 1584 00d7 4F 2A                   		mul	r2, r10
 1585 00d9 FF 34 F3                		mul	r15, r3, r4
 1586                             	.LVL205:
 485:../src/smc_gen/r_drw2d_rx/src/tes/dave_edge.c ****             D2_SHIFTRIGHT64(&tmp, 16, &n);
 1587                             		.loc 1 485 13 is_stmt 0 view .LVU684
 1588 00dc 4B 4A                   		add	r4, r10
 1589 00de FC 1F F2                		emulu	r15, r2
 1590                             	.LVL206:
 485:../src/smc_gen/r_drw2d_rx/src/tes/dave_edge.c ****             D2_SHIFTRIGHT64(&tmp, 16, &n);
 1591                             		.loc 1 485 13 view .LVU685
 1592 00e1 4B A3                   		add	r10, r3
 1593                             	.LVL207:
 486:../src/smc_gen/r_drw2d_rx/src/tes/dave_edge.c ****             ya = -D2_CAST64TO32(&n);
 1594                             		.loc 1 486 13 is_stmt 1 view .LVU686
 1595 00e3 FD D0 3A                		shll	#16, r3, r10
 1596 00e6 69 02                   		shlr	#16, r2
 1597                             	.LVL208:
 486:../src/smc_gen/r_drw2d_rx/src/tes/dave_edge.c ****             ya = -D2_CAST64TO32(&n);
 1598                             		.loc 1 486 13 is_stmt 0 view .LVU687
 1599 00e8 57 A2                   		or	r10, r2
 1600                             	.LVL209:
 487:../src/smc_gen/r_drw2d_rx/src/tes/dave_edge.c ****          }
 1601                             		.loc 1 487 13 is_stmt 1 view .LVU688
 487:../src/smc_gen/r_drw2d_rx/src/tes/dave_edge.c ****          }
 1602                             		.loc 1 487 16 is_stmt 0 view .LVU689
 1603 00ea 7E 12                   		neg	r2
 1604                             	.LVL210:
 484:../src/smc_gen/r_drw2d_rx/src/tes/dave_edge.c ****             D2_MUL3264(invBlur, &n, &tmp);
 1605                             		.loc 1 484 16 view .LVU690
 1606 00ec EF F3                   		mov.L	r15, r3
 1607 00ee 38 6A FF                		bra	.L58
 1608                             	.LVL211:
 1609                             	.L57:
 492:../src/smc_gen/r_drw2d_rx/src/tes/dave_edge.c ****             s = (py << (16 - 4)) - ((px * D2_CAST64TO32(&n)) >> 4);            /* PRQA S 4131 */ /*
 1610                             		.loc 1 492 13 is_stmt 1 view .LVU691
 1611 00f1 FD D0 EA                		shll	#16, r14, r10
 1612 00f4 EF A3                   		mov.L	r10, r3
 1613 00f6 FC 23 43                		div	r4, r3
 1614 00f9 FD BF 32                		shar	#31, r3, r2
 1615                             	.LVL212:
 493:../src/smc_gen/r_drw2d_rx/src/tes/dave_edge.c ****             D2_MUL3264(invBlur, &n, &tmp);
 1616                             		.loc 1 493 13 view .LVU692
 493:../src/smc_gen/r_drw2d_rx/src/tes/dave_edge.c ****             D2_MUL3264(invBlur, &n, &tmp);
 1617                             		.loc 1 493 21 is_stmt 0 view .LVU693
 1618 00fc DF 55                   		mov.W	r5, r5
 1619                             	.LVL213:
 493:../src/smc_gen/r_drw2d_rx/src/tes/dave_edge.c ****             D2_MUL3264(invBlur, &n, &tmp);
 1620                             		.loc 1 493 21 view .LVU694
 1621 00fe FD CC 5A                		shll	#12, r5, r10
 493:../src/smc_gen/r_drw2d_rx/src/tes/dave_edge.c ****             D2_MUL3264(invBlur, &n, &tmp);
 1622                             		.loc 1 493 41 view .LVU695
 1623 0101 DF 65                   		mov.W	r6, r5
 1624 0103 4F 35                   		mul	r3, r5
 493:../src/smc_gen/r_drw2d_rx/src/tes/dave_edge.c ****             D2_MUL3264(invBlur, &n, &tmp);
 1625                             		.loc 1 493 62 view .LVU696
 1626 0105 6A 45                   		shar	#4, r5
 493:../src/smc_gen/r_drw2d_rx/src/tes/dave_edge.c ****             D2_MUL3264(invBlur, &n, &tmp);
 1627                             		.loc 1 493 15 view .LVU697
 1628 0107 FF 05 5A                		sub	r5, r10, r5
 1629                             	.LVL214:
 494:../src/smc_gen/r_drw2d_rx/src/tes/dave_edge.c ****             D2_SHIFTRIGHT64(&tmp, 16, &n);
 1630                             		.loc 1 494 13 is_stmt 1 view .LVU698
 1631 010a FD BF F4                		shar	#31, r15, r4
 1632                             	.LVL215:
 494:../src/smc_gen/r_drw2d_rx/src/tes/dave_edge.c ****             D2_SHIFTRIGHT64(&tmp, 16, &n);
 1633                             		.loc 1 494 13 is_stmt 0 view .LVU699
 1634 010d 4F 34                   		mul	r3, r4
 1635 010f FF 3A F2                		mul	r15, r2, r10
 1636 0112 4B A4                   		add	r10, r4
 1637 0114 EF FC                   		mov.L	r15, r12
 1638 0116 FC 1F 3C                		emulu	r3, r12
 1639 0119 EF CA                   		mov.L	r12, r10
 1640 011b EF DB                   		mov.L	r13, r11
 1641 011d 4B 4B                   		add	r4, r11
 1642                             	.LVL216:
 495:../src/smc_gen/r_drw2d_rx/src/tes/dave_edge.c ****             xa = D2_CAST64TO32(&n);
 1643                             		.loc 1 495 13 is_stmt 1 view .LVU700
 1644 011f EF B3                   		mov.L	r11, r3
 1645                             	.LVL217:
 495:../src/smc_gen/r_drw2d_rx/src/tes/dave_edge.c ****             xa = D2_CAST64TO32(&n);
 1646                             		.loc 1 495 13 is_stmt 0 view .LVU701
 1647 0121 6D 03                   		shll	#16, r3
 1648 0123 69 0A                   		shlr	#16, r10
 1649                             	.LVL218:
 496:../src/smc_gen/r_drw2d_rx/src/tes/dave_edge.c ****             ya = -invBlur;
 1650                             		.loc 1 496 13 is_stmt 1 view .LVU702
 496:../src/smc_gen/r_drw2d_rx/src/tes/dave_edge.c ****             ya = -invBlur;
 1651                             		.loc 1 496 16 is_stmt 0 view .LVU703
 1652 0125 57 A3                   		or	r10, r3
 1653                             	.LVL219:
 497:../src/smc_gen/r_drw2d_rx/src/tes/dave_edge.c ****          }
 1654                             		.loc 1 497 13 is_stmt 1 view .LVU704
 497:../src/smc_gen/r_drw2d_rx/src/tes/dave_edge.c ****          }
 1655                             		.loc 1 497 16 is_stmt 0 view .LVU705
 1656 0127 FC 07 F2                		neg	r15, r2
 1657                             	.LVL220:
 497:../src/smc_gen/r_drw2d_rx/src/tes/dave_edge.c ****          }
 1658                             		.loc 1 497 16 view .LVU706
 1659 012a 38 2E FF                		bra	.L58
 1660                             	.LVL221:
 1661                             	.L59:
 517:../src/smc_gen/r_drw2d_rx/src/tes/dave_edge.c ****             s = (px << (16 - 4)) - ((py * D2_CAST64TO32(&n)) >> 4);          /* PRQA S 4131 */ /* $
 1662                             		.loc 1 517 13 is_stmt 1 view .LVU707
 1663 012d FD D0 4A                		shll	#16, r4, r10
 1664 0130 FC 23 EA                		div	r14, r10
 1665 0133 FD BF AB                		shar	#31, r10, r11
 1666                             	.LVL222:
 518:../src/smc_gen/r_drw2d_rx/src/tes/dave_edge.c ****             xa = -invBlur;
 1667                             		.loc 1 518 13 view .LVU708
 518:../src/smc_gen/r_drw2d_rx/src/tes/dave_edge.c ****             xa = -invBlur;
 1668                             		.loc 1 518 21 is_stmt 0 view .LVU709
 1669 0136 DF 24                   		mov.W	r2, r4
 1670                             	.LVL223:
 518:../src/smc_gen/r_drw2d_rx/src/tes/dave_edge.c ****             xa = -invBlur;
 1671                             		.loc 1 518 21 view .LVU710
 1672 0138 6C C4                   		shll	#12, r4
 518:../src/smc_gen/r_drw2d_rx/src/tes/dave_edge.c ****             xa = -invBlur;
 1673                             		.loc 1 518 41 view .LVU711
 1674 013a DF 35                   		mov.W	r3, r5
 1675 013c 4F A5                   		mul	r10, r5
 518:../src/smc_gen/r_drw2d_rx/src/tes/dave_edge.c ****             xa = -invBlur;
 1676                             		.loc 1 518 62 view .LVU712
 1677 013e 6A 45                   		shar	#4, r5
 518:../src/smc_gen/r_drw2d_rx/src/tes/dave_edge.c ****             xa = -invBlur;
 1678                             		.loc 1 518 15 view .LVU713
 1679 0140 FF 05 54                		sub	r5, r4, r5
 1680                             	.LVL224:
 519:../src/smc_gen/r_drw2d_rx/src/tes/dave_edge.c ****             D2_MUL3264(invBlur, &n, &tmp);
 1681                             		.loc 1 519 13 is_stmt 1 view .LVU714
 519:../src/smc_gen/r_drw2d_rx/src/tes/dave_edge.c ****             D2_MUL3264(invBlur, &n, &tmp);
 1682                             		.loc 1 519 16 is_stmt 0 view .LVU715
 1683 0143 FC 07 F3                		neg	r15, r3
 1684                             	.LVL225:
 520:../src/smc_gen/r_drw2d_rx/src/tes/dave_edge.c ****             D2_SHIFTRIGHT64(&tmp, 16, &n);
 1685                             		.loc 1 520 13 is_stmt 1 view .LVU716
 1686 0146 FD BF FE                		shar	#31, r15, r14
 1687 0149 4F AE                   		mul	r10, r14
 1688 014b 4F FB                   		mul	r15, r11
 1689                             	.LVL226:
 520:../src/smc_gen/r_drw2d_rx/src/tes/dave_edge.c ****             D2_SHIFTRIGHT64(&tmp, 16, &n);
 1690                             		.loc 1 520 13 is_stmt 0 view .LVU717
 1691 014d 4B BE                   		add	r11, r14
 1692 014f FC 1F FA                		emulu	r15, r10
 1693                             	.LVL227:
 520:../src/smc_gen/r_drw2d_rx/src/tes/dave_edge.c ****             D2_SHIFTRIGHT64(&tmp, 16, &n);
 1694                             		.loc 1 520 13 view .LVU718
 1695 0152 4B EB                   		add	r14, r11
 1696                             	.LVL228:
 521:../src/smc_gen/r_drw2d_rx/src/tes/dave_edge.c ****             ya = D2_CAST64TO32(&n); /* (n * redinv) >> 8; */
 1697                             		.loc 1 521 13 is_stmt 1 view .LVU719
 1698 0154 EF B2                   		mov.L	r11, r2
 1699                             	.LVL229:
 521:../src/smc_gen/r_drw2d_rx/src/tes/dave_edge.c ****             ya = D2_CAST64TO32(&n); /* (n * redinv) >> 8; */
 1700                             		.loc 1 521 13 is_stmt 0 view .LVU720
 1701 0156 6D 02                   		shll	#16, r2
 1702 0158 69 0A                   		shlr	#16, r10
 1703                             	.LVL230:
 522:../src/smc_gen/r_drw2d_rx/src/tes/dave_edge.c ****          }
 1704                             		.loc 1 522 13 is_stmt 1 view .LVU721
 522:../src/smc_gen/r_drw2d_rx/src/tes/dave_edge.c ****          }
 1705                             		.loc 1 522 16 is_stmt 0 view .LVU722
 1706 015a 57 A2                   		or	r10, r2
 1707                             	.LVL231:
 522:../src/smc_gen/r_drw2d_rx/src/tes/dave_edge.c ****          }
 1708                             		.loc 1 522 16 view .LVU723
 1709 015c 38 FC FE                		bra	.L58
 1710                             	.LVL232:
 1711                             	.L65:
 532:../src/smc_gen/r_drw2d_rx/src/tes/dave_edge.c ****          py = (d2_point)(py + (d2_point) dy);
 1712                             		.loc 1 532 10 is_stmt 1 view .LVU724
 532:../src/smc_gen/r_drw2d_rx/src/tes/dave_edge.c ****          py = (d2_point)(py + (d2_point) dy);
 1713                             		.loc 1 532 29 is_stmt 0 view .LVU725
 1714 015f FF 26 24                		add	r2, r4, r6
 1715                             	.LVL233:
 533:../src/smc_gen/r_drw2d_rx/src/tes/dave_edge.c **** 
 1716                             		.loc 1 533 10 is_stmt 1 view .LVU726
 533:../src/smc_gen/r_drw2d_rx/src/tes/dave_edge.c **** 
 1717                             		.loc 1 533 29 is_stmt 0 view .LVU727
 1718 0162 FF 25 3E                		add	r3, r14, r5
 1719                             	.LVL234:
 535:../src/smc_gen/r_drw2d_rx/src/tes/dave_edge.c ****          {
 1720                             		.loc 1 535 10 is_stmt 1 view .LVU728
 535:../src/smc_gen/r_drw2d_rx/src/tes/dave_edge.c ****          {
 1721                             		.loc 1 535 18 is_stmt 0 view .LVU729
 1722 0165 FC 07 EB                		neg	r14, r11
 535:../src/smc_gen/r_drw2d_rx/src/tes/dave_edge.c ****          {
 1723                             		.loc 1 535 12 view .LVU730
 1724 0168 47 4B                   		cmp	r4, r11
 1725 016a 28 36                   		bge	.L61
 538:../src/smc_gen/r_drw2d_rx/src/tes/dave_edge.c ****             s = ((px * D2_CAST64TO32(&n)) >> 4) - (py << (16 - 4));         /* PRQA S 4131 */ /* $M
 1726                             		.loc 1 538 13 is_stmt 1 view .LVU731
 1727 016c FD D0 E2                		shll	#16, r14, r2
 1728 016f FC 23 42                		div	r4, r2
 1729 0172 FD BF 2B                		shar	#31, r2, r11
 1730                             	.LVL235:
 539:../src/smc_gen/r_drw2d_rx/src/tes/dave_edge.c ****             D2_MUL3264(invBlur, &n, &tmp);
 1731                             		.loc 1 539 13 view .LVU732
 539:../src/smc_gen/r_drw2d_rx/src/tes/dave_edge.c ****             D2_MUL3264(invBlur, &n, &tmp);
 1732                             		.loc 1 539 22 is_stmt 0 view .LVU733
 1733 0175 DF 64                   		mov.W	r6, r4
 1734                             	.LVL236:
 539:../src/smc_gen/r_drw2d_rx/src/tes/dave_edge.c ****             D2_MUL3264(invBlur, &n, &tmp);
 1735                             		.loc 1 539 22 view .LVU734
 1736 0177 4F 24                   		mul	r2, r4
 539:../src/smc_gen/r_drw2d_rx/src/tes/dave_edge.c ****             D2_MUL3264(invBlur, &n, &tmp);
 1737                             		.loc 1 539 43 view .LVU735
 1738 0179 6A 44                   		shar	#4, r4
 539:../src/smc_gen/r_drw2d_rx/src/tes/dave_edge.c ****             D2_MUL3264(invBlur, &n, &tmp);
 1739                             		.loc 1 539 55 view .LVU736
 1740 017b DF 55                   		mov.W	r5, r5
 1741                             	.LVL237:
 539:../src/smc_gen/r_drw2d_rx/src/tes/dave_edge.c ****             D2_MUL3264(invBlur, &n, &tmp);
 1742                             		.loc 1 539 55 view .LVU737
 1743 017d 6C C5                   		shll	#12, r5
 539:../src/smc_gen/r_drw2d_rx/src/tes/dave_edge.c ****             D2_MUL3264(invBlur, &n, &tmp);
 1744                             		.loc 1 539 15 view .LVU738
 1745 017f FF 05 54                		sub	r5, r4, r5
 1746                             	.LVL238:
 540:../src/smc_gen/r_drw2d_rx/src/tes/dave_edge.c ****             D2_SHIFTRIGHT64(&tmp, 16, &n);
 1747                             		.loc 1 540 13 is_stmt 1 view .LVU739
 1748 0182 FD BF FA                		shar	#31, r15, r10
 1749 0185 4F 2A                   		mul	r2, r10
 1750 0187 FF 34 FB                		mul	r15, r11, r4
 1751 018a 4B 4A                   		add	r4, r10
 1752 018c FC 1F F2                		emulu	r15, r2
 1753                             	.LVL239:
 540:../src/smc_gen/r_drw2d_rx/src/tes/dave_edge.c ****             D2_SHIFTRIGHT64(&tmp, 16, &n);
 1754                             		.loc 1 540 13 is_stmt 0 view .LVU740
 1755 018f 4B A3                   		add	r10, r3
 1756                             	.LVL240:
 541:../src/smc_gen/r_drw2d_rx/src/tes/dave_edge.c ****             xa = -D2_CAST64TO32(&n); /* (-n * redinv) >> 8; */
 1757                             		.loc 1 541 13 is_stmt 1 view .LVU741
 1758 0191 FD D0 3A                		shll	#16, r3, r10
 1759 0194 69 02                   		shlr	#16, r2
 1760                             	.LVL241:
 541:../src/smc_gen/r_drw2d_rx/src/tes/dave_edge.c ****             xa = -D2_CAST64TO32(&n); /* (-n * redinv) >> 8; */
 1761                             		.loc 1 541 13 is_stmt 0 view .LVU742
 1762 0196 57 A2                   		or	r10, r2
 1763                             	.LVL242:
 542:../src/smc_gen/r_drw2d_rx/src/tes/dave_edge.c ****             ya = invBlur;
 1764                             		.loc 1 542 13 is_stmt 1 view .LVU743
 542:../src/smc_gen/r_drw2d_rx/src/tes/dave_edge.c ****             ya = invBlur;
 1765                             		.loc 1 542 16 is_stmt 0 view .LVU744
 1766 0198 FC 07 23                		neg	r2, r3
 1767                             	.LVL243:
 543:../src/smc_gen/r_drw2d_rx/src/tes/dave_edge.c ****          }
 1768                             		.loc 1 543 13 is_stmt 1 view .LVU745
 543:../src/smc_gen/r_drw2d_rx/src/tes/dave_edge.c ****          }
 1769                             		.loc 1 543 16 is_stmt 0 view .LVU746
 1770 019b EF F2                   		mov.L	r15, r2
 1771                             	.LVL244:
 543:../src/smc_gen/r_drw2d_rx/src/tes/dave_edge.c ****          }
 1772                             		.loc 1 543 16 view .LVU747
 1773 019d 38 BB FE                		bra	.L58
 1774                             	.LVL245:
 1775                             	.L61:
 548:../src/smc_gen/r_drw2d_rx/src/tes/dave_edge.c ****             s = ((py * D2_CAST64TO32(&n)) >> 4) - (px << (16 - 4));         /* PRQA S 4131 */ /* $M
 1776                             		.loc 1 548 13 is_stmt 1 view .LVU748
 1777 01a0 FD D0 42                		shll	#16, r4, r2
 1778 01a3 FC 23 E2                		div	r14, r2
 1779 01a6 FD BF 2B                		shar	#31, r2, r11
 1780                             	.LVL246:
 549:../src/smc_gen/r_drw2d_rx/src/tes/dave_edge.c ****             xa = invBlur;
 1781                             		.loc 1 549 13 view .LVU749
 549:../src/smc_gen/r_drw2d_rx/src/tes/dave_edge.c ****             xa = invBlur;
 1782                             		.loc 1 549 22 is_stmt 0 view .LVU750
 1783 01a9 DF 55                   		mov.W	r5, r5
 1784                             	.LVL247:
 549:../src/smc_gen/r_drw2d_rx/src/tes/dave_edge.c ****             xa = invBlur;
 1785                             		.loc 1 549 22 view .LVU751
 1786 01ab 4F 25                   		mul	r2, r5
 549:../src/smc_gen/r_drw2d_rx/src/tes/dave_edge.c ****             xa = invBlur;
 1787                             		.loc 1 549 43 view .LVU752
 1788 01ad FD A4 5A                		shar	#4, r5, r10
 549:../src/smc_gen/r_drw2d_rx/src/tes/dave_edge.c ****             xa = invBlur;
 1789                             		.loc 1 549 55 view .LVU753
 1790 01b0 DF 65                   		mov.W	r6, r5
 1791 01b2 6C C5                   		shll	#12, r5
 549:../src/smc_gen/r_drw2d_rx/src/tes/dave_edge.c ****             xa = invBlur;
 1792                             		.loc 1 549 15 view .LVU754
 1793 01b4 FF 05 5A                		sub	r5, r10, r5
 1794                             	.LVL248:
 550:../src/smc_gen/r_drw2d_rx/src/tes/dave_edge.c ****             D2_MUL3264(invBlur, &n, &tmp);
 1795                             		.loc 1 550 13 is_stmt 1 view .LVU755
 551:../src/smc_gen/r_drw2d_rx/src/tes/dave_edge.c ****             D2_SHIFTRIGHT64(&tmp, 16, &n);
 1796                             		.loc 1 551 13 view .LVU756
 1797 01b7 FD BF FA                		shar	#31, r15, r10
 1798 01ba 4F 2A                   		mul	r2, r10
 1799 01bc FF 34 FB                		mul	r15, r11, r4
 1800                             	.LVL249:
 551:../src/smc_gen/r_drw2d_rx/src/tes/dave_edge.c ****             D2_SHIFTRIGHT64(&tmp, 16, &n);
 1801                             		.loc 1 551 13 is_stmt 0 view .LVU757
 1802 01bf 4B 4A                   		add	r4, r10
 1803 01c1 FC 1F F2                		emulu	r15, r2
 1804                             	.LVL250:
 551:../src/smc_gen/r_drw2d_rx/src/tes/dave_edge.c ****             D2_SHIFTRIGHT64(&tmp, 16, &n);
 1805                             		.loc 1 551 13 view .LVU758
 1806 01c4 4B A3                   		add	r10, r3
 1807                             	.LVL251:
 552:../src/smc_gen/r_drw2d_rx/src/tes/dave_edge.c ****             ya = -D2_CAST64TO32(&n);
 1808                             		.loc 1 552 13 is_stmt 1 view .LVU759
 1809 01c6 FD D0 3A                		shll	#16, r3, r10
 1810 01c9 69 02                   		shlr	#16, r2
 1811                             	.LVL252:
 552:../src/smc_gen/r_drw2d_rx/src/tes/dave_edge.c ****             ya = -D2_CAST64TO32(&n);
 1812                             		.loc 1 552 13 is_stmt 0 view .LVU760
 1813 01cb 57 A2                   		or	r10, r2
 1814                             	.LVL253:
 553:../src/smc_gen/r_drw2d_rx/src/tes/dave_edge.c ****          }
 1815                             		.loc 1 553 13 is_stmt 1 view .LVU761
 553:../src/smc_gen/r_drw2d_rx/src/tes/dave_edge.c ****          }
 1816                             		.loc 1 553 16 is_stmt 0 view .LVU762
 1817 01cd 7E 12                   		neg	r2
 1818                             	.LVL254:
 550:../src/smc_gen/r_drw2d_rx/src/tes/dave_edge.c ****             D2_MUL3264(invBlur, &n, &tmp);
 1819                             		.loc 1 550 16 view .LVU763
 1820 01cf EF F3                   		mov.L	r15, r3
 1821 01d1 38 87 FE                		bra	.L58
 1822                             	.LVL255:
 1823                             	.L62:
 573:../src/smc_gen/r_drw2d_rx/src/tes/dave_edge.c ****             s = (px << (16 - 4)) - ((py * D2_CAST64TO32(&n)) >> 4);         /* PRQA S 4131 */ /* $M
 1824                             		.loc 1 573 13 is_stmt 1 view .LVU764
 1825 01d4 6D 04                   		shll	#16, r4
 1826                             	.LVL256:
 573:../src/smc_gen/r_drw2d_rx/src/tes/dave_edge.c ****             s = (px << (16 - 4)) - ((py * D2_CAST64TO32(&n)) >> 4);         /* PRQA S 4131 */ /* $M
 1827                             		.loc 1 573 13 is_stmt 0 view .LVU765
 1828 01d6 FC 23 E4                		div	r14, r4
 1829 01d9 FD BF 4A                		shar	#31, r4, r10
 1830                             	.LVL257:
 574:../src/smc_gen/r_drw2d_rx/src/tes/dave_edge.c ****             xa = -invBlur;
 1831                             		.loc 1 574 13 is_stmt 1 view .LVU766
 574:../src/smc_gen/r_drw2d_rx/src/tes/dave_edge.c ****             xa = -invBlur;
 1832                             		.loc 1 574 21 is_stmt 0 view .LVU767
 1833 01dc DF 2E                   		mov.W	r2, r14
 1834 01de 6C CE                   		shll	#12, r14
 574:../src/smc_gen/r_drw2d_rx/src/tes/dave_edge.c ****             xa = -invBlur;
 1835                             		.loc 1 574 41 view .LVU768
 1836 01e0 DF 35                   		mov.W	r3, r5
 1837 01e2 4F 45                   		mul	r4, r5
 574:../src/smc_gen/r_drw2d_rx/src/tes/dave_edge.c ****             xa = -invBlur;
 1838                             		.loc 1 574 62 view .LVU769
 1839 01e4 6A 45                   		shar	#4, r5
 574:../src/smc_gen/r_drw2d_rx/src/tes/dave_edge.c ****             xa = -invBlur;
 1840                             		.loc 1 574 15 view .LVU770
 1841 01e6 FF 05 5E                		sub	r5, r14, r5
 1842                             	.LVL258:
 575:../src/smc_gen/r_drw2d_rx/src/tes/dave_edge.c ****             D2_MUL3264(invBlur, &n, &tmp);
 1843                             		.loc 1 575 13 is_stmt 1 view .LVU771
 575:../src/smc_gen/r_drw2d_rx/src/tes/dave_edge.c ****             D2_MUL3264(invBlur, &n, &tmp);
 1844                             		.loc 1 575 16 is_stmt 0 view .LVU772
 1845 01e9 FC 07 F3                		neg	r15, r3
 1846                             	.LVL259:
 576:../src/smc_gen/r_drw2d_rx/src/tes/dave_edge.c ****             D2_SHIFTRIGHT64(&tmp, 16, &n);
 1847                             		.loc 1 576 13 is_stmt 1 view .LVU773
 1848 01ec FD BF FE                		shar	#31, r15, r14
 1849 01ef 4F 4E                   		mul	r4, r14
 1850 01f1 4F FA                   		mul	r15, r10
 1851                             	.LVL260:
 576:../src/smc_gen/r_drw2d_rx/src/tes/dave_edge.c ****             D2_SHIFTRIGHT64(&tmp, 16, &n);
 1852                             		.loc 1 576 13 is_stmt 0 view .LVU774
 1853 01f3 4B AE                   		add	r10, r14
 1854 01f5 EF FC                   		mov.L	r15, r12
 1855 01f7 FC 1F 4C                		emulu	r4, r12
 1856 01fa EF CA                   		mov.L	r12, r10
 1857 01fc EF DB                   		mov.L	r13, r11
 1858 01fe 4B EB                   		add	r14, r11
 1859                             	.LVL261:
 577:../src/smc_gen/r_drw2d_rx/src/tes/dave_edge.c ****             ya = D2_CAST64TO32(&n); /* (n * redinv) >> 8; */
 1860                             		.loc 1 577 13 is_stmt 1 view .LVU775
 1861 0200 EF B2                   		mov.L	r11, r2
 1862                             	.LVL262:
 577:../src/smc_gen/r_drw2d_rx/src/tes/dave_edge.c ****             ya = D2_CAST64TO32(&n); /* (n * redinv) >> 8; */
 1863                             		.loc 1 577 13 is_stmt 0 view .LVU776
 1864 0202 6D 02                   		shll	#16, r2
 1865 0204 69 0A                   		shlr	#16, r10
 1866                             	.LVL263:
 578:../src/smc_gen/r_drw2d_rx/src/tes/dave_edge.c ****          }
 1867                             		.loc 1 578 13 is_stmt 1 view .LVU777
 578:../src/smc_gen/r_drw2d_rx/src/tes/dave_edge.c ****          }
 1868                             		.loc 1 578 16 is_stmt 0 view .LVU778
 1869 0206 57 A2                   		or	r10, r2
 1870                             	.LVL264:
 578:../src/smc_gen/r_drw2d_rx/src/tes/dave_edge.c ****          }
 1871                             		.loc 1 578 16 view .LVU779
 1872 0208 38 50 FE                		bra	.L58
 1873                             	.LFE10:
 1875 020b 77 10 01 00 00          		.section	.text.d2_triedge_setupnoaa_intern,"ax",@progbits
 1876                             		.global	_d2_triedge_setupnoaa_intern
 1878                             	_d2_triedge_setupnoaa_intern:
 1879                             	.LVL265:
 1880                             	.LFB11:
 589:../src/smc_gen/r_drw2d_rx/src/tes/dave_edge.c **** 
 590:../src/smc_gen/r_drw2d_rx/src/tes/dave_edge.c **** /*--------------------------------------------------------------------------
 591:../src/smc_gen/r_drw2d_rx/src/tes/dave_edge.c ****  * warning: will overflow earlier than aa version. might blow 11bit border
 592:../src/smc_gen/r_drw2d_rx/src/tes/dave_edge.c ****  * edge deltas may not both be zero.
 593:../src/smc_gen/r_drw2d_rx/src/tes/dave_edge.c ****  * */
 594:../src/smc_gen/r_drw2d_rx/src/tes/dave_edge.c **** void d2_triedge_setupnoaa_intern( d2_limdata *lim, d2_point px, d2_point py, d2_s32 dx, d2_s32 dy, 
 595:../src/smc_gen/r_drw2d_rx/src/tes/dave_edge.c **** {
 1881                             		.loc 1 595 1 is_stmt 1 view -0
 1882                             		.loc 1 595 1 is_stmt 0 view .LVU781
 1883 0000 7E A7                   		push.l	r7
 1884                             	.LCFI10:
 1885                             		.loc 1 595 1 view .LVU782
 1886 0002 60 80                   		sub	#8, r0
 1887                             	.LCFI11:
 1888 0004 75 47 10                		mov.L	#16, r7
 1889 0007 4B 07                   		add	r0, r7
 1890 0009 EC 7E                   		mov.L	[r7], r14
 1891 000b A8 7F                   		mov.L	4[r7], r7
 596:../src/smc_gen/r_drw2d_rx/src/tes/dave_edge.c ****    d2_s32 s,xa,ya;
 1892                             		.loc 1 596 4 is_stmt 1 view .LVU783
 597:../src/smc_gen/r_drw2d_rx/src/tes/dave_edge.c **** 
 598:../src/smc_gen/r_drw2d_rx/src/tes/dave_edge.c ****    /* flip if negative (necessary for gapless rendering of adjacent edges) */
 599:../src/smc_gen/r_drw2d_rx/src/tes/dave_edge.c ****    if ( dy < 0 )
 1893                             		.loc 1 599 4 view .LVU784
 1894                             		.loc 1 599 7 is_stmt 0 view .LVU785
 1895 000d 61 0E                   		cmp	#0, r14
 1896 000f 29 2A                   		blt	.L71
 1897                             	.LVL266:
 1898                             	.L68:
 600:../src/smc_gen/r_drw2d_rx/src/tes/dave_edge.c ****    {
 601:../src/smc_gen/r_drw2d_rx/src/tes/dave_edge.c ****       px = (d2_point)(px + (d2_point) dx);
 602:../src/smc_gen/r_drw2d_rx/src/tes/dave_edge.c ****       py = (d2_point)(py + (d2_point) dy);
 603:../src/smc_gen/r_drw2d_rx/src/tes/dave_edge.c ****    }
 604:../src/smc_gen/r_drw2d_rx/src/tes/dave_edge.c **** 
 605:../src/smc_gen/r_drw2d_rx/src/tes/dave_edge.c ****    /* non normalized limiter base: not suited for aa rendering but fast */
 606:../src/smc_gen/r_drw2d_rx/src/tes/dave_edge.c ****    s = ((px * dy) - (py * dx)) << (16 - 8);    /* PRQA S 4131       */ /* $Misra: #PERF_ARITHMETIC_
 1899                             		.loc 1 606 4 is_stmt 1 view .LVU786
 1900                             		.loc 1 606 13 is_stmt 0 view .LVU787
 1901 0011 DF 22                   		mov.W	r2, r2
 1902                             		.loc 1 606 13 view .LVU788
 1903 0013 4F E2                   		mul	r14, r2
 1904                             	.LVL267:
 1905                             		.loc 1 606 25 view .LVU789
 1906 0015 DF 33                   		mov.W	r3, r3
 1907                             		.loc 1 606 25 view .LVU790
 1908 0017 FF 35 43                		mul	r4, r3, r5
 1909                             		.loc 1 606 19 view .LVU791
 1910 001a 43 52                   		sub	r5, r2
 1911                             		.loc 1 606 6 view .LVU792
 1912 001c FD C8 25                		shll	#8, r2, r5
 1913                             	.LVL268:
 607:../src/smc_gen/r_drw2d_rx/src/tes/dave_edge.c ****    xa = (-dy) << (16 - 4);                     /* PRQA S 4131       */ /* $Misra: #PERF_ARITHMETIC_
 1914                             		.loc 1 607 4 is_stmt 1 view .LVU793
 1915                             		.loc 1 607 10 is_stmt 0 view .LVU794
 1916 001f 7E 1E                   		neg	r14
 1917                             		.loc 1 607 7 view .LVU795
 1918 0021 6C CE                   		shll	#12, r14
 1919                             	.LVL269:
 608:../src/smc_gen/r_drw2d_rx/src/tes/dave_edge.c ****    ya =   dx  << (16 - 4);                     /* PRQA S 4131       */ /* $Misra: #PERF_ARITHMETIC_
 1920                             		.loc 1 608 4 is_stmt 1 view .LVU796
 1921                             		.loc 1 608 7 is_stmt 0 view .LVU797
 1922 0023 6C C4                   		shll	#12, r4
 1923                             	.LVL270:
 609:../src/smc_gen/r_drw2d_rx/src/tes/dave_edge.c **** 
 610:../src/smc_gen/r_drw2d_rx/src/tes/dave_edge.c ****    /* use > instead of >= threshold on right/top edges */
 611:../src/smc_gen/r_drw2d_rx/src/tes/dave_edge.c ****    if(0 != rightedge)
 1924                             		.loc 1 611 4 is_stmt 1 view .LVU798
 1925                             		.loc 1 611 6 is_stmt 0 view .LVU799
 1926 0025 61 07                   		cmp	#0, r7
 1927 0027 13                      		beq	.L69
 612:../src/smc_gen/r_drw2d_rx/src/tes/dave_edge.c ****    {
 613:../src/smc_gen/r_drw2d_rx/src/tes/dave_edge.c ****       s += D2_EPSILON;
 1928                             		.loc 1 613 7 is_stmt 1 view .LVU800
 1929                             		.loc 1 613 9 is_stmt 0 view .LVU801
 1930 0028 62 15                   		add	#1, r5
 1931                             	.LVL271:
 1932                             	.L69:
 614:../src/smc_gen/r_drw2d_rx/src/tes/dave_edge.c ****    }
 615:../src/smc_gen/r_drw2d_rx/src/tes/dave_edge.c **** 
 616:../src/smc_gen/r_drw2d_rx/src/tes/dave_edge.c ****    lim->start = s + (D2_FIX16(1)/2);
 1933                             		.loc 1 616 4 is_stmt 1 view .LVU802
 1934                             		.loc 1 616 19 is_stmt 0 view .LVU803
 1935 002a 73 55 00 80 00          		add	#0x8000, r5
 1936                             	.LVL272:
 1937                             		.loc 1 616 15 view .LVU804
 1938 002f E3 15                   		mov.L	r5, [r1]
 617:../src/smc_gen/r_drw2d_rx/src/tes/dave_edge.c ****    lim->xadd  = xa;
 1939                             		.loc 1 617 4 is_stmt 1 view .LVU805
 1940                             		.loc 1 617 15 is_stmt 0 view .LVU806
 1941 0031 E7 1E 01                		mov.L	r14, 4[r1]
 618:../src/smc_gen/r_drw2d_rx/src/tes/dave_edge.c ****    lim->yadd  = ya;
 1942                             		.loc 1 618 4 is_stmt 1 view .LVU807
 1943                             		.loc 1 618 15 is_stmt 0 view .LVU808
 1944 0034 A0 94                   		mov.L	r4, 8[r1]
 619:../src/smc_gen/r_drw2d_rx/src/tes/dave_edge.c **** }
 1945                             		.loc 1 619 1 view .LVU809
 1946 0036 3F 77 03                		rtsd	#12, r7-r7
 1947                             	.LVL273:
 1948                             	.L71:
 601:../src/smc_gen/r_drw2d_rx/src/tes/dave_edge.c ****       py = (d2_point)(py + (d2_point) dy);
 1949                             		.loc 1 601 7 is_stmt 1 view .LVU810
 601:../src/smc_gen/r_drw2d_rx/src/tes/dave_edge.c ****       py = (d2_point)(py + (d2_point) dy);
 1950                             		.loc 1 601 10 is_stmt 0 view .LVU811
 1951 0039 4B 42                   		add	r4, r2
 1952                             	.LVL274:
 602:../src/smc_gen/r_drw2d_rx/src/tes/dave_edge.c ****    }
 1953                             		.loc 1 602 7 is_stmt 1 view .LVU812
 602:../src/smc_gen/r_drw2d_rx/src/tes/dave_edge.c ****    }
 1954                             		.loc 1 602 10 is_stmt 0 view .LVU813
 1955 003b 4B E3                   		add	r14, r3
 1956                             	.LVL275:
 602:../src/smc_gen/r_drw2d_rx/src/tes/dave_edge.c ****    }
 1957                             		.loc 1 602 10 view .LVU814
 1958 003d 2E D4                   		bra	.L68
 1959                             	.LFE11:
 1961                             		.section	.text.d2_triedge_setupsqrt_intern,"ax",@progbits
 1962                             		.global	_d2_triedge_setupsqrt_intern
 1964                             	_d2_triedge_setupsqrt_intern:
 1965                             	.LVL276:
 1966                             	.LFB12:
 620:../src/smc_gen/r_drw2d_rx/src/tes/dave_edge.c **** 
 621:../src/smc_gen/r_drw2d_rx/src/tes/dave_edge.c **** /*--------------------------------------------------------------------------
 622:../src/smc_gen/r_drw2d_rx/src/tes/dave_edge.c ****  *
 623:../src/smc_gen/r_drw2d_rx/src/tes/dave_edge.c ****  * */
 624:../src/smc_gen/r_drw2d_rx/src/tes/dave_edge.c **** void d2_triedge_setupsqrt_intern( d2_limdata *lim, d2_point px, d2_point py, d2_s32 dx, d2_s32 dy, 
 625:../src/smc_gen/r_drw2d_rx/src/tes/dave_edge.c **** {
 1967                             		.loc 1 625 1 is_stmt 1 view -0
 1968                             		.loc 1 625 1 is_stmt 0 view .LVU816
 1969 0000 6E 6C                   		pushm	r6-r12
 1970                             	.LCFI12:
 1971                             		.loc 1 625 1 view .LVU817
 1972 0002 60 80                   		sub	#8, r0
 1973                             	.LCFI13:
 1974 0004 75 47 28                		mov.L	#40, r7
 1975 0007 4B 07                   		add	r0, r7
 1976 0009 EF 16                   		mov.L	r1, r6
 1977 000b DF 2A                   		mov.W	r2, r10
 1978 000d DF 3B                   		mov.W	r3, r11
 1979 000f EF 49                   		mov.L	r4, r9
 1980 0011 EC 7C                   		mov.L	[r7], r12
 1981 0013 A8 7F                   		mov.L	4[r7], r7
 626:../src/smc_gen/r_drw2d_rx/src/tes/dave_edge.c ****    d2_s32 s, xa, ya, l;
 1982                             		.loc 1 626 4 is_stmt 1 view .LVU818
 627:../src/smc_gen/r_drw2d_rx/src/tes/dave_edge.c **** 
 628:../src/smc_gen/r_drw2d_rx/src/tes/dave_edge.c ****    /* flip if negative (necessary for gapless rendering of adjacent edges) */
 629:../src/smc_gen/r_drw2d_rx/src/tes/dave_edge.c ****    if(dy < 0)
 1983                             		.loc 1 629 4 view .LVU819
 1984                             		.loc 1 629 6 is_stmt 0 view .LVU820
 1985 0015 61 0C                   		cmp	#0, r12
 1986 0017 29 42                   		blt	.L76
 1987                             	.LVL277:
 1988                             	.L73:
 630:../src/smc_gen/r_drw2d_rx/src/tes/dave_edge.c ****    {
 631:../src/smc_gen/r_drw2d_rx/src/tes/dave_edge.c ****       px = (d2_point)(px + (d2_point) dx);
 632:../src/smc_gen/r_drw2d_rx/src/tes/dave_edge.c ****       py = (d2_point)(py + (d2_point) dy);
 633:../src/smc_gen/r_drw2d_rx/src/tes/dave_edge.c ****    }
 634:../src/smc_gen/r_drw2d_rx/src/tes/dave_edge.c **** 
 635:../src/smc_gen/r_drw2d_rx/src/tes/dave_edge.c ****    l = (d2_s32)( (65536u * 16u) / (d2_u32)d2_sqrt( (d2_u32)( (dx * dx) + (dy * dy) ) ) );
 1989                             		.loc 1 635 4 is_stmt 1 view .LVU821
 1990                             		.loc 1 635 66 is_stmt 0 view .LVU822
 1991 0019 FF 31 99                		mul	r9, r9, r1
 1992                             	.LVL278:
 1993                             		.loc 1 635 78 view .LVU823
 1994 001c FF 35 CC                		mul	r12, r12, r5
 1995                             		.loc 1 635 43 view .LVU824
 1996 001f 4B 51                   		add	r5, r1
 1997 0021 05 00 00 00             		bsr	_d2_sqrt
 1998                             	.LVL279:
 1999                             		.loc 1 635 33 view .LVU825
 2000 0025 FB 4E 00 00 10          		mov.L	#0x100000, r4
 2001 002a FC 27 14                		divu	r1, r4
 2002                             	.LVL280:
 636:../src/smc_gen/r_drw2d_rx/src/tes/dave_edge.c **** 
 637:../src/smc_gen/r_drw2d_rx/src/tes/dave_edge.c ****    xa = (-dy * l) >> 4;                 /* PRQA S 0502 */ /* $Misra: #PERF_ARITHMETIC_SHIFT_RIGHT $
 2003                             		.loc 1 637 4 is_stmt 1 view .LVU826
 2004                             		.loc 1 637 10 is_stmt 0 view .LVU827
 2005 002d 7E 1C                   		neg	r12
 2006                             		.loc 1 637 14 view .LVU828
 2007 002f 4F 4C                   		mul	r4, r12
 2008                             		.loc 1 637 7 view .LVU829
 2009 0031 6A 4C                   		shar	#4, r12
 2010                             	.LVL281:
 638:../src/smc_gen/r_drw2d_rx/src/tes/dave_edge.c ****    ya = ( dx * l) >> 4;                 /* PRQA S 0502 */ /* $Misra: #PERF_ARITHMETIC_SHIFT_RIGHT $
 2011                             		.loc 1 638 4 is_stmt 1 view .LVU830
 2012                             		.loc 1 638 14 is_stmt 0 view .LVU831
 2013 0033 4F 94                   		mul	r9, r4
 2014                             	.LVL282:
 2015                             		.loc 1 638 7 view .LVU832
 2016 0035 6A 44                   		shar	#4, r4
 2017                             	.LVL283:
 639:../src/smc_gen/r_drw2d_rx/src/tes/dave_edge.c ****    s = ((-px * xa) - (py * ya) ) >> 4;  /* PRQA S 0502 */ /* $Misra: #PERF_ARITHMETIC_SHIFT_RIGHT $
 2018                             		.loc 1 639 4 is_stmt 1 view .LVU833
 2019                             		.loc 1 639 10 is_stmt 0 view .LVU834
 2020 0037 DF A5                   		mov.W	r10, r5
 2021 0039 7E 15                   		neg	r5
 2022                             		.loc 1 639 14 view .LVU835
 2023 003b 4F C5                   		mul	r12, r5
 2024                             		.loc 1 639 26 view .LVU836
 2025 003d DF BB                   		mov.W	r11, r11
 2026                             		.loc 1 639 26 view .LVU837
 2027 003f 4F 4B                   		mul	r4, r11
 2028                             	.LVL284:
 2029                             		.loc 1 639 20 view .LVU838
 2030 0041 43 B5                   		sub	r11, r5
 2031                             		.loc 1 639 6 view .LVU839
 2032 0043 6A 45                   		shar	#4, r5
 2033                             	.LVL285:
 640:../src/smc_gen/r_drw2d_rx/src/tes/dave_edge.c **** 
 641:../src/smc_gen/r_drw2d_rx/src/tes/dave_edge.c ****    /* use > instead of >= threshold on right/top edges */
 642:../src/smc_gen/r_drw2d_rx/src/tes/dave_edge.c ****    if(0 != rightedge)
 2034                             		.loc 1 642 4 is_stmt 1 view .LVU840
 2035                             		.loc 1 642 6 is_stmt 0 view .LVU841
 2036 0045 61 07                   		cmp	#0, r7
 2037 0047 13                      		beq	.L74
 643:../src/smc_gen/r_drw2d_rx/src/tes/dave_edge.c ****    {
 644:../src/smc_gen/r_drw2d_rx/src/tes/dave_edge.c ****       s += D2_EPSILON;
 2038                             		.loc 1 644 7 is_stmt 1 view .LVU842
 2039                             		.loc 1 644 9 is_stmt 0 view .LVU843
 2040 0048 62 15                   		add	#1, r5
 2041                             	.LVL286:
 2042                             	.L74:
 645:../src/smc_gen/r_drw2d_rx/src/tes/dave_edge.c ****    }
 646:../src/smc_gen/r_drw2d_rx/src/tes/dave_edge.c **** 
 647:../src/smc_gen/r_drw2d_rx/src/tes/dave_edge.c ****    lim->start = s + (D2_FIX16(1)/2);
 2043                             		.loc 1 647 4 is_stmt 1 view .LVU844
 2044                             		.loc 1 647 19 is_stmt 0 view .LVU845
 2045 004a 73 55 00 80 00          		add	#0x8000, r5
 2046                             	.LVL287:
 2047                             		.loc 1 647 15 view .LVU846
 2048 004f E3 65                   		mov.L	r5, [r6]
 648:../src/smc_gen/r_drw2d_rx/src/tes/dave_edge.c ****    lim->xadd  = xa;
 2049                             		.loc 1 648 4 is_stmt 1 view .LVU847
 2050                             		.loc 1 648 15 is_stmt 0 view .LVU848
 2051 0051 E7 6C 01                		mov.L	r12, 4[r6]
 649:../src/smc_gen/r_drw2d_rx/src/tes/dave_edge.c ****    lim->yadd  = ya;
 2052                             		.loc 1 649 4 is_stmt 1 view .LVU849
 2053                             		.loc 1 649 15 is_stmt 0 view .LVU850
 2054 0054 A0 E4                   		mov.L	r4, 8[r6]
 650:../src/smc_gen/r_drw2d_rx/src/tes/dave_edge.c **** }
 2055                             		.loc 1 650 1 view .LVU851
 2056 0056 3F 6C 09                		rtsd	#36, r6-r12
 2057                             	.LVL288:
 2058                             	.L76:
 631:../src/smc_gen/r_drw2d_rx/src/tes/dave_edge.c ****       py = (d2_point)(py + (d2_point) dy);
 2059                             		.loc 1 631 7 is_stmt 1 view .LVU852
 631:../src/smc_gen/r_drw2d_rx/src/tes/dave_edge.c ****       py = (d2_point)(py + (d2_point) dy);
 2060                             		.loc 1 631 10 is_stmt 0 view .LVU853
 2061 0059 4B 4A                   		add	r4, r10
 2062                             	.LVL289:
 632:../src/smc_gen/r_drw2d_rx/src/tes/dave_edge.c ****    }
 2063                             		.loc 1 632 7 is_stmt 1 view .LVU854
 632:../src/smc_gen/r_drw2d_rx/src/tes/dave_edge.c ****    }
 2064                             		.loc 1 632 10 is_stmt 0 view .LVU855
 2065 005b 4B CB                   		add	r12, r11
 2066                             	.LVL290:
 632:../src/smc_gen/r_drw2d_rx/src/tes/dave_edge.c ****    }
 2067                             		.loc 1 632 10 view .LVU856
 2068 005d 2E BC                   		bra	.L73
 2069                             	.LFE12:
 2071                             		.section	.text.d2_invertlimiter_intern,"ax",@progbits
 2072                             		.global	_d2_invertlimiter_intern
 2074                             	_d2_invertlimiter_intern:
 2075                             	.LVL291:
 2076                             	.LFB13:
 651:../src/smc_gen/r_drw2d_rx/src/tes/dave_edge.c **** 
 652:../src/smc_gen/r_drw2d_rx/src/tes/dave_edge.c **** /*--------------------------------------------------------------------------
 653:../src/smc_gen/r_drw2d_rx/src/tes/dave_edge.c ****  * used to setup bottom-up rendering
 654:../src/smc_gen/r_drw2d_rx/src/tes/dave_edge.c ****  * */
 655:../src/smc_gen/r_drw2d_rx/src/tes/dave_edge.c **** void d2_invertlimiter_intern(d2_limdata *lim, d2_s32 ystep)
 656:../src/smc_gen/r_drw2d_rx/src/tes/dave_edge.c **** {
 2077                             		.loc 1 656 1 is_stmt 1 view -0
 657:../src/smc_gen/r_drw2d_rx/src/tes/dave_edge.c ****    /* prestep and flip */
 658:../src/smc_gen/r_drw2d_rx/src/tes/dave_edge.c ****    lim->start =  lim->start + (lim->yadd * ystep);
 2078                             		.loc 1 658 4 view .LVU858
 2079                             		.loc 1 658 35 is_stmt 0 view .LVU859
 2080 0000 A8 95                   		mov.L	8[r1], r5
 2081                             		.loc 1 658 42 view .LVU860
 2082 0002 4F 52                   		mul	r5, r2
 2083                             	.LVL292:
 2084                             		.loc 1 658 29 view .LVU861
 2085 0004 06 88 12                		add	[r1], r2
 2086                             		.loc 1 658 15 view .LVU862
 2087 0007 E3 12                   		mov.L	r2, [r1]
 659:../src/smc_gen/r_drw2d_rx/src/tes/dave_edge.c ****    lim->yadd  = -lim->yadd;
 2088                             		.loc 1 659 4 is_stmt 1 view .LVU863
 2089                             		.loc 1 659 17 is_stmt 0 view .LVU864
 2090 0009 7E 15                   		neg	r5
 2091                             		.loc 1 659 15 view .LVU865
 2092 000b A0 95                   		mov.L	r5, 8[r1]
 660:../src/smc_gen/r_drw2d_rx/src/tes/dave_edge.c **** }
 2093                             		.loc 1 660 1 view .LVU866
 2094 000d 02                      		rts
 2095                             	.LFE13:
 2315                             	.Letext0:
 2316                             		.file 2 "D:\\e2_studio\\workspace\\FULLMONI_WIDE\\Firmware\\src\\smc_gen\\r_drw2d_rx\\inc\\tes/dav
 2317                             		.file 3 "D:\\e2_studio\\workspace\\FULLMONI_WIDE\\Firmware\\src\\smc_gen\\r_drw2d_rx\\inc\\tes/dav
 2318                             		.file 4 "../src/smc_gen/r_drw2d_rx/src/tes/dave_intern.h"
 2319                             		.file 5 "../src/smc_gen/r_drw2d_rx/src/tes/dave_dlist.h"
 2320                             		.file 6 "../src/smc_gen/r_drw2d_rx/src/tes/dave_rbuffer.h"
 2321                             		.file 7 "../src/smc_gen/r_drw2d_rx/src/tes/dave_gradient.h"
 2322                             		.file 8 "../src/smc_gen/r_drw2d_rx/src/tes/dave_context.h"
 2323                             		.file 9 "D:\\e2_studio\\workspace\\FULLMONI_WIDE\\Firmware\\src\\smc_gen\\r_drw2d_rx\\inc\\tes/dav
