   1                             		.file	"dave_viewport.c"
   2                             		.section P,"ax"
   3                             	.Ltext0:
   4                             		.section	.text.d2_cliprect,"ax",@progbits
   5                             		.global	_d2_cliprect
   7                             	_d2_cliprect:
   8                             	.LVL0:
   9                             	.LFB6:
  10                             		.file 1 "../src/smc_gen/r_drw2d_rx/src/tes/dave_viewport.c"
   1:../src/smc_gen/r_drw2d_rx/src/tes/dave_viewport.c **** /*--------------------------------------------------------------------------
   2:../src/smc_gen/r_drw2d_rx/src/tes/dave_viewport.c ****  * Project: D/AVE
   3:../src/smc_gen/r_drw2d_rx/src/tes/dave_viewport.c ****  * File:    dave_viewport.c (%version: 21 %)
   4:../src/smc_gen/r_drw2d_rx/src/tes/dave_viewport.c ****  *          created Wed Jan 12 16:11:17 2005 by hh04027
   5:../src/smc_gen/r_drw2d_rx/src/tes/dave_viewport.c ****  *
   6:../src/smc_gen/r_drw2d_rx/src/tes/dave_viewport.c ****  * Description:
   7:../src/smc_gen/r_drw2d_rx/src/tes/dave_viewport.c ****  *  %date_modified: Fri Jan 12 14:15:14 2007 %  (%derived_by:  hh04046 %)
   8:../src/smc_gen/r_drw2d_rx/src/tes/dave_viewport.c ****  *
   9:../src/smc_gen/r_drw2d_rx/src/tes/dave_viewport.c ****  * Changes:
  10:../src/smc_gen/r_drw2d_rx/src/tes/dave_viewport.c ****  *  2007-08-31 ASc  removed tabs, changed C++ to C comments, added
  11:../src/smc_gen/r_drw2d_rx/src/tes/dave_viewport.c ****  *                   descriptions for d2_getcliprect and d2_getframebuffer
  12:../src/smc_gen/r_drw2d_rx/src/tes/dave_viewport.c ****  *  2008-07-17 MRe  added RGBA formats
  13:../src/smc_gen/r_drw2d_rx/src/tes/dave_viewport.c ****  *  2009-10-29 CSe  Allow cliprect of width or height 1.
  14:../src/smc_gen/r_drw2d_rx/src/tes/dave_viewport.c ****  *  2011-09-05 MRe  removed check of fb format change; check now done at render start
  15:../src/smc_gen/r_drw2d_rx/src/tes/dave_viewport.c ****  *  2012-09-25 BSp  MISRA cleanup
  16:../src/smc_gen/r_drw2d_rx/src/tes/dave_viewport.c ****  *-------------------------------------------------------------------------- */
  17:../src/smc_gen/r_drw2d_rx/src/tes/dave_viewport.c **** 
  18:../src/smc_gen/r_drw2d_rx/src/tes/dave_viewport.c **** 
  19:../src/smc_gen/r_drw2d_rx/src/tes/dave_viewport.c **** /*--------------------------------------------------------------------------
  20:../src/smc_gen/r_drw2d_rx/src/tes/dave_viewport.c ****  *
  21:../src/smc_gen/r_drw2d_rx/src/tes/dave_viewport.c ****  * Title: Viewport Functions
  22:../src/smc_gen/r_drw2d_rx/src/tes/dave_viewport.c ****  * Framebuffer and view specific functions.
  23:../src/smc_gen/r_drw2d_rx/src/tes/dave_viewport.c ****  *
  24:../src/smc_gen/r_drw2d_rx/src/tes/dave_viewport.c ****  *-------------------------------------------------------------------------- */
  25:../src/smc_gen/r_drw2d_rx/src/tes/dave_viewport.c **** 
  26:../src/smc_gen/r_drw2d_rx/src/tes/dave_viewport.c **** #include "dave_driver.h"
  27:../src/smc_gen/r_drw2d_rx/src/tes/dave_viewport.c **** #include "dave_intern.h"
  28:../src/smc_gen/r_drw2d_rx/src/tes/dave_viewport.c **** #include "dave_viewport.h"
  29:../src/smc_gen/r_drw2d_rx/src/tes/dave_viewport.c **** #include "dave_dlist.h"
  30:../src/smc_gen/r_drw2d_rx/src/tes/dave_viewport.c **** 
  31:../src/smc_gen/r_drw2d_rx/src/tes/dave_viewport.c **** /*--------------------------------------------------------------------------
  32:../src/smc_gen/r_drw2d_rx/src/tes/dave_viewport.c ****  * Group: Clipping
  33:../src/smc_gen/r_drw2d_rx/src/tes/dave_viewport.c ****  * */
  34:../src/smc_gen/r_drw2d_rx/src/tes/dave_viewport.c **** 
  35:../src/smc_gen/r_drw2d_rx/src/tes/dave_viewport.c **** /*--------------------------------------------------------------------------
  36:../src/smc_gen/r_drw2d_rx/src/tes/dave_viewport.c ****  * function: d2_cliprect
  37:../src/smc_gen/r_drw2d_rx/src/tes/dave_viewport.c ****  * Specify the clipping rectangle.
  38:../src/smc_gen/r_drw2d_rx/src/tes/dave_viewport.c ****  *
  39:../src/smc_gen/r_drw2d_rx/src/tes/dave_viewport.c ****  * No pixels outside the clipping rectangle are touched (rendered or read).
  40:../src/smc_gen/r_drw2d_rx/src/tes/dave_viewport.c ****  * The clipping borders are specified as integer positions (in contrast to
  41:../src/smc_gen/r_drw2d_rx/src/tes/dave_viewport.c ****  * rendering where subpixel positions are supported).
  42:../src/smc_gen/r_drw2d_rx/src/tes/dave_viewport.c ****  *
  43:../src/smc_gen/r_drw2d_rx/src/tes/dave_viewport.c ****  * The driver checks whether the specified rectangle fits within the framebuffer
  44:../src/smc_gen/r_drw2d_rx/src/tes/dave_viewport.c ****  * memory (by checking the dimensions given with <d2_framebuffer>).
  45:../src/smc_gen/r_drw2d_rx/src/tes/dave_viewport.c ****  * Cliprects will be automatically adjusted to fit inside the framebuffer region.
  46:../src/smc_gen/r_drw2d_rx/src/tes/dave_viewport.c ****  *
  47:../src/smc_gen/r_drw2d_rx/src/tes/dave_viewport.c ****  * parameters:
  48:../src/smc_gen/r_drw2d_rx/src/tes/dave_viewport.c ****  *   handle - device pointer (see: <d2_opendevice>)
  49:../src/smc_gen/r_drw2d_rx/src/tes/dave_viewport.c ****  *   xmin - integer pixel position of left border (inclusive)
  50:../src/smc_gen/r_drw2d_rx/src/tes/dave_viewport.c ****  *   ymin - integer pixel position of top border (inclusive)
  51:../src/smc_gen/r_drw2d_rx/src/tes/dave_viewport.c ****  *   xmax - integer pixel position of right border (inclusive)
  52:../src/smc_gen/r_drw2d_rx/src/tes/dave_viewport.c ****  *   ymax - integer pixel position of bottom border (inclusive)
  53:../src/smc_gen/r_drw2d_rx/src/tes/dave_viewport.c ****  *
  54:../src/smc_gen/r_drw2d_rx/src/tes/dave_viewport.c ****  * returns:
  55:../src/smc_gen/r_drw2d_rx/src/tes/dave_viewport.c ****  *   errorcode (D2_OK if successfull) see list of <Errorcodes> for details
  56:../src/smc_gen/r_drw2d_rx/src/tes/dave_viewport.c ****  * */
  57:../src/smc_gen/r_drw2d_rx/src/tes/dave_viewport.c **** d2_s32 d2_cliprect( d2_device *handle, d2_border xmin, d2_border ymin, d2_border xmax, d2_border ym
  58:../src/smc_gen/r_drw2d_rx/src/tes/dave_viewport.c **** {
  11                             		.loc 1 58 1 view -0
  12                             		.loc 1 58 1 is_stmt 0 view .LVU1
  13 0000 6E 7A                   		pushm	r7-r10
  14                             	.LCFI0:
  15                             		.loc 1 58 1 view .LVU2
  16 0002 60 40                   		sub	#4, r0
  17                             	.LCFI1:
  18 0004 9B 05                   		mov.W	24[r0], r5
  59:../src/smc_gen/r_drw2d_rx/src/tes/dave_viewport.c ****    D2_VALIDATE( handle, D2_INVALIDDEVICE );        /* PRQA S 4130, 3112, 3453 */ /* $Misra: #DEBUG_
  19                             		.loc 1 59 4 is_stmt 1 view .LVU3
  60:../src/smc_gen/r_drw2d_rx/src/tes/dave_viewport.c ****    D2_CHECKERR( xmax >= xmin, D2_INVALIDWIDTH );   /* PRQA S 4130, 3112, 3453 */ /* $Misra: #DEBUG_
  20                             		.loc 1 60 4 view .LVU4
  61:../src/smc_gen/r_drw2d_rx/src/tes/dave_viewport.c ****    D2_CHECKERR( ymax >= ymin, D2_INVALIDHEIGHT );  /* PRQA S 4130, 3112, 3453 */ /* $Misra: #DEBUG_
  21                             		.loc 1 61 4 view .LVU5
  62:../src/smc_gen/r_drw2d_rx/src/tes/dave_viewport.c **** 
  63:../src/smc_gen/r_drw2d_rx/src/tes/dave_viewport.c ****    /* restrict cliprect to framebuffer */
  64:../src/smc_gen/r_drw2d_rx/src/tes/dave_viewport.c ****    if(xmin < 0)
  22                             		.loc 1 64 4 view .LVU6
  23                             		.loc 1 64 6 is_stmt 0 view .LVU7
  24 0006 FD 7C C2 00 80 00       		tst	#0x8000, r2
  25 000c 21 72                   		bne	.L15
  26                             	.LVL1:
  27                             	.L2:
  65:../src/smc_gen/r_drw2d_rx/src/tes/dave_viewport.c ****    {
  66:../src/smc_gen/r_drw2d_rx/src/tes/dave_viewport.c ****       xmin = 0;
  67:../src/smc_gen/r_drw2d_rx/src/tes/dave_viewport.c ****    }
  68:../src/smc_gen/r_drw2d_rx/src/tes/dave_viewport.c **** 
  69:../src/smc_gen/r_drw2d_rx/src/tes/dave_viewport.c ****    if(ymin < 0)
  28                             		.loc 1 69 4 is_stmt 1 view .LVU8
  29                             		.loc 1 69 6 is_stmt 0 view .LVU9
  30 000e FD 7C C3 00 80 00       		tst	#0x8000, r3
  31 0014 21 6E                   		bne	.L16
  32                             	.LVL2:
  33                             	.L3:
  70:../src/smc_gen/r_drw2d_rx/src/tes/dave_viewport.c ****    {
  71:../src/smc_gen/r_drw2d_rx/src/tes/dave_viewport.c ****       ymin = 0;
  72:../src/smc_gen/r_drw2d_rx/src/tes/dave_viewport.c ****    }
  73:../src/smc_gen/r_drw2d_rx/src/tes/dave_viewport.c **** 
  74:../src/smc_gen/r_drw2d_rx/src/tes/dave_viewport.c ****    if(xmax >= (d2_border)D2_DEV(handle)->fbwidth)
  34                             		.loc 1 74 4 is_stmt 1 view .LVU10
  35                             		.loc 1 74 40 is_stmt 0 view .LVU11
  36 0016 ED 1F 13                		mov.L	76[r1], r15
  37                             		.loc 1 74 6 view .LVU12
  38 0019 DF FA                   		mov.W	r15, r10
  39 001b DF 47                   		mov.W	r4, r7
  40 001d 47 7A                   		cmp	r7, r10
  41 001f 2A 05                   		bgt	.L4
  75:../src/smc_gen/r_drw2d_rx/src/tes/dave_viewport.c ****    {
  76:../src/smc_gen/r_drw2d_rx/src/tes/dave_viewport.c ****       xmax = (d2_border) ( D2_DEV(handle)->fbwidth - 1 );
  42                             		.loc 1 76 7 is_stmt 1 view .LVU13
  43                             		.loc 1 76 12 is_stmt 0 view .LVU14
  44 0021 71 F4 FF                		add	#-1, r15, r4
  45                             	.LVL3:
  46                             	.L4:
  77:../src/smc_gen/r_drw2d_rx/src/tes/dave_viewport.c ****    }
  78:../src/smc_gen/r_drw2d_rx/src/tes/dave_viewport.c **** 
  79:../src/smc_gen/r_drw2d_rx/src/tes/dave_viewport.c ****    if(ymax >= (d2_border)D2_DEV(handle)->fbheight)
  47                             		.loc 1 79 4 is_stmt 1 view .LVU15
  48                             		.loc 1 79 40 is_stmt 0 view .LVU16
  49 0024 ED 1E 14                		mov.L	80[r1], r14
  50                             		.loc 1 79 6 view .LVU17
  51 0027 DF EA                   		mov.W	r14, r10
  52 0029 DF 57                   		mov.W	r5, r7
  53 002b 47 7A                   		cmp	r7, r10
  54 002d 2A 05                   		bgt	.L5
  80:../src/smc_gen/r_drw2d_rx/src/tes/dave_viewport.c ****    {
  81:../src/smc_gen/r_drw2d_rx/src/tes/dave_viewport.c ****       ymax = (d2_border) ( D2_DEV(handle)->fbheight - 1 );
  55                             		.loc 1 81 7 is_stmt 1 view .LVU18
  56                             		.loc 1 81 12 is_stmt 0 view .LVU19
  57 002f 71 E5 FF                		add	#-1, r14, r5
  58                             	.LVL4:
  59                             	.L5:
  82:../src/smc_gen/r_drw2d_rx/src/tes/dave_viewport.c ****    }
  83:../src/smc_gen/r_drw2d_rx/src/tes/dave_viewport.c **** 
  84:../src/smc_gen/r_drw2d_rx/src/tes/dave_viewport.c ****    if(xmax < 0)
  60                             		.loc 1 84 4 is_stmt 1 view .LVU20
  61                             		.loc 1 84 6 is_stmt 0 view .LVU21
  62 0032 FD 7C C4 00 80 00       		tst	#0x8000, r4
  63 0038 21 4E                   		bne	.L17
  64                             	.LVL5:
  65                             	.L6:
  85:../src/smc_gen/r_drw2d_rx/src/tes/dave_viewport.c ****    {
  86:../src/smc_gen/r_drw2d_rx/src/tes/dave_viewport.c ****       xmax = 0;
  87:../src/smc_gen/r_drw2d_rx/src/tes/dave_viewport.c ****    }
  88:../src/smc_gen/r_drw2d_rx/src/tes/dave_viewport.c **** 
  89:../src/smc_gen/r_drw2d_rx/src/tes/dave_viewport.c ****    if(ymax < 0)
  66                             		.loc 1 89 4 is_stmt 1 view .LVU22
  67                             		.loc 1 89 6 is_stmt 0 view .LVU23
  68 003a FD 7C C5 00 80 00       		tst	#0x8000, r5
  69 0040 21 4A                   		bne	.L18
  70                             	.LVL6:
  71                             	.L7:
  90:../src/smc_gen/r_drw2d_rx/src/tes/dave_viewport.c ****    {
  91:../src/smc_gen/r_drw2d_rx/src/tes/dave_viewport.c ****       ymax = 0;
  92:../src/smc_gen/r_drw2d_rx/src/tes/dave_viewport.c ****    }
  93:../src/smc_gen/r_drw2d_rx/src/tes/dave_viewport.c **** 
  94:../src/smc_gen/r_drw2d_rx/src/tes/dave_viewport.c ****    if(xmin >= (d2_border)D2_DEV(handle)->fbwidth)
  72                             		.loc 1 94 4 is_stmt 1 view .LVU24
  73                             		.loc 1 94 6 is_stmt 0 view .LVU25
  74 0042 DF F7                   		mov.W	r15, r7
  75 0044 DF 2A                   		mov.W	r2, r10
  76 0046 47 A7                   		cmp	r10, r7
  77 0048 2A 05                   		bgt	.L8
  95:../src/smc_gen/r_drw2d_rx/src/tes/dave_viewport.c ****    {
  96:../src/smc_gen/r_drw2d_rx/src/tes/dave_viewport.c ****       xmin = (d2_border) ( D2_DEV(handle)->fbwidth - 1 );
  78                             		.loc 1 96 7 is_stmt 1 view .LVU26
  79                             		.loc 1 96 12 is_stmt 0 view .LVU27
  80 004a 71 F2 FF                		add	#-1, r15, r2
  81                             	.LVL7:
  82                             	.L8:
  97:../src/smc_gen/r_drw2d_rx/src/tes/dave_viewport.c ****    }
  98:../src/smc_gen/r_drw2d_rx/src/tes/dave_viewport.c **** 
  99:../src/smc_gen/r_drw2d_rx/src/tes/dave_viewport.c ****    if(ymin >= (d2_border)D2_DEV(handle)->fbheight)
  83                             		.loc 1 99 4 is_stmt 1 view .LVU28
  84                             		.loc 1 99 6 is_stmt 0 view .LVU29
  85 004d DF EF                   		mov.W	r14, r15
  86 004f DF 37                   		mov.W	r3, r7
  87 0051 47 7F                   		cmp	r7, r15
  88 0053 2A 05                   		bgt	.L9
 100:../src/smc_gen/r_drw2d_rx/src/tes/dave_viewport.c ****    {
 101:../src/smc_gen/r_drw2d_rx/src/tes/dave_viewport.c ****       ymin = (d2_border) ( D2_DEV(handle)->fbheight - 1 );
  89                             		.loc 1 101 7 is_stmt 1 view .LVU30
  90                             		.loc 1 101 12 is_stmt 0 view .LVU31
  91 0055 71 E3 FF                		add	#-1, r14, r3
  92                             	.LVL8:
  93                             	.L9:
 102:../src/smc_gen/r_drw2d_rx/src/tes/dave_viewport.c ****    }
 103:../src/smc_gen/r_drw2d_rx/src/tes/dave_viewport.c **** 
 104:../src/smc_gen/r_drw2d_rx/src/tes/dave_viewport.c ****    /* store boundary */
 105:../src/smc_gen/r_drw2d_rx/src/tes/dave_viewport.c ****    D2_DEV(handle)->clipxmin = (d2_point) D2_FIX4( xmin );    /* PRQA S 4131 */ /* $Misra: #PERF_ARI
  94                             		.loc 1 105 4 is_stmt 1 view .LVU32
  95                             		.loc 1 105 42 is_stmt 0 view .LVU33
  96 0058 DF 22                   		mov.W	r2, r2
  97                             		.loc 1 105 42 view .LVU34
  98 005a 6C 42                   		shll	#4, r2
  99                             	.LVL9:
 100                             		.loc 1 105 29 view .LVU35
 101 005c D7 12 39                		mov.W	r2, 114[r1]
 106:../src/smc_gen/r_drw2d_rx/src/tes/dave_viewport.c ****    D2_DEV(handle)->clipymin = (d2_point) D2_FIX4( ymin );    /* PRQA S 4131 */ /* $Misra: #PERF_ARI
 102                             		.loc 1 106 4 is_stmt 1 view .LVU36
 103                             		.loc 1 106 42 is_stmt 0 view .LVU37
 104 005f DF 33                   		mov.W	r3, r3
 105                             		.loc 1 106 42 view .LVU38
 106 0061 6C 43                   		shll	#4, r3
 107                             	.LVL10:
 108                             		.loc 1 106 29 view .LVU39
 109 0063 D7 13 3A                		mov.W	r3, 116[r1]
 107:../src/smc_gen/r_drw2d_rx/src/tes/dave_viewport.c ****    D2_DEV(handle)->clipxmax = (d2_point) D2_FIX4( xmax );    /* PRQA S 4131 */ /* $Misra: #PERF_ARI
 110                             		.loc 1 107 4 is_stmt 1 view .LVU40
 111                             		.loc 1 107 42 is_stmt 0 view .LVU41
 112 0066 DF 44                   		mov.W	r4, r4
 113                             		.loc 1 107 42 view .LVU42
 114 0068 6C 44                   		shll	#4, r4
 115                             	.LVL11:
 116                             		.loc 1 107 29 view .LVU43
 117 006a D7 14 3B                		mov.W	r4, 118[r1]
 108:../src/smc_gen/r_drw2d_rx/src/tes/dave_viewport.c ****    D2_DEV(handle)->clipymax = (d2_point) D2_FIX4( ymax );    /* PRQA S 4131 */ /* $Misra: #PERF_ARI
 118                             		.loc 1 108 4 is_stmt 1 view .LVU44
 119                             		.loc 1 108 42 is_stmt 0 view .LVU45
 120 006d DF 55                   		mov.W	r5, r5
 121                             		.loc 1 108 42 view .LVU46
 122 006f 6C 45                   		shll	#4, r5
 123                             	.LVL12:
 124                             		.loc 1 108 29 view .LVU47
 125 0071 D7 15 3C                		mov.W	r5, 120[r1]
 109:../src/smc_gen/r_drw2d_rx/src/tes/dave_viewport.c **** 
 110:../src/smc_gen/r_drw2d_rx/src/tes/dave_viewport.c ****    D2_RETOK(handle);
 126                             		.loc 1 110 4 is_stmt 1 view .LVU48
 127                             	.LVL13:
 128                             	.LBB10:
 129                             	.LBI10:
 130                             		.file 2 "../src/smc_gen/r_drw2d_rx/src/tes/dave_intern.h"
   1:../src/smc_gen/r_drw2d_rx/src/tes/dave_intern.h **** /*--------------------------------------------------------------------------
   2:../src/smc_gen/r_drw2d_rx/src/tes/dave_intern.h ****  * Project: D/AVE
   3:../src/smc_gen/r_drw2d_rx/src/tes/dave_intern.h ****  * File:    dave_intern.h (%version: 29 %)
   4:../src/smc_gen/r_drw2d_rx/src/tes/dave_intern.h ****  *          created Tue Jan 11 12:57:48 2005 by hh04027
   5:../src/smc_gen/r_drw2d_rx/src/tes/dave_intern.h ****  *
   6:../src/smc_gen/r_drw2d_rx/src/tes/dave_intern.h ****  * Description:
   7:../src/smc_gen/r_drw2d_rx/src/tes/dave_intern.h ****  *  %date_modified: Thu Jan 25 18:12:54 2007 %  (%derived_by:  hh74026 %)
   8:../src/smc_gen/r_drw2d_rx/src/tes/dave_intern.h ****  *
   9:../src/smc_gen/r_drw2d_rx/src/tes/dave_intern.h ****  * Changes:
  10:../src/smc_gen/r_drw2d_rx/src/tes/dave_intern.h ****  *  2005-12-22 CSe  removed transfermode field, added flags field in _d2_devicedata
  11:../src/smc_gen/r_drw2d_rx/src/tes/dave_intern.h ****  *  2006-02-16 CSe  added performance counter support
  12:../src/smc_gen/r_drw2d_rx/src/tes/dave_intern.h ****  *  2006-10-30 CSe  removed waitdlist flag
  13:../src/smc_gen/r_drw2d_rx/src/tes/dave_intern.h ****  *  2006-11-07 CSe  removed waitdlist flag
  14:../src/smc_gen/r_drw2d_rx/src/tes/dave_intern.h ****  *  2006-11-07 CSe  added dlist_buffer to device struct for 'd2_df_low_localmem' mode
  15:../src/smc_gen/r_drw2d_rx/src/tes/dave_intern.h ****  *  2007-01-26 CSe  made 'low localmem' mode configurable
  16:../src/smc_gen/r_drw2d_rx/src/tes/dave_intern.h ****  *  2007-05-23 MGe  added delayed_errorcode to context
  17:../src/smc_gen/r_drw2d_rx/src/tes/dave_intern.h ****  *  2008-01-14 ASc  changed comments from C++ to C, removed tabs
  18:../src/smc_gen/r_drw2d_rx/src/tes/dave_intern.h ****  *  2008-11-24 AJ   Added support for IAR compiler
  19:../src/smc_gen/r_drw2d_rx/src/tes/dave_intern.h ****  *  2011-09-05 MRe  added cr2 register to device structure
  20:../src/smc_gen/r_drw2d_rx/src/tes/dave_intern.h ****  *  2012-09-25 BSp  MISRA cleanup
  21:../src/smc_gen/r_drw2d_rx/src/tes/dave_intern.h ****  *-------------------------------------------------------------------------- */
  22:../src/smc_gen/r_drw2d_rx/src/tes/dave_intern.h **** 
  23:../src/smc_gen/r_drw2d_rx/src/tes/dave_intern.h **** #ifndef __1_dave_intern_h_H
  24:../src/smc_gen/r_drw2d_rx/src/tes/dave_intern.h **** #define __1_dave_intern_h_H
  25:../src/smc_gen/r_drw2d_rx/src/tes/dave_intern.h **** /*---------------------------------------------------------------------------
  26:../src/smc_gen/r_drw2d_rx/src/tes/dave_intern.h ****  * define inline modifier if available */
  27:../src/smc_gen/r_drw2d_rx/src/tes/dave_intern.h **** #ifdef _MSC_VER
  28:../src/smc_gen/r_drw2d_rx/src/tes/dave_intern.h **** #define D2_INLINE __forceinline
  29:../src/smc_gen/r_drw2d_rx/src/tes/dave_intern.h **** #else
  30:../src/smc_gen/r_drw2d_rx/src/tes/dave_intern.h **** #ifdef __CA850__
  31:../src/smc_gen/r_drw2d_rx/src/tes/dave_intern.h **** #define D2_INLINE
  32:../src/smc_gen/r_drw2d_rx/src/tes/dave_intern.h **** #elif defined(__ICCV850__)
  33:../src/smc_gen/r_drw2d_rx/src/tes/dave_intern.h **** #define D2_INLINE _Pragma("inline")
  34:../src/smc_gen/r_drw2d_rx/src/tes/dave_intern.h **** #else
  35:../src/smc_gen/r_drw2d_rx/src/tes/dave_intern.h **** #define D2_INLINE inline
  36:../src/smc_gen/r_drw2d_rx/src/tes/dave_intern.h **** #endif
  37:../src/smc_gen/r_drw2d_rx/src/tes/dave_intern.h **** #endif
  38:../src/smc_gen/r_drw2d_rx/src/tes/dave_intern.h **** 
  39:../src/smc_gen/r_drw2d_rx/src/tes/dave_intern.h **** /*---------------------------------------------------------------------------
  40:../src/smc_gen/r_drw2d_rx/src/tes/dave_intern.h ****  * define null to become independent of stdlib */
  41:../src/smc_gen/r_drw2d_rx/src/tes/dave_intern.h **** #ifndef NULL
  42:../src/smc_gen/r_drw2d_rx/src/tes/dave_intern.h **** #ifdef __cplusplus
  43:../src/smc_gen/r_drw2d_rx/src/tes/dave_intern.h **** #define NULL    0
  44:../src/smc_gen/r_drw2d_rx/src/tes/dave_intern.h **** #else
  45:../src/smc_gen/r_drw2d_rx/src/tes/dave_intern.h **** #define NULL    ((void *)0)
  46:../src/smc_gen/r_drw2d_rx/src/tes/dave_intern.h **** #endif
  47:../src/smc_gen/r_drw2d_rx/src/tes/dave_intern.h **** #endif
  48:../src/smc_gen/r_drw2d_rx/src/tes/dave_intern.h **** 
  49:../src/smc_gen/r_drw2d_rx/src/tes/dave_intern.h **** /*---------------------------------------------------------------------------
  50:../src/smc_gen/r_drw2d_rx/src/tes/dave_intern.h ****  * internally used types */
  51:../src/smc_gen/r_drw2d_rx/src/tes/dave_intern.h **** 
  52:../src/smc_gen/r_drw2d_rx/src/tes/dave_intern.h **** #ifdef _MSC_VER
  53:../src/smc_gen/r_drw2d_rx/src/tes/dave_intern.h **** typedef __int64 d2_int64;
  54:../src/smc_gen/r_drw2d_rx/src/tes/dave_intern.h **** #elif (defined(__CA850__) || defined(__ICC850__))
  55:../src/smc_gen/r_drw2d_rx/src/tes/dave_intern.h **** #define _NO_LL_
  56:../src/smc_gen/r_drw2d_rx/src/tes/dave_intern.h **** typedef struct {
  57:../src/smc_gen/r_drw2d_rx/src/tes/dave_intern.h ****    d2_u32 low32;
  58:../src/smc_gen/r_drw2d_rx/src/tes/dave_intern.h ****    d2_s32 high32;
  59:../src/smc_gen/r_drw2d_rx/src/tes/dave_intern.h **** } d2_int64;
  60:../src/smc_gen/r_drw2d_rx/src/tes/dave_intern.h **** #else
  61:../src/smc_gen/r_drw2d_rx/src/tes/dave_intern.h **** typedef long long d2_int64;
  62:../src/smc_gen/r_drw2d_rx/src/tes/dave_intern.h **** #endif
  63:../src/smc_gen/r_drw2d_rx/src/tes/dave_intern.h **** 
  64:../src/smc_gen/r_drw2d_rx/src/tes/dave_intern.h **** /*---------------------------------------------------------------------------
  65:../src/smc_gen/r_drw2d_rx/src/tes/dave_intern.h ****  * use separate context for blit 
  66:../src/smc_gen/r_drw2d_rx/src/tes/dave_intern.h ****  see also d2_df_no_blitctxbackup and d2_bf_no_blitctxbackup*/
  67:../src/smc_gen/r_drw2d_rx/src/tes/dave_intern.h **** 
  68:../src/smc_gen/r_drw2d_rx/src/tes/dave_intern.h **** /*
  69:../src/smc_gen/r_drw2d_rx/src/tes/dave_intern.h **** #define D2_USEBLITBACKUPCONTEXT 
  70:../src/smc_gen/r_drw2d_rx/src/tes/dave_intern.h **** */
  71:../src/smc_gen/r_drw2d_rx/src/tes/dave_intern.h **** 
  72:../src/smc_gen/r_drw2d_rx/src/tes/dave_intern.h **** 
  73:../src/smc_gen/r_drw2d_rx/src/tes/dave_intern.h **** /*---------------------------------------------------------------------------
  74:../src/smc_gen/r_drw2d_rx/src/tes/dave_intern.h ****  * force register cache usage
  75:../src/smc_gen/r_drw2d_rx/src/tes/dave_intern.h ****  see also d2_df_no_registercaching */
  76:../src/smc_gen/r_drw2d_rx/src/tes/dave_intern.h **** 
  77:../src/smc_gen/r_drw2d_rx/src/tes/dave_intern.h **** #define D2_USEREGCACHE 
  78:../src/smc_gen/r_drw2d_rx/src/tes/dave_intern.h **** 
  79:../src/smc_gen/r_drw2d_rx/src/tes/dave_intern.h **** /*---------------------------------------------------------------------------
  80:../src/smc_gen/r_drw2d_rx/src/tes/dave_intern.h ****  * set initial size of list of dlist start address */
  81:../src/smc_gen/r_drw2d_rx/src/tes/dave_intern.h **** 
  82:../src/smc_gen/r_drw2d_rx/src/tes/dave_intern.h **** #define DLIST_ADRESSES_NUMBER 16
  83:../src/smc_gen/r_drw2d_rx/src/tes/dave_intern.h **** 
  84:../src/smc_gen/r_drw2d_rx/src/tes/dave_intern.h **** 
  85:../src/smc_gen/r_drw2d_rx/src/tes/dave_intern.h **** /*---------------------------------------------------------------------------
  86:../src/smc_gen/r_drw2d_rx/src/tes/dave_intern.h ****  * Register Cache */
  87:../src/smc_gen/r_drw2d_rx/src/tes/dave_intern.h **** 
  88:../src/smc_gen/r_drw2d_rx/src/tes/dave_intern.h **** #include "dave_registermap.h"
  89:../src/smc_gen/r_drw2d_rx/src/tes/dave_intern.h **** 
  90:../src/smc_gen/r_drw2d_rx/src/tes/dave_intern.h **** typedef struct _d2_cacheddata
  91:../src/smc_gen/r_drw2d_rx/src/tes/dave_intern.h **** {
  92:../src/smc_gen/r_drw2d_rx/src/tes/dave_intern.h ****    d2_s32    data[  D2_QUANTITY ];
  93:../src/smc_gen/r_drw2d_rx/src/tes/dave_intern.h ****    d2_s8     valid[ D2_QUANTITY ];
  94:../src/smc_gen/r_drw2d_rx/src/tes/dave_intern.h **** } d2_cacheddata;
  95:../src/smc_gen/r_drw2d_rx/src/tes/dave_intern.h **** 
  96:../src/smc_gen/r_drw2d_rx/src/tes/dave_intern.h **** #ifdef D2_USEREGCACHE
  97:../src/smc_gen/r_drw2d_rx/src/tes/dave_intern.h **** D2_EXTERN const d2_u8 d2_cacheableregs[D2_QUANTITY];
  98:../src/smc_gen/r_drw2d_rx/src/tes/dave_intern.h **** #endif
  99:../src/smc_gen/r_drw2d_rx/src/tes/dave_intern.h **** 
 100:../src/smc_gen/r_drw2d_rx/src/tes/dave_intern.h **** typedef void (*d2_fp_scratchfull)( void *handle );
 101:../src/smc_gen/r_drw2d_rx/src/tes/dave_intern.h **** 
 102:../src/smc_gen/r_drw2d_rx/src/tes/dave_intern.h **** /*--------------------------------------------------------------------------- */
 103:../src/smc_gen/r_drw2d_rx/src/tes/dave_intern.h **** #include "dave_base.h"
 104:../src/smc_gen/r_drw2d_rx/src/tes/dave_intern.h **** #include "dave_dlist.h"
 105:../src/smc_gen/r_drw2d_rx/src/tes/dave_intern.h **** #include "dave_rbuffer.h"
 106:../src/smc_gen/r_drw2d_rx/src/tes/dave_intern.h **** #include "dave_hardware.h"
 107:../src/smc_gen/r_drw2d_rx/src/tes/dave_intern.h **** #include "dave_context.h"
 108:../src/smc_gen/r_drw2d_rx/src/tes/dave_intern.h **** #include "dave_math.h"
 109:../src/smc_gen/r_drw2d_rx/src/tes/dave_intern.h **** 
 110:../src/smc_gen/r_drw2d_rx/src/tes/dave_intern.h **** /*---------------------------------------------------------------------------
 111:../src/smc_gen/r_drw2d_rx/src/tes/dave_intern.h ****  * use higher precision of qlimiters */
 112:../src/smc_gen/r_drw2d_rx/src/tes/dave_intern.h **** 
 113:../src/smc_gen/r_drw2d_rx/src/tes/dave_intern.h **** #define LIMITER_HIPRECISION 6 
 114:../src/smc_gen/r_drw2d_rx/src/tes/dave_intern.h **** 
 115:../src/smc_gen/r_drw2d_rx/src/tes/dave_intern.h **** 
 116:../src/smc_gen/r_drw2d_rx/src/tes/dave_intern.h **** /*---------------------------------------------------------------------------
 117:../src/smc_gen/r_drw2d_rx/src/tes/dave_intern.h ****  * These helper macros are used to stringify a given macro */
 118:../src/smc_gen/r_drw2d_rx/src/tes/dave_intern.h **** #define D2_STR(s)           # s
 119:../src/smc_gen/r_drw2d_rx/src/tes/dave_intern.h **** #define D2_XSTR(s)          D2_STR(s)  /* PRQA S 3453 */ /* $Misra: #MISRA_BUG_MACRO_HASH $*/
 120:../src/smc_gen/r_drw2d_rx/src/tes/dave_intern.h **** 
 121:../src/smc_gen/r_drw2d_rx/src/tes/dave_intern.h **** 
 122:../src/smc_gen/r_drw2d_rx/src/tes/dave_intern.h **** /*---------------------------------------------------------------------------
 123:../src/smc_gen/r_drw2d_rx/src/tes/dave_intern.h ****  * Define the D2_VERSION and D2_VERSION_STRING macros */
 124:../src/smc_gen/r_drw2d_rx/src/tes/dave_intern.h **** 
 125:../src/smc_gen/r_drw2d_rx/src/tes/dave_intern.h **** /* Build up the D2_VERSION macro */
 126:../src/smc_gen/r_drw2d_rx/src/tes/dave_intern.h **** #define D2_VERSION ((D2_VERSION_BRANCH << 24) | (D2_VERSION_MAJOR << 16) | D2_VERSION_MINOR )
 127:../src/smc_gen/r_drw2d_rx/src/tes/dave_intern.h **** 
 128:../src/smc_gen/r_drw2d_rx/src/tes/dave_intern.h **** /* Create the D2_VERSION_STRING macro */
 129:../src/smc_gen/r_drw2d_rx/src/tes/dave_intern.h **** #define D2_VERSION_STRING  D2_VERSION_BRANCH_STRING " V" D2_XSTR(D2_VERSION_MAJOR) "." D2_XSTR(D2_V
 130:../src/smc_gen/r_drw2d_rx/src/tes/dave_intern.h **** 
 131:../src/smc_gen/r_drw2d_rx/src/tes/dave_intern.h **** /*---------------------------------------------------------------------------
 132:../src/smc_gen/r_drw2d_rx/src/tes/dave_intern.h ****  * Internal device structure */
 133:../src/smc_gen/r_drw2d_rx/src/tes/dave_intern.h **** 
 134:../src/smc_gen/r_drw2d_rx/src/tes/dave_intern.h **** typedef struct _d2_devicedata
 135:../src/smc_gen/r_drw2d_rx/src/tes/dave_intern.h **** {
 136:../src/smc_gen/r_drw2d_rx/src/tes/dave_intern.h ****    struct _d2_devicedata *next;        /* to chain devices [must be index 0] */
 137:../src/smc_gen/r_drw2d_rx/src/tes/dave_intern.h **** 
 138:../src/smc_gen/r_drw2d_rx/src/tes/dave_intern.h ****    d2_dlist *readlist;                 /* read (executing) dlist */
 139:../src/smc_gen/r_drw2d_rx/src/tes/dave_intern.h ****    d2_dlist *writelist;                /* write (under construction) dlist */
 140:../src/smc_gen/r_drw2d_rx/src/tes/dave_intern.h ****    d2_rbuffer *selectedbuffer;         /* currently selected renderbuffer */
 141:../src/smc_gen/r_drw2d_rx/src/tes/dave_intern.h ****    d2_rbuffer *renderbuffer[2];        /* default renderbuffers */
 142:../src/smc_gen/r_drw2d_rx/src/tes/dave_intern.h **** 
 143:../src/smc_gen/r_drw2d_rx/src/tes/dave_intern.h ****    d1_device      *hwid;               /* lowlevel access handle */
 144:../src/smc_gen/r_drw2d_rx/src/tes/dave_intern.h ****    d2_contextdata *ctxchain;           /* context chain (list of all contexts for this device) */
 145:../src/smc_gen/r_drw2d_rx/src/tes/dave_intern.h ****    d2_contextdata *ctxdef;             /* default context (cannot be removed by application) */
 146:../src/smc_gen/r_drw2d_rx/src/tes/dave_intern.h ****    d2_contextdata *ctxselected;        /* selected context (used as target of context write/read op
 147:../src/smc_gen/r_drw2d_rx/src/tes/dave_intern.h ****    d2_contextdata *ctxsolid;           /* solid context (used as source for rendering solid geometr
 148:../src/smc_gen/r_drw2d_rx/src/tes/dave_intern.h ****    d2_contextdata *ctxoutline;         /* outline context (used as source for rendering outlines) *
 149:../src/smc_gen/r_drw2d_rx/src/tes/dave_intern.h **** #ifdef D2_USEBLITBACKUPCONTEXT
 150:../src/smc_gen/r_drw2d_rx/src/tes/dave_intern.h ****    d2_contextdata *blitcontext;        /* internal context used only for blits */
 151:../src/smc_gen/r_drw2d_rx/src/tes/dave_intern.h **** #else
 152:../src/smc_gen/r_drw2d_rx/src/tes/dave_intern.h ****    d2_contextdata_backup *blitcontext_b; /* internal context backup used only for blits */
 153:../src/smc_gen/r_drw2d_rx/src/tes/dave_intern.h **** #endif
 154:../src/smc_gen/r_drw2d_rx/src/tes/dave_intern.h ****    d2_contextdata *srccontext;         /* last context that acted as source for display list (for d
 155:../src/smc_gen/r_drw2d_rx/src/tes/dave_intern.h ****    d2_color       *srcclut;            /* last clut that was loaded  */
 156:../src/smc_gen/r_drw2d_rx/src/tes/dave_intern.h **** 
 157:../src/smc_gen/r_drw2d_rx/src/tes/dave_intern.h ****    void *   framebuffer;               /* rendering baseaddress */
 158:../src/smc_gen/r_drw2d_rx/src/tes/dave_intern.h ****    d2_s32   pitch, bpp;                /* framebuffer pitch and bytes per pixel */
 159:../src/smc_gen/r_drw2d_rx/src/tes/dave_intern.h ****    d2_s32   fbformat;                  /* framebuffer format */
 160:../src/smc_gen/r_drw2d_rx/src/tes/dave_intern.h ****    d2_u32   fbwidth,fbheight;          /* framebuffer size */
 161:../src/smc_gen/r_drw2d_rx/src/tes/dave_intern.h ****    d2_u32   fbstylemask;               /* dave ctrl1 bitmask for framebuffer format */
 162:../src/smc_gen/r_drw2d_rx/src/tes/dave_intern.h ****    d2_u32   cr2;                       /* control register 2 */
 163:../src/smc_gen/r_drw2d_rx/src/tes/dave_intern.h **** 
 164:../src/smc_gen/r_drw2d_rx/src/tes/dave_intern.h ****    d2_u32   cachectlmask;              /* dave cache ctrl register bitmask */
 165:../src/smc_gen/r_drw2d_rx/src/tes/dave_intern.h ****    d2_u32   perftriggermask;           /* dave performance counter trigger source register bitmask 
 166:../src/smc_gen/r_drw2d_rx/src/tes/dave_intern.h **** 
 167:../src/smc_gen/r_drw2d_rx/src/tes/dave_intern.h ****    d2_u32   rendermode;                /* see 'enum d2_rendermodes' */
 168:../src/smc_gen/r_drw2d_rx/src/tes/dave_intern.h ****    d2_u32   flags;                     /* see 'enum d2_deviceflags' */
 169:../src/smc_gen/r_drw2d_rx/src/tes/dave_intern.h ****    d2_width outlinewidth;
 170:../src/smc_gen/r_drw2d_rx/src/tes/dave_intern.h ****    d2_point soffx, soffy;
 171:../src/smc_gen/r_drw2d_rx/src/tes/dave_intern.h ****    d2_point clipxmin, clipymin;
 172:../src/smc_gen/r_drw2d_rx/src/tes/dave_intern.h ****    d2_point clipxmax, clipymax;
 173:../src/smc_gen/r_drw2d_rx/src/tes/dave_intern.h **** 
 174:../src/smc_gen/r_drw2d_rx/src/tes/dave_intern.h ****    d2_lowlocalmem_mode *lowlocalmem_mode;       /* only used in 'low localmem' mode */
 175:../src/smc_gen/r_drw2d_rx/src/tes/dave_intern.h **** 
 176:../src/smc_gen/r_drw2d_rx/src/tes/dave_intern.h ****    d2_u32 hwrevision;
 177:../src/smc_gen/r_drw2d_rx/src/tes/dave_intern.h ****    d2_u32 hwmemarchitecture;
 178:../src/smc_gen/r_drw2d_rx/src/tes/dave_intern.h **** 
 179:../src/smc_gen/r_drw2d_rx/src/tes/dave_intern.h ****    d2_u32 dlistblocksize;              /* specify number of entries to grow when dlist is full */
 180:../src/smc_gen/r_drw2d_rx/src/tes/dave_intern.h **** #ifdef D2_USEREGCACHE
 181:../src/smc_gen/r_drw2d_rx/src/tes/dave_intern.h ****    d2_cacheddata cache;                 /* register cache for this device */
 182:../src/smc_gen/r_drw2d_rx/src/tes/dave_intern.h **** #endif
 183:../src/smc_gen/r_drw2d_rx/src/tes/dave_intern.h ****    /* display list assembly buffer */
 184:../src/smc_gen/r_drw2d_rx/src/tes/dave_intern.h ****    d2_dlist_scratch_entry *dlscratch_base;
 185:../src/smc_gen/r_drw2d_rx/src/tes/dave_intern.h ****    d2_dlist_scratch_entry *dlscratch_pos;
 186:../src/smc_gen/r_drw2d_rx/src/tes/dave_intern.h ****    d2_s32                  dlscratch_cnt;
 187:../src/smc_gen/r_drw2d_rx/src/tes/dave_intern.h ****    d2_fp_scratchfull       dlscratch_hook;
 188:../src/smc_gen/r_drw2d_rx/src/tes/dave_intern.h **** 
 189:../src/smc_gen/r_drw2d_rx/src/tes/dave_intern.h ****    d2_s8   lasttextwasrle;               /* last texture format was RLE */
 190:../src/smc_gen/r_drw2d_rx/src/tes/dave_intern.h ****    d2_s8   maxpatlen;                    /* maximum size of pattern bitvector supported by the hard
 191:../src/smc_gen/r_drw2d_rx/src/tes/dave_intern.h ****    d2_s8   errorcode;                    /* last actions detaild result code */
 192:../src/smc_gen/r_drw2d_rx/src/tes/dave_intern.h ****    d2_s8   delayed_errorcode;            /* errorcondition that exists until the renderbuffer gets 
 193:../src/smc_gen/r_drw2d_rx/src/tes/dave_intern.h ****    d2_s8   hilimiterprecision_supported; /* is set to 1 when the hilimiterprecision feature is supp
 194:../src/smc_gen/r_drw2d_rx/src/tes/dave_intern.h **** 
 195:../src/smc_gen/r_drw2d_rx/src/tes/dave_intern.h ****    d2_s8   dlist_indirect_supported;     /* is set to 1 when lists of dlist addresses are supported
 196:../src/smc_gen/r_drw2d_rx/src/tes/dave_intern.h ****    d2_s32* dlist_list_single[2];         /* for d2_executedlist we need an extra dlist list with ju
 197:../src/smc_gen/r_drw2d_rx/src/tes/dave_intern.h **** 
 198:../src/smc_gen/r_drw2d_rx/src/tes/dave_intern.h **** } d2_devicedata;
 199:../src/smc_gen/r_drw2d_rx/src/tes/dave_intern.h **** 
 200:../src/smc_gen/r_drw2d_rx/src/tes/dave_intern.h **** /*--------------------------------------------------------------------------- */
 201:../src/smc_gen/r_drw2d_rx/src/tes/dave_intern.h **** 
 202:../src/smc_gen/r_drw2d_rx/src/tes/dave_intern.h **** typedef struct _d2_bbox
 203:../src/smc_gen/r_drw2d_rx/src/tes/dave_intern.h **** {
 204:../src/smc_gen/r_drw2d_rx/src/tes/dave_intern.h ****    d2_point xmin, ymin;
 205:../src/smc_gen/r_drw2d_rx/src/tes/dave_intern.h ****    d2_point xmax, ymax;
 206:../src/smc_gen/r_drw2d_rx/src/tes/dave_intern.h **** } d2_bbox;
 207:../src/smc_gen/r_drw2d_rx/src/tes/dave_intern.h **** 
 208:../src/smc_gen/r_drw2d_rx/src/tes/dave_intern.h **** typedef struct _d2_limdata
 209:../src/smc_gen/r_drw2d_rx/src/tes/dave_intern.h **** {
 210:../src/smc_gen/r_drw2d_rx/src/tes/dave_intern.h ****    d2_s32 start;
 211:../src/smc_gen/r_drw2d_rx/src/tes/dave_intern.h ****    d2_s32 xadd;
 212:../src/smc_gen/r_drw2d_rx/src/tes/dave_intern.h ****    d2_s32 yadd;
 213:../src/smc_gen/r_drw2d_rx/src/tes/dave_intern.h **** } d2_limdata;
 214:../src/smc_gen/r_drw2d_rx/src/tes/dave_intern.h **** 
 215:../src/smc_gen/r_drw2d_rx/src/tes/dave_intern.h **** /*---------------------------------------------------------------------------
 216:../src/smc_gen/r_drw2d_rx/src/tes/dave_intern.h ****  * Internal flags */
 217:../src/smc_gen/r_drw2d_rx/src/tes/dave_intern.h **** 
 218:../src/smc_gen/r_drw2d_rx/src/tes/dave_intern.h **** typedef d2_u32 d2_lineendflags_intern;
 219:../src/smc_gen/r_drw2d_rx/src/tes/dave_intern.h **** 
 220:../src/smc_gen/r_drw2d_rx/src/tes/dave_intern.h **** #define d2_lei_base                256u
 221:../src/smc_gen/r_drw2d_rx/src/tes/dave_intern.h **** 
 222:../src/smc_gen/r_drw2d_rx/src/tes/dave_intern.h **** #define d2_lei_ext_first_edge     (d2_lei_base *  2)
 223:../src/smc_gen/r_drw2d_rx/src/tes/dave_intern.h **** #define d2_lei_ext_last_edge      (d2_lei_base *  4)
 224:../src/smc_gen/r_drw2d_rx/src/tes/dave_intern.h **** #define d2_lei_buffer_first_edge  (d2_lei_base *  8)
 225:../src/smc_gen/r_drw2d_rx/src/tes/dave_intern.h **** #define d2_lei_buffer_last_edge   (d2_lei_base * 16)
 226:../src/smc_gen/r_drw2d_rx/src/tes/dave_intern.h **** #define d2_lei_miter_edge         (d2_lei_base * 32)
 227:../src/smc_gen/r_drw2d_rx/src/tes/dave_intern.h **** #define d2_lei_miter1_flip        (d2_lei_base * 64)
 228:../src/smc_gen/r_drw2d_rx/src/tes/dave_intern.h **** #define d2_lei_miter2_flip        (d2_lei_base *128)
 229:../src/smc_gen/r_drw2d_rx/src/tes/dave_intern.h **** 
 230:../src/smc_gen/r_drw2d_rx/src/tes/dave_intern.h **** /*---------------------------------------------------------------------------
 231:../src/smc_gen/r_drw2d_rx/src/tes/dave_intern.h ****  * Internal macros */
 232:../src/smc_gen/r_drw2d_rx/src/tes/dave_intern.h **** 
 233:../src/smc_gen/r_drw2d_rx/src/tes/dave_intern.h **** #define D2_DEV(d)           ((d2_devicedata *) (d))           /* PRQA S 3453 */ /* $Misra: #MACRO_T
 234:../src/smc_gen/r_drw2d_rx/src/tes/dave_intern.h **** #define D2_CTX(c)           ((d2_contextdata *) (c))          /* PRQA S 3453 */ /* $Misra: #MACRO_T
 235:../src/smc_gen/r_drw2d_rx/src/tes/dave_intern.h **** #define D2_FNC(r)           ((d2_renderfunctions *) (r))      /* PRQA S 3453 */ /* $Misra: #MACRO_T
 236:../src/smc_gen/r_drw2d_rx/src/tes/dave_intern.h **** #define D2_DRB(r)           ((d2_rbuffer *) (r))              /* PRQA S 3453 */ /* $Misra: #MACRO_T
 237:../src/smc_gen/r_drw2d_rx/src/tes/dave_intern.h **** 
 238:../src/smc_gen/r_drw2d_rx/src/tes/dave_intern.h **** static D2_INLINE d2_s32 d2_seterr(d2_device *handle, d2_s32 err); /* to satisfy MISRA rule 3450 */
 239:../src/smc_gen/r_drw2d_rx/src/tes/dave_intern.h **** static D2_INLINE d2_s32 d2_seterr(d2_device *handle, d2_s32 err) /* PRQA S 3219, 3480 */ /* $Misra:
 131                             		.loc 2 239 25 view .LVU49
 132                             	.LBB11:
 240:../src/smc_gen/r_drw2d_rx/src/tes/dave_intern.h **** {
 241:../src/smc_gen/r_drw2d_rx/src/tes/dave_intern.h ****    D2_DEV(handle)->errorcode = (d2_s8)(err);
 133                             		.loc 2 241 4 view .LVU50
 134                             		.loc 2 241 30 is_stmt 0 view .LVU51
 135 0074 FA 14 C6 01 00          		mov.B	#0, 454[r1]
 242:../src/smc_gen/r_drw2d_rx/src/tes/dave_intern.h **** 
 243:../src/smc_gen/r_drw2d_rx/src/tes/dave_intern.h ****    return err;
 136                             		.loc 2 243 4 is_stmt 1 view .LVU52
 137                             	.LVL14:
 138                             		.loc 2 243 4 is_stmt 0 view .LVU53
 139                             	.LBE11:
 140                             	.LBE10:
 111:../src/smc_gen/r_drw2d_rx/src/tes/dave_viewport.c **** }
 141                             		.loc 1 111 1 view .LVU54
 142 0079 66 01                   		mov.L	#0, r1
 143                             	.LVL15:
 144                             		.loc 1 111 1 view .LVU55
 145 007b 3F 7A 05                		rtsd	#20, r7-r10
 146                             	.LVL16:
 147                             	.L15:
  66:../src/smc_gen/r_drw2d_rx/src/tes/dave_viewport.c ****    }
 148                             		.loc 1 66 12 view .LVU56
 149 007e 66 02                   		mov	#0, r2
 150                             	.LVL17:
  66:../src/smc_gen/r_drw2d_rx/src/tes/dave_viewport.c ****    }
 151                             		.loc 1 66 12 view .LVU57
 152 0080 2E 8E                   		bra	.L2
 153                             	.LVL18:
 154                             	.L16:
  71:../src/smc_gen/r_drw2d_rx/src/tes/dave_viewport.c ****    }
 155                             		.loc 1 71 12 view .LVU58
 156 0082 66 03                   		mov	#0, r3
 157                             	.LVL19:
  71:../src/smc_gen/r_drw2d_rx/src/tes/dave_viewport.c ****    }
 158                             		.loc 1 71 12 view .LVU59
 159 0084 2E 92                   		bra	.L3
 160                             	.LVL20:
 161                             	.L17:
  86:../src/smc_gen/r_drw2d_rx/src/tes/dave_viewport.c ****    }
 162                             		.loc 1 86 12 view .LVU60
 163 0086 66 04                   		mov	#0, r4
 164                             	.LVL21:
  86:../src/smc_gen/r_drw2d_rx/src/tes/dave_viewport.c ****    }
 165                             		.loc 1 86 12 view .LVU61
 166 0088 2E B2                   		bra	.L6
 167                             	.LVL22:
 168                             	.L18:
  91:../src/smc_gen/r_drw2d_rx/src/tes/dave_viewport.c ****    }
 169                             		.loc 1 91 12 view .LVU62
 170 008a 66 05                   		mov	#0, r5
 171                             	.LVL23:
  91:../src/smc_gen/r_drw2d_rx/src/tes/dave_viewport.c ****    }
 172                             		.loc 1 91 12 view .LVU63
 173 008c 2E B6                   		bra	.L7
 174                             	.LFE6:
 176                             		.section	.text.d2_getcliprect,"ax",@progbits
 177                             		.global	_d2_getcliprect
 179                             	_d2_getcliprect:
 180                             	.LVL24:
 181                             	.LFB7:
 112:../src/smc_gen/r_drw2d_rx/src/tes/dave_viewport.c **** 
 113:../src/smc_gen/r_drw2d_rx/src/tes/dave_viewport.c **** /*--------------------------------------------------------------------------
 114:../src/smc_gen/r_drw2d_rx/src/tes/dave_viewport.c ****  * function: d2_getcliprect
 115:../src/smc_gen/r_drw2d_rx/src/tes/dave_viewport.c ****  * Get the clipping rectangle.
 116:../src/smc_gen/r_drw2d_rx/src/tes/dave_viewport.c ****  *
 117:../src/smc_gen/r_drw2d_rx/src/tes/dave_viewport.c ****  * No pixels outside the clipping rectangle are touched (rendered or read).
 118:../src/smc_gen/r_drw2d_rx/src/tes/dave_viewport.c ****  * The clipping borders are specified as integer positions (in contrast to
 119:../src/smc_gen/r_drw2d_rx/src/tes/dave_viewport.c ****  * rendering where subpixel positions are supported).
 120:../src/smc_gen/r_drw2d_rx/src/tes/dave_viewport.c ****  *
 121:../src/smc_gen/r_drw2d_rx/src/tes/dave_viewport.c ****  * parameters:
 122:../src/smc_gen/r_drw2d_rx/src/tes/dave_viewport.c ****  *   handle - device pointer (see: <d2_opendevice>)
 123:../src/smc_gen/r_drw2d_rx/src/tes/dave_viewport.c ****  *   xmin - pointer to an integer that receives pixel position of left border
 124:../src/smc_gen/r_drw2d_rx/src/tes/dave_viewport.c ****  *   ymin - pointer to an integer that receives pixel position of top border
 125:../src/smc_gen/r_drw2d_rx/src/tes/dave_viewport.c ****  *   xmax - pointer to an integer that receives pixel position of right border
 126:../src/smc_gen/r_drw2d_rx/src/tes/dave_viewport.c ****  *   ymax - pointer to an integer that receives pixel position of bottom border
 127:../src/smc_gen/r_drw2d_rx/src/tes/dave_viewport.c ****  *
 128:../src/smc_gen/r_drw2d_rx/src/tes/dave_viewport.c ****  * returns:
 129:../src/smc_gen/r_drw2d_rx/src/tes/dave_viewport.c ****  *   errorcode (D2_OK if successfull) see list of <Errorcodes> for details
 130:../src/smc_gen/r_drw2d_rx/src/tes/dave_viewport.c ****  * */
 131:../src/smc_gen/r_drw2d_rx/src/tes/dave_viewport.c **** d2_s32 d2_getcliprect( d2_device *handle, d2_border *xmin, d2_border *ymin, d2_border *xmax, d2_bor
 132:../src/smc_gen/r_drw2d_rx/src/tes/dave_viewport.c **** {
 182                             		.loc 1 132 1 is_stmt 1 view -0
 183                             		.loc 1 132 1 is_stmt 0 view .LVU65
 184 0000 60 40                   		sub	#4, r0
 185                             	.LCFI2:
 186 0002 ED 0E 02                		mov.L	8[r0], r14
 133:../src/smc_gen/r_drw2d_rx/src/tes/dave_viewport.c ****    D2_VALIDATE( handle, D2_INVALIDDEVICE );   /* PRQA S 4130, 3112, 3453 */ /* $Misra: #DEBUG_MACRO
 187                             		.loc 1 133 4 is_stmt 1 view .LVU66
 134:../src/smc_gen/r_drw2d_rx/src/tes/dave_viewport.c **** 
 135:../src/smc_gen/r_drw2d_rx/src/tes/dave_viewport.c ****    if(0 != xmin)
 188                             		.loc 1 135 4 view .LVU67
 189                             		.loc 1 135 6 is_stmt 0 view .LVU68
 190 0005 61 02                   		cmp	#0, r2
 191 0007 10                      		beq	.L20
 136:../src/smc_gen/r_drw2d_rx/src/tes/dave_viewport.c ****    {
 137:../src/smc_gen/r_drw2d_rx/src/tes/dave_viewport.c ****       *xmin = D2_INT4( D2_DEV(handle)->clipxmin );    /* PRQA S 0502 */ /* $Misra: #PERF_ARITHMETIC
 192                             		.loc 1 137 7 is_stmt 1 view .LVU69
 193                             		.loc 1 137 13 is_stmt 0 view .LVU70
 194 0008 DD 15 39                		mov.W	114[r1], r5
 195 000b 6A 45                   		shar	#4, r5
 196 000d D3 25                   		mov.W	r5, [r2]
 197                             	.L20:
 138:../src/smc_gen/r_drw2d_rx/src/tes/dave_viewport.c ****    }
 139:../src/smc_gen/r_drw2d_rx/src/tes/dave_viewport.c **** 
 140:../src/smc_gen/r_drw2d_rx/src/tes/dave_viewport.c ****    if(0 != ymin)
 198                             		.loc 1 140 4 is_stmt 1 view .LVU71
 199                             		.loc 1 140 6 is_stmt 0 view .LVU72
 200 000f 61 03                   		cmp	#0, r3
 201 0011 10                      		beq	.L21
 141:../src/smc_gen/r_drw2d_rx/src/tes/dave_viewport.c ****    {
 142:../src/smc_gen/r_drw2d_rx/src/tes/dave_viewport.c ****       *ymin = D2_INT4( D2_DEV(handle)->clipymin );    /* PRQA S 0502 */ /* $Misra: #PERF_ARITHMETIC
 202                             		.loc 1 142 7 is_stmt 1 view .LVU73
 203                             		.loc 1 142 13 is_stmt 0 view .LVU74
 204 0012 DD 15 3A                		mov.W	116[r1], r5
 205 0015 6A 45                   		shar	#4, r5
 206 0017 D3 35                   		mov.W	r5, [r3]
 207                             	.L21:
 143:../src/smc_gen/r_drw2d_rx/src/tes/dave_viewport.c ****    }
 144:../src/smc_gen/r_drw2d_rx/src/tes/dave_viewport.c **** 
 145:../src/smc_gen/r_drw2d_rx/src/tes/dave_viewport.c ****    if(0 != xmax)
 208                             		.loc 1 145 4 is_stmt 1 view .LVU75
 209                             		.loc 1 145 6 is_stmt 0 view .LVU76
 210 0019 61 04                   		cmp	#0, r4
 211 001b 10                      		beq	.L22
 146:../src/smc_gen/r_drw2d_rx/src/tes/dave_viewport.c ****    {
 147:../src/smc_gen/r_drw2d_rx/src/tes/dave_viewport.c ****       *xmax = D2_INT4( D2_DEV(handle)->clipxmax );    /* PRQA S 0502 */ /* $Misra: #PERF_ARITHMETIC
 212                             		.loc 1 147 7 is_stmt 1 view .LVU77
 213                             		.loc 1 147 13 is_stmt 0 view .LVU78
 214 001c DD 15 3B                		mov.W	118[r1], r5
 215 001f 6A 45                   		shar	#4, r5
 216 0021 D3 45                   		mov.W	r5, [r4]
 217                             	.L22:
 148:../src/smc_gen/r_drw2d_rx/src/tes/dave_viewport.c ****    }
 149:../src/smc_gen/r_drw2d_rx/src/tes/dave_viewport.c **** 
 150:../src/smc_gen/r_drw2d_rx/src/tes/dave_viewport.c ****    if(0 != ymax)
 218                             		.loc 1 150 4 is_stmt 1 view .LVU79
 219                             		.loc 1 150 6 is_stmt 0 view .LVU80
 220 0023 61 0E                   		cmp	#0, r14
 221 0025 10                      		beq	.L23
 151:../src/smc_gen/r_drw2d_rx/src/tes/dave_viewport.c ****    {
 152:../src/smc_gen/r_drw2d_rx/src/tes/dave_viewport.c ****       *ymax = D2_INT4( D2_DEV(handle)->clipymax );    /* PRQA S 0502 */ /* $Misra: #PERF_ARITHMETIC
 222                             		.loc 1 152 7 is_stmt 1 view .LVU81
 223                             		.loc 1 152 13 is_stmt 0 view .LVU82
 224 0026 DD 15 3C                		mov.W	120[r1], r5
 225 0029 6A 45                   		shar	#4, r5
 226 002b D3 E5                   		mov.W	r5, [r14]
 227                             	.L23:
 153:../src/smc_gen/r_drw2d_rx/src/tes/dave_viewport.c ****    }
 154:../src/smc_gen/r_drw2d_rx/src/tes/dave_viewport.c **** 
 155:../src/smc_gen/r_drw2d_rx/src/tes/dave_viewport.c ****    D2_RETOK( handle );
 228                             		.loc 1 155 4 is_stmt 1 view .LVU83
 229                             	.LVL25:
 230                             	.LBB12:
 231                             	.LBI12:
 239:../src/smc_gen/r_drw2d_rx/src/tes/dave_intern.h **** {
 232                             		.loc 2 239 25 view .LVU84
 233                             	.LBB13:
 241:../src/smc_gen/r_drw2d_rx/src/tes/dave_intern.h **** 
 234                             		.loc 2 241 4 view .LVU85
 241:../src/smc_gen/r_drw2d_rx/src/tes/dave_intern.h **** 
 235                             		.loc 2 241 30 is_stmt 0 view .LVU86
 236 002d FA 14 C6 01 00          		mov.B	#0, 454[r1]
 237                             		.loc 2 243 4 is_stmt 1 view .LVU87
 238                             	.LVL26:
 239                             		.loc 2 243 4 is_stmt 0 view .LVU88
 240                             	.LBE13:
 241                             	.LBE12:
 156:../src/smc_gen/r_drw2d_rx/src/tes/dave_viewport.c **** }
 242                             		.loc 1 156 1 view .LVU89
 243 0032 66 01                   		mov.L	#0, r1
 244                             	.LVL27:
 245                             		.loc 1 156 1 view .LVU90
 246 0034 67 01                   		rtsd	#4
 247                             	.LFE7:
 249                             		.section	.text.d2_framebuffer,"ax",@progbits
 250                             		.global	_d2_framebuffer
 252                             	_d2_framebuffer:
 253                             	.LVL28:
 254                             	.LFB8:
 157:../src/smc_gen/r_drw2d_rx/src/tes/dave_viewport.c **** 
 158:../src/smc_gen/r_drw2d_rx/src/tes/dave_viewport.c **** 
 159:../src/smc_gen/r_drw2d_rx/src/tes/dave_viewport.c **** /*--------------------------------------------------------------------------
 160:../src/smc_gen/r_drw2d_rx/src/tes/dave_viewport.c ****  * Group: Framebuffer management
 161:../src/smc_gen/r_drw2d_rx/src/tes/dave_viewport.c ****  * */
 162:../src/smc_gen/r_drw2d_rx/src/tes/dave_viewport.c **** 
 163:../src/smc_gen/r_drw2d_rx/src/tes/dave_viewport.c **** /*--------------------------------------------------------------------------
 164:../src/smc_gen/r_drw2d_rx/src/tes/dave_viewport.c ****  * function: d2_framebuffer
 165:../src/smc_gen/r_drw2d_rx/src/tes/dave_viewport.c ****  * Specify the rendering target.
 166:../src/smc_gen/r_drw2d_rx/src/tes/dave_viewport.c ****  *
 167:../src/smc_gen/r_drw2d_rx/src/tes/dave_viewport.c ****  * Use this function to define the framebuffer's memory area and layout.
 168:../src/smc_gen/r_drw2d_rx/src/tes/dave_viewport.c ****  * All subsequent <Rendering Functions> will work on the given buffer.
 169:../src/smc_gen/r_drw2d_rx/src/tes/dave_viewport.c ****  *
 170:../src/smc_gen/r_drw2d_rx/src/tes/dave_viewport.c ****  * Setting a new framebuffer will automatically adjust the cliprect to
 171:../src/smc_gen/r_drw2d_rx/src/tes/dave_viewport.c ****  * the maximum range [0 .. width-1] and [0 .. height-1]
 172:../src/smc_gen/r_drw2d_rx/src/tes/dave_viewport.c ****  *
 173:../src/smc_gen/r_drw2d_rx/src/tes/dave_viewport.c ****  * parameters:
 174:../src/smc_gen/r_drw2d_rx/src/tes/dave_viewport.c ****  *   handle - device pointer (see: <d2_opendevice>)
 175:../src/smc_gen/r_drw2d_rx/src/tes/dave_viewport.c ****  *   ptr    - address of the top left pixel (coordinate 0,0)
 176:../src/smc_gen/r_drw2d_rx/src/tes/dave_viewport.c ****  *   pitch  - number of pixels (*not bytes*) per scanline
 177:../src/smc_gen/r_drw2d_rx/src/tes/dave_viewport.c ****  *   width  - width of framebuffer in pixels (equal or less than pitch)
 178:../src/smc_gen/r_drw2d_rx/src/tes/dave_viewport.c ****  *   height - height of framebuffer in pixels
 179:../src/smc_gen/r_drw2d_rx/src/tes/dave_viewport.c ****  *   format - pixel encoding type (framebuffer format)
 180:../src/smc_gen/r_drw2d_rx/src/tes/dave_viewport.c ****  *
 181:../src/smc_gen/r_drw2d_rx/src/tes/dave_viewport.c ****  * framebuffer formats:
 182:../src/smc_gen/r_drw2d_rx/src/tes/dave_viewport.c ****  *
 183:../src/smc_gen/r_drw2d_rx/src/tes/dave_viewport.c ****  *  d2_mode_alpha8   - monochrome 8bit per pixel
 184:../src/smc_gen/r_drw2d_rx/src/tes/dave_viewport.c ****  *  d2_mode_rgb565   - colored 16bit per pixel
 185:../src/smc_gen/r_drw2d_rx/src/tes/dave_viewport.c ****  *  d2_mode_argb8888 - colored 32bit per pixel
 186:../src/smc_gen/r_drw2d_rx/src/tes/dave_viewport.c ****  *  d2_mode_argb4444 - colored 16bit per pixel
 187:../src/smc_gen/r_drw2d_rx/src/tes/dave_viewport.c ****  *  d2_mode_rgba8888 - colored 32bit per pixel
 188:../src/smc_gen/r_drw2d_rx/src/tes/dave_viewport.c ****  *  d2_mode_rgba4444 - colored 16bit per pixel
 189:../src/smc_gen/r_drw2d_rx/src/tes/dave_viewport.c ****  *
 190:../src/smc_gen/r_drw2d_rx/src/tes/dave_viewport.c ****  * returns:
 191:../src/smc_gen/r_drw2d_rx/src/tes/dave_viewport.c ****  *   errorcode (D2_OK if successfull) see list of <Errorcodes> for details
 192:../src/smc_gen/r_drw2d_rx/src/tes/dave_viewport.c ****  *
 193:../src/smc_gen/r_drw2d_rx/src/tes/dave_viewport.c ****  * note:
 194:../src/smc_gen/r_drw2d_rx/src/tes/dave_viewport.c ****  *   this function has no effect on what memory area is currently visible
 195:../src/smc_gen/r_drw2d_rx/src/tes/dave_viewport.c ****  * */
 196:../src/smc_gen/r_drw2d_rx/src/tes/dave_viewport.c **** d2_s32 d2_framebuffer( d2_device *handle, void *ptr, d2_s32 pitch, d2_u32 width, d2_u32 height, d2_
 197:../src/smc_gen/r_drw2d_rx/src/tes/dave_viewport.c **** {
 255                             		.loc 1 197 1 is_stmt 1 view -0
 256                             		.loc 1 197 1 is_stmt 0 view .LVU92
 257 0000 6E 7A                   		pushm	r7-r10
 258                             	.LCFI3:
 259                             		.loc 1 197 1 view .LVU93
 260 0002 60 C0                   		sub	#12, r0
 261                             	.LCFI4:
 262 0004 75 47 20                		mov.L	#32, r7
 263 0007 4B 07                   		add	r0, r7
 264 0009 EF 1A                   		mov.L	r1, r10
 265 000b EC 71                   		mov.L	[r7], r1
 266                             	.LVL29:
 267                             		.loc 1 197 1 view .LVU94
 268 000d A8 7D                   		mov.L	4[r7], r5
 198:../src/smc_gen/r_drw2d_rx/src/tes/dave_viewport.c ****    d2_contextdata *ctx;
 269                             		.loc 1 198 4 is_stmt 1 view .LVU95
 199:../src/smc_gen/r_drw2d_rx/src/tes/dave_viewport.c **** 
 200:../src/smc_gen/r_drw2d_rx/src/tes/dave_viewport.c ****    D2_VALIDATE( handle, D2_INVALIDDEVICE );       /* PRQA S 4130, 3112, 3453 */ /* $Misra: #DEBUG_M
 270                             		.loc 1 200 4 view .LVU96
 201:../src/smc_gen/r_drw2d_rx/src/tes/dave_viewport.c ****    D2_CHECKERR( ptr, D2_NOVIDEOMEM );             /* PRQA S 4130, 3112, 3453 */ /* $Misra: #DEBUG_M
 271                             		.loc 1 201 4 view .LVU97
 202:../src/smc_gen/r_drw2d_rx/src/tes/dave_viewport.c ****    D2_CHECKERR( width  > 1, D2_VALUETOOSMALL );   /* PRQA S 4130, 3112, 3453 */ /* $Misra: #DEBUG_M
 272                             		.loc 1 202 4 view .LVU98
 203:../src/smc_gen/r_drw2d_rx/src/tes/dave_viewport.c ****    D2_CHECKERR( height > 1, D2_VALUETOOSMALL );   /* PRQA S 4130, 3112, 3453 */ /* $Misra: #DEBUG_M
 273                             		.loc 1 203 4 view .LVU99
 204:../src/smc_gen/r_drw2d_rx/src/tes/dave_viewport.c **** 
 205:../src/smc_gen/r_drw2d_rx/src/tes/dave_viewport.c ****    /* use new parameters */
 206:../src/smc_gen/r_drw2d_rx/src/tes/dave_viewport.c ****    D2_DEV(handle)->framebuffer = ptr;
 274                             		.loc 1 206 4 view .LVU100
 275                             		.loc 1 206 32 is_stmt 0 view .LVU101
 276 000f E7 A2 0F                		mov.L	r2, 60[r10]
 207:../src/smc_gen/r_drw2d_rx/src/tes/dave_viewport.c ****    D2_DEV(handle)->fbformat    = format;
 277                             		.loc 1 207 4 is_stmt 1 view .LVU102
 278                             		.loc 1 207 32 is_stmt 0 view .LVU103
 279 0012 E7 A5 12                		mov.L	r5, 72[r10]
 208:../src/smc_gen/r_drw2d_rx/src/tes/dave_viewport.c ****    D2_DEV(handle)->pitch       = pitch;
 280                             		.loc 1 208 4 is_stmt 1 view .LVU104
 281                             		.loc 1 208 32 is_stmt 0 view .LVU105
 282 0015 E7 A3 10                		mov.L	r3, 64[r10]
 209:../src/smc_gen/r_drw2d_rx/src/tes/dave_viewport.c ****    D2_DEV(handle)->fbwidth     = width;
 283                             		.loc 1 209 4 is_stmt 1 view .LVU106
 284                             		.loc 1 209 32 is_stmt 0 view .LVU107
 285 0018 E7 A4 13                		mov.L	r4, 76[r10]
 210:../src/smc_gen/r_drw2d_rx/src/tes/dave_viewport.c ****    D2_DEV(handle)->fbheight    = height;
 286                             		.loc 1 210 4 is_stmt 1 view .LVU108
 287                             		.loc 1 210 32 is_stmt 0 view .LVU109
 288 001b E7 A1 14                		mov.L	r1, 80[r10]
 211:../src/smc_gen/r_drw2d_rx/src/tes/dave_viewport.c **** 
 212:../src/smc_gen/r_drw2d_rx/src/tes/dave_viewport.c ****    /* calc bpp and mask */
 213:../src/smc_gen/r_drw2d_rx/src/tes/dave_viewport.c ****    switch (format)
 289                             		.loc 1 213 4 is_stmt 1 view .LVU110
 290 001e 61 35                   		cmp	#3, r5
 291 0020 20 14                   		beq	.L26
 292 0022 2B 1E                   		ble	.L38
 293 0024 61 75                   		cmp	#7, r5
 294 0026 20 7C                   		beq	.L32
 295 0028 2B 52                   		ble	.L39
 296 002a 75 55 40                		cmp	#0x40, r5
 297 002d 20 69                   		beq	.L29
 298 002f 75 55 41                		cmp	#0x41, r5
 299 0032 21 1F                   		bne	.L31
 300                             	.L26:
 214:../src/smc_gen/r_drw2d_rx/src/tes/dave_viewport.c ****    {
 215:../src/smc_gen/r_drw2d_rx/src/tes/dave_viewport.c ****       case d2_mode_alpha8:
 216:../src/smc_gen/r_drw2d_rx/src/tes/dave_viewport.c ****          D2_DEV(handle)->fbstylemask = 0;
 217:../src/smc_gen/r_drw2d_rx/src/tes/dave_viewport.c ****          D2_DEV(handle)->bpp         = 1;
 218:../src/smc_gen/r_drw2d_rx/src/tes/dave_viewport.c ****          break;
 219:../src/smc_gen/r_drw2d_rx/src/tes/dave_viewport.c **** 
 220:../src/smc_gen/r_drw2d_rx/src/tes/dave_viewport.c ****       case d2_mode_rgb565:
 221:../src/smc_gen/r_drw2d_rx/src/tes/dave_viewport.c ****          D2_DEV(handle)->fbstylemask = D2C_WRITEFORMAT1;
 222:../src/smc_gen/r_drw2d_rx/src/tes/dave_viewport.c ****          D2_DEV(handle)->bpp         = 2;
 223:../src/smc_gen/r_drw2d_rx/src/tes/dave_viewport.c ****          break;
 224:../src/smc_gen/r_drw2d_rx/src/tes/dave_viewport.c **** 
 225:../src/smc_gen/r_drw2d_rx/src/tes/dave_viewport.c ****       case d2_mode_argb8888:
 226:../src/smc_gen/r_drw2d_rx/src/tes/dave_viewport.c ****       case d2_mode_rgb888:
 227:../src/smc_gen/r_drw2d_rx/src/tes/dave_viewport.c ****          D2_DEV(handle)->fbstylemask = D2C_WRITEFORMAT2;
 228:../src/smc_gen/r_drw2d_rx/src/tes/dave_viewport.c ****          D2_DEV(handle)->bpp         = 4;
 229:../src/smc_gen/r_drw2d_rx/src/tes/dave_viewport.c ****          break;
 230:../src/smc_gen/r_drw2d_rx/src/tes/dave_viewport.c **** 
 231:../src/smc_gen/r_drw2d_rx/src/tes/dave_viewport.c ****       case d2_mode_rgba8888:
 232:../src/smc_gen/r_drw2d_rx/src/tes/dave_viewport.c ****          D2_DEV(handle)->fbstylemask = D2C_WRITEFORMAT3 | D2C_WRITEFORMAT2;
 233:../src/smc_gen/r_drw2d_rx/src/tes/dave_viewport.c ****          D2_DEV(handle)->bpp         = 4;
 234:../src/smc_gen/r_drw2d_rx/src/tes/dave_viewport.c ****          break;
 235:../src/smc_gen/r_drw2d_rx/src/tes/dave_viewport.c **** 
 236:../src/smc_gen/r_drw2d_rx/src/tes/dave_viewport.c ****       case d2_mode_argb4444:
 237:../src/smc_gen/r_drw2d_rx/src/tes/dave_viewport.c ****       case d2_mode_rgb444:
 238:../src/smc_gen/r_drw2d_rx/src/tes/dave_viewport.c ****          D2_DEV(handle)->fbstylemask = D2C_WRITEFORMAT2 | D2C_WRITEFORMAT1;
 301                             		.loc 1 238 10 view .LVU111
 302                             		.loc 1 238 38 is_stmt 0 view .LVU112
 303 0034 F9 AE 15 00 00 30       		mov.L	#0x300000, 84[r10]
 239:../src/smc_gen/r_drw2d_rx/src/tes/dave_viewport.c ****          D2_DEV(handle)->bpp         = 2;
 304                             		.loc 1 239 10 is_stmt 1 view .LVU113
 305                             		.loc 1 239 38 is_stmt 0 view .LVU114
 306 003a F9 A6 11 02             		mov.L	#2, 68[r10]
 240:../src/smc_gen/r_drw2d_rx/src/tes/dave_viewport.c ****          break;
 307                             		.loc 1 240 10 is_stmt 1 view .LVU115
 308 003e 2E 13                   		bra	.L31
 309                             	.L38:
 213:../src/smc_gen/r_drw2d_rx/src/tes/dave_viewport.c ****    {
 310                             		.loc 1 213 4 is_stmt 0 view .LVU116
 311 0040 61 15                   		cmp	#1, r5
 312 0042 20 48                   		beq	.L28
 313 0044 2A 52                   		bgt	.L29
 314 0046 61 05                   		cmp	#0, r5
 315 0048 19                      		bne	.L31
 216:../src/smc_gen/r_drw2d_rx/src/tes/dave_viewport.c ****          D2_DEV(handle)->bpp         = 1;
 316                             		.loc 1 216 10 is_stmt 1 view .LVU117
 216:../src/smc_gen/r_drw2d_rx/src/tes/dave_viewport.c ****          D2_DEV(handle)->bpp         = 1;
 317                             		.loc 1 216 38 is_stmt 0 view .LVU118
 318 0049 F9 A6 15 00             		mov.L	#0, 84[r10]
 217:../src/smc_gen/r_drw2d_rx/src/tes/dave_viewport.c ****          break;
 319                             		.loc 1 217 10 is_stmt 1 view .LVU119
 217:../src/smc_gen/r_drw2d_rx/src/tes/dave_viewport.c ****          break;
 320                             		.loc 1 217 38 is_stmt 0 view .LVU120
 321 004d F9 A6 11 01             		mov.L	#1, 68[r10]
 218:../src/smc_gen/r_drw2d_rx/src/tes/dave_viewport.c **** 
 322                             		.loc 1 218 10 is_stmt 1 view .LVU121
 323                             		.balign 8,3,1
 324                             	.L31:
 241:../src/smc_gen/r_drw2d_rx/src/tes/dave_viewport.c **** 
 242:../src/smc_gen/r_drw2d_rx/src/tes/dave_viewport.c ****       case d2_mode_rgba4444:
 243:../src/smc_gen/r_drw2d_rx/src/tes/dave_viewport.c ****          D2_DEV(handle)->fbstylemask = D2C_WRITEFORMAT3 | D2C_WRITEFORMAT2 | D2C_WRITEFORMAT1;
 244:../src/smc_gen/r_drw2d_rx/src/tes/dave_viewport.c ****          D2_DEV(handle)->bpp         = 2;
 245:../src/smc_gen/r_drw2d_rx/src/tes/dave_viewport.c ****          break;
 246:../src/smc_gen/r_drw2d_rx/src/tes/dave_viewport.c **** 
 247:../src/smc_gen/r_drw2d_rx/src/tes/dave_viewport.c ****       default:
 248:../src/smc_gen/r_drw2d_rx/src/tes/dave_viewport.c ****          break;
 249:../src/smc_gen/r_drw2d_rx/src/tes/dave_viewport.c ****    }
 250:../src/smc_gen/r_drw2d_rx/src/tes/dave_viewport.c **** 
 251:../src/smc_gen/r_drw2d_rx/src/tes/dave_viewport.c ****    /* update context modeflags */
 252:../src/smc_gen/r_drw2d_rx/src/tes/dave_viewport.c ****    ctx = D2_DEV(handle)->ctxchain;
 325                             		.loc 1 252 4 view .LVU122
 326                             		.loc 1 252 8 is_stmt 0 view .LVU123
 327 0051 ED A3 07                		mov.L	28[r10], r3
 328                             	.LVL30:
 253:../src/smc_gen/r_drw2d_rx/src/tes/dave_viewport.c **** 
 254:../src/smc_gen/r_drw2d_rx/src/tes/dave_viewport.c ****    while(NULL != ctx)
 329                             		.loc 1 254 4 is_stmt 1 view .LVU124
 330                             	.L35:
 331                             		.loc 1 254 9 is_stmt 0 view .LVU125
 332 0054 61 03                   		cmp	#0, r3
 333 0056 20 58                   		beq	.L40
 255:../src/smc_gen/r_drw2d_rx/src/tes/dave_viewport.c ****    {
 256:../src/smc_gen/r_drw2d_rx/src/tes/dave_viewport.c ****       ctx->cr2mask = 
 334                             		.loc 1 256 7 is_stmt 1 view .LVU126
 257:../src/smc_gen/r_drw2d_rx/src/tes/dave_viewport.c ****          D2_DEV(handle)->fbstylemask | 
 335                             		.loc 1 257 24 is_stmt 0 view .LVU127
 336 0058 ED A5 15                		mov.L	84[r10], r5
 337                             		.loc 1 257 38 view .LVU128
 338                             		
 339 005b 06 95 35 47             	   or	284[r3].L, r5
 258:../src/smc_gen/r_drw2d_rx/src/tes/dave_viewport.c ****          ctx->blendmask              | 
 340                             		.loc 1 258 38 view .LVU129
 341                             		
 342 005f 06 95 35 4B             	   or	300[r3].L, r5
 259:../src/smc_gen/r_drw2d_rx/src/tes/dave_viewport.c ****          ctx->tbstylemask            | 
 343                             		.loc 1 259 38 view .LVU130
 344                             		
 345 0063 06 95 35 48             	   or	288[r3].L, r5
 260:../src/smc_gen/r_drw2d_rx/src/tes/dave_viewport.c ****          ctx->alphablendmask         | 
 346                             		.loc 1 260 38 view .LVU131
 347                             		
 348 0067 06 95 35 4F             	   or	316[r3].L, r5
 261:../src/smc_gen/r_drw2d_rx/src/tes/dave_viewport.c ****          ctx->rlemask                | 
 349                             		.loc 1 261 38 view .LVU132
 350                             		
 351 006b 06 95 35 50             	   or	320[r3].L, r5
 262:../src/smc_gen/r_drw2d_rx/src/tes/dave_viewport.c ****          ctx->clutmask               | 
 352                             		.loc 1 262 38 view .LVU133
 353                             		
 354 006f 06 95 35 51             	   or	324[r3].L, r5
 256:../src/smc_gen/r_drw2d_rx/src/tes/dave_viewport.c ****          D2_DEV(handle)->fbstylemask | 
 355                             		.loc 1 256 20 view .LVU134
 356 0073 E7 35 49                		mov.L	r5, 292[r3]
 263:../src/smc_gen/r_drw2d_rx/src/tes/dave_viewport.c ****          ctx->colkeymask             ;
 264:../src/smc_gen/r_drw2d_rx/src/tes/dave_viewport.c **** 
 265:../src/smc_gen/r_drw2d_rx/src/tes/dave_viewport.c ****       ctx = ctx->next;
 357                             		.loc 1 265 7 is_stmt 1 view .LVU135
 358                             		.loc 1 265 11 is_stmt 0 view .LVU136
 359 0076 EC 33                   		mov.L	[r3], r3
 360                             	.LVL31:
 361                             		.loc 1 265 11 view .LVU137
 362 0078 2E DC                   		bra	.L35
 363                             	.LVL32:
 364                             	.L39:
 213:../src/smc_gen/r_drw2d_rx/src/tes/dave_viewport.c ****    {
 365                             		.loc 1 213 4 view .LVU138
 366 007a 61 65                   		cmp	#6, r5
 367 007c 21 D5                   		bne	.L31
 232:../src/smc_gen/r_drw2d_rx/src/tes/dave_viewport.c ****          D2_DEV(handle)->bpp         = 4;
 368                             		.loc 1 232 10 is_stmt 1 view .LVU139
 232:../src/smc_gen/r_drw2d_rx/src/tes/dave_viewport.c ****          D2_DEV(handle)->bpp         = 4;
 369                             		.loc 1 232 38 is_stmt 0 view .LVU140
 370 007e F9 AE 15 00 01 20       		mov.L	#0x200100, 84[r10]
 233:../src/smc_gen/r_drw2d_rx/src/tes/dave_viewport.c ****          break;
 371                             		.loc 1 233 10 is_stmt 1 view .LVU141
 233:../src/smc_gen/r_drw2d_rx/src/tes/dave_viewport.c ****          break;
 372                             		.loc 1 233 38 is_stmt 0 view .LVU142
 373 0084 F9 A6 11 04             		mov.L	#4, 68[r10]
 234:../src/smc_gen/r_drw2d_rx/src/tes/dave_viewport.c **** 
 374                             		.loc 1 234 10 is_stmt 1 view .LVU143
 375 0088 2E C9                   		bra	.L31
 376                             	.L28:
 221:../src/smc_gen/r_drw2d_rx/src/tes/dave_viewport.c ****          D2_DEV(handle)->bpp         = 2;
 377                             		.loc 1 221 10 view .LVU144
 221:../src/smc_gen/r_drw2d_rx/src/tes/dave_viewport.c ****          D2_DEV(handle)->bpp         = 2;
 378                             		.loc 1 221 38 is_stmt 0 view .LVU145
 379 008a F9 AE 15 00 00 10       		mov.L	#0x100000, 84[r10]
 222:../src/smc_gen/r_drw2d_rx/src/tes/dave_viewport.c ****          break;
 380                             		.loc 1 222 10 is_stmt 1 view .LVU146
 222:../src/smc_gen/r_drw2d_rx/src/tes/dave_viewport.c ****          break;
 381                             		.loc 1 222 38 is_stmt 0 view .LVU147
 382 0090 F9 A6 11 02             		mov.L	#2, 68[r10]
 223:../src/smc_gen/r_drw2d_rx/src/tes/dave_viewport.c **** 
 383                             		.loc 1 223 10 is_stmt 1 view .LVU148
 384 0094 2E BD                   		bra	.L31
 385                             	.L29:
 227:../src/smc_gen/r_drw2d_rx/src/tes/dave_viewport.c ****          D2_DEV(handle)->bpp         = 4;
 386                             		.loc 1 227 10 view .LVU149
 227:../src/smc_gen/r_drw2d_rx/src/tes/dave_viewport.c ****          D2_DEV(handle)->bpp         = 4;
 387                             		.loc 1 227 38 is_stmt 0 view .LVU150
 388 0096 F9 AE 15 00 00 20       		mov.L	#0x200000, 84[r10]
 228:../src/smc_gen/r_drw2d_rx/src/tes/dave_viewport.c ****          break;
 389                             		.loc 1 228 10 is_stmt 1 view .LVU151
 228:../src/smc_gen/r_drw2d_rx/src/tes/dave_viewport.c ****          break;
 390                             		.loc 1 228 38 is_stmt 0 view .LVU152
 391 009c F9 A6 11 04             		mov.L	#4, 68[r10]
 229:../src/smc_gen/r_drw2d_rx/src/tes/dave_viewport.c **** 
 392                             		.loc 1 229 10 is_stmt 1 view .LVU153
 393 00a0 2E B1                   		bra	.L31
 394                             	.L32:
 243:../src/smc_gen/r_drw2d_rx/src/tes/dave_viewport.c ****          D2_DEV(handle)->bpp         = 2;
 395                             		.loc 1 243 10 view .LVU154
 243:../src/smc_gen/r_drw2d_rx/src/tes/dave_viewport.c ****          D2_DEV(handle)->bpp         = 2;
 396                             		.loc 1 243 38 is_stmt 0 view .LVU155
 397 00a2 F9 AE 15 00 01 30       		mov.L	#0x300100, 84[r10]
 244:../src/smc_gen/r_drw2d_rx/src/tes/dave_viewport.c ****          break;
 398                             		.loc 1 244 10 is_stmt 1 view .LVU156
 244:../src/smc_gen/r_drw2d_rx/src/tes/dave_viewport.c ****          break;
 399                             		.loc 1 244 38 is_stmt 0 view .LVU157
 400 00a8 F9 A6 11 02             		mov.L	#2, 68[r10]
 245:../src/smc_gen/r_drw2d_rx/src/tes/dave_viewport.c **** 
 401                             		.loc 1 245 10 is_stmt 1 view .LVU158
 402 00ac 2E A5                   		bra	.L31
 403                             	.LVL33:
 404                             	.L40:
 266:../src/smc_gen/r_drw2d_rx/src/tes/dave_viewport.c ****    }
 267:../src/smc_gen/r_drw2d_rx/src/tes/dave_viewport.c **** 
 268:../src/smc_gen/r_drw2d_rx/src/tes/dave_viewport.c ****    /* reset cliprect */
 269:../src/smc_gen/r_drw2d_rx/src/tes/dave_viewport.c ****    (void)d2_cliprect( handle, 0, 0, (d2_border) (width-1), (d2_border) (height-1) );
 405                             		.loc 1 269 4 view .LVU159
 406                             		.loc 1 269 79 is_stmt 0 view .LVU160
 407 00ae 60 11                   		sub	#1, r1
 408                             		.loc 1 269 10 view .LVU161
 409 00b0 D3 01                   		mov.W	r1, [r0]
 410 00b2 60 14                   		sub	#1, r4
 411                             	.LVL34:
 412                             		.loc 1 269 10 view .LVU162
 413 00b4 66 02                   		mov	#0, r2
 414                             	.LVL35:
 415                             		.loc 1 269 10 view .LVU163
 416 00b6 EF A1                   		mov.L	r10, r1
 417 00b8 05 00 00 00             		bsr	_d2_cliprect
 418                             	.LVL36:
 270:../src/smc_gen/r_drw2d_rx/src/tes/dave_viewport.c **** 
 271:../src/smc_gen/r_drw2d_rx/src/tes/dave_viewport.c ****    D2_RETOK(handle);
 419                             		.loc 1 271 4 is_stmt 1 view .LVU164
 420                             	.LBB14:
 421                             	.LBI14:
 239:../src/smc_gen/r_drw2d_rx/src/tes/dave_intern.h **** {
 422                             		.loc 2 239 25 view .LVU165
 423                             	.LBB15:
 241:../src/smc_gen/r_drw2d_rx/src/tes/dave_intern.h **** 
 424                             		.loc 2 241 4 view .LVU166
 241:../src/smc_gen/r_drw2d_rx/src/tes/dave_intern.h **** 
 425                             		.loc 2 241 30 is_stmt 0 view .LVU167
 426 00bc FA A4 C6 01 00          		mov.B	#0, 454[r10]
 427                             		.loc 2 243 4 is_stmt 1 view .LVU168
 428                             	.LVL37:
 429                             		.loc 2 243 4 is_stmt 0 view .LVU169
 430                             	.LBE15:
 431                             	.LBE14:
 272:../src/smc_gen/r_drw2d_rx/src/tes/dave_viewport.c **** }
 432                             		.loc 1 272 1 view .LVU170
 433 00c1 66 01                   		mov.L	#0, r1
 434 00c3 3F 7A 07                		rtsd	#28, r7-r10
 435                             		.loc 1 272 1 view .LVU171
 436                             	.LFE8:
 438 00c6 EF 00                   		.section	.text.d2_getframebuffer,"ax",@progbits
 439                             		.global	_d2_getframebuffer
 441                             	_d2_getframebuffer:
 442                             	.LVL38:
 443                             	.LFB9:
 273:../src/smc_gen/r_drw2d_rx/src/tes/dave_viewport.c **** 
 274:../src/smc_gen/r_drw2d_rx/src/tes/dave_viewport.c **** 
 275:../src/smc_gen/r_drw2d_rx/src/tes/dave_viewport.c **** /*--------------------------------------------------------------------------
 276:../src/smc_gen/r_drw2d_rx/src/tes/dave_viewport.c ****  * function: d2_getframebuffer
 277:../src/smc_gen/r_drw2d_rx/src/tes/dave_viewport.c ****  * Get information about the rendering target
 278:../src/smc_gen/r_drw2d_rx/src/tes/dave_viewport.c ****  *
 279:../src/smc_gen/r_drw2d_rx/src/tes/dave_viewport.c ****  * Use this function to get information about the framebuffer's
 280:../src/smc_gen/r_drw2d_rx/src/tes/dave_viewport.c ****  * memory area and layout (framebuffer pointer, pitch, size and format).
 281:../src/smc_gen/r_drw2d_rx/src/tes/dave_viewport.c ****  *
 282:../src/smc_gen/r_drw2d_rx/src/tes/dave_viewport.c ****  * parameters:
 283:../src/smc_gen/r_drw2d_rx/src/tes/dave_viewport.c ****  *   handle - device pointer (see: <d2_opendevice>)
 284:../src/smc_gen/r_drw2d_rx/src/tes/dave_viewport.c ****  *   ptr    - pointer to receive address of the top left pixel (coordinate 0,0)
 285:../src/smc_gen/r_drw2d_rx/src/tes/dave_viewport.c ****  *   pitch  - pointer to receive number of pixels (*not bytes*) per scanline
 286:../src/smc_gen/r_drw2d_rx/src/tes/dave_viewport.c ****  *   width  - pointer to receive width of framebuffer in pixels (equal or less than pitch)
 287:../src/smc_gen/r_drw2d_rx/src/tes/dave_viewport.c ****  *   height - pointer to receive height of framebuffer in pixels
 288:../src/smc_gen/r_drw2d_rx/src/tes/dave_viewport.c ****  *   format - pointer to receive pixel encoding type (framebuffer format)
 289:../src/smc_gen/r_drw2d_rx/src/tes/dave_viewport.c ****  *
 290:../src/smc_gen/r_drw2d_rx/src/tes/dave_viewport.c ****  * framebuffer formats:
 291:../src/smc_gen/r_drw2d_rx/src/tes/dave_viewport.c ****  *
 292:../src/smc_gen/r_drw2d_rx/src/tes/dave_viewport.c ****  *  d2_mode_alpha8   - monochrome 8bit per pixel
 293:../src/smc_gen/r_drw2d_rx/src/tes/dave_viewport.c ****  *  d2_mode_rgb565   - colored 16bit per pixel
 294:../src/smc_gen/r_drw2d_rx/src/tes/dave_viewport.c ****  *  d2_mode_argb8888 - colored 32bit per pixel
 295:../src/smc_gen/r_drw2d_rx/src/tes/dave_viewport.c ****  *  d2_mode_argb4444 - colored 16bit per pixel
 296:../src/smc_gen/r_drw2d_rx/src/tes/dave_viewport.c ****  *
 297:../src/smc_gen/r_drw2d_rx/src/tes/dave_viewport.c ****  * returns:
 298:../src/smc_gen/r_drw2d_rx/src/tes/dave_viewport.c ****  *   errorcode (D2_OK if successfull) see list of <Errorcodes> for details
 299:../src/smc_gen/r_drw2d_rx/src/tes/dave_viewport.c ****  * */
 300:../src/smc_gen/r_drw2d_rx/src/tes/dave_viewport.c **** d2_s32 d2_getframebuffer( d2_device *handle, void** ptr, d2_s32 * pitch, d2_u32 * width, d2_u32 * h
 301:../src/smc_gen/r_drw2d_rx/src/tes/dave_viewport.c **** {
 444                             		.loc 1 301 1 is_stmt 1 view -0
 445                             		.loc 1 301 1 is_stmt 0 view .LVU173
 446 0000 7E A7                   		push.l	r7
 447                             	.LCFI5:
 448                             		.loc 1 301 1 view .LVU174
 449 0002 60 80                   		sub	#8, r0
 450                             	.LCFI6:
 451 0004 75 47 10                		mov.L	#16, r7
 452 0007 4B 07                   		add	r0, r7
 453 0009 EC 75                   		mov.L	[r7], r5
 454 000b A8 7F                   		mov.L	4[r7], r7
 302:../src/smc_gen/r_drw2d_rx/src/tes/dave_viewport.c ****    D2_VALIDATE( handle, D2_INVALIDDEVICE );   /* PRQA S 4130, 3112, 3453 */ /* $Misra: #DEBUG_MACRO
 455                             		.loc 1 302 4 is_stmt 1 view .LVU175
 303:../src/smc_gen/r_drw2d_rx/src/tes/dave_viewport.c **** 
 304:../src/smc_gen/r_drw2d_rx/src/tes/dave_viewport.c ****    if(NULL != ptr)
 456                             		.loc 1 304 4 view .LVU176
 457                             		.loc 1 304 6 is_stmt 0 view .LVU177
 458 000d 61 02                   		cmp	#0, r2
 459 000f 14                      		beq	.L42
 305:../src/smc_gen/r_drw2d_rx/src/tes/dave_viewport.c ****    {
 306:../src/smc_gen/r_drw2d_rx/src/tes/dave_viewport.c ****       *ptr    = D2_DEV(handle)->framebuffer;
 460                             		.loc 1 306 7 is_stmt 1 view .LVU178
 461                             		.loc 1 306 15 is_stmt 0 view .LVU179
 462 0010 E1 12 0F                		mov.L	60[r1], [r2]
 463                             	.L42:
 307:../src/smc_gen/r_drw2d_rx/src/tes/dave_viewport.c ****    }
 308:../src/smc_gen/r_drw2d_rx/src/tes/dave_viewport.c **** 
 309:../src/smc_gen/r_drw2d_rx/src/tes/dave_viewport.c ****    if(0 != pitch)
 464                             		.loc 1 309 4 is_stmt 1 view .LVU180
 465                             		.loc 1 309 6 is_stmt 0 view .LVU181
 466 0013 61 03                   		cmp	#0, r3
 467 0015 14                      		beq	.L43
 310:../src/smc_gen/r_drw2d_rx/src/tes/dave_viewport.c ****    {
 311:../src/smc_gen/r_drw2d_rx/src/tes/dave_viewport.c ****       *pitch  = D2_DEV(handle)->pitch;
 468                             		.loc 1 311 7 is_stmt 1 view .LVU182
 469                             		.loc 1 311 15 is_stmt 0 view .LVU183
 470 0016 E1 13 10                		mov.L	64[r1], [r3]
 471                             	.L43:
 312:../src/smc_gen/r_drw2d_rx/src/tes/dave_viewport.c ****    }
 313:../src/smc_gen/r_drw2d_rx/src/tes/dave_viewport.c **** 
 314:../src/smc_gen/r_drw2d_rx/src/tes/dave_viewport.c ****    if(0 != width)
 472                             		.loc 1 314 4 is_stmt 1 view .LVU184
 473                             		.loc 1 314 6 is_stmt 0 view .LVU185
 474 0019 61 04                   		cmp	#0, r4
 475 001b 14                      		beq	.L44
 315:../src/smc_gen/r_drw2d_rx/src/tes/dave_viewport.c ****    {
 316:../src/smc_gen/r_drw2d_rx/src/tes/dave_viewport.c ****       *width  = D2_DEV(handle)->fbwidth;
 476                             		.loc 1 316 7 is_stmt 1 view .LVU186
 477                             		.loc 1 316 15 is_stmt 0 view .LVU187
 478 001c E1 14 13                		mov.L	76[r1], [r4]
 479                             	.L44:
 317:../src/smc_gen/r_drw2d_rx/src/tes/dave_viewport.c ****    }
 318:../src/smc_gen/r_drw2d_rx/src/tes/dave_viewport.c **** 
 319:../src/smc_gen/r_drw2d_rx/src/tes/dave_viewport.c ****    if(0 != height)
 480                             		.loc 1 319 4 is_stmt 1 view .LVU188
 481                             		.loc 1 319 6 is_stmt 0 view .LVU189
 482 001f 61 05                   		cmp	#0, r5
 483 0021 14                      		beq	.L45
 320:../src/smc_gen/r_drw2d_rx/src/tes/dave_viewport.c ****    {
 321:../src/smc_gen/r_drw2d_rx/src/tes/dave_viewport.c ****       *height = D2_DEV(handle)->fbheight;
 484                             		.loc 1 321 7 is_stmt 1 view .LVU190
 485                             		.loc 1 321 15 is_stmt 0 view .LVU191
 486 0022 E1 15 14                		mov.L	80[r1], [r5]
 487                             	.L45:
 322:../src/smc_gen/r_drw2d_rx/src/tes/dave_viewport.c ****    }
 323:../src/smc_gen/r_drw2d_rx/src/tes/dave_viewport.c **** 
 324:../src/smc_gen/r_drw2d_rx/src/tes/dave_viewport.c ****    if(0 != format)
 488                             		.loc 1 324 4 is_stmt 1 view .LVU192
 489                             		.loc 1 324 6 is_stmt 0 view .LVU193
 490 0025 61 07                   		cmp	#0, r7
 491 0027 14                      		beq	.L46
 325:../src/smc_gen/r_drw2d_rx/src/tes/dave_viewport.c ****    {
 326:../src/smc_gen/r_drw2d_rx/src/tes/dave_viewport.c ****       *format = D2_DEV(handle)->fbformat;
 492                             		.loc 1 326 7 is_stmt 1 view .LVU194
 493                             		.loc 1 326 15 is_stmt 0 view .LVU195
 494 0028 E1 17 12                		mov.L	72[r1], [r7]
 495                             	.L46:
 327:../src/smc_gen/r_drw2d_rx/src/tes/dave_viewport.c ****    }
 328:../src/smc_gen/r_drw2d_rx/src/tes/dave_viewport.c **** 
 329:../src/smc_gen/r_drw2d_rx/src/tes/dave_viewport.c ****    D2_RETOK( handle );
 496                             		.loc 1 329 4 is_stmt 1 view .LVU196
 497                             	.LVL39:
 498                             	.LBB16:
 499                             	.LBI16:
 239:../src/smc_gen/r_drw2d_rx/src/tes/dave_intern.h **** {
 500                             		.loc 2 239 25 view .LVU197
 501                             	.LBB17:
 241:../src/smc_gen/r_drw2d_rx/src/tes/dave_intern.h **** 
 502                             		.loc 2 241 4 view .LVU198
 241:../src/smc_gen/r_drw2d_rx/src/tes/dave_intern.h **** 
 503                             		.loc 2 241 30 is_stmt 0 view .LVU199
 504 002b FA 14 C6 01 00          		mov.B	#0, 454[r1]
 505                             		.loc 2 243 4 is_stmt 1 view .LVU200
 506                             	.LVL40:
 507                             		.loc 2 243 4 is_stmt 0 view .LVU201
 508                             	.LBE17:
 509                             	.LBE16:
 330:../src/smc_gen/r_drw2d_rx/src/tes/dave_viewport.c **** }
 510                             		.loc 1 330 1 view .LVU202
 511 0030 66 01                   		mov.L	#0, r1
 512                             	.LVL41:
 513                             		.loc 1 330 1 view .LVU203
 514 0032 3F 77 03                		rtsd	#12, r7-r7
 515                             	.LFE9:
 517                             		.section	.text.d2_clipbbox_intern,"ax",@progbits
 518                             		.global	_d2_clipbbox_intern
 520                             	_d2_clipbbox_intern:
 521                             	.LVL42:
 522                             	.LFB10:
 331:../src/smc_gen/r_drw2d_rx/src/tes/dave_viewport.c **** 
 332:../src/smc_gen/r_drw2d_rx/src/tes/dave_viewport.c **** 
 333:../src/smc_gen/r_drw2d_rx/src/tes/dave_viewport.c **** /*--------------------------------------------------------------------------
 334:../src/smc_gen/r_drw2d_rx/src/tes/dave_viewport.c ****  * */
 335:../src/smc_gen/r_drw2d_rx/src/tes/dave_viewport.c **** d2_s32 d2_clipbbox_intern( const d2_devicedata *handle, d2_bbox *box )
 336:../src/smc_gen/r_drw2d_rx/src/tes/dave_viewport.c **** {
 523                             		.loc 1 336 1 is_stmt 1 view -0
 337:../src/smc_gen/r_drw2d_rx/src/tes/dave_viewport.c ****    /* trivial reject */
 338:../src/smc_gen/r_drw2d_rx/src/tes/dave_viewport.c ****    if( (box->xmin > handle->clipxmax) ||
 524                             		.loc 1 338 4 view .LVU205
 525                             		.loc 1 338 12 is_stmt 0 view .LVU206
 526 0000 DC 25                   		mov.W	[r2], r5
 527                             		.loc 1 338 6 view .LVU207
 528 0002 DF 53                   		mov.W	r5, r3
 529 0004 DD 14 3B                		mov.W	118[r1], r4
 530 0007 47 43                   		cmp	r4, r3
 531 0009 2A 5C                   		bgt	.L54
 339:../src/smc_gen/r_drw2d_rx/src/tes/dave_viewport.c ****        (box->ymin > handle->clipymax) ||
 532                             		.loc 1 339 12 discriminator 1 view .LVU208
 533 000b 98 2C                   		mov.W	2[r2], r4
 338:../src/smc_gen/r_drw2d_rx/src/tes/dave_viewport.c ****        (box->ymin > handle->clipymax) ||
 534                             		.loc 1 338 39 discriminator 1 view .LVU209
 535 000d DF 4E                   		mov.W	r4, r14
 536 000f DD 13 3C                		mov.W	120[r1], r3
 537 0012 47 3E                   		cmp	r3, r14
 538 0014 2A 54                   		bgt	.L55
 336:../src/smc_gen/r_drw2d_rx/src/tes/dave_viewport.c ****    /* trivial reject */
 539                             		.loc 1 336 1 view .LVU210
 540 0016 6E 7A                   		pushm	r7-r10
 541                             	.LCFI7:
 340:../src/smc_gen/r_drw2d_rx/src/tes/dave_viewport.c ****        (box->xmax < handle->clipxmin) ||
 542                             		.loc 1 340 12 view .LVU211
 543 0018 98 A3                   		mov.W	4[r2], r3
 544                             		.loc 1 340 27 view .LVU212
 545 001a DD 1E 39                		mov.W	114[r1], r14
 339:../src/smc_gen/r_drw2d_rx/src/tes/dave_viewport.c ****        (box->xmax < handle->clipxmin) ||
 546                             		.loc 1 339 39 view .LVU213
 547 001d DF 37                   		mov.W	r3, r7
 548 001f DF EF                   		mov.W	r14, r15
 549 0021 47 F7                   		cmp	r15, r7
 550 0023 29 48                   		blt	.L56
 341:../src/smc_gen/r_drw2d_rx/src/tes/dave_viewport.c ****        (box->ymax < handle->clipymin)
 551                             		.loc 1 341 12 view .LVU214
 552 0025 DD 2F 03                		mov.W	6[r2], r15
 340:../src/smc_gen/r_drw2d_rx/src/tes/dave_viewport.c ****        (box->xmax < handle->clipxmin) ||
 553                             		.loc 1 340 39 view .LVU215
 554 0028 DF FA                   		mov.W	r15, r10
 555 002a DD 17 3A                		mov.W	116[r1], r7
 556 002d 47 7A                   		cmp	r7, r10
 557 002f 29 41                   		blt	.L57
 342:../src/smc_gen/r_drw2d_rx/src/tes/dave_viewport.c ****        )
 343:../src/smc_gen/r_drw2d_rx/src/tes/dave_viewport.c ****    {
 344:../src/smc_gen/r_drw2d_rx/src/tes/dave_viewport.c ****       return 0;
 345:../src/smc_gen/r_drw2d_rx/src/tes/dave_viewport.c ****    } 
 346:../src/smc_gen/r_drw2d_rx/src/tes/dave_viewport.c ****    else
 347:../src/smc_gen/r_drw2d_rx/src/tes/dave_viewport.c ****    {
 348:../src/smc_gen/r_drw2d_rx/src/tes/dave_viewport.c ****       /* box clipping */
 349:../src/smc_gen/r_drw2d_rx/src/tes/dave_viewport.c ****       if(box->xmin < handle->clipxmin)
 558                             		.loc 1 349 7 is_stmt 1 view .LVU216
 559                             		.loc 1 349 9 is_stmt 0 view .LVU217
 560 0031 DF 55                   		mov.W	r5, r5
 561 0033 DF E7                   		mov.W	r14, r7
 562 0035 47 75                   		cmp	r7, r5
 563 0037 28 04                   		bge	.L50
 350:../src/smc_gen/r_drw2d_rx/src/tes/dave_viewport.c ****       {
 351:../src/smc_gen/r_drw2d_rx/src/tes/dave_viewport.c ****          box->xmin = handle->clipxmin;
 564                             		.loc 1 351 10 is_stmt 1 view .LVU218
 565                             		.loc 1 351 20 is_stmt 0 view .LVU219
 566 0039 D3 2E                   		mov.W	r14, [r2]
 567                             	.L50:
 352:../src/smc_gen/r_drw2d_rx/src/tes/dave_viewport.c ****       }
 353:../src/smc_gen/r_drw2d_rx/src/tes/dave_viewport.c **** 
 354:../src/smc_gen/r_drw2d_rx/src/tes/dave_viewport.c ****       if(box->ymin < handle->clipymin)
 568                             		.loc 1 354 7 is_stmt 1 view .LVU220
 569                             		.loc 1 354 28 is_stmt 0 view .LVU221
 570 003b DD 17 3A                		mov.W	116[r1], r7
 571                             		.loc 1 354 9 view .LVU222
 572 003e DF 44                   		mov.W	r4, r4
 573 0040 DF 7A                   		mov.W	r7, r10
 574 0042 47 A4                   		cmp	r10, r4
 575 0044 28 04                   		bge	.L51
 355:../src/smc_gen/r_drw2d_rx/src/tes/dave_viewport.c ****       {
 356:../src/smc_gen/r_drw2d_rx/src/tes/dave_viewport.c ****          box->ymin = handle->clipymin;
 576                             		.loc 1 356 10 is_stmt 1 view .LVU223
 577                             		.loc 1 356 20 is_stmt 0 view .LVU224
 578 0046 90 2F                   		mov.W	r7, 2[r2]
 579                             	.L51:
 357:../src/smc_gen/r_drw2d_rx/src/tes/dave_viewport.c ****       }
 358:../src/smc_gen/r_drw2d_rx/src/tes/dave_viewport.c **** 
 359:../src/smc_gen/r_drw2d_rx/src/tes/dave_viewport.c ****       if(box->xmax > handle->clipxmax)
 580                             		.loc 1 359 7 is_stmt 1 view .LVU225
 581                             		.loc 1 359 28 is_stmt 0 view .LVU226
 582 0048 DD 17 3B                		mov.W	118[r1], r7
 583                             		.loc 1 359 9 view .LVU227
 584 004b DF 33                   		mov.W	r3, r3
 585 004d DF 7A                   		mov.W	r7, r10
 586 004f 47 A3                   		cmp	r10, r3
 587 0051 2B 04                   		ble	.L52
 360:../src/smc_gen/r_drw2d_rx/src/tes/dave_viewport.c ****       {
 361:../src/smc_gen/r_drw2d_rx/src/tes/dave_viewport.c ****          box->xmax = handle->clipxmax;
 588                             		.loc 1 361 10 is_stmt 1 view .LVU228
 589                             		.loc 1 361 20 is_stmt 0 view .LVU229
 590 0053 90 A7                   		mov.W	r7, 4[r2]
 591                             	.L52:
 362:../src/smc_gen/r_drw2d_rx/src/tes/dave_viewport.c ****       }
 363:../src/smc_gen/r_drw2d_rx/src/tes/dave_viewport.c **** 
 364:../src/smc_gen/r_drw2d_rx/src/tes/dave_viewport.c ****       if(box->ymax > handle->clipymax)
 592                             		.loc 1 364 7 is_stmt 1 view .LVU230
 593                             		.loc 1 364 28 is_stmt 0 view .LVU231
 594 0055 DD 17 3C                		mov.W	120[r1], r7
 595                             		.loc 1 364 9 view .LVU232
 596 0058 DF FF                   		mov.W	r15, r15
 597 005a DF 7A                   		mov.W	r7, r10
 598 005c 47 AF                   		cmp	r10, r15
 599 005e 2B 04                   		ble	.L53
 365:../src/smc_gen/r_drw2d_rx/src/tes/dave_viewport.c ****       {
 366:../src/smc_gen/r_drw2d_rx/src/tes/dave_viewport.c ****          box->ymax = handle->clipymax;
 600                             		.loc 1 366 10 is_stmt 1 view .LVU233
 601                             		.loc 1 366 20 is_stmt 0 view .LVU234
 602 0060 90 AF                   		mov.W	r7, 6[r2]
 603                             	.L53:
 367:../src/smc_gen/r_drw2d_rx/src/tes/dave_viewport.c ****       }
 368:../src/smc_gen/r_drw2d_rx/src/tes/dave_viewport.c **** 
 369:../src/smc_gen/r_drw2d_rx/src/tes/dave_viewport.c ****       return 1;
 604                             		.loc 1 369 7 is_stmt 1 view .LVU235
 605                             		.loc 1 369 14 is_stmt 0 view .LVU236
 606 0062 66 11                   		mov.L	#1, r1
 607                             	.LVL43:
 608                             		.loc 1 369 14 view .LVU237
 609 0064 09                      		bra	.L48
 610                             	.LVL44:
 611                             	.L54:
 612                             	.LCFI8:
 344:../src/smc_gen/r_drw2d_rx/src/tes/dave_viewport.c ****    } 
 613                             		.loc 1 344 14 view .LVU238
 614 0065 66 01                   		mov.L	#0, r1
 615                             	.LVL45:
 344:../src/smc_gen/r_drw2d_rx/src/tes/dave_viewport.c ****    } 
 616                             		.loc 1 344 14 view .LVU239
 617 0067 02                      		rts
 618                             	.LVL46:
 619                             	.L55:
 344:../src/smc_gen/r_drw2d_rx/src/tes/dave_viewport.c ****    } 
 620                             		.loc 1 344 14 view .LVU240
 621 0068 66 01                   		mov.L	#0, r1
 622                             	.LVL47:
 370:../src/smc_gen/r_drw2d_rx/src/tes/dave_viewport.c ****    }
 371:../src/smc_gen/r_drw2d_rx/src/tes/dave_viewport.c **** }
 623                             		.loc 1 371 1 view .LVU241
 624 006a 02                      		rts
 625                             	.LVL48:
 626                             	.L56:
 627                             	.LCFI9:
 344:../src/smc_gen/r_drw2d_rx/src/tes/dave_viewport.c ****    } 
 628                             		.loc 1 344 14 view .LVU242
 629 006b 66 01                   		mov.L	#0, r1
 630                             	.LVL49:
 631                             	.L48:
 632                             		.loc 1 371 1 view .LVU243
 633 006d 3F 7A 04                		rtsd	#16, r7-r10
 634                             	.LVL50:
 635                             	.L57:
 344:../src/smc_gen/r_drw2d_rx/src/tes/dave_viewport.c ****    } 
 636                             		.loc 1 344 14 view .LVU244
 637 0070 66 01                   		mov.L	#0, r1
 638                             	.LVL51:
 344:../src/smc_gen/r_drw2d_rx/src/tes/dave_viewport.c ****    } 
 639                             		.loc 1 344 14 view .LVU245
 640 0072 2E FB                   		bra	.L48
 641                             	.LFE10:
 779                             	.Letext0:
 780                             		.file 3 "D:\\e2_studio\\workspace\\FULLMONI_WIDE\\Firmware\\src\\smc_gen\\r_drw2d_rx\\inc\\tes/dav
 781                             		.file 4 "D:\\e2_studio\\workspace\\FULLMONI_WIDE\\Firmware\\src\\smc_gen\\r_drw2d_rx\\inc\\tes/dav
 782                             		.file 5 "../src/smc_gen/r_drw2d_rx/src/tes/dave_dlist.h"
 783                             		.file 6 "../src/smc_gen/r_drw2d_rx/src/tes/dave_rbuffer.h"
 784                             		.file 7 "../src/smc_gen/r_drw2d_rx/src/tes/dave_gradient.h"
 785                             		.file 8 "../src/smc_gen/r_drw2d_rx/src/tes/dave_context.h"
