   1                             		.file	"dave_curve.c"
   2                             		.section P,"ax"
   3                             	.Ltext0:
   4                             		.global	___divdi3
   5                             		.section	.text.d2_circlesetup_intern,"ax",@progbits
   6                             		.global	_d2_circlesetup_intern
   8                             	_d2_circlesetup_intern:
   9                             	.LVL0:
  10                             	.LFB6:
  11                             		.file 1 "../src/smc_gen/r_drw2d_rx/src/tes/dave_curve.c"
   1:../src/smc_gen/r_drw2d_rx/src/tes/dave_curve.c **** /*--------------------------------------------------------------------------
   2:../src/smc_gen/r_drw2d_rx/src/tes/dave_curve.c ****  * Project: D/AVE
   3:../src/smc_gen/r_drw2d_rx/src/tes/dave_curve.c ****  * File:    dave_curve.c (%version: 12 %)
   4:../src/smc_gen/r_drw2d_rx/src/tes/dave_curve.c ****  *          created Wed Oct 10 12:30:33 2012 by hh04044
   5:../src/smc_gen/r_drw2d_rx/src/tes/dave_curve.c ****  *
   6:../src/smc_gen/r_drw2d_rx/src/tes/dave_curve.c ****  * Description:
   7:../src/smc_gen/r_drw2d_rx/src/tes/dave_curve.c ****  *  %date_modified: Wed Oct 10 12:30:33 2012 %  (%derived_by:  hh04027 %)
   8:../src/smc_gen/r_drw2d_rx/src/tes/dave_curve.c ****  *
   9:../src/smc_gen/r_drw2d_rx/src/tes/dave_curve.c ****  * Changes:
  10:../src/smc_gen/r_drw2d_rx/src/tes/dave_curve.c ****  *  2008-01-14 ASc  changed comments from C++ to C, removed tabs
  11:../src/smc_gen/r_drw2d_rx/src/tes/dave_curve.c ****  *  2008-10-02 MRe  fix of blurred circles
  12:../src/smc_gen/r_drw2d_rx/src/tes/dave_curve.c ****  *  2008-11-24 AJ   modify code to support IAR compiler. (no 64bit support)
  13:../src/smc_gen/r_drw2d_rx/src/tes/dave_curve.c ****  *  2012-09-25 BSp  MISRA cleanup
  14:../src/smc_gen/r_drw2d_rx/src/tes/dave_curve.c ****  *-------------------------------------------------------------------------- */
  15:../src/smc_gen/r_drw2d_rx/src/tes/dave_curve.c **** 
  16:../src/smc_gen/r_drw2d_rx/src/tes/dave_curve.c **** #include "dave_driver.h"
  17:../src/smc_gen/r_drw2d_rx/src/tes/dave_curve.c **** #include "dave_intern.h"
  18:../src/smc_gen/r_drw2d_rx/src/tes/dave_curve.c **** #include "dave_curve.h"
  19:../src/smc_gen/r_drw2d_rx/src/tes/dave_curve.c **** 
  20:../src/smc_gen/r_drw2d_rx/src/tes/dave_curve.c **** 
  21:../src/smc_gen/r_drw2d_rx/src/tes/dave_curve.c **** #define TWEAK 3
  22:../src/smc_gen/r_drw2d_rx/src/tes/dave_curve.c **** 
  23:../src/smc_gen/r_drw2d_rx/src/tes/dave_curve.c **** 
  24:../src/smc_gen/r_drw2d_rx/src/tes/dave_curve.c **** void d2_circlesetup_intern(d2_devicedata *handle, const d2_contextdata *ctx, d2_u32 index, d2_point
  25:../src/smc_gen/r_drw2d_rx/src/tes/dave_curve.c **** {
  12                             		.loc 1 25 1 view -0
  13                             		.loc 1 25 1 is_stmt 0 view .LVU1
  14 0000 6E 6D                   		pushm	r6-r13
  15                             	.LCFI0:
  16                             		.loc 1 25 1 view .LVU2
  17 0002 71 00 E4                		add	#-28, r0
  18                             	.LCFI1:
  19 0005 75 47 40                		mov.L	#0x40, r7
  20 0008 4B 07                   		add	r0, r7
  21 000a EF 1A                   		mov.L	r1, r10
  22 000c EF 36                   		mov.L	r3, r6
  23 000e DF 48                   		mov.W	r4, r8
  24 0010 DC 79                   		mov.W	[r7], r9
  25 0012 DD 7B 01                		mov.W	2[r7], r11
  26 0015 E1 70 01                		mov.L	4[r7], [r0]
  27 0018 ED 7D 02                		mov.L	8[r7], r13
  28 001b A8 FC                   		mov.L	12[r7], r4
  29                             	.LVL1:
  26:../src/smc_gen/r_drw2d_rx/src/tes/dave_curve.c ****    d2_s32 a, b, f, ir;
  30                             		.loc 1 26 4 is_stmt 1 view .LVU3
  27:../src/smc_gen/r_drw2d_rx/src/tes/dave_curve.c ****    d2_u32 ib;
  31                             		.loc 1 27 4 view .LVU4
  28:../src/smc_gen/r_drw2d_rx/src/tes/dave_curve.c ****    d2_point xr, yr;
  32                             		.loc 1 28 4 view .LVU5
  29:../src/smc_gen/r_drw2d_rx/src/tes/dave_curve.c ****    d2_width blur;
  33                             		.loc 1 29 4 view .LVU6
  30:../src/smc_gen/r_drw2d_rx/src/tes/dave_curve.c **** 
  31:../src/smc_gen/r_drw2d_rx/src/tes/dave_curve.c ****    /* reduce bitsize (x&y are approx r if unclipped) */
  32:../src/smc_gen/r_drw2d_rx/src/tes/dave_curve.c ****    xr = (d2_point)(x - r);
  34                             		.loc 1 32 4 view .LVU7
  35                             		.loc 1 32 22 is_stmt 0 view .LVU8
  36 001d FF 07 B8                		sub	r11, r8, r7
  37                             	.LVL2:
  33:../src/smc_gen/r_drw2d_rx/src/tes/dave_curve.c ****    yr = (d2_point)(y - r);
  38                             		.loc 1 33 4 is_stmt 1 view .LVU9
  39                             		.loc 1 33 22 is_stmt 0 view .LVU10
  40 0020 FF 0C B9                		sub	r11, r9, r12
  41                             	.LVL3:
  34:../src/smc_gen/r_drw2d_rx/src/tes/dave_curve.c ****    
  35:../src/smc_gen/r_drw2d_rx/src/tes/dave_curve.c ****    if(0 != (ctx->features & d2_feat_blur))
  42                             		.loc 1 35 4 is_stmt 1 view .LVU11
  43                             		.loc 1 35 16 is_stmt 0 view .LVU12
  44 0023 CD 25 D5                		mov.B	213[r2], r5
  45                             		.loc 1 35 6 view .LVU13
  46 0026 FD 74 C5 01             		tst	#1, r5
  47 002a 3A 57 02                		beq	.L2
  36:../src/smc_gen/r_drw2d_rx/src/tes/dave_curve.c ****    {
  37:../src/smc_gen/r_drw2d_rx/src/tes/dave_curve.c ****       if( (0 == hiprec) || (0 == (D2_DEV(handle)->hwrevision & D2FB_HILIMITERPRECISION)) )
  48                             		.loc 1 37 7 is_stmt 1 view .LVU14
  49                             		.loc 1 37 9 is_stmt 0 view .LVU15
  50 002d 61 04                   		cmp	#0, r4
  51 002f 20 0F                   		beq	.L3
  52                             		.loc 1 37 49 discriminator 1 view .LVU16
  53 0031 ED 15 20                		mov.L	128[r1], r5
  54                             		.loc 1 37 25 discriminator 1 view .LVU17
  55 0034 FD 70 C5 00 00 00 04    		tst	#0x4000000, r5
  56 003b 3B B1 01                		bne	.L4
  57                             	.L3:
  58                             	.LBB68:
  38:../src/smc_gen/r_drw2d_rx/src/tes/dave_curve.c ****       {
  39:../src/smc_gen/r_drw2d_rx/src/tes/dave_curve.c ****          d2_int64 f64, ir64;
  59                             		.loc 1 39 10 is_stmt 1 view .LVU18
  40:../src/smc_gen/r_drw2d_rx/src/tes/dave_curve.c **** #ifdef _NO_LL_
  41:../src/smc_gen/r_drw2d_rx/src/tes/dave_curve.c ****          d2_int64 tmp, tmp2;
  42:../src/smc_gen/r_drw2d_rx/src/tes/dave_curve.c **** #endif
  43:../src/smc_gen/r_drw2d_rx/src/tes/dave_curve.c ****         
  44:../src/smc_gen/r_drw2d_rx/src/tes/dave_curve.c ****          /* get parameters for blurred circle rendering */
  45:../src/smc_gen/r_drw2d_rx/src/tes/dave_curve.c ****          blur = ctx->blurring; 
  60                             		.loc 1 45 10 view .LVU19
  61                             		.loc 1 45 15 is_stmt 0 view .LVU20
  62 003e D5 20 0A 04             		mov.W	20[r2], 8[r0]
  63                             	.LVL4:
  46:../src/smc_gen/r_drw2d_rx/src/tes/dave_curve.c ****          ib = ctx->invblur;    
  64                             		.loc 1 46 10 is_stmt 1 view .LVU21
  65                             		.loc 1 46 13 is_stmt 0 view .LVU22
  66 0042 E5 20 44 01             		mov.L	272[r2], 4[r0]
  67                             	.LVL5:
  47:../src/smc_gen/r_drw2d_rx/src/tes/dave_curve.c **** 
  48:../src/smc_gen/r_drw2d_rx/src/tes/dave_curve.c ****          /* calc circle parameters (16:16 from 10:4) */
  49:../src/smc_gen/r_drw2d_rx/src/tes/dave_curve.c ****          ir =
  68                             		.loc 1 49 10 is_stmt 1 view .LVU23
  50:../src/smc_gen/r_drw2d_rx/src/tes/dave_curve.c ****             (
  51:../src/smc_gen/r_drw2d_rx/src/tes/dave_curve.c ****                (
  52:../src/smc_gen/r_drw2d_rx/src/tes/dave_curve.c ****                   (-1 * D2_FIX16(16))
  53:../src/smc_gen/r_drw2d_rx/src/tes/dave_curve.c ****                   * D2_FIX4(1)
  54:../src/smc_gen/r_drw2d_rx/src/tes/dave_curve.c ****                 ) 
  55:../src/smc_gen/r_drw2d_rx/src/tes/dave_curve.c ****                *
  56:../src/smc_gen/r_drw2d_rx/src/tes/dave_curve.c ****                (D2_FIX4(1) / 2)
  57:../src/smc_gen/r_drw2d_rx/src/tes/dave_curve.c ****              ) 
  58:../src/smc_gen/r_drw2d_rx/src/tes/dave_curve.c ****             / (r * blur);               /* 1 / 2rb */     
  59:../src/smc_gen/r_drw2d_rx/src/tes/dave_curve.c **** #ifndef _NO_LL_
  60:../src/smc_gen/r_drw2d_rx/src/tes/dave_curve.c ****          ir64 = 
  69                             		.loc 1 60 10 view .LVU24
  61:../src/smc_gen/r_drw2d_rx/src/tes/dave_curve.c ****             (
  62:../src/smc_gen/r_drw2d_rx/src/tes/dave_curve.c ****                (
  63:../src/smc_gen/r_drw2d_rx/src/tes/dave_curve.c ****                   (
  64:../src/smc_gen/r_drw2d_rx/src/tes/dave_curve.c ****                      (
  65:../src/smc_gen/r_drw2d_rx/src/tes/dave_curve.c ****                         (-1 * (d2_int64)D2_FIX16(16<<0))
  66:../src/smc_gen/r_drw2d_rx/src/tes/dave_curve.c ****                         * D2_FIX4(1)
  67:../src/smc_gen/r_drw2d_rx/src/tes/dave_curve.c ****                       )
  68:../src/smc_gen/r_drw2d_rx/src/tes/dave_curve.c ****                      *
  69:../src/smc_gen/r_drw2d_rx/src/tes/dave_curve.c ****                      (D2_FIX4(1) / 2)
  70:../src/smc_gen/r_drw2d_rx/src/tes/dave_curve.c ****                    )
  71:../src/smc_gen/r_drw2d_rx/src/tes/dave_curve.c ****                   / (d2_int64)r
  70                             		.loc 1 71 21 is_stmt 0 view .LVU25
  71 0046 DF B4                   		mov.W	r11, r4
  72                             	.LVL6:
  73                             		.loc 1 71 19 view .LVU26
  74 0048 EF 43                   		mov.L	r4, r3
  75                             	.LVL7:
  76                             		.loc 1 71 19 view .LVU27
  77 004a 6B F4                   		shar	#31, r4
  78                             	.LVL8:
  79                             		.loc 1 71 19 view .LVU28
  80 004c FB 12 00 00 00 F8       		mov.L	#-134217728, r1
  81                             	.LVL9:
  82                             		.loc 1 71 19 view .LVU29
  83 0052 FB 26 FF                		mov.L	#-1, r2
  84                             	.LVL10:
  85                             		.loc 1 71 19 view .LVU30
  86 0055 05 00 00 00             		bsr	___divdi3
  87                             	.LVL11:
  72:../src/smc_gen/r_drw2d_rx/src/tes/dave_curve.c ****                 )
  73:../src/smc_gen/r_drw2d_rx/src/tes/dave_curve.c ****                * (1 << 8)
  88                             		.loc 1 73 16 view .LVU31
  89 0059 FD 98 15                		shlr	#24, r1, r5
  90 005c 6C 82                   		shll	#8, r2
  74:../src/smc_gen/r_drw2d_rx/src/tes/dave_curve.c ****              )
  75:../src/smc_gen/r_drw2d_rx/src/tes/dave_curve.c ****             / (d2_int64)blur;               /* 1 / 2rb */  
  91                             		.loc 1 75 15 view .LVU32
  92 005e 99 04                   		mov.W	8[r0], r4
  60:../src/smc_gen/r_drw2d_rx/src/tes/dave_curve.c ****             (
  93                             		.loc 1 60 15 view .LVU33
  94 0060 EF 43                   		mov.L	r4, r3
  95 0062 6B F4                   		shar	#31, r4
  96 0064 6C 81                   		shll	#8, r1
  97 0066 57 52                   		or	r5, r2
  98 0068 05 00 00 00             		bsr	___divdi3
  99                             	.LVL12:
  76:../src/smc_gen/r_drw2d_rx/src/tes/dave_curve.c **** #else
  77:../src/smc_gen/r_drw2d_rx/src/tes/dave_curve.c ****          d2_cast32to64(
  78:../src/smc_gen/r_drw2d_rx/src/tes/dave_curve.c ****             (
  79:../src/smc_gen/r_drw2d_rx/src/tes/dave_curve.c ****                (
  80:../src/smc_gen/r_drw2d_rx/src/tes/dave_curve.c ****                   (-1 * D2_FIX16(16<<0))
  81:../src/smc_gen/r_drw2d_rx/src/tes/dave_curve.c ****                   * D2_FIX4(1)
  82:../src/smc_gen/r_drw2d_rx/src/tes/dave_curve.c ****                 ) 
  83:../src/smc_gen/r_drw2d_rx/src/tes/dave_curve.c ****                * 
  84:../src/smc_gen/r_drw2d_rx/src/tes/dave_curve.c ****                (D2_FIX4(1) / 2)
  85:../src/smc_gen/r_drw2d_rx/src/tes/dave_curve.c ****              ) 
  86:../src/smc_gen/r_drw2d_rx/src/tes/dave_curve.c ****             / r, &ir64
  87:../src/smc_gen/r_drw2d_rx/src/tes/dave_curve.c ****                        );
  88:../src/smc_gen/r_drw2d_rx/src/tes/dave_curve.c ****          d2_shiftleft64(&ir64, 8, &tmp);
  89:../src/smc_gen/r_drw2d_rx/src/tes/dave_curve.c ****          d2_div6432(&tmp, blur, &ir64);               /* 1 / 2rb */  
  90:../src/smc_gen/r_drw2d_rx/src/tes/dave_curve.c **** #endif
  91:../src/smc_gen/r_drw2d_rx/src/tes/dave_curve.c ****        
  92:../src/smc_gen/r_drw2d_rx/src/tes/dave_curve.c ****          f = 
 100                             		.loc 1 92 10 is_stmt 1 view .LVU34
  93:../src/smc_gen/r_drw2d_rx/src/tes/dave_curve.c ****             (
  94:../src/smc_gen/r_drw2d_rx/src/tes/dave_curve.c ****                (
  95:../src/smc_gen/r_drw2d_rx/src/tes/dave_curve.c ****                   (
  96:../src/smc_gen/r_drw2d_rx/src/tes/dave_curve.c ****                      (
  97:../src/smc_gen/r_drw2d_rx/src/tes/dave_curve.c ****                         (xr * xr) + (yr * yr)
 101                             		.loc 1 97 29 is_stmt 0 view .LVU35
 102 006c DF 77                   		mov.W	r7, r7
 103                             	.LVL13:
 104                             		.loc 1 97 29 view .LVU36
 105 006e FF 34 77                		mul	r7, r7, r4
 106                             		.loc 1 97 41 view .LVU37
 107 0071 DF CC                   		mov.W	r12, r12
 108                             	.LVL14:
 109                             		.loc 1 97 41 view .LVU38
 110 0073 FF 35 CC                		mul	r12, r12, r5
 111                             		.loc 1 97 35 view .LVU39
 112 0076 4B 54                   		add	r5, r4
  98:../src/smc_gen/r_drw2d_rx/src/tes/dave_curve.c ****                       )
  99:../src/smc_gen/r_drw2d_rx/src/tes/dave_curve.c ****                      / (1 << 8)
 113                             		.loc 1 99 22 view .LVU40
 114 0078 EF 45                   		mov.L	r4, r5
 115 007a 26 05 38 37 01          		bn	.L35
 116                             	.L5:
 117 007f FD A8 54                		shar	#8, r5, r4
 100:../src/smc_gen/r_drw2d_rx/src/tes/dave_curve.c ****                    ) 
 101:../src/smc_gen/r_drw2d_rx/src/tes/dave_curve.c ****                   * ir
 102:../src/smc_gen/r_drw2d_rx/src/tes/dave_curve.c ****                 )
 103:../src/smc_gen/r_drw2d_rx/src/tes/dave_curve.c ****                / (1 << 4)
 104:../src/smc_gen/r_drw2d_rx/src/tes/dave_curve.c ****              ) 
 105:../src/smc_gen/r_drw2d_rx/src/tes/dave_curve.c ****             -
 106:../src/smc_gen/r_drw2d_rx/src/tes/dave_curve.c ****             (
 107:../src/smc_gen/r_drw2d_rx/src/tes/dave_curve.c ****                (
 108:../src/smc_gen/r_drw2d_rx/src/tes/dave_curve.c ****                   (
 109:../src/smc_gen/r_drw2d_rx/src/tes/dave_curve.c ****                      (r / 2)
 118                             		.loc 1 109 25 view .LVU41
 119 0082 DF BB                   		mov.W	r11, r11
 120                             	.LVL15:
 121                             		.loc 1 109 25 view .LVU42
 122 0084 FD 9F BE                		shlr	#31, r11, r14
 123 0087 4B BE                   		add	r11, r14
 124 0089 6A 1E                   		shar	#1, r14
 110:../src/smc_gen/r_drw2d_rx/src/tes/dave_curve.c ****                      +
 111:../src/smc_gen/r_drw2d_rx/src/tes/dave_curve.c ****                      (xr + yr)
 125                             		.loc 1 111 26 view .LVU43
 126 008b 4B C7                   		add	r12, r7
 110:../src/smc_gen/r_drw2d_rx/src/tes/dave_curve.c ****                      +
 127                             		.loc 1 110 22 view .LVU44
 128 008d 4B 7E                   		add	r7, r14
 129                             	.LVL16:
 112:../src/smc_gen/r_drw2d_rx/src/tes/dave_curve.c ****                    ) 
 113:../src/smc_gen/r_drw2d_rx/src/tes/dave_curve.c ****                   * (d2_s32)ib
 114:../src/smc_gen/r_drw2d_rx/src/tes/dave_curve.c ****                 ) 
 115:../src/smc_gen/r_drw2d_rx/src/tes/dave_curve.c ****                / (1 << 4)
 116:../src/smc_gen/r_drw2d_rx/src/tes/dave_curve.c ****              );      /* (x²+y²-r²) * ir */ 
 117:../src/smc_gen/r_drw2d_rx/src/tes/dave_curve.c ****         
 118:../src/smc_gen/r_drw2d_rx/src/tes/dave_curve.c **** #ifndef _NO_LL_
 119:../src/smc_gen/r_drw2d_rx/src/tes/dave_curve.c ****          f64 = 
 130                             		.loc 1 119 10 is_stmt 1 view .LVU45
 120:../src/smc_gen/r_drw2d_rx/src/tes/dave_curve.c ****             (
 121:../src/smc_gen/r_drw2d_rx/src/tes/dave_curve.c ****                (
 122:../src/smc_gen/r_drw2d_rx/src/tes/dave_curve.c ****                   (
 123:../src/smc_gen/r_drw2d_rx/src/tes/dave_curve.c ****                      ((xr * xr) + (yr * yr))
 124:../src/smc_gen/r_drw2d_rx/src/tes/dave_curve.c ****                      / (1 << 8)
 131                             		.loc 1 124 22 is_stmt 0 view .LVU46
 132 008f 6B F5                   		shar	#31, r5
 125:../src/smc_gen/r_drw2d_rx/src/tes/dave_curve.c ****                    )
 126:../src/smc_gen/r_drw2d_rx/src/tes/dave_curve.c ****                   * (d2_int64)ir64
 133                             		.loc 1 126 19 view .LVU47
 134 0091 4F 15                   		mul	r1, r5
 135 0093 FF 37 42                		mul	r4, r2, r7
 136 0096 4B 57                   		add	r5, r7
 137 0098 FC 1F 14                		emulu	r1, r4
 138                             	.LVL17:
 139                             		.loc 1 126 19 view .LVU48
 140 009b 4B 75                   		add	r7, r5
 127:../src/smc_gen/r_drw2d_rx/src/tes/dave_curve.c ****                 )
 128:../src/smc_gen/r_drw2d_rx/src/tes/dave_curve.c ****                / (1 << 4)
 141                             		.loc 1 128 16 view .LVU49
 142 009d 26 05 38 1B 01          		bn	.L36
 143                             	.L6:
 144 00a2 FD DC 57                		shll	#28, r5, r7
 145 00a5 68 44                   		shlr	#4, r4
 146 00a7 57 74                   		or	r7, r4
 147 00a9 6A 45                   		shar	#4, r5
 129:../src/smc_gen/r_drw2d_rx/src/tes/dave_curve.c ****              )
 130:../src/smc_gen/r_drw2d_rx/src/tes/dave_curve.c ****             - 
 131:../src/smc_gen/r_drw2d_rx/src/tes/dave_curve.c ****             (
 132:../src/smc_gen/r_drw2d_rx/src/tes/dave_curve.c ****                (
 133:../src/smc_gen/r_drw2d_rx/src/tes/dave_curve.c ****                   ((r / 2) + (xr + yr))
 148                             		.loc 1 133 28 view .LVU50
 149 00ab FD BF E7                		shar	#31, r14, r7
 134:../src/smc_gen/r_drw2d_rx/src/tes/dave_curve.c ****                   * (d2_int64)ib
 150                             		.loc 1 134 19 view .LVU51
 151 00ae A8 0B                   		mov.L	4[r0], r3
 152 00b0 4F 37                   		mul	r3, r7
 153 00b2 FC 1F 3E                		emulu	r3, r14
 154 00b5 4B 7F                   		add	r7, r15
 135:../src/smc_gen/r_drw2d_rx/src/tes/dave_curve.c ****                 )
 136:../src/smc_gen/r_drw2d_rx/src/tes/dave_curve.c ****                * (1 << 4)
 155                             		.loc 1 136 16 view .LVU52
 156 00b7 FD 9C E3                		shlr	#28, r14, r3
 157 00ba FD C4 F7                		shll	#4, r15, r7
 158 00bd 57 37                   		or	r3, r7
 159 00bf 6C 4E                   		shll	#4, r14
 137:../src/smc_gen/r_drw2d_rx/src/tes/dave_curve.c ****              );      /* (x²+y²-r²) * ir */ 
 138:../src/smc_gen/r_drw2d_rx/src/tes/dave_curve.c ****          f = (d2_s32)(f64 / (1 << 8));
 160                             		.loc 1 138 10 is_stmt 1 view .LVU53
 161                             		.loc 1 138 27 is_stmt 0 view .LVU54
 162 00c1 43 E4                   		sub	r14, r4
 163 00c3 FC 03 75                		sbb	r7, r5
 164 00c6 26 05 38 FE 00          		bn	.L37
 165                             	.L8:
 166 00cb 6D 85                   		shll	#24, r5
 167 00cd 68 84                   		shlr	#8, r4
 168                             		.loc 1 138 12 view .LVU55
 169 00cf 57 45                   		or	r4, r5
 170                             	.LVL18:
 139:../src/smc_gen/r_drw2d_rx/src/tes/dave_curve.c **** #else
 140:../src/smc_gen/r_drw2d_rx/src/tes/dave_curve.c ****          d2_mul3264(
 141:../src/smc_gen/r_drw2d_rx/src/tes/dave_curve.c ****             (
 142:../src/smc_gen/r_drw2d_rx/src/tes/dave_curve.c ****                (
 143:../src/smc_gen/r_drw2d_rx/src/tes/dave_curve.c ****                   (xr * xr)
 144:../src/smc_gen/r_drw2d_rx/src/tes/dave_curve.c ****                   +
 145:../src/smc_gen/r_drw2d_rx/src/tes/dave_curve.c ****                   (yr * yr)
 146:../src/smc_gen/r_drw2d_rx/src/tes/dave_curve.c ****                 )
 147:../src/smc_gen/r_drw2d_rx/src/tes/dave_curve.c ****                / (1 << 8)
 148:../src/smc_gen/r_drw2d_rx/src/tes/dave_curve.c ****              ),
 149:../src/smc_gen/r_drw2d_rx/src/tes/dave_curve.c ****             &ir64,
 150:../src/smc_gen/r_drw2d_rx/src/tes/dave_curve.c ****             &tmp
 151:../src/smc_gen/r_drw2d_rx/src/tes/dave_curve.c ****                     );
 152:../src/smc_gen/r_drw2d_rx/src/tes/dave_curve.c ****          d2_shiftright64(&tmp, 4, &f64);
 153:../src/smc_gen/r_drw2d_rx/src/tes/dave_curve.c ****          d2_mul3232to64(((r / 2) + (xr + yr)), (d2_s32)ib, &tmp);
 154:../src/smc_gen/r_drw2d_rx/src/tes/dave_curve.c ****          d2_shiftleft64(&tmp, 4, &tmp2);
 155:../src/smc_gen/r_drw2d_rx/src/tes/dave_curve.c ****          d2_sub64(&f64, &tmp2, &tmp);      /* (x²+y²-r²) * ir */ 
 156:../src/smc_gen/r_drw2d_rx/src/tes/dave_curve.c ****          d2_shiftright64(&tmp, 8, &f64);
 157:../src/smc_gen/r_drw2d_rx/src/tes/dave_curve.c ****          f = d2_cast64to32(&f64);
 158:../src/smc_gen/r_drw2d_rx/src/tes/dave_curve.c **** #endif
 159:../src/smc_gen/r_drw2d_rx/src/tes/dave_curve.c ****          ir = (ir / (1 << 4));
 171                             		.loc 1 159 10 is_stmt 1 view .LVU56
 160:../src/smc_gen/r_drw2d_rx/src/tes/dave_curve.c ****         
 161:../src/smc_gen/r_drw2d_rx/src/tes/dave_curve.c **** #ifndef _NO_LL_
 162:../src/smc_gen/r_drw2d_rx/src/tes/dave_curve.c ****          ir = (d2_s32)(ir64 / (1 << (4 + 8)));
 172                             		.loc 1 162 10 view .LVU57
 173                             		.loc 1 162 29 is_stmt 0 view .LVU58
 174 00d1 61 02                   		cmp	#0, r2
 175 00d3 28 05 38 FE 00          		blt	.L38
 176                             	.LVL19:
 177                             	.L10:
 178                             		.loc 1 162 29 view .LVU59
 179 00d8 6D 42                   		shll	#20, r2
 180 00da 68 C1                   		shlr	#12, r1
 181 00dc 57 21                   		or	r2, r1
 182                             		.loc 1 162 13 view .LVU60
 183 00de EF 17                   		mov.L	r1, r7
 184                             	.LVL20:
 163:../src/smc_gen/r_drw2d_rx/src/tes/dave_curve.c **** #else
 164:../src/smc_gen/r_drw2d_rx/src/tes/dave_curve.c ****          d2_shiftright64(&ir64, (4 + 8), &tmp);
 165:../src/smc_gen/r_drw2d_rx/src/tes/dave_curve.c ****          ir = d2_cast64to32(&tmp);
 166:../src/smc_gen/r_drw2d_rx/src/tes/dave_curve.c **** #endif
 167:../src/smc_gen/r_drw2d_rx/src/tes/dave_curve.c ****          a = ((16 - (x * 2)) * ir) / (1 << 4);           /* (1 - 2x) * ir */  
 185                             		.loc 1 167 10 is_stmt 1 view .LVU61
 186                             		.loc 1 167 19 is_stmt 0 view .LVU62
 187 00e0 DF 88                   		mov.W	r8, r8
 188                             	.LVL21:
 189                             		.loc 1 167 19 view .LVU63
 190 00e2 66 84                   		mov.L	#8, r4
 191 00e4 FF 08 84                		sub	r8, r4, r8
 192                             	.LVL22:
 193                             		.loc 1 167 30 view .LVU64
 194 00e7 4F 81                   		mul	r8, r1
 195                             	.LVL23:
 196                             		.loc 1 167 30 view .LVU65
 197 00e9 4B 11                   		add	r1, r1
 198                             		.loc 1 167 12 view .LVU66
 199 00eb EF 1B                   		mov.L	r1, r11
 200 00ed 26 05 38 F1 00          		bn	.L39
 201                             	.L12:
 202 00f2 6A 4B                   		shar	#4, r11
 203                             	.LVL24:
 168:../src/smc_gen/r_drw2d_rx/src/tes/dave_curve.c ****          b = ((16 - (y * 2)) * ir) / (1 << 4);           /* (1 - 2y) * ir */ 
 204                             		.loc 1 168 10 is_stmt 1 view .LVU67
 205                             		.loc 1 168 19 is_stmt 0 view .LVU68
 206 00f4 DF 94                   		mov.W	r9, r4
 207 00f6 66 89                   		mov.L	#8, r9
 208                             	.LVL25:
 209                             		.loc 1 168 19 view .LVU69
 210 00f8 43 49                   		sub	r4, r9
 211                             		.loc 1 168 30 view .LVU70
 212 00fa 4F 79                   		mul	r7, r9
 213 00fc 4B 99                   		add	r9, r9
 214                             		.loc 1 168 12 view .LVU71
 215 00fe EF 9C                   		mov.L	r9, r12
 216 0100 26 05 38 E4 00          		bn	.L40
 217                             	.L13:
 218 0105 6A 4C                   		shar	#4, r12
 219                             	.LVL26:
 220 0107 03                      		.balign 8,3,1
 221                             	.L14:
 222                             		.loc 1 168 12 view .LVU72
 223                             	.LBE68:
 169:../src/smc_gen/r_drw2d_rx/src/tes/dave_curve.c ****         
 170:../src/smc_gen/r_drw2d_rx/src/tes/dave_curve.c ****       }
 171:../src/smc_gen/r_drw2d_rx/src/tes/dave_curve.c ****       else
 172:../src/smc_gen/r_drw2d_rx/src/tes/dave_curve.c ****       {
 173:../src/smc_gen/r_drw2d_rx/src/tes/dave_curve.c ****          d2_int64 f64;
 174:../src/smc_gen/r_drw2d_rx/src/tes/dave_curve.c **** #ifdef _NO_LL_
 175:../src/smc_gen/r_drw2d_rx/src/tes/dave_curve.c ****          d2_int64 tmp, tmp2;
 176:../src/smc_gen/r_drw2d_rx/src/tes/dave_curve.c **** #endif
 177:../src/smc_gen/r_drw2d_rx/src/tes/dave_curve.c ****          /* get parameters for blurred circle rendering */
 178:../src/smc_gen/r_drw2d_rx/src/tes/dave_curve.c ****          blur = ctx->blurring; 
 179:../src/smc_gen/r_drw2d_rx/src/tes/dave_curve.c ****          ib = ctx->invblur;  
 180:../src/smc_gen/r_drw2d_rx/src/tes/dave_curve.c **** 
 181:../src/smc_gen/r_drw2d_rx/src/tes/dave_curve.c ****          /* calc circle parameters (16:16 from 10:4) */
 182:../src/smc_gen/r_drw2d_rx/src/tes/dave_curve.c ****          ir = 
 183:../src/smc_gen/r_drw2d_rx/src/tes/dave_curve.c ****             (
 184:../src/smc_gen/r_drw2d_rx/src/tes/dave_curve.c ****                (
 185:../src/smc_gen/r_drw2d_rx/src/tes/dave_curve.c ****                   (
 186:../src/smc_gen/r_drw2d_rx/src/tes/dave_curve.c ****                      (
 187:../src/smc_gen/r_drw2d_rx/src/tes/dave_curve.c ****                         (-1 * D2_FIX16(16<<0))
 188:../src/smc_gen/r_drw2d_rx/src/tes/dave_curve.c ****                         * D2_FIX4(1)
 189:../src/smc_gen/r_drw2d_rx/src/tes/dave_curve.c ****                       )
 190:../src/smc_gen/r_drw2d_rx/src/tes/dave_curve.c ****                      *
 191:../src/smc_gen/r_drw2d_rx/src/tes/dave_curve.c ****                      (D2_FIX4(1) / 2)
 192:../src/smc_gen/r_drw2d_rx/src/tes/dave_curve.c ****                    )
 193:../src/smc_gen/r_drw2d_rx/src/tes/dave_curve.c ****                   / r
 194:../src/smc_gen/r_drw2d_rx/src/tes/dave_curve.c ****                 )
 195:../src/smc_gen/r_drw2d_rx/src/tes/dave_curve.c ****                * (1 << LIMITER_HIPRECISION)
 196:../src/smc_gen/r_drw2d_rx/src/tes/dave_curve.c ****              )
 197:../src/smc_gen/r_drw2d_rx/src/tes/dave_curve.c ****             / blur;               /* 1 / 2rb */   
 198:../src/smc_gen/r_drw2d_rx/src/tes/dave_curve.c **** #ifndef _NO_LL_
 199:../src/smc_gen/r_drw2d_rx/src/tes/dave_curve.c ****          f64 =
 200:../src/smc_gen/r_drw2d_rx/src/tes/dave_curve.c ****             (
 201:../src/smc_gen/r_drw2d_rx/src/tes/dave_curve.c ****                (
 202:../src/smc_gen/r_drw2d_rx/src/tes/dave_curve.c ****                   (
 203:../src/smc_gen/r_drw2d_rx/src/tes/dave_curve.c ****                      (
 204:../src/smc_gen/r_drw2d_rx/src/tes/dave_curve.c ****                         (xr*xr) + (yr*yr)
 205:../src/smc_gen/r_drw2d_rx/src/tes/dave_curve.c ****                       )
 206:../src/smc_gen/r_drw2d_rx/src/tes/dave_curve.c ****                      / (1 << 8)
 207:../src/smc_gen/r_drw2d_rx/src/tes/dave_curve.c ****                    )
 208:../src/smc_gen/r_drw2d_rx/src/tes/dave_curve.c ****                   * (d2_int64)ir
 209:../src/smc_gen/r_drw2d_rx/src/tes/dave_curve.c ****                 )
 210:../src/smc_gen/r_drw2d_rx/src/tes/dave_curve.c ****                / (1 << 4)
 211:../src/smc_gen/r_drw2d_rx/src/tes/dave_curve.c ****              ) 
 212:../src/smc_gen/r_drw2d_rx/src/tes/dave_curve.c ****             - 
 213:../src/smc_gen/r_drw2d_rx/src/tes/dave_curve.c ****             (
 214:../src/smc_gen/r_drw2d_rx/src/tes/dave_curve.c ****                (
 215:../src/smc_gen/r_drw2d_rx/src/tes/dave_curve.c ****                   (
 216:../src/smc_gen/r_drw2d_rx/src/tes/dave_curve.c ****                      (r / 2) + (xr + yr)
 217:../src/smc_gen/r_drw2d_rx/src/tes/dave_curve.c ****                    )
 218:../src/smc_gen/r_drw2d_rx/src/tes/dave_curve.c ****                   * (d2_int64)ib
 219:../src/smc_gen/r_drw2d_rx/src/tes/dave_curve.c ****                 )
 220:../src/smc_gen/r_drw2d_rx/src/tes/dave_curve.c ****                * (1 << (LIMITER_HIPRECISION - 4))
 221:../src/smc_gen/r_drw2d_rx/src/tes/dave_curve.c ****              );      /* (x²+y²-r²) * ir */
 222:../src/smc_gen/r_drw2d_rx/src/tes/dave_curve.c **** #else
 223:../src/smc_gen/r_drw2d_rx/src/tes/dave_curve.c ****          d2_mul3232to64(((xr * xr) + (yr * yr)) / (1 << 8), ir, &tmp);
 224:../src/smc_gen/r_drw2d_rx/src/tes/dave_curve.c ****          d2_shiftright64(&tmp, 4, &f64);
 225:../src/smc_gen/r_drw2d_rx/src/tes/dave_curve.c ****          d2_mul3232to64(((r / 2) + (xr + yr)), (d2_s32)ib, &tmp);
 226:../src/smc_gen/r_drw2d_rx/src/tes/dave_curve.c ****          d2_shiftleft64(&tmp, (LIMITER_HIPRECISION - 4), &tmp2); 
 227:../src/smc_gen/r_drw2d_rx/src/tes/dave_curve.c ****          d2_sub64(&f64, &tmp2, &tmp);      /* (x²+y²-r²) * ir */
 228:../src/smc_gen/r_drw2d_rx/src/tes/dave_curve.c **** #endif 
 229:../src/smc_gen/r_drw2d_rx/src/tes/dave_curve.c ****          /* ir = ir / (1 << 4); */    /* testcase failure */
 230:../src/smc_gen/r_drw2d_rx/src/tes/dave_curve.c ****          ir >>= 4;                    /* works */       /* PRQA S 0502 */ /* $Misra: #PERF_ARITHMET
 231:../src/smc_gen/r_drw2d_rx/src/tes/dave_curve.c ****          a = ((16 - (x * 2)) * (d2_s32)ir) / (1 << (4 + 0));          /* (1 - 2x) * ir */  
 232:../src/smc_gen/r_drw2d_rx/src/tes/dave_curve.c ****          b = ((16 - (y * 2)) * (d2_s32)ir) / (1 << (4 + 0));          /* (1 - 2y) * ir */ 
 233:../src/smc_gen/r_drw2d_rx/src/tes/dave_curve.c **** #ifndef _NO_LL_
 234:../src/smc_gen/r_drw2d_rx/src/tes/dave_curve.c ****          f = (d2_s32)f64;   
 235:../src/smc_gen/r_drw2d_rx/src/tes/dave_curve.c **** #else
 236:../src/smc_gen/r_drw2d_rx/src/tes/dave_curve.c ****          f = d2_cast64to32(&tmp);
 237:../src/smc_gen/r_drw2d_rx/src/tes/dave_curve.c **** #endif
 238:../src/smc_gen/r_drw2d_rx/src/tes/dave_curve.c ****       }
 239:../src/smc_gen/r_drw2d_rx/src/tes/dave_curve.c **** 
 240:../src/smc_gen/r_drw2d_rx/src/tes/dave_curve.c ****    }
 241:../src/smc_gen/r_drw2d_rx/src/tes/dave_curve.c ****    else
 242:../src/smc_gen/r_drw2d_rx/src/tes/dave_curve.c ****    {
 243:../src/smc_gen/r_drw2d_rx/src/tes/dave_curve.c ****       /* not blurred case (b == 1 && ib == 1) */
 244:../src/smc_gen/r_drw2d_rx/src/tes/dave_curve.c ****       if(0 == (xr | yr)) /* PRQA S 4130 */ /* $Misra: #PERF_BITWISE $*/
 245:../src/smc_gen/r_drw2d_rx/src/tes/dave_curve.c ****       {
 246:../src/smc_gen/r_drw2d_rx/src/tes/dave_curve.c ****          /* integer aligned, nonclipped case (xr == 0 && yr == 0) */
 247:../src/smc_gen/r_drw2d_rx/src/tes/dave_curve.c ****          ir =
 248:../src/smc_gen/r_drw2d_rx/src/tes/dave_curve.c ****             (
 249:../src/smc_gen/r_drw2d_rx/src/tes/dave_curve.c ****                (
 250:../src/smc_gen/r_drw2d_rx/src/tes/dave_curve.c ****                   (-1 * D2_FIX16(1))
 251:../src/smc_gen/r_drw2d_rx/src/tes/dave_curve.c ****                   *
 252:../src/smc_gen/r_drw2d_rx/src/tes/dave_curve.c ****                   (D2_FIX4(1) / 2)
 253:../src/smc_gen/r_drw2d_rx/src/tes/dave_curve.c ****                 )
 254:../src/smc_gen/r_drw2d_rx/src/tes/dave_curve.c ****              ) 
 255:../src/smc_gen/r_drw2d_rx/src/tes/dave_curve.c ****             / r;
 256:../src/smc_gen/r_drw2d_rx/src/tes/dave_curve.c ****          f = (-r) * (1 << (16 - 4 - 1));
 257:../src/smc_gen/r_drw2d_rx/src/tes/dave_curve.c ****          a = b = ((16 - (r * 2)) * ir) / 16;
 258:../src/smc_gen/r_drw2d_rx/src/tes/dave_curve.c ****       }
 259:../src/smc_gen/r_drw2d_rx/src/tes/dave_curve.c ****       else
 260:../src/smc_gen/r_drw2d_rx/src/tes/dave_curve.c ****       {
 261:../src/smc_gen/r_drw2d_rx/src/tes/dave_curve.c ****          d2_int64 ft;
 262:../src/smc_gen/r_drw2d_rx/src/tes/dave_curve.c ****          /*d2_int64 ftXXX;*/
 263:../src/smc_gen/r_drw2d_rx/src/tes/dave_curve.c ****          d2_s32 xq,yq;
 264:../src/smc_gen/r_drw2d_rx/src/tes/dave_curve.c **** #ifdef _NO_LL_
 265:../src/smc_gen/r_drw2d_rx/src/tes/dave_curve.c ****          d2_int64 tmp;
 266:../src/smc_gen/r_drw2d_rx/src/tes/dave_curve.c **** #endif
 267:../src/smc_gen/r_drw2d_rx/src/tes/dave_curve.c ****          /* subpixel positioned or clipped */
 268:../src/smc_gen/r_drw2d_rx/src/tes/dave_curve.c ****          ir =
 269:../src/smc_gen/r_drw2d_rx/src/tes/dave_curve.c ****             (
 270:../src/smc_gen/r_drw2d_rx/src/tes/dave_curve.c ****                (-1 * D2_FIX16(1 << TWEAK)) 
 271:../src/smc_gen/r_drw2d_rx/src/tes/dave_curve.c ****                *
 272:../src/smc_gen/r_drw2d_rx/src/tes/dave_curve.c ****                (D2_FIX4(1) / 2)
 273:../src/smc_gen/r_drw2d_rx/src/tes/dave_curve.c ****              )
 274:../src/smc_gen/r_drw2d_rx/src/tes/dave_curve.c ****             / r;
 275:../src/smc_gen/r_drw2d_rx/src/tes/dave_curve.c ****          xq = xr * xr;
 276:../src/smc_gen/r_drw2d_rx/src/tes/dave_curve.c ****          yq = yr * yr;
 277:../src/smc_gen/r_drw2d_rx/src/tes/dave_curve.c **** 
 278:../src/smc_gen/r_drw2d_rx/src/tes/dave_curve.c **** #ifndef _NO_LL_
 279:../src/smc_gen/r_drw2d_rx/src/tes/dave_curve.c ****          /* (note) using the '/' variant of the following line will actually call a 64bit division 
 280:../src/smc_gen/r_drw2d_rx/src/tes/dave_curve.c ****           *         the result of it sometimes differs by one bit compared to the '>>' variant, mak
 281:../src/smc_gen/r_drw2d_rx/src/tes/dave_curve.c ****           *         "test_renderpolyline2" fail.
 282:../src/smc_gen/r_drw2d_rx/src/tes/dave_curve.c ****           *         however, this codepath is only taking in the windows softdave emulation environ
 283:../src/smc_gen/r_drw2d_rx/src/tes/dave_curve.c ****           */
 284:../src/smc_gen/r_drw2d_rx/src/tes/dave_curve.c ****          ft = ((xq + yq) * (d2_int64)ir) >> (8+TWEAK);              /* works */
 285:../src/smc_gen/r_drw2d_rx/src/tes/dave_curve.c ****          /*ft = ((xq + yq) * (d2_int64)ir) / (1 << (8 + TWEAK));*/  /* test_renderpolyline2 fails *
 286:../src/smc_gen/r_drw2d_rx/src/tes/dave_curve.c ****          /* ftXXX = ((xq + yq) * (d2_int64)ir) / (1 << (8 + TWEAK));*/   /* test_renderpolyline2 fa
 287:../src/smc_gen/r_drw2d_rx/src/tes/dave_curve.c **** 
 288:../src/smc_gen/r_drw2d_rx/src/tes/dave_curve.c ****          /*if(ft != ftXXX)
 289:../src/smc_gen/r_drw2d_rx/src/tes/dave_curve.c ****          {
 290:../src/smc_gen/r_drw2d_rx/src/tes/dave_curve.c ****             int i = 42;
 291:../src/smc_gen/r_drw2d_rx/src/tes/dave_curve.c ****          }*/
 292:../src/smc_gen/r_drw2d_rx/src/tes/dave_curve.c **** 
 293:../src/smc_gen/r_drw2d_rx/src/tes/dave_curve.c ****          f = (d2_s32)ft - (((r / 2) + (xr + yr)) * (1 << (16 - 4)));
 294:../src/smc_gen/r_drw2d_rx/src/tes/dave_curve.c **** #else
 295:../src/smc_gen/r_drw2d_rx/src/tes/dave_curve.c ****          d2_mul3232to64((xq + yq), ir, &tmp);
 296:../src/smc_gen/r_drw2d_rx/src/tes/dave_curve.c ****          d2_shiftright64(&tmp, (8 + TWEAK), &ft);
 297:../src/smc_gen/r_drw2d_rx/src/tes/dave_curve.c ****          f  = d2_cast64to32(&ft) - (((r / 2) + (xr + yr)) * (1 << (16 - 4)));
 298:../src/smc_gen/r_drw2d_rx/src/tes/dave_curve.c **** #endif
 299:../src/smc_gen/r_drw2d_rx/src/tes/dave_curve.c ****          /* ir /= (1 << TWEAK); */   /* testcase failure */
 300:../src/smc_gen/r_drw2d_rx/src/tes/dave_curve.c ****          ir >>= TWEAK;                           /* PRQA S 0502 */ /* $Misra: #PERF_ARITHMETIC_SHIF
 301:../src/smc_gen/r_drw2d_rx/src/tes/dave_curve.c ****          a = ((16 - (x * 2)) * ir) / (1 << 4);
 302:../src/smc_gen/r_drw2d_rx/src/tes/dave_curve.c ****          b = ((16 - (y * 2)) * ir) / (1 << 4);
 303:../src/smc_gen/r_drw2d_rx/src/tes/dave_curve.c ****       }
 304:../src/smc_gen/r_drw2d_rx/src/tes/dave_curve.c ****    }
 305:../src/smc_gen/r_drw2d_rx/src/tes/dave_curve.c **** 
 306:../src/smc_gen/r_drw2d_rx/src/tes/dave_curve.c **** 
 307:../src/smc_gen/r_drw2d_rx/src/tes/dave_curve.c ****    /* set register values (geometric parameters) */
 308:../src/smc_gen/r_drw2d_rx/src/tes/dave_curve.c ****    if(0 == invert)
 224                             		.loc 1 308 4 is_stmt 1 view .LVU73
 225                             		.loc 1 308 6 is_stmt 0 view .LVU74
 226 0108 61 0D                   		cmp	#0, r13
 227 010a 3B 49 02                		bne	.L24
 309:../src/smc_gen/r_drw2d_rx/src/tes/dave_curve.c ****    {
 310:../src/smc_gen/r_drw2d_rx/src/tes/dave_curve.c ****       D2_DLISTWRITES( D2_L1START + index, f + band );
 228                             		.loc 1 310 7 is_stmt 1 view .LVU75
 229 010d 71 64 04                		add	#4, r6, r4
 230 0110 06 88 05                		add	[r0], r5
 231                             	.LVL27:
 232                             	.LBB69:
 233                             	.LBI69:
 234                             		.file 2 "../src/smc_gen/r_drw2d_rx/src/tes/dave_intern.h"
   1:../src/smc_gen/r_drw2d_rx/src/tes/dave_intern.h **** /*--------------------------------------------------------------------------
   2:../src/smc_gen/r_drw2d_rx/src/tes/dave_intern.h ****  * Project: D/AVE
   3:../src/smc_gen/r_drw2d_rx/src/tes/dave_intern.h ****  * File:    dave_intern.h (%version: 29 %)
   4:../src/smc_gen/r_drw2d_rx/src/tes/dave_intern.h ****  *          created Tue Jan 11 12:57:48 2005 by hh04027
   5:../src/smc_gen/r_drw2d_rx/src/tes/dave_intern.h ****  *
   6:../src/smc_gen/r_drw2d_rx/src/tes/dave_intern.h ****  * Description:
   7:../src/smc_gen/r_drw2d_rx/src/tes/dave_intern.h ****  *  %date_modified: Thu Jan 25 18:12:54 2007 %  (%derived_by:  hh74026 %)
   8:../src/smc_gen/r_drw2d_rx/src/tes/dave_intern.h ****  *
   9:../src/smc_gen/r_drw2d_rx/src/tes/dave_intern.h ****  * Changes:
  10:../src/smc_gen/r_drw2d_rx/src/tes/dave_intern.h ****  *  2005-12-22 CSe  removed transfermode field, added flags field in _d2_devicedata
  11:../src/smc_gen/r_drw2d_rx/src/tes/dave_intern.h ****  *  2006-02-16 CSe  added performance counter support
  12:../src/smc_gen/r_drw2d_rx/src/tes/dave_intern.h ****  *  2006-10-30 CSe  removed waitdlist flag
  13:../src/smc_gen/r_drw2d_rx/src/tes/dave_intern.h ****  *  2006-11-07 CSe  removed waitdlist flag
  14:../src/smc_gen/r_drw2d_rx/src/tes/dave_intern.h ****  *  2006-11-07 CSe  added dlist_buffer to device struct for 'd2_df_low_localmem' mode
  15:../src/smc_gen/r_drw2d_rx/src/tes/dave_intern.h ****  *  2007-01-26 CSe  made 'low localmem' mode configurable
  16:../src/smc_gen/r_drw2d_rx/src/tes/dave_intern.h ****  *  2007-05-23 MGe  added delayed_errorcode to context
  17:../src/smc_gen/r_drw2d_rx/src/tes/dave_intern.h ****  *  2008-01-14 ASc  changed comments from C++ to C, removed tabs
  18:../src/smc_gen/r_drw2d_rx/src/tes/dave_intern.h ****  *  2008-11-24 AJ   Added support for IAR compiler
  19:../src/smc_gen/r_drw2d_rx/src/tes/dave_intern.h ****  *  2011-09-05 MRe  added cr2 register to device structure
  20:../src/smc_gen/r_drw2d_rx/src/tes/dave_intern.h ****  *  2012-09-25 BSp  MISRA cleanup
  21:../src/smc_gen/r_drw2d_rx/src/tes/dave_intern.h ****  *-------------------------------------------------------------------------- */
  22:../src/smc_gen/r_drw2d_rx/src/tes/dave_intern.h **** 
  23:../src/smc_gen/r_drw2d_rx/src/tes/dave_intern.h **** #ifndef __1_dave_intern_h_H
  24:../src/smc_gen/r_drw2d_rx/src/tes/dave_intern.h **** #define __1_dave_intern_h_H
  25:../src/smc_gen/r_drw2d_rx/src/tes/dave_intern.h **** /*---------------------------------------------------------------------------
  26:../src/smc_gen/r_drw2d_rx/src/tes/dave_intern.h ****  * define inline modifier if available */
  27:../src/smc_gen/r_drw2d_rx/src/tes/dave_intern.h **** #ifdef _MSC_VER
  28:../src/smc_gen/r_drw2d_rx/src/tes/dave_intern.h **** #define D2_INLINE __forceinline
  29:../src/smc_gen/r_drw2d_rx/src/tes/dave_intern.h **** #else
  30:../src/smc_gen/r_drw2d_rx/src/tes/dave_intern.h **** #ifdef __CA850__
  31:../src/smc_gen/r_drw2d_rx/src/tes/dave_intern.h **** #define D2_INLINE
  32:../src/smc_gen/r_drw2d_rx/src/tes/dave_intern.h **** #elif defined(__ICCV850__)
  33:../src/smc_gen/r_drw2d_rx/src/tes/dave_intern.h **** #define D2_INLINE _Pragma("inline")
  34:../src/smc_gen/r_drw2d_rx/src/tes/dave_intern.h **** #else
  35:../src/smc_gen/r_drw2d_rx/src/tes/dave_intern.h **** #define D2_INLINE inline
  36:../src/smc_gen/r_drw2d_rx/src/tes/dave_intern.h **** #endif
  37:../src/smc_gen/r_drw2d_rx/src/tes/dave_intern.h **** #endif
  38:../src/smc_gen/r_drw2d_rx/src/tes/dave_intern.h **** 
  39:../src/smc_gen/r_drw2d_rx/src/tes/dave_intern.h **** /*---------------------------------------------------------------------------
  40:../src/smc_gen/r_drw2d_rx/src/tes/dave_intern.h ****  * define null to become independent of stdlib */
  41:../src/smc_gen/r_drw2d_rx/src/tes/dave_intern.h **** #ifndef NULL
  42:../src/smc_gen/r_drw2d_rx/src/tes/dave_intern.h **** #ifdef __cplusplus
  43:../src/smc_gen/r_drw2d_rx/src/tes/dave_intern.h **** #define NULL    0
  44:../src/smc_gen/r_drw2d_rx/src/tes/dave_intern.h **** #else
  45:../src/smc_gen/r_drw2d_rx/src/tes/dave_intern.h **** #define NULL    ((void *)0)
  46:../src/smc_gen/r_drw2d_rx/src/tes/dave_intern.h **** #endif
  47:../src/smc_gen/r_drw2d_rx/src/tes/dave_intern.h **** #endif
  48:../src/smc_gen/r_drw2d_rx/src/tes/dave_intern.h **** 
  49:../src/smc_gen/r_drw2d_rx/src/tes/dave_intern.h **** /*---------------------------------------------------------------------------
  50:../src/smc_gen/r_drw2d_rx/src/tes/dave_intern.h ****  * internally used types */
  51:../src/smc_gen/r_drw2d_rx/src/tes/dave_intern.h **** 
  52:../src/smc_gen/r_drw2d_rx/src/tes/dave_intern.h **** #ifdef _MSC_VER
  53:../src/smc_gen/r_drw2d_rx/src/tes/dave_intern.h **** typedef __int64 d2_int64;
  54:../src/smc_gen/r_drw2d_rx/src/tes/dave_intern.h **** #elif (defined(__CA850__) || defined(__ICC850__))
  55:../src/smc_gen/r_drw2d_rx/src/tes/dave_intern.h **** #define _NO_LL_
  56:../src/smc_gen/r_drw2d_rx/src/tes/dave_intern.h **** typedef struct {
  57:../src/smc_gen/r_drw2d_rx/src/tes/dave_intern.h ****    d2_u32 low32;
  58:../src/smc_gen/r_drw2d_rx/src/tes/dave_intern.h ****    d2_s32 high32;
  59:../src/smc_gen/r_drw2d_rx/src/tes/dave_intern.h **** } d2_int64;
  60:../src/smc_gen/r_drw2d_rx/src/tes/dave_intern.h **** #else
  61:../src/smc_gen/r_drw2d_rx/src/tes/dave_intern.h **** typedef long long d2_int64;
  62:../src/smc_gen/r_drw2d_rx/src/tes/dave_intern.h **** #endif
  63:../src/smc_gen/r_drw2d_rx/src/tes/dave_intern.h **** 
  64:../src/smc_gen/r_drw2d_rx/src/tes/dave_intern.h **** /*---------------------------------------------------------------------------
  65:../src/smc_gen/r_drw2d_rx/src/tes/dave_intern.h ****  * use separate context for blit 
  66:../src/smc_gen/r_drw2d_rx/src/tes/dave_intern.h ****  see also d2_df_no_blitctxbackup and d2_bf_no_blitctxbackup*/
  67:../src/smc_gen/r_drw2d_rx/src/tes/dave_intern.h **** 
  68:../src/smc_gen/r_drw2d_rx/src/tes/dave_intern.h **** /*
  69:../src/smc_gen/r_drw2d_rx/src/tes/dave_intern.h **** #define D2_USEBLITBACKUPCONTEXT 
  70:../src/smc_gen/r_drw2d_rx/src/tes/dave_intern.h **** */
  71:../src/smc_gen/r_drw2d_rx/src/tes/dave_intern.h **** 
  72:../src/smc_gen/r_drw2d_rx/src/tes/dave_intern.h **** 
  73:../src/smc_gen/r_drw2d_rx/src/tes/dave_intern.h **** /*---------------------------------------------------------------------------
  74:../src/smc_gen/r_drw2d_rx/src/tes/dave_intern.h ****  * force register cache usage
  75:../src/smc_gen/r_drw2d_rx/src/tes/dave_intern.h ****  see also d2_df_no_registercaching */
  76:../src/smc_gen/r_drw2d_rx/src/tes/dave_intern.h **** 
  77:../src/smc_gen/r_drw2d_rx/src/tes/dave_intern.h **** #define D2_USEREGCACHE 
  78:../src/smc_gen/r_drw2d_rx/src/tes/dave_intern.h **** 
  79:../src/smc_gen/r_drw2d_rx/src/tes/dave_intern.h **** /*---------------------------------------------------------------------------
  80:../src/smc_gen/r_drw2d_rx/src/tes/dave_intern.h ****  * set initial size of list of dlist start address */
  81:../src/smc_gen/r_drw2d_rx/src/tes/dave_intern.h **** 
  82:../src/smc_gen/r_drw2d_rx/src/tes/dave_intern.h **** #define DLIST_ADRESSES_NUMBER 16
  83:../src/smc_gen/r_drw2d_rx/src/tes/dave_intern.h **** 
  84:../src/smc_gen/r_drw2d_rx/src/tes/dave_intern.h **** 
  85:../src/smc_gen/r_drw2d_rx/src/tes/dave_intern.h **** /*---------------------------------------------------------------------------
  86:../src/smc_gen/r_drw2d_rx/src/tes/dave_intern.h ****  * Register Cache */
  87:../src/smc_gen/r_drw2d_rx/src/tes/dave_intern.h **** 
  88:../src/smc_gen/r_drw2d_rx/src/tes/dave_intern.h **** #include "dave_registermap.h"
  89:../src/smc_gen/r_drw2d_rx/src/tes/dave_intern.h **** 
  90:../src/smc_gen/r_drw2d_rx/src/tes/dave_intern.h **** typedef struct _d2_cacheddata
  91:../src/smc_gen/r_drw2d_rx/src/tes/dave_intern.h **** {
  92:../src/smc_gen/r_drw2d_rx/src/tes/dave_intern.h ****    d2_s32    data[  D2_QUANTITY ];
  93:../src/smc_gen/r_drw2d_rx/src/tes/dave_intern.h ****    d2_s8     valid[ D2_QUANTITY ];
  94:../src/smc_gen/r_drw2d_rx/src/tes/dave_intern.h **** } d2_cacheddata;
  95:../src/smc_gen/r_drw2d_rx/src/tes/dave_intern.h **** 
  96:../src/smc_gen/r_drw2d_rx/src/tes/dave_intern.h **** #ifdef D2_USEREGCACHE
  97:../src/smc_gen/r_drw2d_rx/src/tes/dave_intern.h **** D2_EXTERN const d2_u8 d2_cacheableregs[D2_QUANTITY];
  98:../src/smc_gen/r_drw2d_rx/src/tes/dave_intern.h **** #endif
  99:../src/smc_gen/r_drw2d_rx/src/tes/dave_intern.h **** 
 100:../src/smc_gen/r_drw2d_rx/src/tes/dave_intern.h **** typedef void (*d2_fp_scratchfull)( void *handle );
 101:../src/smc_gen/r_drw2d_rx/src/tes/dave_intern.h **** 
 102:../src/smc_gen/r_drw2d_rx/src/tes/dave_intern.h **** /*--------------------------------------------------------------------------- */
 103:../src/smc_gen/r_drw2d_rx/src/tes/dave_intern.h **** #include "dave_base.h"
 104:../src/smc_gen/r_drw2d_rx/src/tes/dave_intern.h **** #include "dave_dlist.h"
 105:../src/smc_gen/r_drw2d_rx/src/tes/dave_intern.h **** #include "dave_rbuffer.h"
 106:../src/smc_gen/r_drw2d_rx/src/tes/dave_intern.h **** #include "dave_hardware.h"
 107:../src/smc_gen/r_drw2d_rx/src/tes/dave_intern.h **** #include "dave_context.h"
 108:../src/smc_gen/r_drw2d_rx/src/tes/dave_intern.h **** #include "dave_math.h"
 109:../src/smc_gen/r_drw2d_rx/src/tes/dave_intern.h **** 
 110:../src/smc_gen/r_drw2d_rx/src/tes/dave_intern.h **** /*---------------------------------------------------------------------------
 111:../src/smc_gen/r_drw2d_rx/src/tes/dave_intern.h ****  * use higher precision of qlimiters */
 112:../src/smc_gen/r_drw2d_rx/src/tes/dave_intern.h **** 
 113:../src/smc_gen/r_drw2d_rx/src/tes/dave_intern.h **** #define LIMITER_HIPRECISION 6 
 114:../src/smc_gen/r_drw2d_rx/src/tes/dave_intern.h **** 
 115:../src/smc_gen/r_drw2d_rx/src/tes/dave_intern.h **** 
 116:../src/smc_gen/r_drw2d_rx/src/tes/dave_intern.h **** /*---------------------------------------------------------------------------
 117:../src/smc_gen/r_drw2d_rx/src/tes/dave_intern.h ****  * These helper macros are used to stringify a given macro */
 118:../src/smc_gen/r_drw2d_rx/src/tes/dave_intern.h **** #define D2_STR(s)           # s
 119:../src/smc_gen/r_drw2d_rx/src/tes/dave_intern.h **** #define D2_XSTR(s)          D2_STR(s)  /* PRQA S 3453 */ /* $Misra: #MISRA_BUG_MACRO_HASH $*/
 120:../src/smc_gen/r_drw2d_rx/src/tes/dave_intern.h **** 
 121:../src/smc_gen/r_drw2d_rx/src/tes/dave_intern.h **** 
 122:../src/smc_gen/r_drw2d_rx/src/tes/dave_intern.h **** /*---------------------------------------------------------------------------
 123:../src/smc_gen/r_drw2d_rx/src/tes/dave_intern.h ****  * Define the D2_VERSION and D2_VERSION_STRING macros */
 124:../src/smc_gen/r_drw2d_rx/src/tes/dave_intern.h **** 
 125:../src/smc_gen/r_drw2d_rx/src/tes/dave_intern.h **** /* Build up the D2_VERSION macro */
 126:../src/smc_gen/r_drw2d_rx/src/tes/dave_intern.h **** #define D2_VERSION ((D2_VERSION_BRANCH << 24) | (D2_VERSION_MAJOR << 16) | D2_VERSION_MINOR )
 127:../src/smc_gen/r_drw2d_rx/src/tes/dave_intern.h **** 
 128:../src/smc_gen/r_drw2d_rx/src/tes/dave_intern.h **** /* Create the D2_VERSION_STRING macro */
 129:../src/smc_gen/r_drw2d_rx/src/tes/dave_intern.h **** #define D2_VERSION_STRING  D2_VERSION_BRANCH_STRING " V" D2_XSTR(D2_VERSION_MAJOR) "." D2_XSTR(D2_V
 130:../src/smc_gen/r_drw2d_rx/src/tes/dave_intern.h **** 
 131:../src/smc_gen/r_drw2d_rx/src/tes/dave_intern.h **** /*---------------------------------------------------------------------------
 132:../src/smc_gen/r_drw2d_rx/src/tes/dave_intern.h ****  * Internal device structure */
 133:../src/smc_gen/r_drw2d_rx/src/tes/dave_intern.h **** 
 134:../src/smc_gen/r_drw2d_rx/src/tes/dave_intern.h **** typedef struct _d2_devicedata
 135:../src/smc_gen/r_drw2d_rx/src/tes/dave_intern.h **** {
 136:../src/smc_gen/r_drw2d_rx/src/tes/dave_intern.h ****    struct _d2_devicedata *next;        /* to chain devices [must be index 0] */
 137:../src/smc_gen/r_drw2d_rx/src/tes/dave_intern.h **** 
 138:../src/smc_gen/r_drw2d_rx/src/tes/dave_intern.h ****    d2_dlist *readlist;                 /* read (executing) dlist */
 139:../src/smc_gen/r_drw2d_rx/src/tes/dave_intern.h ****    d2_dlist *writelist;                /* write (under construction) dlist */
 140:../src/smc_gen/r_drw2d_rx/src/tes/dave_intern.h ****    d2_rbuffer *selectedbuffer;         /* currently selected renderbuffer */
 141:../src/smc_gen/r_drw2d_rx/src/tes/dave_intern.h ****    d2_rbuffer *renderbuffer[2];        /* default renderbuffers */
 142:../src/smc_gen/r_drw2d_rx/src/tes/dave_intern.h **** 
 143:../src/smc_gen/r_drw2d_rx/src/tes/dave_intern.h ****    d1_device      *hwid;               /* lowlevel access handle */
 144:../src/smc_gen/r_drw2d_rx/src/tes/dave_intern.h ****    d2_contextdata *ctxchain;           /* context chain (list of all contexts for this device) */
 145:../src/smc_gen/r_drw2d_rx/src/tes/dave_intern.h ****    d2_contextdata *ctxdef;             /* default context (cannot be removed by application) */
 146:../src/smc_gen/r_drw2d_rx/src/tes/dave_intern.h ****    d2_contextdata *ctxselected;        /* selected context (used as target of context write/read op
 147:../src/smc_gen/r_drw2d_rx/src/tes/dave_intern.h ****    d2_contextdata *ctxsolid;           /* solid context (used as source for rendering solid geometr
 148:../src/smc_gen/r_drw2d_rx/src/tes/dave_intern.h ****    d2_contextdata *ctxoutline;         /* outline context (used as source for rendering outlines) *
 149:../src/smc_gen/r_drw2d_rx/src/tes/dave_intern.h **** #ifdef D2_USEBLITBACKUPCONTEXT
 150:../src/smc_gen/r_drw2d_rx/src/tes/dave_intern.h ****    d2_contextdata *blitcontext;        /* internal context used only for blits */
 151:../src/smc_gen/r_drw2d_rx/src/tes/dave_intern.h **** #else
 152:../src/smc_gen/r_drw2d_rx/src/tes/dave_intern.h ****    d2_contextdata_backup *blitcontext_b; /* internal context backup used only for blits */
 153:../src/smc_gen/r_drw2d_rx/src/tes/dave_intern.h **** #endif
 154:../src/smc_gen/r_drw2d_rx/src/tes/dave_intern.h ****    d2_contextdata *srccontext;         /* last context that acted as source for display list (for d
 155:../src/smc_gen/r_drw2d_rx/src/tes/dave_intern.h ****    d2_color       *srcclut;            /* last clut that was loaded  */
 156:../src/smc_gen/r_drw2d_rx/src/tes/dave_intern.h **** 
 157:../src/smc_gen/r_drw2d_rx/src/tes/dave_intern.h ****    void *   framebuffer;               /* rendering baseaddress */
 158:../src/smc_gen/r_drw2d_rx/src/tes/dave_intern.h ****    d2_s32   pitch, bpp;                /* framebuffer pitch and bytes per pixel */
 159:../src/smc_gen/r_drw2d_rx/src/tes/dave_intern.h ****    d2_s32   fbformat;                  /* framebuffer format */
 160:../src/smc_gen/r_drw2d_rx/src/tes/dave_intern.h ****    d2_u32   fbwidth,fbheight;          /* framebuffer size */
 161:../src/smc_gen/r_drw2d_rx/src/tes/dave_intern.h ****    d2_u32   fbstylemask;               /* dave ctrl1 bitmask for framebuffer format */
 162:../src/smc_gen/r_drw2d_rx/src/tes/dave_intern.h ****    d2_u32   cr2;                       /* control register 2 */
 163:../src/smc_gen/r_drw2d_rx/src/tes/dave_intern.h **** 
 164:../src/smc_gen/r_drw2d_rx/src/tes/dave_intern.h ****    d2_u32   cachectlmask;              /* dave cache ctrl register bitmask */
 165:../src/smc_gen/r_drw2d_rx/src/tes/dave_intern.h ****    d2_u32   perftriggermask;           /* dave performance counter trigger source register bitmask 
 166:../src/smc_gen/r_drw2d_rx/src/tes/dave_intern.h **** 
 167:../src/smc_gen/r_drw2d_rx/src/tes/dave_intern.h ****    d2_u32   rendermode;                /* see 'enum d2_rendermodes' */
 168:../src/smc_gen/r_drw2d_rx/src/tes/dave_intern.h ****    d2_u32   flags;                     /* see 'enum d2_deviceflags' */
 169:../src/smc_gen/r_drw2d_rx/src/tes/dave_intern.h ****    d2_width outlinewidth;
 170:../src/smc_gen/r_drw2d_rx/src/tes/dave_intern.h ****    d2_point soffx, soffy;
 171:../src/smc_gen/r_drw2d_rx/src/tes/dave_intern.h ****    d2_point clipxmin, clipymin;
 172:../src/smc_gen/r_drw2d_rx/src/tes/dave_intern.h ****    d2_point clipxmax, clipymax;
 173:../src/smc_gen/r_drw2d_rx/src/tes/dave_intern.h **** 
 174:../src/smc_gen/r_drw2d_rx/src/tes/dave_intern.h ****    d2_lowlocalmem_mode *lowlocalmem_mode;       /* only used in 'low localmem' mode */
 175:../src/smc_gen/r_drw2d_rx/src/tes/dave_intern.h **** 
 176:../src/smc_gen/r_drw2d_rx/src/tes/dave_intern.h ****    d2_u32 hwrevision;
 177:../src/smc_gen/r_drw2d_rx/src/tes/dave_intern.h ****    d2_u32 hwmemarchitecture;
 178:../src/smc_gen/r_drw2d_rx/src/tes/dave_intern.h **** 
 179:../src/smc_gen/r_drw2d_rx/src/tes/dave_intern.h ****    d2_u32 dlistblocksize;              /* specify number of entries to grow when dlist is full */
 180:../src/smc_gen/r_drw2d_rx/src/tes/dave_intern.h **** #ifdef D2_USEREGCACHE
 181:../src/smc_gen/r_drw2d_rx/src/tes/dave_intern.h ****    d2_cacheddata cache;                 /* register cache for this device */
 182:../src/smc_gen/r_drw2d_rx/src/tes/dave_intern.h **** #endif
 183:../src/smc_gen/r_drw2d_rx/src/tes/dave_intern.h ****    /* display list assembly buffer */
 184:../src/smc_gen/r_drw2d_rx/src/tes/dave_intern.h ****    d2_dlist_scratch_entry *dlscratch_base;
 185:../src/smc_gen/r_drw2d_rx/src/tes/dave_intern.h ****    d2_dlist_scratch_entry *dlscratch_pos;
 186:../src/smc_gen/r_drw2d_rx/src/tes/dave_intern.h ****    d2_s32                  dlscratch_cnt;
 187:../src/smc_gen/r_drw2d_rx/src/tes/dave_intern.h ****    d2_fp_scratchfull       dlscratch_hook;
 188:../src/smc_gen/r_drw2d_rx/src/tes/dave_intern.h **** 
 189:../src/smc_gen/r_drw2d_rx/src/tes/dave_intern.h ****    d2_s8   lasttextwasrle;               /* last texture format was RLE */
 190:../src/smc_gen/r_drw2d_rx/src/tes/dave_intern.h ****    d2_s8   maxpatlen;                    /* maximum size of pattern bitvector supported by the hard
 191:../src/smc_gen/r_drw2d_rx/src/tes/dave_intern.h ****    d2_s8   errorcode;                    /* last actions detaild result code */
 192:../src/smc_gen/r_drw2d_rx/src/tes/dave_intern.h ****    d2_s8   delayed_errorcode;            /* errorcondition that exists until the renderbuffer gets 
 193:../src/smc_gen/r_drw2d_rx/src/tes/dave_intern.h ****    d2_s8   hilimiterprecision_supported; /* is set to 1 when the hilimiterprecision feature is supp
 194:../src/smc_gen/r_drw2d_rx/src/tes/dave_intern.h **** 
 195:../src/smc_gen/r_drw2d_rx/src/tes/dave_intern.h ****    d2_s8   dlist_indirect_supported;     /* is set to 1 when lists of dlist addresses are supported
 196:../src/smc_gen/r_drw2d_rx/src/tes/dave_intern.h ****    d2_s32* dlist_list_single[2];         /* for d2_executedlist we need an extra dlist list with ju
 197:../src/smc_gen/r_drw2d_rx/src/tes/dave_intern.h **** 
 198:../src/smc_gen/r_drw2d_rx/src/tes/dave_intern.h **** } d2_devicedata;
 199:../src/smc_gen/r_drw2d_rx/src/tes/dave_intern.h **** 
 200:../src/smc_gen/r_drw2d_rx/src/tes/dave_intern.h **** /*--------------------------------------------------------------------------- */
 201:../src/smc_gen/r_drw2d_rx/src/tes/dave_intern.h **** 
 202:../src/smc_gen/r_drw2d_rx/src/tes/dave_intern.h **** typedef struct _d2_bbox
 203:../src/smc_gen/r_drw2d_rx/src/tes/dave_intern.h **** {
 204:../src/smc_gen/r_drw2d_rx/src/tes/dave_intern.h ****    d2_point xmin, ymin;
 205:../src/smc_gen/r_drw2d_rx/src/tes/dave_intern.h ****    d2_point xmax, ymax;
 206:../src/smc_gen/r_drw2d_rx/src/tes/dave_intern.h **** } d2_bbox;
 207:../src/smc_gen/r_drw2d_rx/src/tes/dave_intern.h **** 
 208:../src/smc_gen/r_drw2d_rx/src/tes/dave_intern.h **** typedef struct _d2_limdata
 209:../src/smc_gen/r_drw2d_rx/src/tes/dave_intern.h **** {
 210:../src/smc_gen/r_drw2d_rx/src/tes/dave_intern.h ****    d2_s32 start;
 211:../src/smc_gen/r_drw2d_rx/src/tes/dave_intern.h ****    d2_s32 xadd;
 212:../src/smc_gen/r_drw2d_rx/src/tes/dave_intern.h ****    d2_s32 yadd;
 213:../src/smc_gen/r_drw2d_rx/src/tes/dave_intern.h **** } d2_limdata;
 214:../src/smc_gen/r_drw2d_rx/src/tes/dave_intern.h **** 
 215:../src/smc_gen/r_drw2d_rx/src/tes/dave_intern.h **** /*---------------------------------------------------------------------------
 216:../src/smc_gen/r_drw2d_rx/src/tes/dave_intern.h ****  * Internal flags */
 217:../src/smc_gen/r_drw2d_rx/src/tes/dave_intern.h **** 
 218:../src/smc_gen/r_drw2d_rx/src/tes/dave_intern.h **** typedef d2_u32 d2_lineendflags_intern;
 219:../src/smc_gen/r_drw2d_rx/src/tes/dave_intern.h **** 
 220:../src/smc_gen/r_drw2d_rx/src/tes/dave_intern.h **** #define d2_lei_base                256u
 221:../src/smc_gen/r_drw2d_rx/src/tes/dave_intern.h **** 
 222:../src/smc_gen/r_drw2d_rx/src/tes/dave_intern.h **** #define d2_lei_ext_first_edge     (d2_lei_base *  2)
 223:../src/smc_gen/r_drw2d_rx/src/tes/dave_intern.h **** #define d2_lei_ext_last_edge      (d2_lei_base *  4)
 224:../src/smc_gen/r_drw2d_rx/src/tes/dave_intern.h **** #define d2_lei_buffer_first_edge  (d2_lei_base *  8)
 225:../src/smc_gen/r_drw2d_rx/src/tes/dave_intern.h **** #define d2_lei_buffer_last_edge   (d2_lei_base * 16)
 226:../src/smc_gen/r_drw2d_rx/src/tes/dave_intern.h **** #define d2_lei_miter_edge         (d2_lei_base * 32)
 227:../src/smc_gen/r_drw2d_rx/src/tes/dave_intern.h **** #define d2_lei_miter1_flip        (d2_lei_base * 64)
 228:../src/smc_gen/r_drw2d_rx/src/tes/dave_intern.h **** #define d2_lei_miter2_flip        (d2_lei_base *128)
 229:../src/smc_gen/r_drw2d_rx/src/tes/dave_intern.h **** 
 230:../src/smc_gen/r_drw2d_rx/src/tes/dave_intern.h **** /*---------------------------------------------------------------------------
 231:../src/smc_gen/r_drw2d_rx/src/tes/dave_intern.h ****  * Internal macros */
 232:../src/smc_gen/r_drw2d_rx/src/tes/dave_intern.h **** 
 233:../src/smc_gen/r_drw2d_rx/src/tes/dave_intern.h **** #define D2_DEV(d)           ((d2_devicedata *) (d))           /* PRQA S 3453 */ /* $Misra: #MACRO_T
 234:../src/smc_gen/r_drw2d_rx/src/tes/dave_intern.h **** #define D2_CTX(c)           ((d2_contextdata *) (c))          /* PRQA S 3453 */ /* $Misra: #MACRO_T
 235:../src/smc_gen/r_drw2d_rx/src/tes/dave_intern.h **** #define D2_FNC(r)           ((d2_renderfunctions *) (r))      /* PRQA S 3453 */ /* $Misra: #MACRO_T
 236:../src/smc_gen/r_drw2d_rx/src/tes/dave_intern.h **** #define D2_DRB(r)           ((d2_rbuffer *) (r))              /* PRQA S 3453 */ /* $Misra: #MACRO_T
 237:../src/smc_gen/r_drw2d_rx/src/tes/dave_intern.h **** 
 238:../src/smc_gen/r_drw2d_rx/src/tes/dave_intern.h **** static D2_INLINE d2_s32 d2_seterr(d2_device *handle, d2_s32 err); /* to satisfy MISRA rule 3450 */
 239:../src/smc_gen/r_drw2d_rx/src/tes/dave_intern.h **** static D2_INLINE d2_s32 d2_seterr(d2_device *handle, d2_s32 err) /* PRQA S 3219, 3480 */ /* $Misra:
 240:../src/smc_gen/r_drw2d_rx/src/tes/dave_intern.h **** {
 241:../src/smc_gen/r_drw2d_rx/src/tes/dave_intern.h ****    D2_DEV(handle)->errorcode = (d2_s8)(err);
 242:../src/smc_gen/r_drw2d_rx/src/tes/dave_intern.h **** 
 243:../src/smc_gen/r_drw2d_rx/src/tes/dave_intern.h ****    return err;
 244:../src/smc_gen/r_drw2d_rx/src/tes/dave_intern.h **** }
 245:../src/smc_gen/r_drw2d_rx/src/tes/dave_intern.h **** 
 246:../src/smc_gen/r_drw2d_rx/src/tes/dave_intern.h **** #define D2_SETERR(d,e)      d2_seterr(d, e)                   /* PRQA S 3453 */ /* $Misra: #MACRO_F
 247:../src/smc_gen/r_drw2d_rx/src/tes/dave_intern.h **** #define D2_SETOK(d)         D2_SETERR(d, D2_OK)               /* PRQA S 3453 */ /* $Misra: #MACRO_F
 248:../src/smc_gen/r_drw2d_rx/src/tes/dave_intern.h **** #define D2_RETERR(d,e)      return D2_SETERR(d,e)             /* PRQA S 3453 */ /* $Misra: #MISRA_B
 249:../src/smc_gen/r_drw2d_rx/src/tes/dave_intern.h **** #define D2_RETERRU(d,e)     return (d2_u32) (D2_SETERR(d,e))  /* PRQA S 3412 */ /* $Misra: #MACRO_R
 250:../src/smc_gen/r_drw2d_rx/src/tes/dave_intern.h **** #define D2_RETOK(d)         return D2_SETOK(d)                /* PRQA S 3412 */ /* $Misra: #MACRO_R
 251:../src/smc_gen/r_drw2d_rx/src/tes/dave_intern.h **** 
 252:../src/smc_gen/r_drw2d_rx/src/tes/dave_intern.h **** #ifdef _DEBUG
 253:../src/smc_gen/r_drw2d_rx/src/tes/dave_intern.h **** #define D2_VALIDATE(x,e)    if (0 == (x)) \
 254:../src/smc_gen/r_drw2d_rx/src/tes/dave_intern.h ****    {                                      \
 255:../src/smc_gen/r_drw2d_rx/src/tes/dave_intern.h ****       return (e);                         \
 256:../src/smc_gen/r_drw2d_rx/src/tes/dave_intern.h ****    }(void)0                                                   /* PRQA S 3412 */ /* $Misra: #COMPILE
 257:../src/smc_gen/r_drw2d_rx/src/tes/dave_intern.h **** #define D2_CHECKERR(x,e)    if (! (x))    \
 258:../src/smc_gen/r_drw2d_rx/src/tes/dave_intern.h ****    {                                      \
 259:../src/smc_gen/r_drw2d_rx/src/tes/dave_intern.h ****       D2_RETERR(handle, (e));             \
 260:../src/smc_gen/r_drw2d_rx/src/tes/dave_intern.h ****    }(void)0                                                   /* PRQA S 3412 */ /* $Misra: #COMPILE
 261:../src/smc_gen/r_drw2d_rx/src/tes/dave_intern.h **** #define D2_VALIDATEP(x,e)   if (0 == (x)) \
 262:../src/smc_gen/r_drw2d_rx/src/tes/dave_intern.h ****    {                                      \
 263:../src/smc_gen/r_drw2d_rx/src/tes/dave_intern.h ****       return 0;                           \
 264:../src/smc_gen/r_drw2d_rx/src/tes/dave_intern.h ****    }(void)0                                                   /* PRQA S 3412 */ /* $Misra: #COMPILE
 265:../src/smc_gen/r_drw2d_rx/src/tes/dave_intern.h **** #define D2_CHECKERRP(x,e)   if (! (x)) \
 266:../src/smc_gen/r_drw2d_rx/src/tes/dave_intern.h ****    {                                   \
 267:../src/smc_gen/r_drw2d_rx/src/tes/dave_intern.h ****       (void)D2_SETERR(handle, (e));    \
 268:../src/smc_gen/r_drw2d_rx/src/tes/dave_intern.h ****       return 0;                        \
 269:../src/smc_gen/r_drw2d_rx/src/tes/dave_intern.h ****    } (void)0                                                  /* PRQA S 3412 */ /* $Misra: #COMPILE
 270:../src/smc_gen/r_drw2d_rx/src/tes/dave_intern.h **** #define D2_CHECKRANGE( v, min, max ) if( ((min) > (v)) || ( (v) > (max)) ) \
 271:../src/smc_gen/r_drw2d_rx/src/tes/dave_intern.h ****    {                                                                       \
 272:../src/smc_gen/r_drw2d_rx/src/tes/dave_intern.h ****       (void)D2_SETERR( handle, D2_INVALIDINDEX);                           \
 273:../src/smc_gen/r_drw2d_rx/src/tes/dave_intern.h ****       return D2_INVALIDINDEX;                                              \
 274:../src/smc_gen/r_drw2d_rx/src/tes/dave_intern.h ****    }(void)0                                                   /* PRQA S 3412 */ /* $Misra: #COMPILE
 275:../src/smc_gen/r_drw2d_rx/src/tes/dave_intern.h **** #else
 276:../src/smc_gen/r_drw2d_rx/src/tes/dave_intern.h **** #define D2_VALIDATE(x,e)(void)0              /* PRQA S 4130, 3112, 3453 */ /* $Misra: #DEBUG_MACRO 
 277:../src/smc_gen/r_drw2d_rx/src/tes/dave_intern.h **** #define D2_CHECKERR(x,e)(void)0              /* PRQA S 4130, 3112, 3453 */ /* $Misra: #DEBUG_MACRO 
 278:../src/smc_gen/r_drw2d_rx/src/tes/dave_intern.h **** #define D2_VALIDATEP(x,e)(void)0             /* PRQA S 4130, 3112, 3453 */ /* $Misra: #DEBUG_MACRO 
 279:../src/smc_gen/r_drw2d_rx/src/tes/dave_intern.h **** #define D2_CHECKERRP(x,e)(void)0             /* PRQA S 4130, 3112, 3453 */ /* $Misra: #DEBUG_MACRO 
 280:../src/smc_gen/r_drw2d_rx/src/tes/dave_intern.h **** #define D2_CHECKRANGE( v, min, max )(void)0  /* PRQA S 4130, 3112, 3453 */ /* $Misra: #DEBUG_MACRO 
 281:../src/smc_gen/r_drw2d_rx/src/tes/dave_intern.h **** #endif
 282:../src/smc_gen/r_drw2d_rx/src/tes/dave_intern.h **** 
 283:../src/smc_gen/r_drw2d_rx/src/tes/dave_intern.h **** D2_EXTERN void d2_cast32to64(d2_s32 par, d2_int64 *res);
 284:../src/smc_gen/r_drw2d_rx/src/tes/dave_intern.h **** D2_EXTERN d2_s32  d2_cast64to32(const d2_int64 *par);
 285:../src/smc_gen/r_drw2d_rx/src/tes/dave_intern.h **** D2_EXTERN void d2_add64(const d2_int64 *a, const d2_int64 *b, d2_int64 *res);
 286:../src/smc_gen/r_drw2d_rx/src/tes/dave_intern.h **** D2_EXTERN void d2_sub64(const d2_int64 *a, const d2_int64 *b, d2_int64 *res);
 287:../src/smc_gen/r_drw2d_rx/src/tes/dave_intern.h **** D2_EXTERN void d2_mul3232to64(d2_s32 a, d2_s32 b, d2_int64 *res);
 288:../src/smc_gen/r_drw2d_rx/src/tes/dave_intern.h **** D2_EXTERN void d2_mul3264(d2_s32 a, d2_int64 *b, d2_int64 *res);
 289:../src/smc_gen/r_drw2d_rx/src/tes/dave_intern.h **** D2_EXTERN void d2_div6432(const d2_int64 *dividend, d2_s32 divisor, d2_int64 *res);
 290:../src/smc_gen/r_drw2d_rx/src/tes/dave_intern.h **** D2_EXTERN void d2_shiftleft64(const d2_int64 *var, d2_s32 index, d2_int64 *res);
 291:../src/smc_gen/r_drw2d_rx/src/tes/dave_intern.h **** D2_EXTERN void d2_shiftright64(const d2_int64 *var, d2_s32 index, d2_int64 *res);
 292:../src/smc_gen/r_drw2d_rx/src/tes/dave_intern.h **** 
 293:../src/smc_gen/r_drw2d_rx/src/tes/dave_intern.h **** #ifdef _NO_LL_
 294:../src/smc_gen/r_drw2d_rx/src/tes/dave_intern.h **** #define D2_CAST32TO64(PAR, RES)    d2_cast32to64(PAR, RES)     /* PRQA S 3453 */ /* $Misra: #MACRO_
 295:../src/smc_gen/r_drw2d_rx/src/tes/dave_intern.h **** #define D2_CAST64TO32(PAR)         d2_cast64to32(PAR)          /* PRQA S 3453 */ /* $Misra: #MACRO_
 296:../src/smc_gen/r_drw2d_rx/src/tes/dave_intern.h **** #define D2_ADD64(A, B, RES)        d2_add64(A, B, RES)         /* PRQA S 3453 */ /* $Misra: #MACRO_
 297:../src/smc_gen/r_drw2d_rx/src/tes/dave_intern.h **** #define D2_SUB64(A, B, RES)        d2_sub64(A, B, RES)         /* PRQA S 3453 */ /* $Misra: #MACRO_
 298:../src/smc_gen/r_drw2d_rx/src/tes/dave_intern.h **** #define D2_MUL3232TO64(A, B, RES)  d2_mul3232to64(A, B, RES)   /* PRQA S 3453 */ /* $Misra: #MACRO_
 299:../src/smc_gen/r_drw2d_rx/src/tes/dave_intern.h **** #define D2_MUL3264(A, B, RES)      d2_mul3264(A, B, RES)       /* PRQA S 3453 */ /* $Misra: #MACRO_
 300:../src/smc_gen/r_drw2d_rx/src/tes/dave_intern.h **** #define D2_DIV6432(DVD, DVS, RES)  d2_div6432(DVD, DVS, RES)   /* PRQA S 3453 */ /* $Misra: #MACRO_
 301:../src/smc_gen/r_drw2d_rx/src/tes/dave_intern.h **** #define D2_SHIFTLEFT64(V, I, RES)  d2_shiftleft64(V, I, RES)   /* PRQA S 3453 */ /* $Misra: #MACRO_
 302:../src/smc_gen/r_drw2d_rx/src/tes/dave_intern.h **** #define D2_SHIFTRIGHT64(V, I, RES) d2_shiftright64(V, I, RES)  /* PRQA S 3453 */ /* $Misra: #MACRO_
 303:../src/smc_gen/r_drw2d_rx/src/tes/dave_intern.h **** #else
 304:../src/smc_gen/r_drw2d_rx/src/tes/dave_intern.h **** #define D2_CAST32TO64(PAR, RES)    *(RES) = (PAR)              /* PRQA S 3453 */ /* $Misra: #MACRO_
 305:../src/smc_gen/r_drw2d_rx/src/tes/dave_intern.h **** #define D2_CAST64TO32(PAR)         ((d2_s32)*(PAR))            /* PRQA S 3453 */ /* $Misra: #MACRO_
 306:../src/smc_gen/r_drw2d_rx/src/tes/dave_intern.h **** #define D2_ADD64(A, B, RES)        *(RES) = (*(A)) + (*(B))    /* PRQA S 3453 */ /* $Misra: #MACRO_
 307:../src/smc_gen/r_drw2d_rx/src/tes/dave_intern.h **** #define D2_SUB64(A, B, RES)        *(RES) = (*(A)) - (*(B))    /* PRQA S 3453 */ /* $Misra: #MACRO_
 308:../src/smc_gen/r_drw2d_rx/src/tes/dave_intern.h **** #define D2_MUL3232TO64(A, B, RES)  *(RES) = ((A)) * (*(B))     /* PRQA S 3453 */ /* $Misra: #MACRO_
 309:../src/smc_gen/r_drw2d_rx/src/tes/dave_intern.h **** #define D2_MUL3264(A, B, RES)      *(RES) = ((A)) * (*(B))     /* PRQA S 3453 */ /* $Misra: #MACRO_
 310:../src/smc_gen/r_drw2d_rx/src/tes/dave_intern.h **** #define D2_DIV6432(DVD, DVS, RES)  *(RES) = (*(DVD)) / ((DVS)) /* PRQA S 3453 */ /* $Misra: #MACRO_
 311:../src/smc_gen/r_drw2d_rx/src/tes/dave_intern.h **** #define D2_SHIFTLEFT64(V, I, RES)  *(RES) = ((*(V)) << (I))    /* PRQA S 3453 */ /* $Misra: #MACRO_
 312:../src/smc_gen/r_drw2d_rx/src/tes/dave_intern.h **** #define D2_SHIFTRIGHT64(V, I, RES) *(RES) = ((*(V)) >> (I))    /* PRQA S 3453 */ /* $Misra: #MACRO_
 313:../src/smc_gen/r_drw2d_rx/src/tes/dave_intern.h **** #endif
 314:../src/smc_gen/r_drw2d_rx/src/tes/dave_intern.h **** 
 315:../src/smc_gen/r_drw2d_rx/src/tes/dave_intern.h **** 
 316:../src/smc_gen/r_drw2d_rx/src/tes/dave_intern.h **** /*---------------------------------------------------------------------------
 317:../src/smc_gen/r_drw2d_rx/src/tes/dave_intern.h ****  * Display List entry macro (moved from dlist.h because of include dependencies) */
 318:../src/smc_gen/r_drw2d_rx/src/tes/dave_intern.h **** 
 319:../src/smc_gen/r_drw2d_rx/src/tes/dave_intern.h **** static D2_INLINE void d2_add2dlist_intern( d2_devicedata *handle, d2_u32 regIdx, d2_s32 value )  /*
 235                             		.loc 2 319 23 view .LVU76
 236                             	.LBB70:
 320:../src/smc_gen/r_drw2d_rx/src/tes/dave_intern.h **** {
 321:../src/smc_gen/r_drw2d_rx/src/tes/dave_intern.h ****    d2_dlist_scratch_entry *entry = handle->dlscratch_pos;
 237                             		.loc 2 321 4 view .LVU77
 238                             		.loc 2 321 28 is_stmt 0 view .LVU78
 239 0113 ED A3 6E                		mov.L	440[r10], r3
 240                             	.LVL28:
 322:../src/smc_gen/r_drw2d_rx/src/tes/dave_intern.h ****    handle->dlscratch_pos++;
 241                             		.loc 2 322 4 is_stmt 1 view .LVU79
 242                             		.loc 2 322 25 is_stmt 0 view .LVU80
 243 0116 71 32 08                		add	#8, r3, r2
 244 0119 E7 A2 6E                		mov.L	r2, 440[r10]
 323:../src/smc_gen/r_drw2d_rx/src/tes/dave_intern.h **** 
 324:../src/smc_gen/r_drw2d_rx/src/tes/dave_intern.h ****    entry->reg   = regIdx;
 245                             		.loc 2 324 4 is_stmt 1 view .LVU81
 246                             		.loc 2 324 17 is_stmt 0 view .LVU82
 247 011c E3 34                   		mov.L	r4, [r3]
 325:../src/smc_gen/r_drw2d_rx/src/tes/dave_intern.h ****    entry->value = value;
 248                             		.loc 2 325 4 is_stmt 1 view .LVU83
 249                             		.loc 2 325 17 is_stmt 0 view .LVU84
 250 011e A0 3D                   		mov.L	r5, 4[r3]
 326:../src/smc_gen/r_drw2d_rx/src/tes/dave_intern.h **** 
 327:../src/smc_gen/r_drw2d_rx/src/tes/dave_intern.h ****    --handle->dlscratch_cnt;
 251                             		.loc 2 327 4 is_stmt 1 view .LVU85
 252                             		.loc 2 327 12 is_stmt 0 view .LVU86
 253 0120 ED A5 6F                		mov.L	444[r10], r5
 254                             	.LVL29:
 255                             		.loc 2 327 4 view .LVU87
 256 0123 60 15                   		sub	#1, r5
 257 0125 E7 A5 6F                		mov.L	r5, 444[r10]
 258                             	.LVL30:
 328:../src/smc_gen/r_drw2d_rx/src/tes/dave_intern.h ****    if(handle->dlscratch_cnt <= 0)
 259                             		.loc 2 328 4 is_stmt 1 view .LVU88
 260                             		.loc 2 328 6 is_stmt 0 view .LVU89
 261 0128 61 05                   		cmp	#0, r5
 262 012a 2A 05 38 F5 01          		ble	.L41
 263                             	.LVL31:
 264                             	.L25:
 265                             		.loc 2 328 6 view .LVU90
 266                             	.LBE70:
 267                             	.LBE69:
 311:../src/smc_gen/r_drw2d_rx/src/tes/dave_curve.c ****       D2_DLISTWRITES( D2_L2START + index, a ); /* equal l1_xadd */
 268                             		.loc 1 311 7 is_stmt 1 view .LVU91
 269 012f 71 64 05                		add	#5, r6, r4
 270                             	.LVL32:
 271                             	.LBB74:
 272                             	.LBI74:
 319:../src/smc_gen/r_drw2d_rx/src/tes/dave_intern.h **** {
 273                             		.loc 2 319 23 view .LVU92
 274                             	.LBB75:
 321:../src/smc_gen/r_drw2d_rx/src/tes/dave_intern.h ****    handle->dlscratch_pos++;
 275                             		.loc 2 321 4 view .LVU93
 321:../src/smc_gen/r_drw2d_rx/src/tes/dave_intern.h ****    handle->dlscratch_pos++;
 276                             		.loc 2 321 28 is_stmt 0 view .LVU94
 277 0132 ED A5 6E                		mov.L	440[r10], r5
 278                             	.LVL33:
 322:../src/smc_gen/r_drw2d_rx/src/tes/dave_intern.h **** 
 279                             		.loc 2 322 4 is_stmt 1 view .LVU95
 322:../src/smc_gen/r_drw2d_rx/src/tes/dave_intern.h **** 
 280                             		.loc 2 322 25 is_stmt 0 view .LVU96
 281 0135 71 53 08                		add	#8, r5, r3
 282 0138 E7 A3 6E                		mov.L	r3, 440[r10]
 324:../src/smc_gen/r_drw2d_rx/src/tes/dave_intern.h ****    entry->value = value;
 283                             		.loc 2 324 4 is_stmt 1 view .LVU97
 324:../src/smc_gen/r_drw2d_rx/src/tes/dave_intern.h ****    entry->value = value;
 284                             		.loc 2 324 17 is_stmt 0 view .LVU98
 285 013b E3 54                   		mov.L	r4, [r5]
 325:../src/smc_gen/r_drw2d_rx/src/tes/dave_intern.h **** 
 286                             		.loc 2 325 4 is_stmt 1 view .LVU99
 325:../src/smc_gen/r_drw2d_rx/src/tes/dave_intern.h **** 
 287                             		.loc 2 325 17 is_stmt 0 view .LVU100
 288 013d E7 5B 01                		mov.L	r11, 4[r5]
 327:../src/smc_gen/r_drw2d_rx/src/tes/dave_intern.h ****    if(handle->dlscratch_cnt <= 0)
 289                             		.loc 2 327 4 is_stmt 1 view .LVU101
 327:../src/smc_gen/r_drw2d_rx/src/tes/dave_intern.h ****    if(handle->dlscratch_cnt <= 0)
 290                             		.loc 2 327 12 is_stmt 0 view .LVU102
 291 0140 ED A5 6F                		mov.L	444[r10], r5
 292                             	.LVL34:
 327:../src/smc_gen/r_drw2d_rx/src/tes/dave_intern.h ****    if(handle->dlscratch_cnt <= 0)
 293                             		.loc 2 327 4 view .LVU103
 294 0143 60 15                   		sub	#1, r5
 295 0145 E7 A5 6F                		mov.L	r5, 444[r10]
 296                             		.loc 2 328 4 is_stmt 1 view .LVU104
 297                             		.loc 2 328 6 is_stmt 0 view .LVU105
 298 0148 61 05                   		cmp	#0, r5
 299 014a 2A 05 38 DF 01          		ble	.L42
 300                             	.LVL35:
 301                             	.L26:
 302                             		.loc 2 328 6 view .LVU106
 303                             	.LBE75:
 304                             	.LBE74:
 312:../src/smc_gen/r_drw2d_rx/src/tes/dave_curve.c ****       D2_DLISTWRITES( D2_L1YADD  + index, b );
 305                             		.loc 1 312 7 is_stmt 1 view .LVU107
 306 014f 71 64 10                		add	#16, r6, r4
 307                             	.LVL36:
 308                             	.LBB79:
 309                             	.LBI79:
 319:../src/smc_gen/r_drw2d_rx/src/tes/dave_intern.h **** {
 310                             		.loc 2 319 23 view .LVU108
 311                             	.LBB80:
 321:../src/smc_gen/r_drw2d_rx/src/tes/dave_intern.h ****    handle->dlscratch_pos++;
 312                             		.loc 2 321 4 view .LVU109
 321:../src/smc_gen/r_drw2d_rx/src/tes/dave_intern.h ****    handle->dlscratch_pos++;
 313                             		.loc 2 321 28 is_stmt 0 view .LVU110
 314 0152 ED A5 6E                		mov.L	440[r10], r5
 315                             	.LVL37:
 322:../src/smc_gen/r_drw2d_rx/src/tes/dave_intern.h **** 
 316                             		.loc 2 322 4 is_stmt 1 view .LVU111
 322:../src/smc_gen/r_drw2d_rx/src/tes/dave_intern.h **** 
 317                             		.loc 2 322 25 is_stmt 0 view .LVU112
 318 0155 71 53 08                		add	#8, r5, r3
 319 0158 E7 A3 6E                		mov.L	r3, 440[r10]
 324:../src/smc_gen/r_drw2d_rx/src/tes/dave_intern.h ****    entry->value = value;
 320                             		.loc 2 324 4 is_stmt 1 view .LVU113
 324:../src/smc_gen/r_drw2d_rx/src/tes/dave_intern.h ****    entry->value = value;
 321                             		.loc 2 324 17 is_stmt 0 view .LVU114
 322 015b E3 54                   		mov.L	r4, [r5]
 325:../src/smc_gen/r_drw2d_rx/src/tes/dave_intern.h **** 
 323                             		.loc 2 325 4 is_stmt 1 view .LVU115
 325:../src/smc_gen/r_drw2d_rx/src/tes/dave_intern.h **** 
 324                             		.loc 2 325 17 is_stmt 0 view .LVU116
 325 015d E7 5C 01                		mov.L	r12, 4[r5]
 327:../src/smc_gen/r_drw2d_rx/src/tes/dave_intern.h ****    if(handle->dlscratch_cnt <= 0)
 326                             		.loc 2 327 4 is_stmt 1 view .LVU117
 327:../src/smc_gen/r_drw2d_rx/src/tes/dave_intern.h ****    if(handle->dlscratch_cnt <= 0)
 327                             		.loc 2 327 12 is_stmt 0 view .LVU118
 328 0160 ED A5 6F                		mov.L	444[r10], r5
 329                             	.LVL38:
 327:../src/smc_gen/r_drw2d_rx/src/tes/dave_intern.h ****    if(handle->dlscratch_cnt <= 0)
 330                             		.loc 2 327 4 view .LVU119
 331 0163 60 15                   		sub	#1, r5
 332 0165 E7 A5 6F                		mov.L	r5, 444[r10]
 333                             		.loc 2 328 4 is_stmt 1 view .LVU120
 334                             		.loc 2 328 6 is_stmt 0 view .LVU121
 335 0168 61 05                   		cmp	#0, r5
 336 016a 2A 05 38 C9 01          		ble	.L43
 337                             	.LVL39:
 338                             	.L27:
 339                             		.loc 2 328 6 view .LVU122
 340                             	.LBE80:
 341                             	.LBE79:
 313:../src/smc_gen/r_drw2d_rx/src/tes/dave_curve.c ****       D2_DLISTWRITES( D2_L2XADD  + index, ir * 2 );
 342                             		.loc 1 313 7 is_stmt 1 view .LVU123
 343 016f 71 64 0B                		add	#11, r6, r4
 344 0172 4B 77                   		add	r7, r7
 345                             	.LVL40:
 346                             	.LBB84:
 347                             	.LBI84:
 319:../src/smc_gen/r_drw2d_rx/src/tes/dave_intern.h **** {
 348                             		.loc 2 319 23 view .LVU124
 349                             	.LBB85:
 321:../src/smc_gen/r_drw2d_rx/src/tes/dave_intern.h ****    handle->dlscratch_pos++;
 350                             		.loc 2 321 4 view .LVU125
 321:../src/smc_gen/r_drw2d_rx/src/tes/dave_intern.h ****    handle->dlscratch_pos++;
 351                             		.loc 2 321 28 is_stmt 0 view .LVU126
 352 0174 ED A5 6E                		mov.L	440[r10], r5
 353                             	.LVL41:
 322:../src/smc_gen/r_drw2d_rx/src/tes/dave_intern.h **** 
 354                             		.loc 2 322 4 is_stmt 1 view .LVU127
 322:../src/smc_gen/r_drw2d_rx/src/tes/dave_intern.h **** 
 355                             		.loc 2 322 25 is_stmt 0 view .LVU128
 356 0177 71 53 08                		add	#8, r5, r3
 357 017a E7 A3 6E                		mov.L	r3, 440[r10]
 324:../src/smc_gen/r_drw2d_rx/src/tes/dave_intern.h ****    entry->value = value;
 358                             		.loc 2 324 4 is_stmt 1 view .LVU129
 324:../src/smc_gen/r_drw2d_rx/src/tes/dave_intern.h ****    entry->value = value;
 359                             		.loc 2 324 17 is_stmt 0 view .LVU130
 360 017d E3 54                   		mov.L	r4, [r5]
 325:../src/smc_gen/r_drw2d_rx/src/tes/dave_intern.h **** 
 361                             		.loc 2 325 4 is_stmt 1 view .LVU131
 325:../src/smc_gen/r_drw2d_rx/src/tes/dave_intern.h **** 
 362                             		.loc 2 325 17 is_stmt 0 view .LVU132
 363 017f A0 5F                   		mov.L	r7, 4[r5]
 327:../src/smc_gen/r_drw2d_rx/src/tes/dave_intern.h ****    if(handle->dlscratch_cnt <= 0)
 364                             		.loc 2 327 4 is_stmt 1 view .LVU133
 327:../src/smc_gen/r_drw2d_rx/src/tes/dave_intern.h ****    if(handle->dlscratch_cnt <= 0)
 365                             		.loc 2 327 12 is_stmt 0 view .LVU134
 366 0181 ED A5 6F                		mov.L	444[r10], r5
 367                             	.LVL42:
 327:../src/smc_gen/r_drw2d_rx/src/tes/dave_intern.h ****    if(handle->dlscratch_cnt <= 0)
 368                             		.loc 2 327 4 view .LVU135
 369 0184 60 15                   		sub	#1, r5
 370 0186 E7 A5 6F                		mov.L	r5, 444[r10]
 371                             		.loc 2 328 4 is_stmt 1 view .LVU136
 372                             		.loc 2 328 6 is_stmt 0 view .LVU137
 373 0189 61 05                   		cmp	#0, r5
 374 018b 2A 05 38 B2 01          		ble	.L44
 375                             	.LVL43:
 376                             	.L28:
 377                             		.loc 2 328 6 view .LVU138
 378                             	.LBE85:
 379                             	.LBE84:
 314:../src/smc_gen/r_drw2d_rx/src/tes/dave_curve.c ****       D2_DLISTWRITES( D2_L2YADD  + index, ir * 2 );
 380                             		.loc 1 314 7 is_stmt 1 view .LVU139
 381 0190 71 66 11                		add	#17, r6
 382                             	.LVL44:
 383                             	.LBB89:
 384                             	.LBI89:
 319:../src/smc_gen/r_drw2d_rx/src/tes/dave_intern.h **** {
 385                             		.loc 2 319 23 view .LVU140
 386                             	.LBB90:
 321:../src/smc_gen/r_drw2d_rx/src/tes/dave_intern.h ****    handle->dlscratch_pos++;
 387                             		.loc 2 321 4 view .LVU141
 321:../src/smc_gen/r_drw2d_rx/src/tes/dave_intern.h ****    handle->dlscratch_pos++;
 388                             		.loc 2 321 28 is_stmt 0 view .LVU142
 389 0193 ED A5 6E                		mov.L	440[r10], r5
 390                             	.LVL45:
 322:../src/smc_gen/r_drw2d_rx/src/tes/dave_intern.h **** 
 391                             		.loc 2 322 4 is_stmt 1 view .LVU143
 322:../src/smc_gen/r_drw2d_rx/src/tes/dave_intern.h **** 
 392                             		.loc 2 322 25 is_stmt 0 view .LVU144
 393 0196 71 54 08                		add	#8, r5, r4
 394 0199 E7 A4 6E                		mov.L	r4, 440[r10]
 324:../src/smc_gen/r_drw2d_rx/src/tes/dave_intern.h ****    entry->value = value;
 395                             		.loc 2 324 4 is_stmt 1 view .LVU145
 324:../src/smc_gen/r_drw2d_rx/src/tes/dave_intern.h ****    entry->value = value;
 396                             		.loc 2 324 17 is_stmt 0 view .LVU146
 397 019c E3 56                   		mov.L	r6, [r5]
 325:../src/smc_gen/r_drw2d_rx/src/tes/dave_intern.h **** 
 398                             		.loc 2 325 4 is_stmt 1 view .LVU147
 325:../src/smc_gen/r_drw2d_rx/src/tes/dave_intern.h **** 
 399                             		.loc 2 325 17 is_stmt 0 view .LVU148
 400 019e A0 5F                   		mov.L	r7, 4[r5]
 327:../src/smc_gen/r_drw2d_rx/src/tes/dave_intern.h ****    if(handle->dlscratch_cnt <= 0)
 401                             		.loc 2 327 4 is_stmt 1 view .LVU149
 327:../src/smc_gen/r_drw2d_rx/src/tes/dave_intern.h ****    if(handle->dlscratch_cnt <= 0)
 402                             		.loc 2 327 12 is_stmt 0 view .LVU150
 403 01a0 ED A7 6F                		mov.L	444[r10], r7
 404                             	.LVL46:
 327:../src/smc_gen/r_drw2d_rx/src/tes/dave_intern.h ****    if(handle->dlscratch_cnt <= 0)
 405                             		.loc 2 327 4 view .LVU151
 406 01a3 60 17                   		sub	#1, r7
 407 01a5 E7 A7 6F                		mov.L	r7, 444[r10]
 408                             	.LVL47:
 409                             		.loc 2 328 4 is_stmt 1 view .LVU152
 410                             		.loc 2 328 6 is_stmt 0 view .LVU153
 411 01a8 61 07                   		cmp	#0, r7
 412 01aa 2A 05 38 9D 01          		ble	.L45
 413                             	.LVL48:
 414 01af 03                      		.balign 8,3,2
 415                             	.L1:
 416                             		.loc 2 328 6 view .LVU154
 417                             	.LBE90:
 418                             	.LBE89:
 315:../src/smc_gen/r_drw2d_rx/src/tes/dave_curve.c ****    }
 316:../src/smc_gen/r_drw2d_rx/src/tes/dave_curve.c ****    else
 317:../src/smc_gen/r_drw2d_rx/src/tes/dave_curve.c ****    {
 318:../src/smc_gen/r_drw2d_rx/src/tes/dave_curve.c ****       D2_DLISTWRITES( D2_L1START + index, -f - band );
 319:../src/smc_gen/r_drw2d_rx/src/tes/dave_curve.c ****       D2_DLISTWRITES( D2_L2START + index, -a ); /* equal l1_xadd */
 320:../src/smc_gen/r_drw2d_rx/src/tes/dave_curve.c ****       D2_DLISTWRITES( D2_L1YADD  + index, -b );
 321:../src/smc_gen/r_drw2d_rx/src/tes/dave_curve.c ****       D2_DLISTWRITES( D2_L2XADD  + index, -ir * 2 );
 322:../src/smc_gen/r_drw2d_rx/src/tes/dave_curve.c ****       D2_DLISTWRITES( D2_L2YADD  + index, -ir * 2 );
 323:../src/smc_gen/r_drw2d_rx/src/tes/dave_curve.c ****    }
 324:../src/smc_gen/r_drw2d_rx/src/tes/dave_curve.c **** }
 419                             		.loc 1 324 1 view .LVU155
 420 01b0 3F 6D 0F                		rtsd	#60, r6-r13
 421                             	.LVL49:
 422                             	.L35:
 423                             	.LBB94:
  99:../src/smc_gen/r_drw2d_rx/src/tes/dave_curve.c ****                    ) 
 424                             		.loc 1 99 22 view .LVU156
 425 01b3 72 45 FF 00             		add	#0xff, r4, r5
 426 01b7 38 C8 FE                		bra	.L5
 427                             	.LVL50:
 428                             	.L36:
 128:../src/smc_gen/r_drw2d_rx/src/tes/dave_curve.c ****              )
 429                             		.loc 1 128 16 view .LVU157
 430 01ba 71 43 0F                		add	#15, r4, r3
 431 01bd FD 74 25 00             		adc	#0, r5
 432 01c1 EF 34                   		mov.L	r3, r4
 433 01c3 38 DF FE                		bra	.L6
 434                             	.L37:
 138:../src/smc_gen/r_drw2d_rx/src/tes/dave_curve.c **** #else
 435                             		.loc 1 138 27 view .LVU158
 436 01c6 72 47 FF 00             		add	#0xff, r4, r7
 437 01ca FD 74 25 00             		adc	#0, r5
 438 01ce EF 74                   		mov.L	r7, r4
 439 01d0 38 FB FE                		bra	.L8
 440                             	.LVL51:
 441                             	.L38:
 162:../src/smc_gen/r_drw2d_rx/src/tes/dave_curve.c **** #else
 442                             		.loc 1 162 29 view .LVU159
 443 01d3 72 14 FF 0F             		add	#0xfff, r1, r4
 444 01d7 FD 74 22 00             		adc	#0, r2
 445                             	.LVL52:
 162:../src/smc_gen/r_drw2d_rx/src/tes/dave_curve.c **** #else
 446                             		.loc 1 162 29 view .LVU160
 447 01db EF 41                   		mov.L	r4, r1
 162:../src/smc_gen/r_drw2d_rx/src/tes/dave_curve.c **** #else
 448                             		.loc 1 162 29 view .LVU161
 449 01dd 38 FB FE                		bra	.L10
 450                             	.LVL53:
 451                             	.L39:
 167:../src/smc_gen/r_drw2d_rx/src/tes/dave_curve.c ****          b = ((16 - (y * 2)) * ir) / (1 << 4);           /* (1 - 2y) * ir */ 
 452                             		.loc 1 167 12 view .LVU162
 453 01e0 71 1B 0F                		add	#15, r1, r11
 454 01e3 38 0F FF                		bra	.L12
 455                             	.LVL54:
 456                             	.L40:
 168:../src/smc_gen/r_drw2d_rx/src/tes/dave_curve.c ****         
 457                             		.loc 1 168 12 view .LVU163
 458 01e6 71 9C 0F                		add	#15, r9, r12
 459 01e9 38 1C FF                		bra	.L13
 460                             	.LVL55:
 461                             	.L4:
 168:../src/smc_gen/r_drw2d_rx/src/tes/dave_curve.c ****         
 462                             		.loc 1 168 12 view .LVU164
 463                             	.LBE94:
 464                             	.LBB95:
 173:../src/smc_gen/r_drw2d_rx/src/tes/dave_curve.c **** #ifdef _NO_LL_
 465                             		.loc 1 173 10 is_stmt 1 view .LVU165
 178:../src/smc_gen/r_drw2d_rx/src/tes/dave_curve.c ****          ib = ctx->invblur;  
 466                             		.loc 1 178 10 view .LVU166
 179:../src/smc_gen/r_drw2d_rx/src/tes/dave_curve.c **** 
 467                             		.loc 1 179 10 view .LVU167
 179:../src/smc_gen/r_drw2d_rx/src/tes/dave_curve.c **** 
 468                             		.loc 1 179 13 is_stmt 0 view .LVU168
 469 01ec ED 23 44                		mov.L	272[r2], r3
 470                             	.LVL56:
 182:../src/smc_gen/r_drw2d_rx/src/tes/dave_curve.c ****             (
 471                             		.loc 1 182 10 is_stmt 1 view .LVU169
 193:../src/smc_gen/r_drw2d_rx/src/tes/dave_curve.c ****                 )
 472                             		.loc 1 193 19 is_stmt 0 view .LVU170
 473 01ef DF B5                   		mov.W	r11, r5
 474 01f1 FB 12 00 00 00 F8       		mov.L	#-134217728, r1
 475                             	.LVL57:
 193:../src/smc_gen/r_drw2d_rx/src/tes/dave_curve.c ****                 )
 476                             		.loc 1 193 19 view .LVU171
 477 01f7 FC 23 51                		div	r5, r1
 195:../src/smc_gen/r_drw2d_rx/src/tes/dave_curve.c ****              )
 478                             		.loc 1 195 16 view .LVU172
 479 01fa 6C 61                   		shll	#6, r1
 182:../src/smc_gen/r_drw2d_rx/src/tes/dave_curve.c ****             (
 480                             		.loc 1 182 13 view .LVU173
 481 01fc 06 61 08 21 0A          		div	20[r2].W, r1
 482                             	.LVL58:
 199:../src/smc_gen/r_drw2d_rx/src/tes/dave_curve.c ****             (
 483                             		.loc 1 199 10 is_stmt 1 view .LVU174
 204:../src/smc_gen/r_drw2d_rx/src/tes/dave_curve.c ****                       )
 484                             		.loc 1 204 28 is_stmt 0 view .LVU175
 485 0201 DF 77                   		mov.W	r7, r7
 486                             	.LVL59:
 204:../src/smc_gen/r_drw2d_rx/src/tes/dave_curve.c ****                       )
 487                             		.loc 1 204 28 view .LVU176
 488 0203 FF 34 77                		mul	r7, r7, r4
 204:../src/smc_gen/r_drw2d_rx/src/tes/dave_curve.c ****                       )
 489                             		.loc 1 204 38 view .LVU177
 490 0206 DF CC                   		mov.W	r12, r12
 491                             	.LVL60:
 204:../src/smc_gen/r_drw2d_rx/src/tes/dave_curve.c ****                       )
 492                             		.loc 1 204 38 view .LVU178
 493 0208 FF 35 CC                		mul	r12, r12, r5
 204:../src/smc_gen/r_drw2d_rx/src/tes/dave_curve.c ****                       )
 494                             		.loc 1 204 33 view .LVU179
 495 020b 4B 54                   		add	r5, r4
 206:../src/smc_gen/r_drw2d_rx/src/tes/dave_curve.c ****                    )
 496                             		.loc 1 206 22 view .LVU180
 497 020d EF 45                   		mov.L	r4, r5
 498 020f 27 59                   		bn	.L46
 499                             	.L15:
 500 0211 FD A8 5E                		shar	#8, r5, r14
 501 0214 FD BF 54                		shar	#31, r5, r4
 208:../src/smc_gen/r_drw2d_rx/src/tes/dave_curve.c ****                 )
 502                             		.loc 1 208 21 view .LVU181
 503 0217 FD BF 15                		shar	#31, r1, r5
 208:../src/smc_gen/r_drw2d_rx/src/tes/dave_curve.c ****                 )
 504                             		.loc 1 208 19 view .LVU182
 505 021a 4F 14                   		mul	r1, r4
 506 021c 4F E5                   		mul	r14, r5
 507 021e 4B 54                   		add	r5, r4
 508 0220 FC 1F 1E                		emulu	r1, r14
 509 0223 4B F4                   		add	r15, r4
 210:../src/smc_gen/r_drw2d_rx/src/tes/dave_curve.c ****              ) 
 510                             		.loc 1 210 16 view .LVU183
 511 0225 27 49                   		bn	.L47
 512                             	.LVL61:
 513                             	.L16:
 210:../src/smc_gen/r_drw2d_rx/src/tes/dave_curve.c ****              ) 
 514                             		.loc 1 210 16 view .LVU184
 515 0227 6D C4                   		shll	#28, r4
 516 0229 68 4E                   		shlr	#4, r14
 517 022b 57 4E                   		or	r4, r14
 216:../src/smc_gen/r_drw2d_rx/src/tes/dave_curve.c ****                    )
 518                             		.loc 1 216 25 view .LVU185
 519 022d DF BB                   		mov.W	r11, r11
 520                             	.LVL62:
 216:../src/smc_gen/r_drw2d_rx/src/tes/dave_curve.c ****                    )
 521                             		.loc 1 216 25 view .LVU186
 522 022f FD 9F B2                		shlr	#31, r11, r2
 523 0232 4B B2                   		add	r11, r2
 524 0234 6A 12                   		shar	#1, r2
 216:../src/smc_gen/r_drw2d_rx/src/tes/dave_curve.c ****                    )
 525                             		.loc 1 216 36 view .LVU187
 526 0236 4B C7                   		add	r12, r7
 216:../src/smc_gen/r_drw2d_rx/src/tes/dave_curve.c ****                    )
 527                             		.loc 1 216 30 view .LVU188
 528 0238 4B 72                   		add	r7, r2
 218:../src/smc_gen/r_drw2d_rx/src/tes/dave_curve.c ****                 )
 529                             		.loc 1 218 19 view .LVU189
 530 023a FC 1F 32                		emulu	r3, r2
 220:../src/smc_gen/r_drw2d_rx/src/tes/dave_curve.c ****              );      /* (x²+y²-r²) * ir */
 531                             		.loc 1 220 16 view .LVU190
 532 023d FF 27 22                		add	r2, r2, r7
 533 0240 FF 25 77                		add	r7, r7, r5
 199:../src/smc_gen/r_drw2d_rx/src/tes/dave_curve.c ****             (
 534                             		.loc 1 199 14 view .LVU191
 535 0243 FF 05 5E                		sub	r5, r14, r5
 536                             	.LVL63:
 230:../src/smc_gen/r_drw2d_rx/src/tes/dave_curve.c ****          a = ((16 - (x * 2)) * (d2_s32)ir) / (1 << (4 + 0));          /* (1 - 2x) * ir */  
 537                             		.loc 1 230 10 is_stmt 1 view .LVU192
 230:../src/smc_gen/r_drw2d_rx/src/tes/dave_curve.c ****          a = ((16 - (x * 2)) * (d2_s32)ir) / (1 << (4 + 0));          /* (1 - 2x) * ir */  
 538                             		.loc 1 230 13 is_stmt 0 view .LVU193
 539 0246 FD A4 17                		shar	#4, r1, r7
 540                             	.LVL64:
 231:../src/smc_gen/r_drw2d_rx/src/tes/dave_curve.c ****          b = ((16 - (y * 2)) * (d2_s32)ir) / (1 << (4 + 0));          /* (1 - 2y) * ir */ 
 541                             		.loc 1 231 10 is_stmt 1 view .LVU194
 231:../src/smc_gen/r_drw2d_rx/src/tes/dave_curve.c ****          b = ((16 - (y * 2)) * (d2_s32)ir) / (1 << (4 + 0));          /* (1 - 2y) * ir */ 
 542                             		.loc 1 231 19 is_stmt 0 view .LVU195
 543 0249 DF 88                   		mov.W	r8, r8
 544                             	.LVL65:
 231:../src/smc_gen/r_drw2d_rx/src/tes/dave_curve.c ****          b = ((16 - (y * 2)) * (d2_s32)ir) / (1 << (4 + 0));          /* (1 - 2y) * ir */ 
 545                             		.loc 1 231 19 view .LVU196
 546 024b 66 8B                   		mov.L	#8, r11
 547 024d 43 8B                   		sub	r8, r11
 231:../src/smc_gen/r_drw2d_rx/src/tes/dave_curve.c ****          b = ((16 - (y * 2)) * (d2_s32)ir) / (1 << (4 + 0));          /* (1 - 2y) * ir */ 
 548                             		.loc 1 231 30 view .LVU197
 549 024f 4F 7B                   		mul	r7, r11
 231:../src/smc_gen/r_drw2d_rx/src/tes/dave_curve.c ****          b = ((16 - (y * 2)) * (d2_s32)ir) / (1 << (4 + 0));          /* (1 - 2y) * ir */ 
 550                             		.loc 1 231 12 view .LVU198
 551 0251 61 0B                   		cmp	#0, r11
 552 0253 29 26                   		blt	.L48
 553                             	.L18:
 554 0255 6A 3B                   		shar	#3, r11
 555                             	.LVL66:
 232:../src/smc_gen/r_drw2d_rx/src/tes/dave_curve.c **** #ifndef _NO_LL_
 556                             		.loc 1 232 10 is_stmt 1 view .LVU199
 232:../src/smc_gen/r_drw2d_rx/src/tes/dave_curve.c **** #ifndef _NO_LL_
 557                             		.loc 1 232 19 is_stmt 0 view .LVU200
 558 0257 DF 99                   		mov.W	r9, r9
 559                             	.LVL67:
 232:../src/smc_gen/r_drw2d_rx/src/tes/dave_curve.c **** #ifndef _NO_LL_
 560                             		.loc 1 232 19 view .LVU201
 561 0259 66 8C                   		mov.L	#8, r12
 562 025b 43 9C                   		sub	r9, r12
 232:../src/smc_gen/r_drw2d_rx/src/tes/dave_curve.c **** #ifndef _NO_LL_
 563                             		.loc 1 232 30 view .LVU202
 564 025d 4F 7C                   		mul	r7, r12
 232:../src/smc_gen/r_drw2d_rx/src/tes/dave_curve.c **** #ifndef _NO_LL_
 565                             		.loc 1 232 12 view .LVU203
 566 025f 61 0C                   		cmp	#0, r12
 567 0261 29 1C                   		blt	.L49
 568                             	.L19:
 569 0263 6A 3C                   		shar	#3, r12
 570                             	.LVL68:
 234:../src/smc_gen/r_drw2d_rx/src/tes/dave_curve.c **** #else
 571                             		.loc 1 234 10 is_stmt 1 view .LVU204
 234:../src/smc_gen/r_drw2d_rx/src/tes/dave_curve.c **** #else
 572                             		.loc 1 234 10 is_stmt 0 view .LVU205
 573 0265 38 A3 FE                		bra	.L14
 574                             	.LVL69:
 575                             	.L46:
 206:../src/smc_gen/r_drw2d_rx/src/tes/dave_curve.c ****                    )
 576                             		.loc 1 206 22 view .LVU206
 577 0268 72 45 FF 00             		add	#0xff, r4, r5
 578 026c 2E A5                   		bra	.L15
 579                             	.L47:
 210:../src/smc_gen/r_drw2d_rx/src/tes/dave_curve.c ****              ) 
 580                             		.loc 1 210 16 view .LVU207
 581 026e 71 E2 0F                		add	#15, r14, r2
 582                             	.LVL70:
 210:../src/smc_gen/r_drw2d_rx/src/tes/dave_curve.c ****              ) 
 583                             		.loc 1 210 16 view .LVU208
 584 0271 FD 74 24 00             		adc	#0, r4
 585 0275 EF 2E                   		mov.L	r2, r14
 586 0277 2E B0                   		bra	.L16
 587                             	.LVL71:
 588                             	.L48:
 231:../src/smc_gen/r_drw2d_rx/src/tes/dave_curve.c ****          b = ((16 - (y * 2)) * (d2_s32)ir) / (1 << (4 + 0));          /* (1 - 2y) * ir */ 
 589                             		.loc 1 231 12 view .LVU209
 590 0279 62 7B                   		add	#7, r11
 591 027b 2E DA                   		bra	.L18
 592                             	.LVL72:
 593                             	.L49:
 232:../src/smc_gen/r_drw2d_rx/src/tes/dave_curve.c **** #ifndef _NO_LL_
 594                             		.loc 1 232 12 view .LVU210
 595 027d 62 7C                   		add	#7, r12
 596 027f 2E E4                   		bra	.L19
 597                             	.LVL73:
 598                             	.L2:
 232:../src/smc_gen/r_drw2d_rx/src/tes/dave_curve.c **** #ifndef _NO_LL_
 599                             		.loc 1 232 12 view .LVU211
 600                             	.LBE95:
 244:../src/smc_gen/r_drw2d_rx/src/tes/dave_curve.c ****       {
 601                             		.loc 1 244 7 is_stmt 1 view .LVU212
 244:../src/smc_gen/r_drw2d_rx/src/tes/dave_curve.c ****       {
 602                             		.loc 1 244 12 is_stmt 0 view .LVU213
 603 0281 FF 55 C7                		or	r12, r7, r5
 244:../src/smc_gen/r_drw2d_rx/src/tes/dave_curve.c ****       {
 604                             		.loc 1 244 9 view .LVU214
 605 0284 DF 55                   		mov.W	r5, r5
 606 0286 61 05                   		cmp	#0, r5
 607 0288 21 2A                   		bne	.L20
 247:../src/smc_gen/r_drw2d_rx/src/tes/dave_curve.c ****             (
 608                             		.loc 1 247 10 is_stmt 1 view .LVU215
 255:../src/smc_gen/r_drw2d_rx/src/tes/dave_curve.c ****          f = (-r) * (1 << (16 - 4 - 1));
 609                             		.loc 1 255 13 is_stmt 0 view .LVU216
 610 028a DF B4                   		mov.W	r11, r4
 247:../src/smc_gen/r_drw2d_rx/src/tes/dave_curve.c ****             (
 611                             		.loc 1 247 13 view .LVU217
 612 028c FB 7E 00 00 F8          		mov.L	#-524288, r7
 613                             	.LVL74:
 247:../src/smc_gen/r_drw2d_rx/src/tes/dave_curve.c ****             (
 614                             		.loc 1 247 13 view .LVU218
 615 0291 FC 23 47                		div	r4, r7
 616                             	.LVL75:
 256:../src/smc_gen/r_drw2d_rx/src/tes/dave_curve.c ****          a = b = ((16 - (r * 2)) * ir) / 16;
 617                             		.loc 1 256 10 is_stmt 1 view .LVU219
 256:../src/smc_gen/r_drw2d_rx/src/tes/dave_curve.c ****          a = b = ((16 - (r * 2)) * ir) / 16;
 618                             		.loc 1 256 12 is_stmt 0 view .LVU220
 619 0294 FB 5A 00 F8             		mov.L	#-2048, r5
 620 0298 4F 45                   		mul	r4, r5
 621                             	.LVL76:
 257:../src/smc_gen/r_drw2d_rx/src/tes/dave_curve.c ****       }
 622                             		.loc 1 257 10 is_stmt 1 view .LVU221
 257:../src/smc_gen/r_drw2d_rx/src/tes/dave_curve.c ****       }
 623                             		.loc 1 257 23 is_stmt 0 view .LVU222
 624 029a 66 8B                   		mov.L	#8, r11
 625                             	.LVL77:
 257:../src/smc_gen/r_drw2d_rx/src/tes/dave_curve.c ****       }
 626                             		.loc 1 257 23 view .LVU223
 627 029c 43 4B                   		sub	r4, r11
 257:../src/smc_gen/r_drw2d_rx/src/tes/dave_curve.c ****       }
 628                             		.loc 1 257 34 view .LVU224
 629 029e 4F 7B                   		mul	r7, r11
 630 02a0 4B BB                   		add	r11, r11
 257:../src/smc_gen/r_drw2d_rx/src/tes/dave_curve.c ****       }
 631                             		.loc 1 257 16 view .LVU225
 632 02a2 EF BC                   		mov.L	r11, r12
 633                             	.LVL78:
 257:../src/smc_gen/r_drw2d_rx/src/tes/dave_curve.c ****       }
 634                             		.loc 1 257 16 view .LVU226
 635 02a4 27 09                   		bn	.L50
 636                             	.L21:
 637 02a6 6A 4C                   		shar	#4, r12
 638 02a8 EF CB                   		mov.L	r12, r11
 639                             	.LVL79:
 257:../src/smc_gen/r_drw2d_rx/src/tes/dave_curve.c ****       }
 640                             		.loc 1 257 16 view .LVU227
 641 02aa 38 5E FE                		bra	.L14
 642                             	.LVL80:
 643                             	.L50:
 257:../src/smc_gen/r_drw2d_rx/src/tes/dave_curve.c ****       }
 644                             		.loc 1 257 16 view .LVU228
 645 02ad 71 BC 0F                		add	#15, r11, r12
 646 02b0 2E F6                   		bra	.L21
 647                             	.LVL81:
 648                             	.L20:
 649                             	.LBB96:
 261:../src/smc_gen/r_drw2d_rx/src/tes/dave_curve.c ****          /*d2_int64 ftXXX;*/
 650                             		.loc 1 261 10 is_stmt 1 view .LVU229
 263:../src/smc_gen/r_drw2d_rx/src/tes/dave_curve.c **** #ifdef _NO_LL_
 651                             		.loc 1 263 10 view .LVU230
 268:../src/smc_gen/r_drw2d_rx/src/tes/dave_curve.c ****             (
 652                             		.loc 1 268 10 view .LVU231
 274:../src/smc_gen/r_drw2d_rx/src/tes/dave_curve.c ****          xq = xr * xr;
 653                             		.loc 1 274 13 is_stmt 0 view .LVU232
 654 02b2 DF BB                   		mov.W	r11, r11
 268:../src/smc_gen/r_drw2d_rx/src/tes/dave_curve.c ****             (
 655                             		.loc 1 268 13 view .LVU233
 656 02b4 FB 2E 00 00 C0          		mov.L	#-4194304, r2
 657                             	.LVL82:
 268:../src/smc_gen/r_drw2d_rx/src/tes/dave_curve.c ****             (
 658                             		.loc 1 268 13 view .LVU234
 659 02b9 FC 23 B2                		div	r11, r2
 660                             	.LVL83:
 275:../src/smc_gen/r_drw2d_rx/src/tes/dave_curve.c ****          yq = yr * yr;
 661                             		.loc 1 275 10 is_stmt 1 view .LVU235
 275:../src/smc_gen/r_drw2d_rx/src/tes/dave_curve.c ****          yq = yr * yr;
 662                             		.loc 1 275 18 is_stmt 0 view .LVU236
 663 02bc DF 77                   		mov.W	r7, r7
 664                             	.LVL84:
 275:../src/smc_gen/r_drw2d_rx/src/tes/dave_curve.c ****          yq = yr * yr;
 665                             		.loc 1 275 13 view .LVU237
 666 02be FF 34 77                		mul	r7, r7, r4
 667                             	.LVL85:
 276:../src/smc_gen/r_drw2d_rx/src/tes/dave_curve.c **** 
 668                             		.loc 1 276 10 is_stmt 1 view .LVU238
 276:../src/smc_gen/r_drw2d_rx/src/tes/dave_curve.c **** 
 669                             		.loc 1 276 18 is_stmt 0 view .LVU239
 670 02c1 DF CC                   		mov.W	r12, r12
 671                             	.LVL86:
 276:../src/smc_gen/r_drw2d_rx/src/tes/dave_curve.c **** 
 672                             		.loc 1 276 13 view .LVU240
 673 02c3 FF 35 CC                		mul	r12, r12, r5
 674                             	.LVL87:
 284:../src/smc_gen/r_drw2d_rx/src/tes/dave_curve.c ****          /*ft = ((xq + yq) * (d2_int64)ir) / (1 << (8 + TWEAK));*/  /* test_renderpolyline2 fails *
 675                             		.loc 1 284 10 is_stmt 1 view .LVU241
 284:../src/smc_gen/r_drw2d_rx/src/tes/dave_curve.c ****          /*ft = ((xq + yq) * (d2_int64)ir) / (1 << (8 + TWEAK));*/  /* test_renderpolyline2 fails *
 676                             		.loc 1 284 20 is_stmt 0 view .LVU242
 677 02c6 4B 54                   		add	r5, r4
 678                             	.LVL88:
 284:../src/smc_gen/r_drw2d_rx/src/tes/dave_curve.c ****          /*ft = ((xq + yq) * (d2_int64)ir) / (1 << (8 + TWEAK));*/  /* test_renderpolyline2 fails *
 679                             		.loc 1 284 20 view .LVU243
 680 02c8 FD BF 43                		shar	#31, r4, r3
 681                             	.LVL89:
 284:../src/smc_gen/r_drw2d_rx/src/tes/dave_curve.c ****          /*ft = ((xq + yq) * (d2_int64)ir) / (1 << (8 + TWEAK));*/  /* test_renderpolyline2 fails *
 682                             		.loc 1 284 28 view .LVU244
 683 02cb FD BF 25                		shar	#31, r2, r5
 684                             	.LVL90:
 284:../src/smc_gen/r_drw2d_rx/src/tes/dave_curve.c ****          /*ft = ((xq + yq) * (d2_int64)ir) / (1 << (8 + TWEAK));*/  /* test_renderpolyline2 fails *
 685                             		.loc 1 284 26 view .LVU245
 686 02ce 4F 23                   		mul	r2, r3
 687 02d0 4F 45                   		mul	r4, r5
 688 02d2 4B 53                   		add	r5, r3
 689 02d4 FC 1F 24                		emulu	r2, r4
 690 02d7 4B 35                   		add	r3, r5
 284:../src/smc_gen/r_drw2d_rx/src/tes/dave_curve.c ****          /*ft = ((xq + yq) * (d2_int64)ir) / (1 << (8 + TWEAK));*/  /* test_renderpolyline2 fails *
 691                             		.loc 1 284 13 view .LVU246
 692 02d9 6D 55                   		shll	#21, r5
 693 02db 68 B4                   		shlr	#11, r4
 694 02dd 57 54                   		or	r5, r4
 695                             	.LVL91:
 293:../src/smc_gen/r_drw2d_rx/src/tes/dave_curve.c **** #else
 696                             		.loc 1 293 10 is_stmt 1 view .LVU247
 293:../src/smc_gen/r_drw2d_rx/src/tes/dave_curve.c **** #else
 697                             		.loc 1 293 32 is_stmt 0 view .LVU248
 698 02df FD 9F B3                		shlr	#31, r11, r3
 699 02e2 4B B3                   		add	r11, r3
 700 02e4 6A 13                   		shar	#1, r3
 293:../src/smc_gen/r_drw2d_rx/src/tes/dave_curve.c **** #else
 701                             		.loc 1 293 43 view .LVU249
 702 02e6 4B C7                   		add	r12, r7
 703                             	.LVL92:
 293:../src/smc_gen/r_drw2d_rx/src/tes/dave_curve.c **** #else
 704                             		.loc 1 293 37 view .LVU250
 705 02e8 4B 73                   		add	r7, r3
 293:../src/smc_gen/r_drw2d_rx/src/tes/dave_curve.c **** #else
 706                             		.loc 1 293 50 view .LVU251
 707 02ea 6C C3                   		shll	#12, r3
 293:../src/smc_gen/r_drw2d_rx/src/tes/dave_curve.c **** #else
 708                             		.loc 1 293 12 view .LVU252
 709 02ec FF 05 34                		sub	r3, r4, r5
 710                             	.LVL93:
 300:../src/smc_gen/r_drw2d_rx/src/tes/dave_curve.c ****          a = ((16 - (x * 2)) * ir) / (1 << 4);
 711                             		.loc 1 300 10 is_stmt 1 view .LVU253
 300:../src/smc_gen/r_drw2d_rx/src/tes/dave_curve.c ****          a = ((16 - (x * 2)) * ir) / (1 << 4);
 712                             		.loc 1 300 13 is_stmt 0 view .LVU254
 713 02ef FD A3 27                		shar	#3, r2, r7
 714                             	.LVL94:
 301:../src/smc_gen/r_drw2d_rx/src/tes/dave_curve.c ****          b = ((16 - (y * 2)) * ir) / (1 << 4);
 715                             		.loc 1 301 10 is_stmt 1 view .LVU255
 301:../src/smc_gen/r_drw2d_rx/src/tes/dave_curve.c ****          b = ((16 - (y * 2)) * ir) / (1 << 4);
 716                             		.loc 1 301 19 is_stmt 0 view .LVU256
 717 02f2 DF 88                   		mov.W	r8, r8
 718                             	.LVL95:
 301:../src/smc_gen/r_drw2d_rx/src/tes/dave_curve.c ****          b = ((16 - (y * 2)) * ir) / (1 << 4);
 719                             		.loc 1 301 19 view .LVU257
 720 02f4 66 84                   		mov.L	#8, r4
 301:../src/smc_gen/r_drw2d_rx/src/tes/dave_curve.c ****          b = ((16 - (y * 2)) * ir) / (1 << 4);
 721                             		.loc 1 301 19 view .LVU258
 722 02f6 FF 08 84                		sub	r8, r4, r8
 723                             	.LVL96:
 301:../src/smc_gen/r_drw2d_rx/src/tes/dave_curve.c ****          b = ((16 - (y * 2)) * ir) / (1 << 4);
 724                             		.loc 1 301 30 view .LVU259
 725 02f9 4F 78                   		mul	r7, r8
 726 02fb 4B 88                   		add	r8, r8
 301:../src/smc_gen/r_drw2d_rx/src/tes/dave_curve.c ****          b = ((16 - (y * 2)) * ir) / (1 << 4);
 727                             		.loc 1 301 12 view .LVU260
 728 02fd EF 8B                   		mov.L	r8, r11
 729 02ff 27 18                   		bn	.L51
 730                             	.L22:
 731 0301 6A 4B                   		shar	#4, r11
 732                             	.LVL97:
 302:../src/smc_gen/r_drw2d_rx/src/tes/dave_curve.c ****       }
 733                             		.loc 1 302 10 is_stmt 1 view .LVU261
 302:../src/smc_gen/r_drw2d_rx/src/tes/dave_curve.c ****       }
 734                             		.loc 1 302 19 is_stmt 0 view .LVU262
 735 0303 DF 99                   		mov.W	r9, r9
 736                             	.LVL98:
 302:../src/smc_gen/r_drw2d_rx/src/tes/dave_curve.c ****       }
 737                             		.loc 1 302 19 view .LVU263
 738 0305 66 84                   		mov.L	#8, r4
 739 0307 FF 09 94                		sub	r9, r4, r9
 302:../src/smc_gen/r_drw2d_rx/src/tes/dave_curve.c ****       }
 740                             		.loc 1 302 30 view .LVU264
 741 030a 4F 79                   		mul	r7, r9
 742 030c 4B 99                   		add	r9, r9
 302:../src/smc_gen/r_drw2d_rx/src/tes/dave_curve.c ****       }
 743                             		.loc 1 302 12 view .LVU265
 744 030e EF 9C                   		mov.L	r9, r12
 745                             	.LVL99:
 302:../src/smc_gen/r_drw2d_rx/src/tes/dave_curve.c ****       }
 746                             		.loc 1 302 12 view .LVU266
 747 0310 27 0C                   		bn	.L52
 748                             	.L23:
 749 0312 6A 4C                   		shar	#4, r12
 750                             	.LVL100:
 302:../src/smc_gen/r_drw2d_rx/src/tes/dave_curve.c ****       }
 751                             		.loc 1 302 12 view .LVU267
 752 0314 38 F4 FD                		bra	.L14
 753                             	.LVL101:
 754                             	.L51:
 301:../src/smc_gen/r_drw2d_rx/src/tes/dave_curve.c ****          b = ((16 - (y * 2)) * ir) / (1 << 4);
 755                             		.loc 1 301 12 view .LVU268
 756 0317 71 8B 0F                		add	#15, r8, r11
 757 031a 2E E7                   		bra	.L22
 758                             	.LVL102:
 759                             	.L52:
 302:../src/smc_gen/r_drw2d_rx/src/tes/dave_curve.c ****       }
 760                             		.loc 1 302 12 view .LVU269
 761 031c 71 9C 0F                		add	#15, r9, r12
 762 031f 2E F3                   		bra	.L23
 763                             	.LVL103:
 764                             	.L41:
 302:../src/smc_gen/r_drw2d_rx/src/tes/dave_curve.c ****       }
 765                             		.loc 1 302 12 view .LVU270
 766                             	.LBE96:
 767                             	.LBB97:
 768                             	.LBB73:
 769                             	.LBB71:
 770                             	.LBI71:
 319:../src/smc_gen/r_drw2d_rx/src/tes/dave_intern.h **** {
 771                             		.loc 2 319 23 is_stmt 1 view .LVU271
 772                             	.LBB72:
 329:../src/smc_gen/r_drw2d_rx/src/tes/dave_intern.h ****    {
 330:../src/smc_gen/r_drw2d_rx/src/tes/dave_intern.h ****       handle->dlscratch_hook( (d2_device*) handle );
 773                             		.loc 2 330 7 view .LVU272
 774                             		.loc 2 330 13 is_stmt 0 view .LVU273
 775 0321 ED A5 70                		mov.L	448[r10], r5
 776                             		.loc 2 330 7 view .LVU274
 777 0324 EF A1                   		mov.L	r10, r1
 778 0326 7F 15                   		jsr	r5
 779                             	.LVL104:
 780                             		.loc 2 330 7 view .LVU275
 781 0328 38 07 FE                		bra	.L25
 782                             	.LVL105:
 783                             	.L42:
 784                             		.loc 2 330 7 view .LVU276
 785                             	.LBE72:
 786                             	.LBE71:
 787                             	.LBE73:
 788                             	.LBE97:
 789                             	.LBB98:
 790                             	.LBB78:
 791                             	.LBB76:
 792                             	.LBI76:
 319:../src/smc_gen/r_drw2d_rx/src/tes/dave_intern.h **** {
 793                             		.loc 2 319 23 is_stmt 1 view .LVU277
 794                             	.LBB77:
 795                             		.loc 2 330 7 view .LVU278
 796                             		.loc 2 330 13 is_stmt 0 view .LVU279
 797 032b ED A5 70                		mov.L	448[r10], r5
 798                             		.loc 2 330 7 view .LVU280
 799 032e EF A1                   		mov.L	r10, r1
 800 0330 7F 15                   		jsr	r5
 801                             	.LVL106:
 802                             		.loc 2 330 7 view .LVU281
 803 0332 38 1D FE                		bra	.L26
 804                             	.LVL107:
 805                             	.L43:
 806                             		.loc 2 330 7 view .LVU282
 807                             	.LBE77:
 808                             	.LBE76:
 809                             	.LBE78:
 810                             	.LBE98:
 811                             	.LBB99:
 812                             	.LBB83:
 813                             	.LBB81:
 814                             	.LBI81:
 319:../src/smc_gen/r_drw2d_rx/src/tes/dave_intern.h **** {
 815                             		.loc 2 319 23 is_stmt 1 view .LVU283
 816                             	.LBB82:
 817                             		.loc 2 330 7 view .LVU284
 818                             		.loc 2 330 13 is_stmt 0 view .LVU285
 819 0335 ED A5 70                		mov.L	448[r10], r5
 820                             		.loc 2 330 7 view .LVU286
 821 0338 EF A1                   		mov.L	r10, r1
 822 033a 7F 15                   		jsr	r5
 823                             	.LVL108:
 824                             		.loc 2 330 7 view .LVU287
 825 033c 38 33 FE                		bra	.L27
 826                             	.LVL109:
 827                             	.L44:
 828                             		.loc 2 330 7 view .LVU288
 829                             	.LBE82:
 830                             	.LBE81:
 831                             	.LBE83:
 832                             	.LBE99:
 833                             	.LBB100:
 834                             	.LBB88:
 835                             	.LBB86:
 836                             	.LBI86:
 319:../src/smc_gen/r_drw2d_rx/src/tes/dave_intern.h **** {
 837                             		.loc 2 319 23 is_stmt 1 view .LVU289
 838                             	.LBB87:
 839                             		.loc 2 330 7 view .LVU290
 840                             		.loc 2 330 13 is_stmt 0 view .LVU291
 841 033f ED A5 70                		mov.L	448[r10], r5
 842                             		.loc 2 330 7 view .LVU292
 843 0342 EF A1                   		mov.L	r10, r1
 844 0344 7F 15                   		jsr	r5
 845                             	.LVL110:
 846                             		.loc 2 330 7 view .LVU293
 847 0346 38 4A FE                		bra	.L28
 848                             	.LVL111:
 849                             	.L45:
 850                             		.loc 2 330 7 view .LVU294
 851                             	.LBE87:
 852                             	.LBE86:
 853                             	.LBE88:
 854                             	.LBE100:
 855                             	.LBB101:
 856                             	.LBB93:
 857                             	.LBB91:
 858                             	.LBI91:
 319:../src/smc_gen/r_drw2d_rx/src/tes/dave_intern.h **** {
 859                             		.loc 2 319 23 is_stmt 1 view .LVU295
 860                             	.LBB92:
 861                             		.loc 2 330 7 view .LVU296
 862                             		.loc 2 330 13 is_stmt 0 view .LVU297
 863 0349 ED A7 70                		mov.L	448[r10], r7
 864                             		.loc 2 330 7 view .LVU298
 865 034c EF A1                   		mov.L	r10, r1
 866 034e 7F 17                   		jsr	r7
 867                             	.LVL112:
 868                             		.loc 2 330 7 view .LVU299
 869 0350 38 60 FE                		bra	.L1
 870                             	.LVL113:
 871                             	.L24:
 872                             		.loc 2 330 7 view .LVU300
 873                             	.LBE92:
 874                             	.LBE91:
 875                             	.LBE93:
 876                             	.LBE101:
 318:../src/smc_gen/r_drw2d_rx/src/tes/dave_curve.c ****       D2_DLISTWRITES( D2_L2START + index, -a ); /* equal l1_xadd */
 877                             		.loc 1 318 7 is_stmt 1 view .LVU301
 878 0353 71 63 04                		add	#4, r6, r3
 879 0356 7E 15                   		neg	r5
 880                             	.LVL114:
 318:../src/smc_gen/r_drw2d_rx/src/tes/dave_curve.c ****       D2_DLISTWRITES( D2_L2START + index, -a ); /* equal l1_xadd */
 881                             		.loc 1 318 7 is_stmt 0 view .LVU302
 882 0358 EC 04                   		mov.L	[r0], r4
 883 035a 43 45                   		sub	r4, r5
 884                             	.LVL115:
 885                             	.LBB102:
 886                             	.LBI102:
 319:../src/smc_gen/r_drw2d_rx/src/tes/dave_intern.h **** {
 887                             		.loc 2 319 23 is_stmt 1 view .LVU303
 888                             	.LBB103:
 321:../src/smc_gen/r_drw2d_rx/src/tes/dave_intern.h ****    handle->dlscratch_pos++;
 889                             		.loc 2 321 4 view .LVU304
 321:../src/smc_gen/r_drw2d_rx/src/tes/dave_intern.h ****    handle->dlscratch_pos++;
 890                             		.loc 2 321 28 is_stmt 0 view .LVU305
 891 035c ED A4 6E                		mov.L	440[r10], r4
 892                             	.LVL116:
 322:../src/smc_gen/r_drw2d_rx/src/tes/dave_intern.h **** 
 893                             		.loc 2 322 4 is_stmt 1 view .LVU306
 322:../src/smc_gen/r_drw2d_rx/src/tes/dave_intern.h **** 
 894                             		.loc 2 322 25 is_stmt 0 view .LVU307
 895 035f 71 42 08                		add	#8, r4, r2
 896 0362 E7 A2 6E                		mov.L	r2, 440[r10]
 324:../src/smc_gen/r_drw2d_rx/src/tes/dave_intern.h ****    entry->value = value;
 897                             		.loc 2 324 4 is_stmt 1 view .LVU308
 324:../src/smc_gen/r_drw2d_rx/src/tes/dave_intern.h ****    entry->value = value;
 898                             		.loc 2 324 17 is_stmt 0 view .LVU309
 899 0365 E3 43                   		mov.L	r3, [r4]
 325:../src/smc_gen/r_drw2d_rx/src/tes/dave_intern.h **** 
 900                             		.loc 2 325 4 is_stmt 1 view .LVU310
 325:../src/smc_gen/r_drw2d_rx/src/tes/dave_intern.h **** 
 901                             		.loc 2 325 17 is_stmt 0 view .LVU311
 902 0367 A0 4D                   		mov.L	r5, 4[r4]
 327:../src/smc_gen/r_drw2d_rx/src/tes/dave_intern.h ****    if(handle->dlscratch_cnt <= 0)
 903                             		.loc 2 327 4 is_stmt 1 view .LVU312
 327:../src/smc_gen/r_drw2d_rx/src/tes/dave_intern.h ****    if(handle->dlscratch_cnt <= 0)
 904                             		.loc 2 327 12 is_stmt 0 view .LVU313
 905 0369 ED A5 6F                		mov.L	444[r10], r5
 906                             	.LVL117:
 327:../src/smc_gen/r_drw2d_rx/src/tes/dave_intern.h ****    if(handle->dlscratch_cnt <= 0)
 907                             		.loc 2 327 4 view .LVU314
 908 036c 60 15                   		sub	#1, r5
 909 036e E7 A5 6F                		mov.L	r5, 444[r10]
 910                             	.LVL118:
 328:../src/smc_gen/r_drw2d_rx/src/tes/dave_intern.h ****    {
 911                             		.loc 2 328 4 is_stmt 1 view .LVU315
 328:../src/smc_gen/r_drw2d_rx/src/tes/dave_intern.h ****    {
 912                             		.loc 2 328 6 is_stmt 0 view .LVU316
 913 0371 61 05                   		cmp	#0, r5
 914 0373 2A 05 38 89 00          		ble	.L53
 915                             	.LVL119:
 916                             	.L30:
 328:../src/smc_gen/r_drw2d_rx/src/tes/dave_intern.h ****    {
 917                             		.loc 2 328 6 view .LVU317
 918                             	.LBE103:
 919                             	.LBE102:
 319:../src/smc_gen/r_drw2d_rx/src/tes/dave_curve.c ****       D2_DLISTWRITES( D2_L1YADD  + index, -b );
 920                             		.loc 1 319 7 is_stmt 1 view .LVU318
 921 0378 71 64 05                		add	#5, r6, r4
 922 037b 7E 1B                   		neg	r11
 923                             	.LVL120:
 924                             	.LBB107:
 925                             	.LBI107:
 319:../src/smc_gen/r_drw2d_rx/src/tes/dave_intern.h **** {
 926                             		.loc 2 319 23 view .LVU319
 927                             	.LBB108:
 321:../src/smc_gen/r_drw2d_rx/src/tes/dave_intern.h ****    handle->dlscratch_pos++;
 928                             		.loc 2 321 4 view .LVU320
 321:../src/smc_gen/r_drw2d_rx/src/tes/dave_intern.h ****    handle->dlscratch_pos++;
 929                             		.loc 2 321 28 is_stmt 0 view .LVU321
 930 037d ED A5 6E                		mov.L	440[r10], r5
 931                             	.LVL121:
 322:../src/smc_gen/r_drw2d_rx/src/tes/dave_intern.h **** 
 932                             		.loc 2 322 4 is_stmt 1 view .LVU322
 322:../src/smc_gen/r_drw2d_rx/src/tes/dave_intern.h **** 
 933                             		.loc 2 322 25 is_stmt 0 view .LVU323
 934 0380 71 53 08                		add	#8, r5, r3
 935 0383 E7 A3 6E                		mov.L	r3, 440[r10]
 324:../src/smc_gen/r_drw2d_rx/src/tes/dave_intern.h ****    entry->value = value;
 936                             		.loc 2 324 4 is_stmt 1 view .LVU324
 324:../src/smc_gen/r_drw2d_rx/src/tes/dave_intern.h ****    entry->value = value;
 937                             		.loc 2 324 17 is_stmt 0 view .LVU325
 938 0386 E3 54                   		mov.L	r4, [r5]
 325:../src/smc_gen/r_drw2d_rx/src/tes/dave_intern.h **** 
 939                             		.loc 2 325 4 is_stmt 1 view .LVU326
 325:../src/smc_gen/r_drw2d_rx/src/tes/dave_intern.h **** 
 940                             		.loc 2 325 17 is_stmt 0 view .LVU327
 941 0388 E7 5B 01                		mov.L	r11, 4[r5]
 327:../src/smc_gen/r_drw2d_rx/src/tes/dave_intern.h ****    if(handle->dlscratch_cnt <= 0)
 942                             		.loc 2 327 4 is_stmt 1 view .LVU328
 327:../src/smc_gen/r_drw2d_rx/src/tes/dave_intern.h ****    if(handle->dlscratch_cnt <= 0)
 943                             		.loc 2 327 12 is_stmt 0 view .LVU329
 944 038b ED A5 6F                		mov.L	444[r10], r5
 945                             	.LVL122:
 327:../src/smc_gen/r_drw2d_rx/src/tes/dave_intern.h ****    if(handle->dlscratch_cnt <= 0)
 946                             		.loc 2 327 4 view .LVU330
 947 038e 60 15                   		sub	#1, r5
 948 0390 E7 A5 6F                		mov.L	r5, 444[r10]
 328:../src/smc_gen/r_drw2d_rx/src/tes/dave_intern.h ****    {
 949                             		.loc 2 328 4 is_stmt 1 view .LVU331
 328:../src/smc_gen/r_drw2d_rx/src/tes/dave_intern.h ****    {
 950                             		.loc 2 328 6 is_stmt 0 view .LVU332
 951 0393 61 05                   		cmp	#0, r5
 952 0395 2B 73                   		ble	.L54
 953                             	.LVL123:
 954                             	.L31:
 328:../src/smc_gen/r_drw2d_rx/src/tes/dave_intern.h ****    {
 955                             		.loc 2 328 6 view .LVU333
 956                             	.LBE108:
 957                             	.LBE107:
 320:../src/smc_gen/r_drw2d_rx/src/tes/dave_curve.c ****       D2_DLISTWRITES( D2_L2XADD  + index, -ir * 2 );
 958                             		.loc 1 320 7 is_stmt 1 view .LVU334
 959 0397 71 64 10                		add	#16, r6, r4
 960 039a 7E 1C                   		neg	r12
 961                             	.LVL124:
 962                             	.LBB112:
 963                             	.LBI112:
 319:../src/smc_gen/r_drw2d_rx/src/tes/dave_intern.h **** {
 964                             		.loc 2 319 23 view .LVU335
 965                             	.LBB113:
 321:../src/smc_gen/r_drw2d_rx/src/tes/dave_intern.h ****    handle->dlscratch_pos++;
 966                             		.loc 2 321 4 view .LVU336
 321:../src/smc_gen/r_drw2d_rx/src/tes/dave_intern.h ****    handle->dlscratch_pos++;
 967                             		.loc 2 321 28 is_stmt 0 view .LVU337
 968 039c ED A5 6E                		mov.L	440[r10], r5
 969                             	.LVL125:
 322:../src/smc_gen/r_drw2d_rx/src/tes/dave_intern.h **** 
 970                             		.loc 2 322 4 is_stmt 1 view .LVU338
 322:../src/smc_gen/r_drw2d_rx/src/tes/dave_intern.h **** 
 971                             		.loc 2 322 25 is_stmt 0 view .LVU339
 972 039f 71 53 08                		add	#8, r5, r3
 973 03a2 E7 A3 6E                		mov.L	r3, 440[r10]
 324:../src/smc_gen/r_drw2d_rx/src/tes/dave_intern.h ****    entry->value = value;
 974                             		.loc 2 324 4 is_stmt 1 view .LVU340
 324:../src/smc_gen/r_drw2d_rx/src/tes/dave_intern.h ****    entry->value = value;
 975                             		.loc 2 324 17 is_stmt 0 view .LVU341
 976 03a5 E3 54                   		mov.L	r4, [r5]
 325:../src/smc_gen/r_drw2d_rx/src/tes/dave_intern.h **** 
 977                             		.loc 2 325 4 is_stmt 1 view .LVU342
 325:../src/smc_gen/r_drw2d_rx/src/tes/dave_intern.h **** 
 978                             		.loc 2 325 17 is_stmt 0 view .LVU343
 979 03a7 E7 5C 01                		mov.L	r12, 4[r5]
 327:../src/smc_gen/r_drw2d_rx/src/tes/dave_intern.h ****    if(handle->dlscratch_cnt <= 0)
 980                             		.loc 2 327 4 is_stmt 1 view .LVU344
 327:../src/smc_gen/r_drw2d_rx/src/tes/dave_intern.h ****    if(handle->dlscratch_cnt <= 0)
 981                             		.loc 2 327 12 is_stmt 0 view .LVU345
 982 03aa ED A5 6F                		mov.L	444[r10], r5
 983                             	.LVL126:
 327:../src/smc_gen/r_drw2d_rx/src/tes/dave_intern.h ****    if(handle->dlscratch_cnt <= 0)
 984                             		.loc 2 327 4 view .LVU346
 985 03ad 60 15                   		sub	#1, r5
 986 03af E7 A5 6F                		mov.L	r5, 444[r10]
 328:../src/smc_gen/r_drw2d_rx/src/tes/dave_intern.h ****    {
 987                             		.loc 2 328 4 is_stmt 1 view .LVU347
 328:../src/smc_gen/r_drw2d_rx/src/tes/dave_intern.h ****    {
 988                             		.loc 2 328 6 is_stmt 0 view .LVU348
 989 03b2 61 05                   		cmp	#0, r5
 990 03b4 2B 5D                   		ble	.L55
 991                             	.LVL127:
 992                             	.L32:
 328:../src/smc_gen/r_drw2d_rx/src/tes/dave_intern.h ****    {
 993                             		.loc 2 328 6 view .LVU349
 994                             	.LBE113:
 995                             	.LBE112:
 321:../src/smc_gen/r_drw2d_rx/src/tes/dave_curve.c ****       D2_DLISTWRITES( D2_L2YADD  + index, -ir * 2 );
 996                             		.loc 1 321 7 is_stmt 1 view .LVU350
 997 03b6 71 64 0B                		add	#11, r6, r4
 998 03b9 75 17 FE                		mul	#-2, r7
 999                             	.LVL128:
 1000                             	.LBB117:
 1001                             	.LBI117:
 319:../src/smc_gen/r_drw2d_rx/src/tes/dave_intern.h **** {
 1002                             		.loc 2 319 23 view .LVU351
 1003                             	.LBB118:
 321:../src/smc_gen/r_drw2d_rx/src/tes/dave_intern.h ****    handle->dlscratch_pos++;
 1004                             		.loc 2 321 4 view .LVU352
 321:../src/smc_gen/r_drw2d_rx/src/tes/dave_intern.h ****    handle->dlscratch_pos++;
 1005                             		.loc 2 321 28 is_stmt 0 view .LVU353
 1006 03bc ED A5 6E                		mov.L	440[r10], r5
 1007                             	.LVL129:
 322:../src/smc_gen/r_drw2d_rx/src/tes/dave_intern.h **** 
 1008                             		.loc 2 322 4 is_stmt 1 view .LVU354
 322:../src/smc_gen/r_drw2d_rx/src/tes/dave_intern.h **** 
 1009                             		.loc 2 322 25 is_stmt 0 view .LVU355
 1010 03bf 71 53 08                		add	#8, r5, r3
 1011 03c2 E7 A3 6E                		mov.L	r3, 440[r10]
 324:../src/smc_gen/r_drw2d_rx/src/tes/dave_intern.h ****    entry->value = value;
 1012                             		.loc 2 324 4 is_stmt 1 view .LVU356
 324:../src/smc_gen/r_drw2d_rx/src/tes/dave_intern.h ****    entry->value = value;
 1013                             		.loc 2 324 17 is_stmt 0 view .LVU357
 1014 03c5 E3 54                   		mov.L	r4, [r5]
 325:../src/smc_gen/r_drw2d_rx/src/tes/dave_intern.h **** 
 1015                             		.loc 2 325 4 is_stmt 1 view .LVU358
 325:../src/smc_gen/r_drw2d_rx/src/tes/dave_intern.h **** 
 1016                             		.loc 2 325 17 is_stmt 0 view .LVU359
 1017 03c7 A0 5F                   		mov.L	r7, 4[r5]
 327:../src/smc_gen/r_drw2d_rx/src/tes/dave_intern.h ****    if(handle->dlscratch_cnt <= 0)
 1018                             		.loc 2 327 4 is_stmt 1 view .LVU360
 327:../src/smc_gen/r_drw2d_rx/src/tes/dave_intern.h ****    if(handle->dlscratch_cnt <= 0)
 1019                             		.loc 2 327 12 is_stmt 0 view .LVU361
 1020 03c9 ED A5 6F                		mov.L	444[r10], r5
 1021                             	.LVL130:
 327:../src/smc_gen/r_drw2d_rx/src/tes/dave_intern.h ****    if(handle->dlscratch_cnt <= 0)
 1022                             		.loc 2 327 4 view .LVU362
 1023 03cc 60 15                   		sub	#1, r5
 1024 03ce E7 A5 6F                		mov.L	r5, 444[r10]
 328:../src/smc_gen/r_drw2d_rx/src/tes/dave_intern.h ****    {
 1025                             		.loc 2 328 4 is_stmt 1 view .LVU363
 328:../src/smc_gen/r_drw2d_rx/src/tes/dave_intern.h ****    {
 1026                             		.loc 2 328 6 is_stmt 0 view .LVU364
 1027 03d1 61 05                   		cmp	#0, r5
 1028 03d3 2B 47                   		ble	.L56
 1029                             	.LVL131:
 1030                             	.L33:
 328:../src/smc_gen/r_drw2d_rx/src/tes/dave_intern.h ****    {
 1031                             		.loc 2 328 6 view .LVU365
 1032                             	.LBE118:
 1033                             	.LBE117:
 322:../src/smc_gen/r_drw2d_rx/src/tes/dave_curve.c ****    }
 1034                             		.loc 1 322 7 is_stmt 1 view .LVU366
 1035 03d5 71 66 11                		add	#17, r6
 1036                             	.LVL132:
 1037                             	.LBB122:
 1038                             	.LBI122:
 319:../src/smc_gen/r_drw2d_rx/src/tes/dave_intern.h **** {
 1039                             		.loc 2 319 23 view .LVU367
 1040                             	.LBB123:
 321:../src/smc_gen/r_drw2d_rx/src/tes/dave_intern.h ****    handle->dlscratch_pos++;
 1041                             		.loc 2 321 4 view .LVU368
 321:../src/smc_gen/r_drw2d_rx/src/tes/dave_intern.h ****    handle->dlscratch_pos++;
 1042                             		.loc 2 321 28 is_stmt 0 view .LVU369
 1043 03d8 ED A5 6E                		mov.L	440[r10], r5
 1044                             	.LVL133:
 322:../src/smc_gen/r_drw2d_rx/src/tes/dave_intern.h **** 
 1045                             		.loc 2 322 4 is_stmt 1 view .LVU370
 322:../src/smc_gen/r_drw2d_rx/src/tes/dave_intern.h **** 
 1046                             		.loc 2 322 25 is_stmt 0 view .LVU371
 1047 03db 71 54 08                		add	#8, r5, r4
 1048 03de E7 A4 6E                		mov.L	r4, 440[r10]
 324:../src/smc_gen/r_drw2d_rx/src/tes/dave_intern.h ****    entry->value = value;
 1049                             		.loc 2 324 4 is_stmt 1 view .LVU372
 324:../src/smc_gen/r_drw2d_rx/src/tes/dave_intern.h ****    entry->value = value;
 1050                             		.loc 2 324 17 is_stmt 0 view .LVU373
 1051 03e1 E3 56                   		mov.L	r6, [r5]
 325:../src/smc_gen/r_drw2d_rx/src/tes/dave_intern.h **** 
 1052                             		.loc 2 325 4 is_stmt 1 view .LVU374
 325:../src/smc_gen/r_drw2d_rx/src/tes/dave_intern.h **** 
 1053                             		.loc 2 325 17 is_stmt 0 view .LVU375
 1054 03e3 A0 5F                   		mov.L	r7, 4[r5]
 327:../src/smc_gen/r_drw2d_rx/src/tes/dave_intern.h ****    if(handle->dlscratch_cnt <= 0)
 1055                             		.loc 2 327 4 is_stmt 1 view .LVU376
 327:../src/smc_gen/r_drw2d_rx/src/tes/dave_intern.h ****    if(handle->dlscratch_cnt <= 0)
 1056                             		.loc 2 327 12 is_stmt 0 view .LVU377
 1057 03e5 ED A7 6F                		mov.L	444[r10], r7
 1058                             	.LVL134:
 327:../src/smc_gen/r_drw2d_rx/src/tes/dave_intern.h ****    if(handle->dlscratch_cnt <= 0)
 1059                             		.loc 2 327 4 view .LVU378
 1060 03e8 60 17                   		sub	#1, r7
 1061 03ea E7 A7 6F                		mov.L	r7, 444[r10]
 1062                             	.LVL135:
 328:../src/smc_gen/r_drw2d_rx/src/tes/dave_intern.h ****    {
 1063                             		.loc 2 328 4 is_stmt 1 view .LVU379
 328:../src/smc_gen/r_drw2d_rx/src/tes/dave_intern.h ****    {
 1064                             		.loc 2 328 6 is_stmt 0 view .LVU380
 1065 03ed 61 07                   		cmp	#0, r7
 1066 03ef 2B 05 38 BF FD          		bgt	.L1
 1067                             	.LVL136:
 1068                             	.LBB124:
 1069                             	.LBI124:
 319:../src/smc_gen/r_drw2d_rx/src/tes/dave_intern.h **** {
 1070                             		.loc 2 319 23 is_stmt 1 view .LVU381
 1071                             	.LBB125:
 1072                             		.loc 2 330 7 view .LVU382
 1073                             		.loc 2 330 13 is_stmt 0 view .LVU383
 1074 03f4 ED A7 70                		mov.L	448[r10], r7
 1075                             		.loc 2 330 7 view .LVU384
 1076 03f7 EF A1                   		mov.L	r10, r1
 1077 03f9 7F 17                   		jsr	r7
 1078                             	.LVL137:
 1079                             		.loc 2 330 7 view .LVU385
 1080                             	.LBE125:
 1081                             	.LBE124:
 1082                             	.LBE123:
 1083                             	.LBE122:
 1084                             		.loc 1 324 1 view .LVU386
 1085 03fb 38 B5 FD                		bra	.L1
 1086                             	.LVL138:
 1087                             	.L53:
 1088                             	.LBB126:
 1089                             	.LBB106:
 1090                             	.LBB104:
 1091                             	.LBI104:
 319:../src/smc_gen/r_drw2d_rx/src/tes/dave_intern.h **** {
 1092                             		.loc 2 319 23 is_stmt 1 view .LVU387
 1093                             	.LBB105:
 1094                             		.loc 2 330 7 view .LVU388
 1095                             		.loc 2 330 13 is_stmt 0 view .LVU389
 1096 03fe ED A5 70                		mov.L	448[r10], r5
 1097                             		.loc 2 330 7 view .LVU390
 1098 0401 EF A1                   		mov.L	r10, r1
 1099 0403 7F 15                   		jsr	r5
 1100                             	.LVL139:
 1101                             		.loc 2 330 7 view .LVU391
 1102 0405 38 73 FF                		bra	.L30
 1103                             	.LVL140:
 1104                             	.L54:
 1105                             		.loc 2 330 7 view .LVU392
 1106                             	.LBE105:
 1107                             	.LBE104:
 1108                             	.LBE106:
 1109                             	.LBE126:
 1110                             	.LBB127:
 1111                             	.LBB111:
 1112                             	.LBB109:
 1113                             	.LBI109:
 319:../src/smc_gen/r_drw2d_rx/src/tes/dave_intern.h **** {
 1114                             		.loc 2 319 23 is_stmt 1 view .LVU393
 1115                             	.LBB110:
 1116                             		.loc 2 330 7 view .LVU394
 1117                             		.loc 2 330 13 is_stmt 0 view .LVU395
 1118 0408 ED A5 70                		mov.L	448[r10], r5
 1119                             		.loc 2 330 7 view .LVU396
 1120 040b EF A1                   		mov.L	r10, r1
 1121 040d 7F 15                   		jsr	r5
 1122                             	.LVL141:
 1123                             		.loc 2 330 7 view .LVU397
 1124 040f 2E 88                   		bra	.L31
 1125                             	.LVL142:
 1126                             	.L55:
 1127                             		.loc 2 330 7 view .LVU398
 1128                             	.LBE110:
 1129                             	.LBE109:
 1130                             	.LBE111:
 1131                             	.LBE127:
 1132                             	.LBB128:
 1133                             	.LBB116:
 1134                             	.LBB114:
 1135                             	.LBI114:
 319:../src/smc_gen/r_drw2d_rx/src/tes/dave_intern.h **** {
 1136                             		.loc 2 319 23 is_stmt 1 view .LVU399
 1137                             	.LBB115:
 1138                             		.loc 2 330 7 view .LVU400
 1139                             		.loc 2 330 13 is_stmt 0 view .LVU401
 1140 0411 ED A5 70                		mov.L	448[r10], r5
 1141                             		.loc 2 330 7 view .LVU402
 1142 0414 EF A1                   		mov.L	r10, r1
 1143 0416 7F 15                   		jsr	r5
 1144                             	.LVL143:
 1145                             		.loc 2 330 7 view .LVU403
 1146 0418 2E 9E                   		bra	.L32
 1147                             	.LVL144:
 1148                             	.L56:
 1149                             		.loc 2 330 7 view .LVU404
 1150                             	.LBE115:
 1151                             	.LBE114:
 1152                             	.LBE116:
 1153                             	.LBE128:
 1154                             	.LBB129:
 1155                             	.LBB121:
 1156                             	.LBB119:
 1157                             	.LBI119:
 319:../src/smc_gen/r_drw2d_rx/src/tes/dave_intern.h **** {
 1158                             		.loc 2 319 23 is_stmt 1 view .LVU405
 1159                             	.LBB120:
 1160                             		.loc 2 330 7 view .LVU406
 1161                             		.loc 2 330 13 is_stmt 0 view .LVU407
 1162 041a ED A5 70                		mov.L	448[r10], r5
 1163                             		.loc 2 330 7 view .LVU408
 1164 041d EF A1                   		mov.L	r10, r1
 1165 041f 7F 15                   		jsr	r5
 1166                             	.LVL145:
 1167                             		.loc 2 330 7 view .LVU409
 1168 0421 2E B4                   		bra	.L33
 1169                             	.LBE120:
 1170                             	.LBE119:
 1171                             	.LBE121:
 1172                             	.LBE129:
 1173                             	.LFE6:
 1225                             	.Letext0:
 1226                             		.file 3 "D:\\e2_studio\\workspace\\FULLMONI_WIDE\\Firmware\\src\\smc_gen\\r_drw2d_rx\\inc\\tes/dav
 1227                             		.file 4 "D:\\e2_studio\\workspace\\FULLMONI_WIDE\\Firmware\\src\\smc_gen\\r_drw2d_rx\\inc\\tes/dav
 1228                             		.file 5 "../src/smc_gen/r_drw2d_rx/src/tes/dave_dlist.h"
 1229                             		.file 6 "../src/smc_gen/r_drw2d_rx/src/tes/dave_rbuffer.h"
 1230                             		.file 7 "../src/smc_gen/r_drw2d_rx/src/tes/dave_gradient.h"
 1231                             		.file 8 "../src/smc_gen/r_drw2d_rx/src/tes/dave_context.h"
