   1                             		.file	"dave_quad.c"
   2                             		.section P,"ax"
   3                             	.Ltext0:
   4                             		.section	.text.d2_renderquad_intern,"ax",@progbits
   6                             	_d2_renderquad_intern:
   7                             	.LVL0:
   8                             	.LFB6:
   9                             		.file 1 "../src/smc_gen/r_drw2d_rx/src/tes/dave_quad.c"
   1:../src/smc_gen/r_drw2d_rx/src/tes/dave_quad.c **** /*--------------------------------------------------------------------------
   2:../src/smc_gen/r_drw2d_rx/src/tes/dave_quad.c ****  * Project: D/AVE
   3:../src/smc_gen/r_drw2d_rx/src/tes/dave_quad.c ****  * File:    dave_quad.c (%version: 9 %)
   4:../src/smc_gen/r_drw2d_rx/src/tes/dave_quad.c ****  *          created Fri Feb 11 14:06:48 2005 by hh04027
   5:../src/smc_gen/r_drw2d_rx/src/tes/dave_quad.c ****  *
   6:../src/smc_gen/r_drw2d_rx/src/tes/dave_quad.c ****  * Description:
   7:../src/smc_gen/r_drw2d_rx/src/tes/dave_quad.c ****  *  %date_modified: Fri Dec 07 13:40:33 2007 %  (%derived_by:  hh74036 %)
   8:../src/smc_gen/r_drw2d_rx/src/tes/dave_quad.c ****  *
   9:../src/smc_gen/r_drw2d_rx/src/tes/dave_quad.c ****  * Changes:
  10:../src/smc_gen/r_drw2d_rx/src/tes/dave_quad.c ****  *  2007-12-07 MGe  several bugfixes in d2_renderquad_intern, removed quadconfig
  11:../src/smc_gen/r_drw2d_rx/src/tes/dave_quad.c ****  *  2008-01-14 ASc  changed comments from C++ to C, removed tabs
  12:../src/smc_gen/r_drw2d_rx/src/tes/dave_quad.c ****  *  2010-09-09 MRe  added renderquad functions for solidoutlined etc. 
  13:../src/smc_gen/r_drw2d_rx/src/tes/dave_quad.c ****  *  2010-09-27 MRe  fixed quad render function
  14:../src/smc_gen/r_drw2d_rx/src/tes/dave_quad.c ****  *  2012-09-25 BSp  MISRA cleanup
  15:../src/smc_gen/r_drw2d_rx/src/tes/dave_quad.c ****  *-------------------------------------------------------------------------- */
  16:../src/smc_gen/r_drw2d_rx/src/tes/dave_quad.c **** 
  17:../src/smc_gen/r_drw2d_rx/src/tes/dave_quad.c **** #include "dave_driver.h"
  18:../src/smc_gen/r_drw2d_rx/src/tes/dave_quad.c **** #include "dave_intern.h"
  19:../src/smc_gen/r_drw2d_rx/src/tes/dave_quad.c **** #include "dave_viewport.h"
  20:../src/smc_gen/r_drw2d_rx/src/tes/dave_quad.c **** #include "dave_render.h"
  21:../src/smc_gen/r_drw2d_rx/src/tes/dave_quad.c **** #include "dave_pattern.h"
  22:../src/smc_gen/r_drw2d_rx/src/tes/dave_quad.c **** #include "dave_quad.h"
  23:../src/smc_gen/r_drw2d_rx/src/tes/dave_quad.c **** #include "dave_edge.h"
  24:../src/smc_gen/r_drw2d_rx/src/tes/dave_quad.c **** #include "dave_line.h"
  25:../src/smc_gen/r_drw2d_rx/src/tes/dave_quad.c **** #include "dave_texture.h"
  26:../src/smc_gen/r_drw2d_rx/src/tes/dave_quad.c **** #include "dave_polyline.h"
  27:../src/smc_gen/r_drw2d_rx/src/tes/dave_quad.c **** 
  28:../src/smc_gen/r_drw2d_rx/src/tes/dave_quad.c **** /*--------------------------------------------------------------------------*/
  29:../src/smc_gen/r_drw2d_rx/src/tes/dave_quad.c **** static d2_s32 d2_renderquad_intern( d2_devicedata *handle, d2_contextdata *ctx, d2_point x1, d2_poi
  30:../src/smc_gen/r_drw2d_rx/src/tes/dave_quad.c **** 
  31:../src/smc_gen/r_drw2d_rx/src/tes/dave_quad.c **** /*--------------------------------------------------------------------------
  32:../src/smc_gen/r_drw2d_rx/src/tes/dave_quad.c ****  *
  33:../src/smc_gen/r_drw2d_rx/src/tes/dave_quad.c ****  * */
  34:../src/smc_gen/r_drw2d_rx/src/tes/dave_quad.c **** static d2_s32 d2_renderquad_intern( d2_devicedata *handle, d2_contextdata *ctx, d2_point x1, d2_poi
  35:../src/smc_gen/r_drw2d_rx/src/tes/dave_quad.c **** {
  10                             		.loc 1 35 1 view -0
  11                             		.loc 1 35 1 is_stmt 0 view .LVU1
  12 0000 6E 6D                   		pushm	r6-r13
  13                             	.LCFI0:
  14                             		.loc 1 35 1 view .LVU2
  15 0002 72 00 64 FF             		add	#-156, r0
  16                             	.LCFI1:
  17 0006 75 47 C0                		mov.L	#0xc0, r7
  18 0009 4B 07                   		add	r0, r7
  19 000b EF 1A                   		mov.L	r1, r10
  20 000d A5 82                   		mov.L	r2, 88[r0]
  21 000f D7 03 2E                		mov.W	r3, 92[r0]
  22 0012 D7 04 30                		mov.W	r4, 96[r0]
  23 0015 D4 70 28                		mov.W	[r7], 80[r0]
  24 0018 D5 70 01 2A             		mov.W	2[r7], 84[r0]
  25 001c D5 70 02 22             		mov.W	4[r7], 68[r0]
  26 0020 D5 70 03 26             		mov.W	6[r7], 76[r0]
  27 0024 99 76                   		mov.W	8[r7], r6
  28 0026 D5 70 05 24             		mov.W	10[r7], 72[r0]
  29 002a E5 70 03 19             		mov.L	12[r7], 100[r0]
  36:../src/smc_gen/r_drw2d_rx/src/tes/dave_quad.c ****    d2_bbox bbox;
  30                             		.loc 1 36 4 is_stmt 1 view .LVU3
  37:../src/smc_gen/r_drw2d_rx/src/tes/dave_quad.c ****    d2_u32 bR1, bR2, bR3, bR4;
  31                             		.loc 1 37 4 view .LVU4
  38:../src/smc_gen/r_drw2d_rx/src/tes/dave_quad.c ****    d2_s32 flip, delay;
  32                             		.loc 1 38 4 view .LVU5
  39:../src/smc_gen/r_drw2d_rx/src/tes/dave_quad.c ****    d2_u32 control;
  33                             		.loc 1 39 4 view .LVU6
  40:../src/smc_gen/r_drw2d_rx/src/tes/dave_quad.c ****    d2_s32 ssd;
  34                             		.loc 1 40 4 view .LVU7
  41:../src/smc_gen/r_drw2d_rx/src/tes/dave_quad.c ****    d2_limdata edge[4];
  35                             		.loc 1 41 4 view .LVU8
  42:../src/smc_gen/r_drw2d_rx/src/tes/dave_quad.c **** 
  43:../src/smc_gen/r_drw2d_rx/src/tes/dave_quad.c ****    /* find deltas */
  44:../src/smc_gen/r_drw2d_rx/src/tes/dave_quad.c ****    d2_s32 dx1 = x2 - x1;
  36                             		.loc 1 44 4 view .LVU9
  37                             		.loc 1 44 20 is_stmt 0 view .LVU10
  38 002e DD 07 28                		mov.W	80[r0], r7
  39 0031 DF 35                   		mov.W	r3, r5
  40                             		.loc 1 44 11 view .LVU11
  41 0033 FF 09 57                		sub	r5, r7, r9
  42 0036 E7 09 1A                		mov.L	r9, 104[r0]
  43                             	.LVL1:
  45:../src/smc_gen/r_drw2d_rx/src/tes/dave_quad.c ****    d2_s32 dx2 = x3 - x2;
  44                             		.loc 1 45 4 is_stmt 1 view .LVU12
  45                             		.loc 1 45 20 is_stmt 0 view .LVU13
  46 0039 DD 04 22                		mov.W	68[r0], r4
  47                             	.LVL2:
  48                             		.loc 1 45 11 view .LVU14
  49 003c FF 07 74                		sub	r7, r4, r7
  50 003f A6 8F                   		mov.L	r7, 108[r0]
  51                             	.LVL3:
  46:../src/smc_gen/r_drw2d_rx/src/tes/dave_quad.c ****    d2_s32 dx3 = x4 - x3;
  52                             		.loc 1 46 4 is_stmt 1 view .LVU15
  53                             		.loc 1 46 20 is_stmt 0 view .LVU16
  54 0041 DF 67                   		mov.W	r6, r7
  55                             	.LVL4:
  56                             		.loc 1 46 11 view .LVU17
  57 0043 FF 04 47                		sub	r4, r7, r4
  58 0046 A7 04                   		mov.L	r4, 112[r0]
  59                             	.LVL5:
  47:../src/smc_gen/r_drw2d_rx/src/tes/dave_quad.c ****    d2_s32 dx4 = x1 - x4;
  60                             		.loc 1 47 4 is_stmt 1 view .LVU18
  61                             		.loc 1 47 11 is_stmt 0 view .LVU19
  62 0048 FF 07 75                		sub	r7, r5, r7
  63 004b A7 0F                   		mov.L	r7, 116[r0]
  64                             	.LVL6:
  48:../src/smc_gen/r_drw2d_rx/src/tes/dave_quad.c ****    d2_s32 dy1 = y2 - y1;
  65                             		.loc 1 48 4 is_stmt 1 view .LVU20
  66                             		.loc 1 48 20 is_stmt 0 view .LVU21
  67 004d DD 04 2A                		mov.W	84[r0], r4
  68                             	.LVL7:
  69                             		.loc 1 48 20 view .LVU22
  70 0050 DD 07 30                		mov.W	96[r0], r7
  71                             	.LVL8:
  72                             		.loc 1 48 11 view .LVU23
  73 0053 FF 08 74                		sub	r7, r4, r8
  74                             	.LVL9:
  49:../src/smc_gen/r_drw2d_rx/src/tes/dave_quad.c ****    d2_s32 dy2 = y3 - y2;
  75                             		.loc 1 49 4 is_stmt 1 view .LVU24
  76                             		.loc 1 49 20 is_stmt 0 view .LVU25
  77 0056 DD 02 26                		mov.W	76[r0], r2
  78                             	.LVL10:
  79                             		.loc 1 49 11 view .LVU26
  80 0059 FF 0D 42                		sub	r4, r2, r13
  81                             	.LVL11:
  50:../src/smc_gen/r_drw2d_rx/src/tes/dave_quad.c ****    d2_s32 dy3 = y4 - y3;
  82                             		.loc 1 50 4 is_stmt 1 view .LVU27
  83                             		.loc 1 50 20 is_stmt 0 view .LVU28
  84 005c DD 03 24                		mov.W	72[r0], r3
  85                             	.LVL12:
  86                             		.loc 1 50 11 view .LVU29
  87 005f FF 0C 23                		sub	r2, r3, r12
  88                             	.LVL13:
  51:../src/smc_gen/r_drw2d_rx/src/tes/dave_quad.c ****    d2_s32 dy4 = y1 - y4;
  89                             		.loc 1 51 4 is_stmt 1 view .LVU30
  90                             		.loc 1 51 11 is_stmt 0 view .LVU31
  91 0062 FF 0B 37                		sub	r3, r7, r11
  92                             	.LVL14:
  52:../src/smc_gen/r_drw2d_rx/src/tes/dave_quad.c **** 
  53:../src/smc_gen/r_drw2d_rx/src/tes/dave_quad.c ****    /* build masks from signbits */
  54:../src/smc_gen/r_drw2d_rx/src/tes/dave_quad.c ****    d2_u32 dxm = ((dx1 < 0) ? 1u : 0u) | ((dx2 < 0) ? 2u : 0u) | ((dx3 < 0) ? 4u : 0u) | ((dx4 < 0) 
  93                             		.loc 1 54 4 is_stmt 1 view .LVU32
  94                             		.loc 1 54 33 is_stmt 0 view .LVU33
  95 0065 EF 91                   		mov.L	r9, r1
  96                             	.LVL15:
  97                             		.loc 1 54 33 view .LVU34
  98 0067 69 F1                   		shlr	#31, r1
  99                             		.loc 1 54 57 view .LVU35
 100 0069 AE 8D                   		mov.L	108[r0], r5
 101 006b 6B E5                   		shar	#30, r5
 102 006d 64 25                   		and #2, r5
 103                             		.loc 1 54 39 view .LVU36
 104 006f 57 51                   		or	r5, r1
 105                             		.loc 1 54 81 view .LVU37
 106 0071 AF 05                   		mov.L	112[r0], r5
 107 0073 6B D5                   		shar	#29, r5
 108 0075 64 45                   		and #4, r5
 109                             		.loc 1 54 63 view .LVU38
 110 0077 57 51                   		or	r5, r1
 111                             		.loc 1 54 105 view .LVU39
 112 0079 AF 0D                   		mov.L	116[r0], r5
 113 007b 6B C5                   		shar	#28, r5
 114 007d 64 85                   		and #8, r5
 115                             		.loc 1 54 11 view .LVU40
 116 007f 57 51                   		or	r5, r1
 117                             	.LVL16:
  55:../src/smc_gen/r_drw2d_rx/src/tes/dave_quad.c ****    d2_u32 dym = ((dy1 < 0) ? 1u : 0u) | ((dy2 < 0) ? 2u : 0u) | ((dy3 < 0) ? 4u : 0u) | ((dy4 < 0) 
 118                             		.loc 1 55 4 is_stmt 1 view .LVU41
 119                             		.loc 1 55 33 is_stmt 0 view .LVU42
 120 0081 FD 9F 85                		shlr	#31, r8, r5
 121                             		.loc 1 55 57 view .LVU43
 122 0084 FD BE D9                		shar	#30, r13, r9
 123                             	.LVL17:
 124                             		.loc 1 55 57 view .LVU44
 125 0087 64 29                   		and #2, r9
 126                             		.loc 1 55 39 view .LVU45
 127 0089 57 95                   		or	r9, r5
 128                             		.loc 1 55 81 view .LVU46
 129 008b FD BD C9                		shar	#29, r12, r9
 130 008e 64 49                   		and #4, r9
 131                             		.loc 1 55 63 view .LVU47
 132 0090 57 95                   		or	r9, r5
 133                             		.loc 1 55 105 view .LVU48
 134 0092 FD BC B9                		shar	#28, r11, r9
 135 0095 64 89                   		and #8, r9
 136                             		.loc 1 55 11 view .LVU49
 137 0097 57 95                   		or	r9, r5
 138                             	.LVL18:
  56:../src/smc_gen/r_drw2d_rx/src/tes/dave_quad.c ****    d2_u32 idxm = dxm ^ 15u;
 139                             		.loc 1 56 4 is_stmt 1 view .LVU50
 140                             		.loc 1 56 11 is_stmt 0 view .LVU51
 141 0099 FD 74 D1 0F             		xor	#15, r1
 142                             	.LVL19:
  57:../src/smc_gen/r_drw2d_rx/src/tes/dave_quad.c ****    d2_u32 idym = dym ^ 15u;
 143                             		.loc 1 57 4 is_stmt 1 view .LVU52
 144                             		.loc 1 57 11 is_stmt 0 view .LVU53
 145 009d FD 74 D5 0F             		xor	#15, r5
 146                             	.LVL20:
  58:../src/smc_gen/r_drw2d_rx/src/tes/dave_quad.c **** 
  59:../src/smc_gen/r_drw2d_rx/src/tes/dave_quad.c ****    /* catch degenerate quad (collapsed edge) and render a triangle instead */
  60:../src/smc_gen/r_drw2d_rx/src/tes/dave_quad.c ****    if(0 != (idxm & idym))
 147                             		.loc 1 60 4 is_stmt 1 view .LVU54
 148                             		.loc 1 60 6 is_stmt 0 view .LVU55
 149 00a1 FC 33 51                		tst	r5, r1
 150 00a4 20 2A                   		beq	.L2
  61:../src/smc_gen/r_drw2d_rx/src/tes/dave_quad.c ****    {
  62:../src/smc_gen/r_drw2d_rx/src/tes/dave_quad.c ****       if(0 == (dx1 | dy1))   /* PRQA S 4130 */ /* $Misra: #PERF_BITWISE $*/
 151                             		.loc 1 62 7 is_stmt 1 view .LVU56
 152                             		.loc 1 62 20 is_stmt 0 view .LVU57
 153 00a6 ED 09 1A                		mov.L	104[r0], r9
 154 00a9 57 89                   		or	r8, r9
 155                             		.loc 1 62 9 view .LVU58
 156 00ab 61 09                   		cmp	#0, r9
 157 00ad 3A 00 01                		beq	.L59
  63:../src/smc_gen/r_drw2d_rx/src/tes/dave_quad.c ****       {
  64:../src/smc_gen/r_drw2d_rx/src/tes/dave_quad.c ****          return d2_rendertri( handle, x2, y2, x3, y3, x4, y4, flags >> 1 );
  65:../src/smc_gen/r_drw2d_rx/src/tes/dave_quad.c ****       }
  66:../src/smc_gen/r_drw2d_rx/src/tes/dave_quad.c ****       if(0 == (dx2 | dy2))   /* PRQA S 4130 */ /* $Misra: #PERF_BITWISE $*/
 158                             		.loc 1 66 7 is_stmt 1 view .LVU59
 159                             		.loc 1 66 20 is_stmt 0 view .LVU60
 160 00b0 ED 09 1B                		mov.L	108[r0], r9
 161 00b3 57 D9                   		or	r13, r9
 162                             		.loc 1 66 9 view .LVU61
 163 00b5 61 09                   		cmp	#0, r9
 164 00b7 3A 18 01                		beq	.L60
  67:../src/smc_gen/r_drw2d_rx/src/tes/dave_quad.c ****       {
  68:../src/smc_gen/r_drw2d_rx/src/tes/dave_quad.c ****          return d2_rendertri( handle, x1, y1, x3, y3, x4, y4, ((flags & 12u ) >> 1) | (flags & 1u) 
  69:../src/smc_gen/r_drw2d_rx/src/tes/dave_quad.c ****       }
  70:../src/smc_gen/r_drw2d_rx/src/tes/dave_quad.c ****       if(0 == (dx3 | dy3))   /* PRQA S 4130 */ /* $Misra: #PERF_BITWISE $*/
 165                             		.loc 1 70 7 is_stmt 1 view .LVU62
 166                             		.loc 1 70 20 is_stmt 0 view .LVU63
 167 00ba ED 09 1C                		mov.L	112[r0], r9
 168 00bd 57 C9                   		or	r12, r9
 169                             		.loc 1 70 9 view .LVU64
 170 00bf 61 09                   		cmp	#0, r9
 171 00c1 3A 38 01                		beq	.L61
  71:../src/smc_gen/r_drw2d_rx/src/tes/dave_quad.c ****       {
  72:../src/smc_gen/r_drw2d_rx/src/tes/dave_quad.c ****          return d2_rendertri( handle, x1, y1, x2, y2, x4, y4, ((flags & 8u) >> 1) |  (flags & 3u) )
  73:../src/smc_gen/r_drw2d_rx/src/tes/dave_quad.c ****       }
  74:../src/smc_gen/r_drw2d_rx/src/tes/dave_quad.c ****       if(0 == (dx4 | dy4))   /* PRQA S 4130 */ /* $Misra: #PERF_BITWISE $*/
 172                             		.loc 1 74 7 is_stmt 1 view .LVU65
 173                             		.loc 1 74 20 is_stmt 0 view .LVU66
 174 00c4 ED 09 1D                		mov.L	116[r0], r9
 175 00c7 57 B9                   		or	r11, r9
 176                             		.loc 1 74 9 view .LVU67
 177 00c9 61 09                   		cmp	#0, r9
 178 00cb 3A 58 01                		beq	.L62
 179                             	.L2:
  75:../src/smc_gen/r_drw2d_rx/src/tes/dave_quad.c ****       {
  76:../src/smc_gen/r_drw2d_rx/src/tes/dave_quad.c ****          return d2_rendertri( handle, x1, y1, x2, y2, x3, y3, flags & 7u );
  77:../src/smc_gen/r_drw2d_rx/src/tes/dave_quad.c ****       }
  78:../src/smc_gen/r_drw2d_rx/src/tes/dave_quad.c ****    }
  79:../src/smc_gen/r_drw2d_rx/src/tes/dave_quad.c **** 
  80:../src/smc_gen/r_drw2d_rx/src/tes/dave_quad.c ****    /* classify edges (right edge flags) - basically inverted dys
  81:../src/smc_gen/r_drw2d_rx/src/tes/dave_quad.c ****     * but using dxs instead of dys for horizontal edges */
  82:../src/smc_gen/r_drw2d_rx/src/tes/dave_quad.c ****    bR1 = (dy1 == 0) ? (idxm & 1u) : (idym & 1u);
 180                             		.loc 1 82 4 is_stmt 1 view .LVU68
 181                             		.loc 1 82 35 is_stmt 0 view .LVU69
 182 00ce 61 08                   		cmp	#0, r8
 183 00d0 3B 78 01                		bne	.L7
 184                             		.loc 1 82 35 discriminator 1 view .LVU70
 185 00d3 66 19                   		mov.L	#1, r9
 186 00d5 53 19                   		and	r1, r9
 187 00d7 E7 09 1F                		mov.L	r9, 124[r0]
 188                             	.L8:
 189                             	.LVL21:
  83:../src/smc_gen/r_drw2d_rx/src/tes/dave_quad.c ****    bR2 = (dy2 == 0) ? (idxm & 2u) : (idym & 2u);
 190                             		.loc 1 83 4 is_stmt 1 discriminator 4 view .LVU71
 191                             		.loc 1 83 35 is_stmt 0 discriminator 4 view .LVU72
 192 00da 61 0D                   		cmp	#0, r13
 193 00dc 3B 76 01                		bne	.L9
 194                             		.loc 1 83 35 discriminator 1 view .LVU73
 195 00df 66 29                   		mov.L	#2, r9
 196 00e1 53 19                   		and	r1, r9
 197 00e3 E7 09 20                		mov.L	r9, 128[r0]
 198                             	.L10:
 199                             	.LVL22:
  84:../src/smc_gen/r_drw2d_rx/src/tes/dave_quad.c ****    bR3 = (dy3 == 0) ? (idxm & 4u) : (idym & 4u);
 200                             		.loc 1 84 4 is_stmt 1 discriminator 4 view .LVU74
 201                             		.loc 1 84 35 is_stmt 0 discriminator 4 view .LVU75
 202 00e6 61 0C                   		cmp	#0, r12
 203 00e8 3B 74 01                		bne	.L11
 204                             		.loc 1 84 35 discriminator 1 view .LVU76
 205 00eb 66 49                   		mov.L	#4, r9
 206 00ed 53 19                   		and	r1, r9
 207 00ef E7 09 21                		mov.L	r9, 132[r0]
 208                             	.L12:
 209                             	.LVL23:
  85:../src/smc_gen/r_drw2d_rx/src/tes/dave_quad.c ****    bR4 = (dy4 == 0) ? (idxm & 8u) : (idym & 8u);
 210                             		.loc 1 85 4 is_stmt 1 discriminator 4 view .LVU77
 211                             		.loc 1 85 35 is_stmt 0 discriminator 4 view .LVU78
 212 00f2 61 0B                   		cmp	#0, r11
 213 00f4 3B 72 01                		bne	.L13
 214                             		.loc 1 85 35 discriminator 1 view .LVU79
 215 00f7 64 81                   		and #8, r1
 216                             	.LVL24:
 217                             		.loc 1 85 35 discriminator 1 view .LVU80
 218 00f9 E7 01 22                		mov.L	r1, 136[r0]
 219                             	.LVL25:
 220                             	.L14:
  86:../src/smc_gen/r_drw2d_rx/src/tes/dave_quad.c **** 
  87:../src/smc_gen/r_drw2d_rx/src/tes/dave_quad.c **** 
  88:../src/smc_gen/r_drw2d_rx/src/tes/dave_quad.c ****    /* get xmin, xmax and the endposition of spanstore(ssd) */
  89:../src/smc_gen/r_drw2d_rx/src/tes/dave_quad.c ****    if(x1 < x2)
 221                             		.loc 1 89 4 is_stmt 1 discriminator 4 view .LVU81
 222                             		.loc 1 89 6 is_stmt 0 discriminator 4 view .LVU82
 223 00fc DD 05 28                		mov.W	80[r0], r5
 224 00ff DD 01 2E                		mov.W	92[r0], r1
 225 0102 47 15                   		cmp	r1, r5
 226 0104 2A 05 38 68 01          		ble	.L15
  90:../src/smc_gen/r_drw2d_rx/src/tes/dave_quad.c ****    {
  91:../src/smc_gen/r_drw2d_rx/src/tes/dave_quad.c ****       bbox.xmin = x1;
 227                             		.loc 1 91 7 is_stmt 1 view .LVU83
 228                             		.loc 1 91 17 is_stmt 0 view .LVU84
 229 0109 D5 00 2E 06             		mov.W	92[r0], 12[r0]
  92:../src/smc_gen/r_drw2d_rx/src/tes/dave_quad.c ****       bbox.xmax = x2;
 230                             		.loc 1 92 7 is_stmt 1 view .LVU85
 231                             		.loc 1 92 17 is_stmt 0 view .LVU86
 232 010d D5 00 28 08             		mov.W	80[r0], 16[r0]
  93:../src/smc_gen/r_drw2d_rx/src/tes/dave_quad.c ****       ssd = y1;
 233                             		.loc 1 93 7 is_stmt 1 view .LVU87
 234                             	.LVL26:
 235                             	.L16:
  94:../src/smc_gen/r_drw2d_rx/src/tes/dave_quad.c ****    }
  95:../src/smc_gen/r_drw2d_rx/src/tes/dave_quad.c ****    else
  96:../src/smc_gen/r_drw2d_rx/src/tes/dave_quad.c ****    {
  97:../src/smc_gen/r_drw2d_rx/src/tes/dave_quad.c ****       bbox.xmin = x2;
  98:../src/smc_gen/r_drw2d_rx/src/tes/dave_quad.c ****       bbox.xmax = x1;
  99:../src/smc_gen/r_drw2d_rx/src/tes/dave_quad.c ****       ssd = y2;
 100:../src/smc_gen/r_drw2d_rx/src/tes/dave_quad.c ****    }
 101:../src/smc_gen/r_drw2d_rx/src/tes/dave_quad.c **** 
 102:../src/smc_gen/r_drw2d_rx/src/tes/dave_quad.c ****    if(x3 < x4)
 236                             		.loc 1 102 4 view .LVU88
 237                             		.loc 1 102 6 is_stmt 0 view .LVU89
 238 0111 DD 05 22                		mov.W	68[r0], r5
 239 0114 DF 64                   		mov.W	r6, r4
 240 0116 47 45                   		cmp	r4, r5
 241 0118 29 05 38 61 01          		bge	.L17
 103:../src/smc_gen/r_drw2d_rx/src/tes/dave_quad.c ****    {
 104:../src/smc_gen/r_drw2d_rx/src/tes/dave_quad.c ****       if(bbox.xmin > x3)
 242                             		.loc 1 104 7 is_stmt 1 view .LVU90
 243                             		.loc 1 104 9 is_stmt 0 view .LVU91
 244 011d 99 84                   		mov.W	12[r0], r4
 245 011f 47 54                   		cmp	r5, r4
 246 0121 2B 08                   		ble	.L18
 105:../src/smc_gen/r_drw2d_rx/src/tes/dave_quad.c ****       {
 106:../src/smc_gen/r_drw2d_rx/src/tes/dave_quad.c ****          bbox.xmin = x3;
 247                             		.loc 1 106 10 is_stmt 1 view .LVU92
 248                             		.loc 1 106 20 is_stmt 0 view .LVU93
 249 0123 D5 00 22 06             		mov.W	68[r0], 12[r0]
 107:../src/smc_gen/r_drw2d_rx/src/tes/dave_quad.c ****          ssd= y3;
 250                             		.loc 1 107 10 is_stmt 1 view .LVU94
 251                             	.LVL27:
 252                             		.loc 1 107 13 is_stmt 0 view .LVU95
 253 0127 EF 27                   		mov.L	r2, r7
 254                             	.LVL28:
 255                             	.L18:
 108:../src/smc_gen/r_drw2d_rx/src/tes/dave_quad.c ****       }
 109:../src/smc_gen/r_drw2d_rx/src/tes/dave_quad.c ****       if(bbox.xmax < x4)
 256                             		.loc 1 109 7 is_stmt 1 view .LVU96
 257                             		.loc 1 109 9 is_stmt 0 view .LVU97
 258 0129 9A 04                   		mov.W	16[r0], r4
 259 012b DF 65                   		mov.W	r6, r5
 260 012d 47 54                   		cmp	r5, r4
 261 012f 28 09                   		bge	.L19
 110:../src/smc_gen/r_drw2d_rx/src/tes/dave_quad.c ****       {
 111:../src/smc_gen/r_drw2d_rx/src/tes/dave_quad.c ****          bbox.xmax = x4;
 262                             		.loc 1 111 10 is_stmt 1 view .LVU98
 263                             		.loc 1 111 20 is_stmt 0 view .LVU99
 264 0131 92 06                   		mov.W	r6, 16[r0]
 265 0133 77 10 01 00 00          		.balign 8,3,5
 266                             	.L19:
 112:../src/smc_gen/r_drw2d_rx/src/tes/dave_quad.c ****       }
 113:../src/smc_gen/r_drw2d_rx/src/tes/dave_quad.c ****    }
 114:../src/smc_gen/r_drw2d_rx/src/tes/dave_quad.c ****    else
 115:../src/smc_gen/r_drw2d_rx/src/tes/dave_quad.c ****    {
 116:../src/smc_gen/r_drw2d_rx/src/tes/dave_quad.c ****       if(bbox.xmin > x4)
 117:../src/smc_gen/r_drw2d_rx/src/tes/dave_quad.c ****       {
 118:../src/smc_gen/r_drw2d_rx/src/tes/dave_quad.c ****          bbox.xmin = x4;
 119:../src/smc_gen/r_drw2d_rx/src/tes/dave_quad.c ****          ssd = y4;
 120:../src/smc_gen/r_drw2d_rx/src/tes/dave_quad.c ****       }
 121:../src/smc_gen/r_drw2d_rx/src/tes/dave_quad.c **** 
 122:../src/smc_gen/r_drw2d_rx/src/tes/dave_quad.c ****       if(bbox.xmax < x3)
 123:../src/smc_gen/r_drw2d_rx/src/tes/dave_quad.c ****       {
 124:../src/smc_gen/r_drw2d_rx/src/tes/dave_quad.c ****          bbox.xmax = x3;
 125:../src/smc_gen/r_drw2d_rx/src/tes/dave_quad.c ****       }
 126:../src/smc_gen/r_drw2d_rx/src/tes/dave_quad.c ****    }
 127:../src/smc_gen/r_drw2d_rx/src/tes/dave_quad.c **** 
 128:../src/smc_gen/r_drw2d_rx/src/tes/dave_quad.c ****    /* get ymin , ymax */
 129:../src/smc_gen/r_drw2d_rx/src/tes/dave_quad.c ****    if(y1 < y2)
 267                             		.loc 1 129 4 is_stmt 1 view .LVU100
 268                             		.loc 1 129 6 is_stmt 0 view .LVU101
 269 0138 DD 05 2A                		mov.W	84[r0], r5
 270 013b DD 04 30                		mov.W	96[r0], r4
 271 013e 47 45                   		cmp	r4, r5
 272 0140 2A 05 38 58 01          		ble	.L21
 130:../src/smc_gen/r_drw2d_rx/src/tes/dave_quad.c ****    {
 131:../src/smc_gen/r_drw2d_rx/src/tes/dave_quad.c ****       bbox.ymin = y1;
 273                             		.loc 1 131 7 is_stmt 1 view .LVU102
 274                             		.loc 1 131 17 is_stmt 0 view .LVU103
 275 0145 D5 00 30 07             		mov.W	96[r0], 14[r0]
 132:../src/smc_gen/r_drw2d_rx/src/tes/dave_quad.c ****       bbox.ymax = y2;
 276                             		.loc 1 132 7 is_stmt 1 view .LVU104
 277                             		.loc 1 132 17 is_stmt 0 view .LVU105
 278 0149 D5 00 2A 09             		mov.W	84[r0], 18[r0]
 279                             	.L22:
 133:../src/smc_gen/r_drw2d_rx/src/tes/dave_quad.c ****    }
 134:../src/smc_gen/r_drw2d_rx/src/tes/dave_quad.c ****    else
 135:../src/smc_gen/r_drw2d_rx/src/tes/dave_quad.c ****    {
 136:../src/smc_gen/r_drw2d_rx/src/tes/dave_quad.c ****       bbox.ymin = y2;
 137:../src/smc_gen/r_drw2d_rx/src/tes/dave_quad.c ****       bbox.ymax = y1;
 138:../src/smc_gen/r_drw2d_rx/src/tes/dave_quad.c ****    }
 139:../src/smc_gen/r_drw2d_rx/src/tes/dave_quad.c **** 
 140:../src/smc_gen/r_drw2d_rx/src/tes/dave_quad.c ****    if(y3 < y4)
 280                             		.loc 1 140 4 is_stmt 1 view .LVU106
 281                             		.loc 1 140 6 is_stmt 0 view .LVU107
 282 014d DD 05 26                		mov.W	76[r0], r5
 283 0150 DD 04 24                		mov.W	72[r0], r4
 284 0153 47 45                   		cmp	r4, r5
 285 0155 29 05 38 4E 01          		bge	.L23
 141:../src/smc_gen/r_drw2d_rx/src/tes/dave_quad.c ****    {
 142:../src/smc_gen/r_drw2d_rx/src/tes/dave_quad.c ****       bbox.ymin = ( bbox.ymin < y3 ) ? bbox.ymin : y3 ;
 286                             		.loc 1 142 7 is_stmt 1 view .LVU108
 287                             		.loc 1 142 50 is_stmt 0 view .LVU109
 288 015a 99 8D                   		mov.W	14[r0], r5
 289 015c DD 04 26                		mov.W	76[r0], r4
 290 015f FC 17 45                		min	r4, r5
 291                             		.loc 1 142 17 view .LVU110
 292 0162 91 8D                   		mov.W	r5, 14[r0]
 143:../src/smc_gen/r_drw2d_rx/src/tes/dave_quad.c ****       bbox.ymax = ( bbox.ymax > y4 ) ? bbox.ymax : y4 ;
 293                             		.loc 1 143 7 is_stmt 1 view .LVU111
 294                             		.loc 1 143 50 is_stmt 0 view .LVU112
 295 0164 9A 0D                   		mov.W	18[r0], r5
 296 0166 DD 04 24                		mov.W	72[r0], r4
 297 0169 FC 13 45                		max	r4, r5
 298                             		.loc 1 143 17 view .LVU113
 299 016c 92 0D                   		mov.W	r5, 18[r0]
 300                             	.L24:
 144:../src/smc_gen/r_drw2d_rx/src/tes/dave_quad.c ****    }
 145:../src/smc_gen/r_drw2d_rx/src/tes/dave_quad.c ****    else
 146:../src/smc_gen/r_drw2d_rx/src/tes/dave_quad.c ****    {
 147:../src/smc_gen/r_drw2d_rx/src/tes/dave_quad.c ****       bbox.ymin = ( bbox.ymin < y4 ) ? bbox.ymin : y4 ;
 148:../src/smc_gen/r_drw2d_rx/src/tes/dave_quad.c ****       bbox.ymax = ( bbox.ymax > y3 ) ? bbox.ymax : y3 ;
 149:../src/smc_gen/r_drw2d_rx/src/tes/dave_quad.c ****    }
 150:../src/smc_gen/r_drw2d_rx/src/tes/dave_quad.c **** 
 151:../src/smc_gen/r_drw2d_rx/src/tes/dave_quad.c ****    bbox.xmin = (d2_point) D2_FLOOR4(bbox.xmin);
 301                             		.loc 1 151 4 is_stmt 1 view .LVU114
 302                             		.loc 1 151 27 is_stmt 0 view .LVU115
 303 016e 99 85                   		mov.W	12[r0], r5
 304                             		.loc 1 151 16 view .LVU116
 305 0170 75 25 F0                		and #-16, r5
 306                             		.loc 1 151 14 view .LVU117
 307 0173 91 85                   		mov.W	r5, 12[r0]
 152:../src/smc_gen/r_drw2d_rx/src/tes/dave_quad.c ****    bbox.ymin = (d2_point) D2_FLOOR4(bbox.ymin);
 308                             		.loc 1 152 4 is_stmt 1 view .LVU118
 309                             		.loc 1 152 27 is_stmt 0 view .LVU119
 310 0175 99 8D                   		mov.W	14[r0], r5
 311                             		.loc 1 152 16 view .LVU120
 312 0177 75 25 F0                		and #-16, r5
 313                             		.loc 1 152 14 view .LVU121
 314 017a 91 8D                   		mov.W	r5, 14[r0]
 153:../src/smc_gen/r_drw2d_rx/src/tes/dave_quad.c **** 
 154:../src/smc_gen/r_drw2d_rx/src/tes/dave_quad.c ****    bbox.xmax = (d2_point) D2_CEIL4(bbox.xmax);
 315                             		.loc 1 154 4 is_stmt 1 view .LVU122
 316                             		.loc 1 154 27 is_stmt 0 view .LVU123
 317 017c 9A 04                   		mov.W	16[r0], r4
 318 017e 62 F4                   		add	#15, r4
 319                             		.loc 1 154 16 view .LVU124
 320 0180 75 24 F0                		and #-16, r4
 321                             		.loc 1 154 14 view .LVU125
 322 0183 92 04                   		mov.W	r4, 16[r0]
 155:../src/smc_gen/r_drw2d_rx/src/tes/dave_quad.c ****    bbox.ymax = (d2_point) D2_CEIL4(bbox.ymax);
 323                             		.loc 1 155 4 is_stmt 1 view .LVU126
 324                             		.loc 1 155 27 is_stmt 0 view .LVU127
 325 0185 9A 0C                   		mov.W	18[r0], r4
 326 0187 62 F4                   		add	#15, r4
 327                             		.loc 1 155 16 view .LVU128
 328 0189 75 24 F0                		and #-16, r4
 329                             		.loc 1 155 14 view .LVU129
 330 018c 92 0C                   		mov.W	r4, 18[r0]
 156:../src/smc_gen/r_drw2d_rx/src/tes/dave_quad.c **** 
 157:../src/smc_gen/r_drw2d_rx/src/tes/dave_quad.c ****    /* calculate spanstoredelay */ 
 158:../src/smc_gen/r_drw2d_rx/src/tes/dave_quad.c ****    delay = (ssd - bbox.ymin) >> 4;    /* PRQA S 0502 */ /* $Misra: #PERF_ARITHMETIC_SHIFT_RIGHT $*/
 331                             		.loc 1 158 4 is_stmt 1 view .LVU130
 332                             		.loc 1 158 23 is_stmt 0 view .LVU131
 333 018e DF 55                   		mov.W	r5, r5
 334                             		.loc 1 158 17 view .LVU132
 335 0190 FF 05 57                		sub	r5, r7, r5
 336                             		.loc 1 158 10 view .LVU133
 337 0193 6A 45                   		shar	#4, r5
 338 0195 A7 85                   		mov.L	r5, 120[r0]
 339                             	.LVL29:
 159:../src/smc_gen/r_drw2d_rx/src/tes/dave_quad.c **** 
 160:../src/smc_gen/r_drw2d_rx/src/tes/dave_quad.c ****    /* clipping */
 161:../src/smc_gen/r_drw2d_rx/src/tes/dave_quad.c ****    if(0 == d2_clipbbox_intern( handle, &bbox ))
 340                             		.loc 1 161 4 is_stmt 1 view .LVU134
 341                             		.loc 1 161 12 is_stmt 0 view .LVU135
 342 0197 66 C2                   		mov.L	#12, r2
 343 0199 4B 02                   		add	r0, r2
 344 019b EF A1                   		mov.L	r10, r1
 345 019d 05 00 00 00             		bsr	_d2_clipbbox_intern
 346                             	.LVL30:
 347                             		.loc 1 161 12 view .LVU136
 348 01a1 EF 19                   		mov.L	r1, r9
 349                             		.loc 1 161 6 view .LVU137
 350 01a3 61 01                   		cmp	#0, r1
 351 01a5 3B 17 01                		bne	.L63
 352                             	.LVL31:
 353                             		.balign 8,3,1
 354                             	.L1:
 162:../src/smc_gen/r_drw2d_rx/src/tes/dave_quad.c ****    {
 163:../src/smc_gen/r_drw2d_rx/src/tes/dave_quad.c ****       return 0;
 164:../src/smc_gen/r_drw2d_rx/src/tes/dave_quad.c ****    }
 165:../src/smc_gen/r_drw2d_rx/src/tes/dave_quad.c **** 
 166:../src/smc_gen/r_drw2d_rx/src/tes/dave_quad.c ****    /* set register values (material parameters) */
 167:../src/smc_gen/r_drw2d_rx/src/tes/dave_quad.c ****    d2_setupmaterial_intern( handle, ctx );
 168:../src/smc_gen/r_drw2d_rx/src/tes/dave_quad.c **** 
 169:../src/smc_gen/r_drw2d_rx/src/tes/dave_quad.c ****    /* make relative */
 170:../src/smc_gen/r_drw2d_rx/src/tes/dave_quad.c ****    x1 = (d2_point)(x1 - bbox.xmin);
 171:../src/smc_gen/r_drw2d_rx/src/tes/dave_quad.c ****    y1 = (d2_point)(y1 - bbox.ymin);
 172:../src/smc_gen/r_drw2d_rx/src/tes/dave_quad.c ****    x2 = (d2_point)(x2 - bbox.xmin);
 173:../src/smc_gen/r_drw2d_rx/src/tes/dave_quad.c ****    y2 = (d2_point)(y2 - bbox.ymin);
 174:../src/smc_gen/r_drw2d_rx/src/tes/dave_quad.c ****    x3 = (d2_point)(x3 - bbox.xmin);
 175:../src/smc_gen/r_drw2d_rx/src/tes/dave_quad.c ****    y3 = (d2_point)(y3 - bbox.ymin);
 176:../src/smc_gen/r_drw2d_rx/src/tes/dave_quad.c ****    x4 = (d2_point)(x4 - bbox.xmin);
 177:../src/smc_gen/r_drw2d_rx/src/tes/dave_quad.c ****    y4 = (d2_point)(y4 - bbox.ymin);
 178:../src/smc_gen/r_drw2d_rx/src/tes/dave_quad.c **** 
 179:../src/smc_gen/r_drw2d_rx/src/tes/dave_quad.c ****    /* calc edge interpolation parameters */
 180:../src/smc_gen/r_drw2d_rx/src/tes/dave_quad.c ****    control = 0;
 181:../src/smc_gen/r_drw2d_rx/src/tes/dave_quad.c **** 
 182:../src/smc_gen/r_drw2d_rx/src/tes/dave_quad.c ****    if(0 == (ctx->features & d2_feat_aa))
 183:../src/smc_gen/r_drw2d_rx/src/tes/dave_quad.c ****    {
 184:../src/smc_gen/r_drw2d_rx/src/tes/dave_quad.c ****       flags |= d2_all_shared;
 185:../src/smc_gen/r_drw2d_rx/src/tes/dave_quad.c ****    }
 186:../src/smc_gen/r_drw2d_rx/src/tes/dave_quad.c **** 
 187:../src/smc_gen/r_drw2d_rx/src/tes/dave_quad.c ****    if(0 != (flags & d2_edge0_shared))
 188:../src/smc_gen/r_drw2d_rx/src/tes/dave_quad.c ****    {
 189:../src/smc_gen/r_drw2d_rx/src/tes/dave_quad.c ****       d2_triedge_setup_intern( &edge[0], x1, y1, dx1, dy1, bR1 );
 190:../src/smc_gen/r_drw2d_rx/src/tes/dave_quad.c ****       control |= D2C_LIM1THRESHOLD;
 191:../src/smc_gen/r_drw2d_rx/src/tes/dave_quad.c ****       edge[0].start += D2_FIX16(1) / 2;
 192:../src/smc_gen/r_drw2d_rx/src/tes/dave_quad.c ****    }
 193:../src/smc_gen/r_drw2d_rx/src/tes/dave_quad.c ****    else
 194:../src/smc_gen/r_drw2d_rx/src/tes/dave_quad.c ****    {
 195:../src/smc_gen/r_drw2d_rx/src/tes/dave_quad.c ****       if(0 != (ctx->features & d2_feat_blur))
 196:../src/smc_gen/r_drw2d_rx/src/tes/dave_quad.c ****       {
 197:../src/smc_gen/r_drw2d_rx/src/tes/dave_quad.c ****          d2_triedge_setupblur_intern( &edge[0], x1, y1, dx1, dy1, ctx );
 198:../src/smc_gen/r_drw2d_rx/src/tes/dave_quad.c ****       }
 199:../src/smc_gen/r_drw2d_rx/src/tes/dave_quad.c ****       else 
 200:../src/smc_gen/r_drw2d_rx/src/tes/dave_quad.c ****       {
 201:../src/smc_gen/r_drw2d_rx/src/tes/dave_quad.c ****          d2_triedge_setup_intern( &edge[0], x1, y1, dx1, dy1, bR1 );
 202:../src/smc_gen/r_drw2d_rx/src/tes/dave_quad.c ****          edge[0].start += D2_FIX16(1);
 203:../src/smc_gen/r_drw2d_rx/src/tes/dave_quad.c ****       }
 204:../src/smc_gen/r_drw2d_rx/src/tes/dave_quad.c ****    }
 205:../src/smc_gen/r_drw2d_rx/src/tes/dave_quad.c **** 
 206:../src/smc_gen/r_drw2d_rx/src/tes/dave_quad.c ****    if(0 != (flags & d2_edge1_shared))
 207:../src/smc_gen/r_drw2d_rx/src/tes/dave_quad.c ****    {
 208:../src/smc_gen/r_drw2d_rx/src/tes/dave_quad.c ****       d2_triedge_setup_intern( &edge[1], x2, y2, dx2, dy2, bR2 );
 209:../src/smc_gen/r_drw2d_rx/src/tes/dave_quad.c ****       control |= D2C_LIM2THRESHOLD;
 210:../src/smc_gen/r_drw2d_rx/src/tes/dave_quad.c ****       edge[1].start += D2_FIX16(1) / 2;
 211:../src/smc_gen/r_drw2d_rx/src/tes/dave_quad.c ****    }
 212:../src/smc_gen/r_drw2d_rx/src/tes/dave_quad.c ****    else
 213:../src/smc_gen/r_drw2d_rx/src/tes/dave_quad.c ****    {
 214:../src/smc_gen/r_drw2d_rx/src/tes/dave_quad.c ****       if(0 != (ctx->features & d2_feat_blur))
 215:../src/smc_gen/r_drw2d_rx/src/tes/dave_quad.c ****       {
 216:../src/smc_gen/r_drw2d_rx/src/tes/dave_quad.c ****          d2_triedge_setupblur_intern( &edge[1], x2, y2, dx2, dy2, ctx );
 217:../src/smc_gen/r_drw2d_rx/src/tes/dave_quad.c ****       }
 218:../src/smc_gen/r_drw2d_rx/src/tes/dave_quad.c ****       else 
 219:../src/smc_gen/r_drw2d_rx/src/tes/dave_quad.c ****       {
 220:../src/smc_gen/r_drw2d_rx/src/tes/dave_quad.c ****          d2_triedge_setup_intern( &edge[1], x2, y2, dx2, dy2, bR2 );
 221:../src/smc_gen/r_drw2d_rx/src/tes/dave_quad.c ****          edge[1].start += D2_FIX16(1);
 222:../src/smc_gen/r_drw2d_rx/src/tes/dave_quad.c ****       }
 223:../src/smc_gen/r_drw2d_rx/src/tes/dave_quad.c ****    }
 224:../src/smc_gen/r_drw2d_rx/src/tes/dave_quad.c **** 
 225:../src/smc_gen/r_drw2d_rx/src/tes/dave_quad.c ****    if(0 != (flags & d2_edge2_shared))
 226:../src/smc_gen/r_drw2d_rx/src/tes/dave_quad.c ****    {
 227:../src/smc_gen/r_drw2d_rx/src/tes/dave_quad.c ****       d2_triedge_setup_intern( &edge[2], x3, y3, dx3, dy3, bR3 );
 228:../src/smc_gen/r_drw2d_rx/src/tes/dave_quad.c ****       control |= D2C_LIM3THRESHOLD;
 229:../src/smc_gen/r_drw2d_rx/src/tes/dave_quad.c ****       edge[2].start += D2_FIX16(1) / 2;
 230:../src/smc_gen/r_drw2d_rx/src/tes/dave_quad.c ****    }
 231:../src/smc_gen/r_drw2d_rx/src/tes/dave_quad.c ****    else
 232:../src/smc_gen/r_drw2d_rx/src/tes/dave_quad.c ****    {
 233:../src/smc_gen/r_drw2d_rx/src/tes/dave_quad.c ****       if(0 != (ctx->features & d2_feat_blur))
 234:../src/smc_gen/r_drw2d_rx/src/tes/dave_quad.c ****       {
 235:../src/smc_gen/r_drw2d_rx/src/tes/dave_quad.c ****          d2_triedge_setupblur_intern( &edge[2], x3, y3, dx3, dy3, ctx );
 236:../src/smc_gen/r_drw2d_rx/src/tes/dave_quad.c ****       }
 237:../src/smc_gen/r_drw2d_rx/src/tes/dave_quad.c ****       else 
 238:../src/smc_gen/r_drw2d_rx/src/tes/dave_quad.c ****       {
 239:../src/smc_gen/r_drw2d_rx/src/tes/dave_quad.c ****          d2_triedge_setup_intern( &edge[2], x3, y3, dx3, dy3, bR3 );
 240:../src/smc_gen/r_drw2d_rx/src/tes/dave_quad.c ****          edge[2].start += D2_FIX16(1);
 241:../src/smc_gen/r_drw2d_rx/src/tes/dave_quad.c ****       }
 242:../src/smc_gen/r_drw2d_rx/src/tes/dave_quad.c ****    }
 243:../src/smc_gen/r_drw2d_rx/src/tes/dave_quad.c **** 
 244:../src/smc_gen/r_drw2d_rx/src/tes/dave_quad.c ****    if(0 != (flags & d2_edge3_shared))
 245:../src/smc_gen/r_drw2d_rx/src/tes/dave_quad.c ****    {
 246:../src/smc_gen/r_drw2d_rx/src/tes/dave_quad.c ****       d2_triedge_setup_intern( &edge[3], x4, y4, dx4, dy4, bR4 );
 247:../src/smc_gen/r_drw2d_rx/src/tes/dave_quad.c ****       control |= D2C_LIM4THRESHOLD;
 248:../src/smc_gen/r_drw2d_rx/src/tes/dave_quad.c ****       edge[3].start += D2_FIX16(1) / 2;
 249:../src/smc_gen/r_drw2d_rx/src/tes/dave_quad.c ****    }
 250:../src/smc_gen/r_drw2d_rx/src/tes/dave_quad.c ****    else
 251:../src/smc_gen/r_drw2d_rx/src/tes/dave_quad.c ****    {
 252:../src/smc_gen/r_drw2d_rx/src/tes/dave_quad.c ****       if(0 != (ctx->features & d2_feat_blur))
 253:../src/smc_gen/r_drw2d_rx/src/tes/dave_quad.c ****       {
 254:../src/smc_gen/r_drw2d_rx/src/tes/dave_quad.c ****          d2_triedge_setupblur_intern( &edge[3], x4, y4, dx4, dy4, ctx );
 255:../src/smc_gen/r_drw2d_rx/src/tes/dave_quad.c ****       }
 256:../src/smc_gen/r_drw2d_rx/src/tes/dave_quad.c ****       else 
 257:../src/smc_gen/r_drw2d_rx/src/tes/dave_quad.c ****       {
 258:../src/smc_gen/r_drw2d_rx/src/tes/dave_quad.c ****          d2_triedge_setup_intern( &edge[3], x4, y4, dx4, dy4, bR4 );
 259:../src/smc_gen/r_drw2d_rx/src/tes/dave_quad.c ****          edge[3].start += D2_FIX16(1);
 260:../src/smc_gen/r_drw2d_rx/src/tes/dave_quad.c ****       }
 261:../src/smc_gen/r_drw2d_rx/src/tes/dave_quad.c ****    }
 262:../src/smc_gen/r_drw2d_rx/src/tes/dave_quad.c **** 
 263:../src/smc_gen/r_drw2d_rx/src/tes/dave_quad.c ****    /* optimize for span abort / span store */
 264:../src/smc_gen/r_drw2d_rx/src/tes/dave_quad.c ****    if ( ( bbox.ymax - ssd ) < ( ssd - bbox.ymin ) )
 265:../src/smc_gen/r_drw2d_rx/src/tes/dave_quad.c ****    {
 266:../src/smc_gen/r_drw2d_rx/src/tes/dave_quad.c ****       flip = 1;
 267:../src/smc_gen/r_drw2d_rx/src/tes/dave_quad.c ****       delay = (bbox.ymax - ssd  ) >> 4;  /* PRQA S 0502 */ /* $Misra: #PERF_ARITHMETIC_SHIFT_RIGHT 
 268:../src/smc_gen/r_drw2d_rx/src/tes/dave_quad.c ****    }
 269:../src/smc_gen/r_drw2d_rx/src/tes/dave_quad.c ****    else
 270:../src/smc_gen/r_drw2d_rx/src/tes/dave_quad.c ****    {
 271:../src/smc_gen/r_drw2d_rx/src/tes/dave_quad.c ****       flip = 0;
 272:../src/smc_gen/r_drw2d_rx/src/tes/dave_quad.c ****    }
 273:../src/smc_gen/r_drw2d_rx/src/tes/dave_quad.c **** 
 274:../src/smc_gen/r_drw2d_rx/src/tes/dave_quad.c **** 
 275:../src/smc_gen/r_drw2d_rx/src/tes/dave_quad.c ****    control |= D2C_LIM1ENABLE | D2C_LIM2ENABLE | D2C_LIM3ENABLE | D2C_LIM4ENABLE | D2C_SPANABORT | D
 276:../src/smc_gen/r_drw2d_rx/src/tes/dave_quad.c **** 
 277:../src/smc_gen/r_drw2d_rx/src/tes/dave_quad.c ****    /* check for alpha gradients */
 278:../src/smc_gen/r_drw2d_rx/src/tes/dave_quad.c ****    if(0 != (ctx->alphamode & (d2_am_gradient1 | d2_am_gradient2)))
 279:../src/smc_gen/r_drw2d_rx/src/tes/dave_quad.c ****    {
 280:../src/smc_gen/r_drw2d_rx/src/tes/dave_quad.c ****       control = d2_initgradients_intern( handle, ctx, &bbox, 4, control );
 281:../src/smc_gen/r_drw2d_rx/src/tes/dave_quad.c **** 
 282:../src/smc_gen/r_drw2d_rx/src/tes/dave_quad.c ****       if(0 == (control & D2C_SPANSTORE))
 283:../src/smc_gen/r_drw2d_rx/src/tes/dave_quad.c ****       {
 284:../src/smc_gen/r_drw2d_rx/src/tes/dave_quad.c ****          flip = 0;
 285:../src/smc_gen/r_drw2d_rx/src/tes/dave_quad.c ****       }
 286:../src/smc_gen/r_drw2d_rx/src/tes/dave_quad.c ****    }
 287:../src/smc_gen/r_drw2d_rx/src/tes/dave_quad.c **** 
 288:../src/smc_gen/r_drw2d_rx/src/tes/dave_quad.c ****    /* bottom-up rendering / left edges are x-decreasing */
 289:../src/smc_gen/r_drw2d_rx/src/tes/dave_quad.c ****    if(0 != flip)
 290:../src/smc_gen/r_drw2d_rx/src/tes/dave_quad.c ****    {
 291:../src/smc_gen/r_drw2d_rx/src/tes/dave_quad.c ****       d2_s32 h = D2_INT4( bbox.ymax - bbox.ymin );   /* PRQA S 0502 */ /* $Misra: #PERF_ARITHMETIC_
 292:../src/smc_gen/r_drw2d_rx/src/tes/dave_quad.c ****       d2_invertlimiter_intern(&edge[0], h);
 293:../src/smc_gen/r_drw2d_rx/src/tes/dave_quad.c ****       d2_invertlimiter_intern(&edge[1], h);
 294:../src/smc_gen/r_drw2d_rx/src/tes/dave_quad.c ****       d2_invertlimiter_intern(&edge[2], h);
 295:../src/smc_gen/r_drw2d_rx/src/tes/dave_quad.c ****       d2_invertlimiter_intern(&edge[3], h);
 296:../src/smc_gen/r_drw2d_rx/src/tes/dave_quad.c ****       d2_setuppattern( handle, ctx, &bbox, 1 );
 297:../src/smc_gen/r_drw2d_rx/src/tes/dave_quad.c ****       d2_setuptexture( handle, ctx, &bbox, 1 );
 298:../src/smc_gen/r_drw2d_rx/src/tes/dave_quad.c ****    }
 299:../src/smc_gen/r_drw2d_rx/src/tes/dave_quad.c ****    else
 300:../src/smc_gen/r_drw2d_rx/src/tes/dave_quad.c ****    {
 301:../src/smc_gen/r_drw2d_rx/src/tes/dave_quad.c ****       d2_setuppattern( handle, ctx, &bbox, 0 );
 302:../src/smc_gen/r_drw2d_rx/src/tes/dave_quad.c ****       d2_setuptexture( handle, ctx, &bbox, 0 );
 303:../src/smc_gen/r_drw2d_rx/src/tes/dave_quad.c ****    }
 304:../src/smc_gen/r_drw2d_rx/src/tes/dave_quad.c **** 
 305:../src/smc_gen/r_drw2d_rx/src/tes/dave_quad.c ****    /* set register values (geometric parameters) */
 306:../src/smc_gen/r_drw2d_rx/src/tes/dave_quad.c ****    D2_DLISTWRITES( D2_L1START, edge[0].start );
 307:../src/smc_gen/r_drw2d_rx/src/tes/dave_quad.c ****    D2_DLISTWRITES( D2_L1XADD , edge[0].xadd );
 308:../src/smc_gen/r_drw2d_rx/src/tes/dave_quad.c ****    D2_DLISTWRITES( D2_L1YADD , edge[0].yadd );
 309:../src/smc_gen/r_drw2d_rx/src/tes/dave_quad.c ****    D2_DLISTWRITES( D2_L2START, edge[1].start );
 310:../src/smc_gen/r_drw2d_rx/src/tes/dave_quad.c ****    D2_DLISTWRITES( D2_L2XADD , edge[1].xadd );
 311:../src/smc_gen/r_drw2d_rx/src/tes/dave_quad.c ****    D2_DLISTWRITES( D2_L2YADD , edge[1].yadd );
 312:../src/smc_gen/r_drw2d_rx/src/tes/dave_quad.c ****    D2_DLISTWRITES( D2_L3START, edge[2].start );
 313:../src/smc_gen/r_drw2d_rx/src/tes/dave_quad.c ****    D2_DLISTWRITES( D2_L3XADD , edge[2].xadd );
 314:../src/smc_gen/r_drw2d_rx/src/tes/dave_quad.c ****    D2_DLISTWRITES( D2_L3YADD , edge[2].yadd );
 315:../src/smc_gen/r_drw2d_rx/src/tes/dave_quad.c ****    D2_DLISTWRITES( D2_L4START, edge[3].start );
 316:../src/smc_gen/r_drw2d_rx/src/tes/dave_quad.c ****    D2_DLISTWRITES( D2_L4XADD , edge[3].xadd );
 317:../src/smc_gen/r_drw2d_rx/src/tes/dave_quad.c ****    D2_DLISTWRITES( D2_L4YADD , edge[3].yadd );
 318:../src/smc_gen/r_drw2d_rx/src/tes/dave_quad.c ****    D2_DLISTWRITEU( D2_CONTROL,  control );
 319:../src/smc_gen/r_drw2d_rx/src/tes/dave_quad.c **** 
 320:../src/smc_gen/r_drw2d_rx/src/tes/dave_quad.c ****    /* start rendering */
 321:../src/smc_gen/r_drw2d_rx/src/tes/dave_quad.c ****    if(0 != flip)
 322:../src/smc_gen/r_drw2d_rx/src/tes/dave_quad.c ****    {
 323:../src/smc_gen/r_drw2d_rx/src/tes/dave_quad.c ****       d2_startrender_bottom_intern( handle, &bbox, (d2_u32)delay + 1 );
 324:../src/smc_gen/r_drw2d_rx/src/tes/dave_quad.c ****    }
 325:../src/smc_gen/r_drw2d_rx/src/tes/dave_quad.c ****    else
 326:../src/smc_gen/r_drw2d_rx/src/tes/dave_quad.c ****    {
 327:../src/smc_gen/r_drw2d_rx/src/tes/dave_quad.c ****       d2_startrender_intern( handle, &bbox, (d2_u32)delay + 1 );
 328:../src/smc_gen/r_drw2d_rx/src/tes/dave_quad.c ****    }
 329:../src/smc_gen/r_drw2d_rx/src/tes/dave_quad.c **** 
 330:../src/smc_gen/r_drw2d_rx/src/tes/dave_quad.c ****    return 1;
 331:../src/smc_gen/r_drw2d_rx/src/tes/dave_quad.c **** }
 355                             		.loc 1 331 1 view .LVU138
 356 01a8 EF 91                   		mov.L	r9, r1
 357 01aa 3F 6D 2F                		rtsd	#188, r6-r13
 358                             	.LVL32:
 359                             	.L59:
  64:../src/smc_gen/r_drw2d_rx/src/tes/dave_quad.c ****       }
 360                             		.loc 1 64 10 is_stmt 1 view .LVU139
  64:../src/smc_gen/r_drw2d_rx/src/tes/dave_quad.c ****       }
 361                             		.loc 1 64 17 is_stmt 0 view .LVU140
 362 01ad AE 0F                   		mov.L	100[r0], r7
 363 01af 68 17                   		shlr	#1, r7
 364 01b1 A0 87                   		mov.L	r7, 8[r0]
 365 01b3 D5 00 24 02             		mov.W	72[r0], 4[r0]
 366 01b7 90 0E                   		mov.W	r6, 2[r0]
 367 01b9 D1 00 26                		mov.W	76[r0], [r0]
 368 01bc DD 04 22                		mov.W	68[r0], r4
 369 01bf DD 03 2A                		mov.W	84[r0], r3
 370 01c2 DD 02 28                		mov.W	80[r0], r2
 371 01c5 EF A1                   		mov.L	r10, r1
 372                             	.LVL33:
  64:../src/smc_gen/r_drw2d_rx/src/tes/dave_quad.c ****       }
 373                             		.loc 1 64 17 view .LVU141
 374 01c7 05 00 00 00             		bsr	_d2_rendertri
 375                             	.LVL34:
  64:../src/smc_gen/r_drw2d_rx/src/tes/dave_quad.c ****       }
 376                             		.loc 1 64 17 view .LVU142
 377 01cb EF 19                   		mov.L	r1, r9
 378 01cd 2E DB                   		bra	.L1
 379                             	.LVL35:
 380                             	.L60:
  68:../src/smc_gen/r_drw2d_rx/src/tes/dave_quad.c ****       }
 381                             		.loc 1 68 10 is_stmt 1 view .LVU143
  68:../src/smc_gen/r_drw2d_rx/src/tes/dave_quad.c ****       }
 382                             		.loc 1 68 79 is_stmt 0 view .LVU144
 383 01cf AE 0F                   		mov.L	100[r0], r7
 384 01d1 68 17                   		shlr	#1, r7
 385 01d3 64 67                   		and #6, r7
  68:../src/smc_gen/r_drw2d_rx/src/tes/dave_quad.c ****       }
 386                             		.loc 1 68 94 view .LVU145
 387 01d5 AE 0D                   		mov.L	100[r0], r5
 388                             	.LVL36:
  68:../src/smc_gen/r_drw2d_rx/src/tes/dave_quad.c ****       }
 389                             		.loc 1 68 94 view .LVU146
 390 01d7 64 15                   		and #1, r5
  68:../src/smc_gen/r_drw2d_rx/src/tes/dave_quad.c ****       }
 391                             		.loc 1 68 17 view .LVU147
 392 01d9 57 57                   		or	r5, r7
 393 01db A0 87                   		mov.L	r7, 8[r0]
 394 01dd D5 00 24 02             		mov.W	72[r0], 4[r0]
 395 01e1 90 0E                   		mov.W	r6, 2[r0]
 396 01e3 D1 00 26                		mov.W	76[r0], [r0]
 397 01e6 DD 04 22                		mov.W	68[r0], r4
 398 01e9 DD 03 30                		mov.W	96[r0], r3
 399 01ec DD 02 2E                		mov.W	92[r0], r2
 400 01ef EF A1                   		mov.L	r10, r1
 401                             	.LVL37:
  68:../src/smc_gen/r_drw2d_rx/src/tes/dave_quad.c ****       }
 402                             		.loc 1 68 17 view .LVU148
 403 01f1 05 00 00 00             		bsr	_d2_rendertri
 404                             	.LVL38:
 405 01f5 EF 19                   		mov.L	r1, r9
 406 01f7 2E B1                   		bra	.L1
 407                             	.LVL39:
 408                             	.L61:
  72:../src/smc_gen/r_drw2d_rx/src/tes/dave_quad.c ****       }
 409                             		.loc 1 72 10 is_stmt 1 view .LVU149
  72:../src/smc_gen/r_drw2d_rx/src/tes/dave_quad.c ****       }
 410                             		.loc 1 72 77 is_stmt 0 view .LVU150
 411 01f9 AE 0F                   		mov.L	100[r0], r7
 412 01fb 68 17                   		shlr	#1, r7
 413 01fd 64 47                   		and #4, r7
  72:../src/smc_gen/r_drw2d_rx/src/tes/dave_quad.c ****       }
 414                             		.loc 1 72 93 view .LVU151
 415 01ff AE 0D                   		mov.L	100[r0], r5
 416                             	.LVL40:
  72:../src/smc_gen/r_drw2d_rx/src/tes/dave_quad.c ****       }
 417                             		.loc 1 72 93 view .LVU152
 418 0201 64 35                   		and #3, r5
  72:../src/smc_gen/r_drw2d_rx/src/tes/dave_quad.c ****       }
 419                             		.loc 1 72 17 view .LVU153
 420 0203 57 57                   		or	r5, r7
 421 0205 A0 87                   		mov.L	r7, 8[r0]
 422 0207 D5 00 24 02             		mov.W	72[r0], 4[r0]
 423 020b 90 0E                   		mov.W	r6, 2[r0]
 424 020d D1 00 2A                		mov.W	84[r0], [r0]
 425 0210 DD 04 28                		mov.W	80[r0], r4
 426 0213 DD 03 30                		mov.W	96[r0], r3
 427 0216 DD 02 2E                		mov.W	92[r0], r2
 428 0219 EF A1                   		mov.L	r10, r1
 429                             	.LVL41:
  72:../src/smc_gen/r_drw2d_rx/src/tes/dave_quad.c ****       }
 430                             		.loc 1 72 17 view .LVU154
 431 021b 05 00 00 00             		bsr	_d2_rendertri
 432                             	.LVL42:
 433 021f EF 19                   		mov.L	r1, r9
 434 0221 2E 87                   		bra	.L1
 435                             	.LVL43:
 436                             	.L62:
  76:../src/smc_gen/r_drw2d_rx/src/tes/dave_quad.c ****       }
 437                             		.loc 1 76 10 is_stmt 1 view .LVU155
  76:../src/smc_gen/r_drw2d_rx/src/tes/dave_quad.c ****       }
 438                             		.loc 1 76 17 is_stmt 0 view .LVU156
 439 0223 AE 0F                   		mov.L	100[r0], r7
 440 0225 64 77                   		and #7, r7
 441 0227 A0 87                   		mov.L	r7, 8[r0]
 442 0229 D5 00 26 02             		mov.W	76[r0], 4[r0]
 443 022d D5 00 22 01             		mov.W	68[r0], 2[r0]
 444 0231 D1 00 2A                		mov.W	84[r0], [r0]
 445 0234 DD 04 28                		mov.W	80[r0], r4
 446 0237 DD 03 30                		mov.W	96[r0], r3
 447 023a DD 02 2E                		mov.W	92[r0], r2
 448 023d EF A1                   		mov.L	r10, r1
 449                             	.LVL44:
  76:../src/smc_gen/r_drw2d_rx/src/tes/dave_quad.c ****       }
 450                             		.loc 1 76 17 view .LVU157
 451 023f 05 00 00 00             		bsr	_d2_rendertri
 452                             	.LVL45:
  76:../src/smc_gen/r_drw2d_rx/src/tes/dave_quad.c ****       }
 453                             		.loc 1 76 17 view .LVU158
 454 0243 EF 19                   		mov.L	r1, r9
 455 0245 38 63 FF                		bra	.L1
 456                             	.LVL46:
 457                             	.L7:
  82:../src/smc_gen/r_drw2d_rx/src/tes/dave_quad.c ****    bR2 = (dy2 == 0) ? (idxm & 2u) : (idym & 2u);
 458                             		.loc 1 82 35 discriminator 2 view .LVU159
 459 0248 66 19                   		mov.L	#1, r9
 460 024a 53 59                   		and	r5, r9
 461 024c E7 09 1F                		mov.L	r9, 124[r0]
 462 024f 38 8B FE                		bra	.L8
 463                             	.LVL47:
 464                             	.L9:
  83:../src/smc_gen/r_drw2d_rx/src/tes/dave_quad.c ****    bR3 = (dy3 == 0) ? (idxm & 4u) : (idym & 4u);
 465                             		.loc 1 83 35 discriminator 2 view .LVU160
 466 0252 66 29                   		mov.L	#2, r9
 467 0254 53 59                   		and	r5, r9
 468 0256 E7 09 20                		mov.L	r9, 128[r0]
 469 0259 38 8D FE                		bra	.L10
 470                             	.LVL48:
 471                             	.L11:
  84:../src/smc_gen/r_drw2d_rx/src/tes/dave_quad.c ****    bR4 = (dy4 == 0) ? (idxm & 8u) : (idym & 8u);
 472                             		.loc 1 84 35 discriminator 2 view .LVU161
 473 025c 66 49                   		mov.L	#4, r9
 474 025e 53 59                   		and	r5, r9
 475 0260 E7 09 21                		mov.L	r9, 132[r0]
 476 0263 38 8F FE                		bra	.L12
 477                             	.LVL49:
 478                             	.L13:
  85:../src/smc_gen/r_drw2d_rx/src/tes/dave_quad.c **** 
 479                             		.loc 1 85 35 discriminator 2 view .LVU162
 480 0266 64 85                   		and #8, r5
 481                             	.LVL50:
  85:../src/smc_gen/r_drw2d_rx/src/tes/dave_quad.c **** 
 482                             		.loc 1 85 35 discriminator 2 view .LVU163
 483 0268 E7 05 22                		mov.L	r5, 136[r0]
 484 026b 38 91 FE                		bra	.L14
 485                             	.LVL51:
 486                             	.L15:
  97:../src/smc_gen/r_drw2d_rx/src/tes/dave_quad.c ****       bbox.xmax = x1;
 487                             		.loc 1 97 7 is_stmt 1 view .LVU164
  97:../src/smc_gen/r_drw2d_rx/src/tes/dave_quad.c ****       bbox.xmax = x1;
 488                             		.loc 1 97 17 is_stmt 0 view .LVU165
 489 026e D5 00 28 06             		mov.W	80[r0], 12[r0]
  98:../src/smc_gen/r_drw2d_rx/src/tes/dave_quad.c ****       ssd = y2;
 490                             		.loc 1 98 7 is_stmt 1 view .LVU166
  98:../src/smc_gen/r_drw2d_rx/src/tes/dave_quad.c ****       ssd = y2;
 491                             		.loc 1 98 17 is_stmt 0 view .LVU167
 492 0272 D5 00 2E 08             		mov.W	92[r0], 16[r0]
  99:../src/smc_gen/r_drw2d_rx/src/tes/dave_quad.c ****    }
 493                             		.loc 1 99 7 is_stmt 1 view .LVU168
 494                             	.LVL52:
  99:../src/smc_gen/r_drw2d_rx/src/tes/dave_quad.c ****    }
 495                             		.loc 1 99 11 is_stmt 0 view .LVU169
 496 0276 EF 47                   		mov.L	r4, r7
 497 0278 38 99 FE                		bra	.L16
 498                             	.LVL53:
 499                             	.L17:
 116:../src/smc_gen/r_drw2d_rx/src/tes/dave_quad.c ****       {
 500                             		.loc 1 116 7 is_stmt 1 view .LVU170
 116:../src/smc_gen/r_drw2d_rx/src/tes/dave_quad.c ****       {
 501                             		.loc 1 116 9 is_stmt 0 view .LVU171
 502 027b 99 84                   		mov.W	12[r0], r4
 503 027d DF 65                   		mov.W	r6, r5
 504 027f 47 54                   		cmp	r5, r4
 505 0281 2B 06                   		ble	.L20
 118:../src/smc_gen/r_drw2d_rx/src/tes/dave_quad.c ****          ssd = y4;
 506                             		.loc 1 118 10 is_stmt 1 view .LVU172
 118:../src/smc_gen/r_drw2d_rx/src/tes/dave_quad.c ****          ssd = y4;
 507                             		.loc 1 118 20 is_stmt 0 view .LVU173
 508 0283 91 86                   		mov.W	r6, 12[r0]
 119:../src/smc_gen/r_drw2d_rx/src/tes/dave_quad.c ****       }
 509                             		.loc 1 119 10 is_stmt 1 view .LVU174
 510                             	.LVL54:
 119:../src/smc_gen/r_drw2d_rx/src/tes/dave_quad.c ****       }
 511                             		.loc 1 119 14 is_stmt 0 view .LVU175
 512 0285 EF 37                   		mov.L	r3, r7
 513                             	.LVL55:
 514                             	.L20:
 122:../src/smc_gen/r_drw2d_rx/src/tes/dave_quad.c ****       {
 515                             		.loc 1 122 7 is_stmt 1 view .LVU176
 122:../src/smc_gen/r_drw2d_rx/src/tes/dave_quad.c ****       {
 516                             		.loc 1 122 9 is_stmt 0 view .LVU177
 517 0287 9A 04                   		mov.W	16[r0], r4
 518 0289 DD 05 22                		mov.W	68[r0], r5
 519 028c 47 54                   		cmp	r5, r4
 520 028e 29 05 38 A8 FE          		bge	.L19
 124:../src/smc_gen/r_drw2d_rx/src/tes/dave_quad.c ****       }
 521                             		.loc 1 124 10 is_stmt 1 view .LVU178
 124:../src/smc_gen/r_drw2d_rx/src/tes/dave_quad.c ****       }
 522                             		.loc 1 124 20 is_stmt 0 view .LVU179
 523 0293 D5 00 22 08             		mov.W	68[r0], 16[r0]
 524 0297 38 A1 FE                		bra	.L19
 525                             	.L21:
 136:../src/smc_gen/r_drw2d_rx/src/tes/dave_quad.c ****       bbox.ymax = y1;
 526                             		.loc 1 136 7 is_stmt 1 view .LVU180
 136:../src/smc_gen/r_drw2d_rx/src/tes/dave_quad.c ****       bbox.ymax = y1;
 527                             		.loc 1 136 17 is_stmt 0 view .LVU181
 528 029a D5 00 2A 07             		mov.W	84[r0], 14[r0]
 137:../src/smc_gen/r_drw2d_rx/src/tes/dave_quad.c ****    }
 529                             		.loc 1 137 7 is_stmt 1 view .LVU182
 137:../src/smc_gen/r_drw2d_rx/src/tes/dave_quad.c ****    }
 530                             		.loc 1 137 17 is_stmt 0 view .LVU183
 531 029e D5 00 30 09             		mov.W	96[r0], 18[r0]
 532 02a2 38 AB FE                		bra	.L22
 533                             	.L23:
 147:../src/smc_gen/r_drw2d_rx/src/tes/dave_quad.c ****       bbox.ymax = ( bbox.ymax > y3 ) ? bbox.ymax : y3 ;
 534                             		.loc 1 147 7 is_stmt 1 view .LVU184
 147:../src/smc_gen/r_drw2d_rx/src/tes/dave_quad.c ****       bbox.ymax = ( bbox.ymax > y3 ) ? bbox.ymax : y3 ;
 535                             		.loc 1 147 50 is_stmt 0 view .LVU185
 536 02a5 99 8D                   		mov.W	14[r0], r5
 537 02a7 DD 04 24                		mov.W	72[r0], r4
 538 02aa FC 17 45                		min	r4, r5
 147:../src/smc_gen/r_drw2d_rx/src/tes/dave_quad.c ****       bbox.ymax = ( bbox.ymax > y3 ) ? bbox.ymax : y3 ;
 539                             		.loc 1 147 17 view .LVU186
 540 02ad 91 8D                   		mov.W	r5, 14[r0]
 148:../src/smc_gen/r_drw2d_rx/src/tes/dave_quad.c ****    }
 541                             		.loc 1 148 7 is_stmt 1 view .LVU187
 148:../src/smc_gen/r_drw2d_rx/src/tes/dave_quad.c ****    }
 542                             		.loc 1 148 50 is_stmt 0 view .LVU188
 543 02af 9A 0D                   		mov.W	18[r0], r5
 544 02b1 DD 04 26                		mov.W	76[r0], r4
 545 02b4 FC 13 45                		max	r4, r5
 148:../src/smc_gen/r_drw2d_rx/src/tes/dave_quad.c ****    }
 546                             		.loc 1 148 17 view .LVU189
 547 02b7 92 0D                   		mov.W	r5, 18[r0]
 548 02b9 38 B5 FE                		bra	.L24
 549                             	.LVL56:
 550                             	.L63:
 167:../src/smc_gen/r_drw2d_rx/src/tes/dave_quad.c **** 
 551                             		.loc 1 167 4 is_stmt 1 view .LVU190
 552 02bc AD 82                   		mov.L	88[r0], r2
 553 02be EF A1                   		mov.L	r10, r1
 554 02c0 05 00 00 00             		bsr	_d2_setupmaterial_intern
 555                             	.LVL57:
 170:../src/smc_gen/r_drw2d_rx/src/tes/dave_quad.c ****    y1 = (d2_point)(y1 - bbox.ymin);
 556                             		.loc 1 170 4 view .LVU191
 170:../src/smc_gen/r_drw2d_rx/src/tes/dave_quad.c ****    y1 = (d2_point)(y1 - bbox.ymin);
 557                             		.loc 1 170 29 is_stmt 0 view .LVU192
 558 02c4 99 84                   		mov.W	12[r0], r4
 170:../src/smc_gen/r_drw2d_rx/src/tes/dave_quad.c ****    y1 = (d2_point)(y1 - bbox.ymin);
 559                             		.loc 1 170 23 view .LVU193
 560 02c6 DD 02 2E                		mov.W	92[r0], r2
 561 02c9 43 42                   		sub	r4, r2
 562                             	.LVL58:
 171:../src/smc_gen/r_drw2d_rx/src/tes/dave_quad.c ****    x2 = (d2_point)(x2 - bbox.xmin);
 563                             		.loc 1 171 4 is_stmt 1 view .LVU194
 171:../src/smc_gen/r_drw2d_rx/src/tes/dave_quad.c ****    x2 = (d2_point)(x2 - bbox.xmin);
 564                             		.loc 1 171 29 is_stmt 0 view .LVU195
 565 02cb 99 8D                   		mov.W	14[r0], r5
 171:../src/smc_gen/r_drw2d_rx/src/tes/dave_quad.c ****    x2 = (d2_point)(x2 - bbox.xmin);
 566                             		.loc 1 171 23 view .LVU196
 567 02cd DD 03 30                		mov.W	96[r0], r3
 568 02d0 43 53                   		sub	r5, r3
 569                             	.LVL59:
 172:../src/smc_gen/r_drw2d_rx/src/tes/dave_quad.c ****    y2 = (d2_point)(y2 - bbox.ymin);
 570                             		.loc 1 172 4 is_stmt 1 view .LVU197
 172:../src/smc_gen/r_drw2d_rx/src/tes/dave_quad.c ****    y2 = (d2_point)(y2 - bbox.ymin);
 571                             		.loc 1 172 23 is_stmt 0 view .LVU198
 572 02d2 DD 09 28                		mov.W	80[r0], r9
 573 02d5 43 49                   		sub	r4, r9
 574 02d7 E7 09 14                		mov.L	r9, 80[r0]
 575                             	.LVL60:
 173:../src/smc_gen/r_drw2d_rx/src/tes/dave_quad.c ****    x3 = (d2_point)(x3 - bbox.xmin);
 576                             		.loc 1 173 4 is_stmt 1 view .LVU199
 173:../src/smc_gen/r_drw2d_rx/src/tes/dave_quad.c ****    x3 = (d2_point)(x3 - bbox.xmin);
 577                             		.loc 1 173 23 is_stmt 0 view .LVU200
 578 02da DD 09 2A                		mov.W	84[r0], r9
 579                             	.LVL61:
 173:../src/smc_gen/r_drw2d_rx/src/tes/dave_quad.c ****    x3 = (d2_point)(x3 - bbox.xmin);
 580                             		.loc 1 173 23 view .LVU201
 581 02dd 43 59                   		sub	r5, r9
 582                             	.LVL62:
 174:../src/smc_gen/r_drw2d_rx/src/tes/dave_quad.c ****    y3 = (d2_point)(y3 - bbox.ymin);
 583                             		.loc 1 174 4 is_stmt 1 view .LVU202
 174:../src/smc_gen/r_drw2d_rx/src/tes/dave_quad.c ****    y3 = (d2_point)(y3 - bbox.ymin);
 584                             		.loc 1 174 23 is_stmt 0 view .LVU203
 585 02df DD 01 22                		mov.W	68[r0], r1
 586 02e2 43 41                   		sub	r4, r1
 587 02e4 A4 09                   		mov.L	r1, 68[r0]
 588                             	.LVL63:
 175:../src/smc_gen/r_drw2d_rx/src/tes/dave_quad.c ****    x4 = (d2_point)(x4 - bbox.xmin);
 589                             		.loc 1 175 4 is_stmt 1 view .LVU204
 175:../src/smc_gen/r_drw2d_rx/src/tes/dave_quad.c ****    x4 = (d2_point)(x4 - bbox.xmin);
 590                             		.loc 1 175 23 is_stmt 0 view .LVU205
 591 02e6 DD 01 26                		mov.W	76[r0], r1
 592                             	.LVL64:
 175:../src/smc_gen/r_drw2d_rx/src/tes/dave_quad.c ****    x4 = (d2_point)(x4 - bbox.xmin);
 593                             		.loc 1 175 23 view .LVU206
 594 02e9 43 51                   		sub	r5, r1
 595 02eb A4 89                   		mov.L	r1, 76[r0]
 596                             	.LVL65:
 176:../src/smc_gen/r_drw2d_rx/src/tes/dave_quad.c ****    y4 = (d2_point)(y4 - bbox.ymin);
 597                             		.loc 1 176 4 is_stmt 1 view .LVU207
 176:../src/smc_gen/r_drw2d_rx/src/tes/dave_quad.c ****    y4 = (d2_point)(y4 - bbox.ymin);
 598                             		.loc 1 176 23 is_stmt 0 view .LVU208
 599 02ed 43 46                   		sub	r4, r6
 600 02ef A5 0E                   		mov.L	r6, 84[r0]
 601                             	.LVL66:
 177:../src/smc_gen/r_drw2d_rx/src/tes/dave_quad.c **** 
 602                             		.loc 1 177 4 is_stmt 1 view .LVU209
 177:../src/smc_gen/r_drw2d_rx/src/tes/dave_quad.c **** 
 603                             		.loc 1 177 23 is_stmt 0 view .LVU210
 604 02f1 DD 04 24                		mov.W	72[r0], r4
 605 02f4 43 54                   		sub	r5, r4
 606 02f6 A4 84                   		mov.L	r4, 72[r0]
 607                             	.LVL67:
 180:../src/smc_gen/r_drw2d_rx/src/tes/dave_quad.c **** 
 608                             		.loc 1 180 4 is_stmt 1 view .LVU211
 182:../src/smc_gen/r_drw2d_rx/src/tes/dave_quad.c ****    {
 609                             		.loc 1 182 4 view .LVU212
 182:../src/smc_gen/r_drw2d_rx/src/tes/dave_quad.c ****    {
 610                             		.loc 1 182 16 is_stmt 0 view .LVU213
 611 02f8 AD 81                   		mov.L	88[r0], r1
 612                             	.LVL68:
 182:../src/smc_gen/r_drw2d_rx/src/tes/dave_quad.c ****    {
 613                             		.loc 1 182 16 view .LVU214
 614 02fa CD 15 D5                		mov.B	213[r1], r5
 182:../src/smc_gen/r_drw2d_rx/src/tes/dave_quad.c ****    {
 615                             		.loc 1 182 6 view .LVU215
 616 02fd FD 74 C5 02             		tst	#2, r5
 617 0301 18                      		bne	.L25
 184:../src/smc_gen/r_drw2d_rx/src/tes/dave_quad.c ****    }
 618                             		.loc 1 184 7 is_stmt 1 view .LVU216
 184:../src/smc_gen/r_drw2d_rx/src/tes/dave_quad.c ****    }
 619                             		.loc 1 184 13 is_stmt 0 view .LVU217
 620 0302 AE 0C                   		mov.L	100[r0], r4
 621                             	.LVL69:
 184:../src/smc_gen/r_drw2d_rx/src/tes/dave_quad.c ****    }
 622                             		.loc 1 184 13 view .LVU218
 623 0304 75 34 3F                		or	#63, r4
 624 0307 A6 0C                   		mov.L	r4, 100[r0]
 625                             	.LVL70:
 626                             	.L25:
 187:../src/smc_gen/r_drw2d_rx/src/tes/dave_quad.c ****    {
 627                             		.loc 1 187 4 is_stmt 1 view .LVU219
 187:../src/smc_gen/r_drw2d_rx/src/tes/dave_quad.c ****    {
 628                             		.loc 1 187 19 is_stmt 0 view .LVU220
 629 0309 AE 0E                   		mov.L	100[r0], r6
 630                             	.LVL71:
 187:../src/smc_gen/r_drw2d_rx/src/tes/dave_quad.c ****    {
 631                             		.loc 1 187 19 view .LVU221
 632 030b 64 16                   		and	#1, r6
 187:../src/smc_gen/r_drw2d_rx/src/tes/dave_quad.c ****    {
 633                             		.loc 1 187 6 view .LVU222
 634 030d 3B 8C 02                		bne	.L64
 195:../src/smc_gen/r_drw2d_rx/src/tes/dave_quad.c ****       {
 635                             		.loc 1 195 7 is_stmt 1 view .LVU223
 195:../src/smc_gen/r_drw2d_rx/src/tes/dave_quad.c ****       {
 636                             		.loc 1 195 9 is_stmt 0 view .LVU224
 637 0310 FD 74 C5 01             		tst	#1, r5
 638 0314 3A A4 02                		beq	.L28
 197:../src/smc_gen/r_drw2d_rx/src/tes/dave_quad.c ****       }
 639                             		.loc 1 197 10 is_stmt 1 view .LVU225
 640 0317 E5 00 16 01             		mov.L	88[r0], 4[r0]
 641 031b E3 08                   		mov.L	r8, [r0]
 642 031d AE 84                   		mov.L	104[r0], r4
 643 031f 71 01 14                		add	#20, r0, r1
 644 0322 05 00 00 00             		bsr	_d2_triedge_setupblur_intern
 645                             	.LVL72:
 646                             	.L27:
 206:../src/smc_gen/r_drw2d_rx/src/tes/dave_quad.c ****    {
 647                             		.loc 1 206 4 view .LVU226
 206:../src/smc_gen/r_drw2d_rx/src/tes/dave_quad.c ****    {
 648                             		.loc 1 206 6 is_stmt 0 view .LVU227
 649 0326 AE 0D                   		mov.L	100[r0], r5
 650 0328 FD 74 C5 02             		tst	#2, r5
 651 032c 3B A7 02                		bne	.L65
 214:../src/smc_gen/r_drw2d_rx/src/tes/dave_quad.c ****       {
 652                             		.loc 1 214 7 is_stmt 1 view .LVU228
 214:../src/smc_gen/r_drw2d_rx/src/tes/dave_quad.c ****       {
 653                             		.loc 1 214 19 is_stmt 0 view .LVU229
 654 032f AD 81                   		mov.L	88[r0], r1
 655 0331 CD 15 D5                		mov.B	213[r1], r5
 214:../src/smc_gen/r_drw2d_rx/src/tes/dave_quad.c ****       {
 656                             		.loc 1 214 9 view .LVU230
 657 0334 FD 74 C5 01             		tst	#1, r5
 658 0338 3A BF 02                		beq	.L31
 216:../src/smc_gen/r_drw2d_rx/src/tes/dave_quad.c ****       }
 659                             		.loc 1 216 10 is_stmt 1 view .LVU231
 660 033b A0 09                   		mov.L	r1, 4[r0]
 661 033d E3 0D                   		mov.L	r13, [r0]
 662 033f AE 8C                   		mov.L	108[r0], r4
 663 0341 DF 93                   		mov.W	r9, r3
 664 0343 ED 09 14                		mov.L	80[r0], r9
 665                             	.LVL73:
 216:../src/smc_gen/r_drw2d_rx/src/tes/dave_quad.c ****       }
 666                             		.loc 1 216 10 is_stmt 0 view .LVU232
 667 0346 DF 92                   		mov.W	r9, r2
 668 0348 71 01 20                		add	#32, r0, r1
 669 034b 05 00 00 00             		bsr	_d2_triedge_setupblur_intern
 670                             	.LVL74:
 671                             	.L30:
 225:../src/smc_gen/r_drw2d_rx/src/tes/dave_quad.c ****    {
 672                             		.loc 1 225 4 is_stmt 1 view .LVU233
 225:../src/smc_gen/r_drw2d_rx/src/tes/dave_quad.c ****    {
 673                             		.loc 1 225 6 is_stmt 0 view .LVU234
 674 034f ED 09 19                		mov.L	100[r0], r9
 675 0352 FD 74 C9 04             		tst	#4, r9
 676 0356 3B C3 02                		bne	.L66
 233:../src/smc_gen/r_drw2d_rx/src/tes/dave_quad.c ****       {
 677                             		.loc 1 233 7 is_stmt 1 view .LVU235
 233:../src/smc_gen/r_drw2d_rx/src/tes/dave_quad.c ****       {
 678                             		.loc 1 233 19 is_stmt 0 view .LVU236
 679 0359 ED 09 16                		mov.L	88[r0], r9
 680 035c CD 95 D5                		mov.B	213[r9], r5
 233:../src/smc_gen/r_drw2d_rx/src/tes/dave_quad.c ****       {
 681                             		.loc 1 233 9 view .LVU237
 682 035f FD 74 C5 01             		tst	#1, r5
 683 0363 3A DD 02                		beq	.L34
 235:../src/smc_gen/r_drw2d_rx/src/tes/dave_quad.c ****       }
 684                             		.loc 1 235 10 is_stmt 1 view .LVU238
 685 0366 E7 09 01                		mov.L	r9, 4[r0]
 686 0369 E3 0C                   		mov.L	r12, [r0]
 687 036b AF 04                   		mov.L	112[r0], r4
 688 036d ED 09 13                		mov.L	76[r0], r9
 689 0370 DF 93                   		mov.W	r9, r3
 690 0372 ED 09 11                		mov.L	68[r0], r9
 691 0375 DF 92                   		mov.W	r9, r2
 692 0377 71 01 2C                		add	#44, r0, r1
 693 037a 05 00 00 00             		bsr	_d2_triedge_setupblur_intern
 694                             	.LVL75:
 695                             	.L33:
 244:../src/smc_gen/r_drw2d_rx/src/tes/dave_quad.c ****    {
 696                             		.loc 1 244 4 view .LVU239
 244:../src/smc_gen/r_drw2d_rx/src/tes/dave_quad.c ****    {
 697                             		.loc 1 244 6 is_stmt 0 view .LVU240
 698 037e ED 09 19                		mov.L	100[r0], r9
 699 0381 FD 74 C9 08             		tst	#8, r9
 700 0385 3B E0 02                		bne	.L67
 252:../src/smc_gen/r_drw2d_rx/src/tes/dave_quad.c ****       {
 701                             		.loc 1 252 7 is_stmt 1 view .LVU241
 252:../src/smc_gen/r_drw2d_rx/src/tes/dave_quad.c ****       {
 702                             		.loc 1 252 19 is_stmt 0 view .LVU242
 703 0388 ED 09 16                		mov.L	88[r0], r9
 704 038b CD 95 D5                		mov.B	213[r9], r5
 252:../src/smc_gen/r_drw2d_rx/src/tes/dave_quad.c ****       {
 705                             		.loc 1 252 9 view .LVU243
 706 038e FD 74 C5 01             		tst	#1, r5
 707 0392 3A FA 02                		beq	.L37
 254:../src/smc_gen/r_drw2d_rx/src/tes/dave_quad.c ****       }
 708                             		.loc 1 254 10 is_stmt 1 view .LVU244
 709 0395 E7 09 01                		mov.L	r9, 4[r0]
 710 0398 E3 0B                   		mov.L	r11, [r0]
 711 039a AF 0C                   		mov.L	116[r0], r4
 712 039c ED 09 12                		mov.L	72[r0], r9
 713 039f DF 93                   		mov.W	r9, r3
 714 03a1 ED 09 15                		mov.L	84[r0], r9
 715 03a4 DF 92                   		mov.W	r9, r2
 716 03a6 71 01 38                		add	#56, r0, r1
 717 03a9 05 00 00 00             		bsr	_d2_triedge_setupblur_intern
 718                             	.LVL76:
 719                             	.L36:
 264:../src/smc_gen/r_drw2d_rx/src/tes/dave_quad.c ****    {
 720                             		.loc 1 264 4 view .LVU245
 264:../src/smc_gen/r_drw2d_rx/src/tes/dave_quad.c ****    {
 721                             		.loc 1 264 15 is_stmt 0 view .LVU246
 722 03ad 9A 0D                   		mov.W	18[r0], r5
 264:../src/smc_gen/r_drw2d_rx/src/tes/dave_quad.c ****    {
 723                             		.loc 1 264 21 view .LVU247
 724 03af 43 75                   		sub	r7, r5
 264:../src/smc_gen/r_drw2d_rx/src/tes/dave_quad.c ****    {
 725                             		.loc 1 264 37 view .LVU248
 726 03b1 06 41 07 07             		sub	14[r0].W, r7
 727                             	.LVL77:
 264:../src/smc_gen/r_drw2d_rx/src/tes/dave_quad.c ****    {
 728                             		.loc 1 264 7 view .LVU249
 729 03b5 47 75                   		cmp	r7, r5
 730 03b7 29 05 38 F8 02          		bge	.L56
 266:../src/smc_gen/r_drw2d_rx/src/tes/dave_quad.c ****       delay = (bbox.ymax - ssd  ) >> 4;  /* PRQA S 0502 */ /* $Misra: #PERF_ARITHMETIC_SHIFT_RIGHT 
 731                             		.loc 1 266 7 is_stmt 1 view .LVU250
 732                             	.LVL78:
 267:../src/smc_gen/r_drw2d_rx/src/tes/dave_quad.c ****    }
 733                             		.loc 1 267 7 view .LVU251
 267:../src/smc_gen/r_drw2d_rx/src/tes/dave_quad.c ****    }
 734                             		.loc 1 267 13 is_stmt 0 view .LVU252
 735 03bc 6A 45                   		shar	#4, r5
 736 03be A7 85                   		mov.L	r5, 120[r0]
 737                             	.LVL79:
 266:../src/smc_gen/r_drw2d_rx/src/tes/dave_quad.c ****       delay = (bbox.ymax - ssd  ) >> 4;  /* PRQA S 0502 */ /* $Misra: #PERF_ARITHMETIC_SHIFT_RIGHT 
 738                             		.loc 1 266 12 view .LVU253
 739 03c0 66 19                   		mov.L	#1, r9
 740                             	.LVL80:
 741                             	.L38:
 275:../src/smc_gen/r_drw2d_rx/src/tes/dave_quad.c **** 
 742                             		.loc 1 275 4 is_stmt 1 view .LVU254
 275:../src/smc_gen/r_drw2d_rx/src/tes/dave_quad.c **** 
 743                             		.loc 1 275 12 is_stmt 0 view .LVU255
 744 03c2 74 36 0F 00 C0 00       		or	#0xc0000f, r6
 745                             	.LVL81:
 278:../src/smc_gen/r_drw2d_rx/src/tes/dave_quad.c ****    {
 746                             		.loc 1 278 4 is_stmt 1 view .LVU256
 278:../src/smc_gen/r_drw2d_rx/src/tes/dave_quad.c ****    {
 747                             		.loc 1 278 16 is_stmt 0 view .LVU257
 748 03c8 AD 87                   		mov.L	88[r0], r7
 749 03ca 8D F5                   		mov.B	22[r7], r5
 278:../src/smc_gen/r_drw2d_rx/src/tes/dave_quad.c ****    {
 750                             		.loc 1 278 6 view .LVU258
 751 03cc 64 65                   		and	#6, r5
 752 03ce 3B E8 02                		bne	.L68
 753                             	.L39:
 289:../src/smc_gen/r_drw2d_rx/src/tes/dave_quad.c ****    {
 754                             		.loc 1 289 4 is_stmt 1 view .LVU259
 289:../src/smc_gen/r_drw2d_rx/src/tes/dave_quad.c ****    {
 755                             		.loc 1 289 6 is_stmt 0 view .LVU260
 756 03d1 61 09                   		cmp	#0, r9
 757 03d3 3B 04 03                		bne	.L69
 758                             	.LVL82:
 759                             	.L40:
 301:../src/smc_gen/r_drw2d_rx/src/tes/dave_quad.c ****       d2_setuptexture( handle, ctx, &bbox, 0 );
 760                             		.loc 1 301 7 is_stmt 1 view .LVU261
 761 03d6 66 04                   		mov.L	#0, r4
 762 03d8 66 C3                   		mov.L	#12, r3
 763 03da 4B 03                   		add	r0, r3
 764 03dc AD 82                   		mov.L	88[r0], r2
 765 03de EF A1                   		mov.L	r10, r1
 766 03e0 05 00 00 00             		bsr	_d2_setuppattern
 767                             	.LVL83:
 302:../src/smc_gen/r_drw2d_rx/src/tes/dave_quad.c ****    }
 768                             		.loc 1 302 7 view .LVU262
 769 03e4 66 04                   		mov.L	#0, r4
 770 03e6 66 C3                   		mov.L	#12, r3
 771 03e8 4B 03                   		add	r0, r3
 772 03ea AD 82                   		mov.L	88[r0], r2
 773 03ec EF A1                   		mov.L	r10, r1
 774 03ee 05 00 00 00             		bsr	_d2_setuptexture
 775                             	.LVL84:
 776                             	.L41:
 306:../src/smc_gen/r_drw2d_rx/src/tes/dave_quad.c ****    D2_DLISTWRITES( D2_L1XADD , edge[0].xadd );
 777                             		.loc 1 306 4 view .LVU263
 778 03f2 A9 0D                   		mov.L	20[r0], r5
 779                             	.LVL85:
 780                             	.LBB82:
 781                             	.LBI82:
 782                             		.file 2 "../src/smc_gen/r_drw2d_rx/src/tes/dave_intern.h"
   1:../src/smc_gen/r_drw2d_rx/src/tes/dave_intern.h **** /*--------------------------------------------------------------------------
   2:../src/smc_gen/r_drw2d_rx/src/tes/dave_intern.h ****  * Project: D/AVE
   3:../src/smc_gen/r_drw2d_rx/src/tes/dave_intern.h ****  * File:    dave_intern.h (%version: 29 %)
   4:../src/smc_gen/r_drw2d_rx/src/tes/dave_intern.h ****  *          created Tue Jan 11 12:57:48 2005 by hh04027
   5:../src/smc_gen/r_drw2d_rx/src/tes/dave_intern.h ****  *
   6:../src/smc_gen/r_drw2d_rx/src/tes/dave_intern.h ****  * Description:
   7:../src/smc_gen/r_drw2d_rx/src/tes/dave_intern.h ****  *  %date_modified: Thu Jan 25 18:12:54 2007 %  (%derived_by:  hh74026 %)
   8:../src/smc_gen/r_drw2d_rx/src/tes/dave_intern.h ****  *
   9:../src/smc_gen/r_drw2d_rx/src/tes/dave_intern.h ****  * Changes:
  10:../src/smc_gen/r_drw2d_rx/src/tes/dave_intern.h ****  *  2005-12-22 CSe  removed transfermode field, added flags field in _d2_devicedata
  11:../src/smc_gen/r_drw2d_rx/src/tes/dave_intern.h ****  *  2006-02-16 CSe  added performance counter support
  12:../src/smc_gen/r_drw2d_rx/src/tes/dave_intern.h ****  *  2006-10-30 CSe  removed waitdlist flag
  13:../src/smc_gen/r_drw2d_rx/src/tes/dave_intern.h ****  *  2006-11-07 CSe  removed waitdlist flag
  14:../src/smc_gen/r_drw2d_rx/src/tes/dave_intern.h ****  *  2006-11-07 CSe  added dlist_buffer to device struct for 'd2_df_low_localmem' mode
  15:../src/smc_gen/r_drw2d_rx/src/tes/dave_intern.h ****  *  2007-01-26 CSe  made 'low localmem' mode configurable
  16:../src/smc_gen/r_drw2d_rx/src/tes/dave_intern.h ****  *  2007-05-23 MGe  added delayed_errorcode to context
  17:../src/smc_gen/r_drw2d_rx/src/tes/dave_intern.h ****  *  2008-01-14 ASc  changed comments from C++ to C, removed tabs
  18:../src/smc_gen/r_drw2d_rx/src/tes/dave_intern.h ****  *  2008-11-24 AJ   Added support for IAR compiler
  19:../src/smc_gen/r_drw2d_rx/src/tes/dave_intern.h ****  *  2011-09-05 MRe  added cr2 register to device structure
  20:../src/smc_gen/r_drw2d_rx/src/tes/dave_intern.h ****  *  2012-09-25 BSp  MISRA cleanup
  21:../src/smc_gen/r_drw2d_rx/src/tes/dave_intern.h ****  *-------------------------------------------------------------------------- */
  22:../src/smc_gen/r_drw2d_rx/src/tes/dave_intern.h **** 
  23:../src/smc_gen/r_drw2d_rx/src/tes/dave_intern.h **** #ifndef __1_dave_intern_h_H
  24:../src/smc_gen/r_drw2d_rx/src/tes/dave_intern.h **** #define __1_dave_intern_h_H
  25:../src/smc_gen/r_drw2d_rx/src/tes/dave_intern.h **** /*---------------------------------------------------------------------------
  26:../src/smc_gen/r_drw2d_rx/src/tes/dave_intern.h ****  * define inline modifier if available */
  27:../src/smc_gen/r_drw2d_rx/src/tes/dave_intern.h **** #ifdef _MSC_VER
  28:../src/smc_gen/r_drw2d_rx/src/tes/dave_intern.h **** #define D2_INLINE __forceinline
  29:../src/smc_gen/r_drw2d_rx/src/tes/dave_intern.h **** #else
  30:../src/smc_gen/r_drw2d_rx/src/tes/dave_intern.h **** #ifdef __CA850__
  31:../src/smc_gen/r_drw2d_rx/src/tes/dave_intern.h **** #define D2_INLINE
  32:../src/smc_gen/r_drw2d_rx/src/tes/dave_intern.h **** #elif defined(__ICCV850__)
  33:../src/smc_gen/r_drw2d_rx/src/tes/dave_intern.h **** #define D2_INLINE _Pragma("inline")
  34:../src/smc_gen/r_drw2d_rx/src/tes/dave_intern.h **** #else
  35:../src/smc_gen/r_drw2d_rx/src/tes/dave_intern.h **** #define D2_INLINE inline
  36:../src/smc_gen/r_drw2d_rx/src/tes/dave_intern.h **** #endif
  37:../src/smc_gen/r_drw2d_rx/src/tes/dave_intern.h **** #endif
  38:../src/smc_gen/r_drw2d_rx/src/tes/dave_intern.h **** 
  39:../src/smc_gen/r_drw2d_rx/src/tes/dave_intern.h **** /*---------------------------------------------------------------------------
  40:../src/smc_gen/r_drw2d_rx/src/tes/dave_intern.h ****  * define null to become independent of stdlib */
  41:../src/smc_gen/r_drw2d_rx/src/tes/dave_intern.h **** #ifndef NULL
  42:../src/smc_gen/r_drw2d_rx/src/tes/dave_intern.h **** #ifdef __cplusplus
  43:../src/smc_gen/r_drw2d_rx/src/tes/dave_intern.h **** #define NULL    0
  44:../src/smc_gen/r_drw2d_rx/src/tes/dave_intern.h **** #else
  45:../src/smc_gen/r_drw2d_rx/src/tes/dave_intern.h **** #define NULL    ((void *)0)
  46:../src/smc_gen/r_drw2d_rx/src/tes/dave_intern.h **** #endif
  47:../src/smc_gen/r_drw2d_rx/src/tes/dave_intern.h **** #endif
  48:../src/smc_gen/r_drw2d_rx/src/tes/dave_intern.h **** 
  49:../src/smc_gen/r_drw2d_rx/src/tes/dave_intern.h **** /*---------------------------------------------------------------------------
  50:../src/smc_gen/r_drw2d_rx/src/tes/dave_intern.h ****  * internally used types */
  51:../src/smc_gen/r_drw2d_rx/src/tes/dave_intern.h **** 
  52:../src/smc_gen/r_drw2d_rx/src/tes/dave_intern.h **** #ifdef _MSC_VER
  53:../src/smc_gen/r_drw2d_rx/src/tes/dave_intern.h **** typedef __int64 d2_int64;
  54:../src/smc_gen/r_drw2d_rx/src/tes/dave_intern.h **** #elif (defined(__CA850__) || defined(__ICC850__))
  55:../src/smc_gen/r_drw2d_rx/src/tes/dave_intern.h **** #define _NO_LL_
  56:../src/smc_gen/r_drw2d_rx/src/tes/dave_intern.h **** typedef struct {
  57:../src/smc_gen/r_drw2d_rx/src/tes/dave_intern.h ****    d2_u32 low32;
  58:../src/smc_gen/r_drw2d_rx/src/tes/dave_intern.h ****    d2_s32 high32;
  59:../src/smc_gen/r_drw2d_rx/src/tes/dave_intern.h **** } d2_int64;
  60:../src/smc_gen/r_drw2d_rx/src/tes/dave_intern.h **** #else
  61:../src/smc_gen/r_drw2d_rx/src/tes/dave_intern.h **** typedef long long d2_int64;
  62:../src/smc_gen/r_drw2d_rx/src/tes/dave_intern.h **** #endif
  63:../src/smc_gen/r_drw2d_rx/src/tes/dave_intern.h **** 
  64:../src/smc_gen/r_drw2d_rx/src/tes/dave_intern.h **** /*---------------------------------------------------------------------------
  65:../src/smc_gen/r_drw2d_rx/src/tes/dave_intern.h ****  * use separate context for blit 
  66:../src/smc_gen/r_drw2d_rx/src/tes/dave_intern.h ****  see also d2_df_no_blitctxbackup and d2_bf_no_blitctxbackup*/
  67:../src/smc_gen/r_drw2d_rx/src/tes/dave_intern.h **** 
  68:../src/smc_gen/r_drw2d_rx/src/tes/dave_intern.h **** /*
  69:../src/smc_gen/r_drw2d_rx/src/tes/dave_intern.h **** #define D2_USEBLITBACKUPCONTEXT 
  70:../src/smc_gen/r_drw2d_rx/src/tes/dave_intern.h **** */
  71:../src/smc_gen/r_drw2d_rx/src/tes/dave_intern.h **** 
  72:../src/smc_gen/r_drw2d_rx/src/tes/dave_intern.h **** 
  73:../src/smc_gen/r_drw2d_rx/src/tes/dave_intern.h **** /*---------------------------------------------------------------------------
  74:../src/smc_gen/r_drw2d_rx/src/tes/dave_intern.h ****  * force register cache usage
  75:../src/smc_gen/r_drw2d_rx/src/tes/dave_intern.h ****  see also d2_df_no_registercaching */
  76:../src/smc_gen/r_drw2d_rx/src/tes/dave_intern.h **** 
  77:../src/smc_gen/r_drw2d_rx/src/tes/dave_intern.h **** #define D2_USEREGCACHE 
  78:../src/smc_gen/r_drw2d_rx/src/tes/dave_intern.h **** 
  79:../src/smc_gen/r_drw2d_rx/src/tes/dave_intern.h **** /*---------------------------------------------------------------------------
  80:../src/smc_gen/r_drw2d_rx/src/tes/dave_intern.h ****  * set initial size of list of dlist start address */
  81:../src/smc_gen/r_drw2d_rx/src/tes/dave_intern.h **** 
  82:../src/smc_gen/r_drw2d_rx/src/tes/dave_intern.h **** #define DLIST_ADRESSES_NUMBER 16
  83:../src/smc_gen/r_drw2d_rx/src/tes/dave_intern.h **** 
  84:../src/smc_gen/r_drw2d_rx/src/tes/dave_intern.h **** 
  85:../src/smc_gen/r_drw2d_rx/src/tes/dave_intern.h **** /*---------------------------------------------------------------------------
  86:../src/smc_gen/r_drw2d_rx/src/tes/dave_intern.h ****  * Register Cache */
  87:../src/smc_gen/r_drw2d_rx/src/tes/dave_intern.h **** 
  88:../src/smc_gen/r_drw2d_rx/src/tes/dave_intern.h **** #include "dave_registermap.h"
  89:../src/smc_gen/r_drw2d_rx/src/tes/dave_intern.h **** 
  90:../src/smc_gen/r_drw2d_rx/src/tes/dave_intern.h **** typedef struct _d2_cacheddata
  91:../src/smc_gen/r_drw2d_rx/src/tes/dave_intern.h **** {
  92:../src/smc_gen/r_drw2d_rx/src/tes/dave_intern.h ****    d2_s32    data[  D2_QUANTITY ];
  93:../src/smc_gen/r_drw2d_rx/src/tes/dave_intern.h ****    d2_s8     valid[ D2_QUANTITY ];
  94:../src/smc_gen/r_drw2d_rx/src/tes/dave_intern.h **** } d2_cacheddata;
  95:../src/smc_gen/r_drw2d_rx/src/tes/dave_intern.h **** 
  96:../src/smc_gen/r_drw2d_rx/src/tes/dave_intern.h **** #ifdef D2_USEREGCACHE
  97:../src/smc_gen/r_drw2d_rx/src/tes/dave_intern.h **** D2_EXTERN const d2_u8 d2_cacheableregs[D2_QUANTITY];
  98:../src/smc_gen/r_drw2d_rx/src/tes/dave_intern.h **** #endif
  99:../src/smc_gen/r_drw2d_rx/src/tes/dave_intern.h **** 
 100:../src/smc_gen/r_drw2d_rx/src/tes/dave_intern.h **** typedef void (*d2_fp_scratchfull)( void *handle );
 101:../src/smc_gen/r_drw2d_rx/src/tes/dave_intern.h **** 
 102:../src/smc_gen/r_drw2d_rx/src/tes/dave_intern.h **** /*--------------------------------------------------------------------------- */
 103:../src/smc_gen/r_drw2d_rx/src/tes/dave_intern.h **** #include "dave_base.h"
 104:../src/smc_gen/r_drw2d_rx/src/tes/dave_intern.h **** #include "dave_dlist.h"
 105:../src/smc_gen/r_drw2d_rx/src/tes/dave_intern.h **** #include "dave_rbuffer.h"
 106:../src/smc_gen/r_drw2d_rx/src/tes/dave_intern.h **** #include "dave_hardware.h"
 107:../src/smc_gen/r_drw2d_rx/src/tes/dave_intern.h **** #include "dave_context.h"
 108:../src/smc_gen/r_drw2d_rx/src/tes/dave_intern.h **** #include "dave_math.h"
 109:../src/smc_gen/r_drw2d_rx/src/tes/dave_intern.h **** 
 110:../src/smc_gen/r_drw2d_rx/src/tes/dave_intern.h **** /*---------------------------------------------------------------------------
 111:../src/smc_gen/r_drw2d_rx/src/tes/dave_intern.h ****  * use higher precision of qlimiters */
 112:../src/smc_gen/r_drw2d_rx/src/tes/dave_intern.h **** 
 113:../src/smc_gen/r_drw2d_rx/src/tes/dave_intern.h **** #define LIMITER_HIPRECISION 6 
 114:../src/smc_gen/r_drw2d_rx/src/tes/dave_intern.h **** 
 115:../src/smc_gen/r_drw2d_rx/src/tes/dave_intern.h **** 
 116:../src/smc_gen/r_drw2d_rx/src/tes/dave_intern.h **** /*---------------------------------------------------------------------------
 117:../src/smc_gen/r_drw2d_rx/src/tes/dave_intern.h ****  * These helper macros are used to stringify a given macro */
 118:../src/smc_gen/r_drw2d_rx/src/tes/dave_intern.h **** #define D2_STR(s)           # s
 119:../src/smc_gen/r_drw2d_rx/src/tes/dave_intern.h **** #define D2_XSTR(s)          D2_STR(s)  /* PRQA S 3453 */ /* $Misra: #MISRA_BUG_MACRO_HASH $*/
 120:../src/smc_gen/r_drw2d_rx/src/tes/dave_intern.h **** 
 121:../src/smc_gen/r_drw2d_rx/src/tes/dave_intern.h **** 
 122:../src/smc_gen/r_drw2d_rx/src/tes/dave_intern.h **** /*---------------------------------------------------------------------------
 123:../src/smc_gen/r_drw2d_rx/src/tes/dave_intern.h ****  * Define the D2_VERSION and D2_VERSION_STRING macros */
 124:../src/smc_gen/r_drw2d_rx/src/tes/dave_intern.h **** 
 125:../src/smc_gen/r_drw2d_rx/src/tes/dave_intern.h **** /* Build up the D2_VERSION macro */
 126:../src/smc_gen/r_drw2d_rx/src/tes/dave_intern.h **** #define D2_VERSION ((D2_VERSION_BRANCH << 24) | (D2_VERSION_MAJOR << 16) | D2_VERSION_MINOR )
 127:../src/smc_gen/r_drw2d_rx/src/tes/dave_intern.h **** 
 128:../src/smc_gen/r_drw2d_rx/src/tes/dave_intern.h **** /* Create the D2_VERSION_STRING macro */
 129:../src/smc_gen/r_drw2d_rx/src/tes/dave_intern.h **** #define D2_VERSION_STRING  D2_VERSION_BRANCH_STRING " V" D2_XSTR(D2_VERSION_MAJOR) "." D2_XSTR(D2_V
 130:../src/smc_gen/r_drw2d_rx/src/tes/dave_intern.h **** 
 131:../src/smc_gen/r_drw2d_rx/src/tes/dave_intern.h **** /*---------------------------------------------------------------------------
 132:../src/smc_gen/r_drw2d_rx/src/tes/dave_intern.h ****  * Internal device structure */
 133:../src/smc_gen/r_drw2d_rx/src/tes/dave_intern.h **** 
 134:../src/smc_gen/r_drw2d_rx/src/tes/dave_intern.h **** typedef struct _d2_devicedata
 135:../src/smc_gen/r_drw2d_rx/src/tes/dave_intern.h **** {
 136:../src/smc_gen/r_drw2d_rx/src/tes/dave_intern.h ****    struct _d2_devicedata *next;        /* to chain devices [must be index 0] */
 137:../src/smc_gen/r_drw2d_rx/src/tes/dave_intern.h **** 
 138:../src/smc_gen/r_drw2d_rx/src/tes/dave_intern.h ****    d2_dlist *readlist;                 /* read (executing) dlist */
 139:../src/smc_gen/r_drw2d_rx/src/tes/dave_intern.h ****    d2_dlist *writelist;                /* write (under construction) dlist */
 140:../src/smc_gen/r_drw2d_rx/src/tes/dave_intern.h ****    d2_rbuffer *selectedbuffer;         /* currently selected renderbuffer */
 141:../src/smc_gen/r_drw2d_rx/src/tes/dave_intern.h ****    d2_rbuffer *renderbuffer[2];        /* default renderbuffers */
 142:../src/smc_gen/r_drw2d_rx/src/tes/dave_intern.h **** 
 143:../src/smc_gen/r_drw2d_rx/src/tes/dave_intern.h ****    d1_device      *hwid;               /* lowlevel access handle */
 144:../src/smc_gen/r_drw2d_rx/src/tes/dave_intern.h ****    d2_contextdata *ctxchain;           /* context chain (list of all contexts for this device) */
 145:../src/smc_gen/r_drw2d_rx/src/tes/dave_intern.h ****    d2_contextdata *ctxdef;             /* default context (cannot be removed by application) */
 146:../src/smc_gen/r_drw2d_rx/src/tes/dave_intern.h ****    d2_contextdata *ctxselected;        /* selected context (used as target of context write/read op
 147:../src/smc_gen/r_drw2d_rx/src/tes/dave_intern.h ****    d2_contextdata *ctxsolid;           /* solid context (used as source for rendering solid geometr
 148:../src/smc_gen/r_drw2d_rx/src/tes/dave_intern.h ****    d2_contextdata *ctxoutline;         /* outline context (used as source for rendering outlines) *
 149:../src/smc_gen/r_drw2d_rx/src/tes/dave_intern.h **** #ifdef D2_USEBLITBACKUPCONTEXT
 150:../src/smc_gen/r_drw2d_rx/src/tes/dave_intern.h ****    d2_contextdata *blitcontext;        /* internal context used only for blits */
 151:../src/smc_gen/r_drw2d_rx/src/tes/dave_intern.h **** #else
 152:../src/smc_gen/r_drw2d_rx/src/tes/dave_intern.h ****    d2_contextdata_backup *blitcontext_b; /* internal context backup used only for blits */
 153:../src/smc_gen/r_drw2d_rx/src/tes/dave_intern.h **** #endif
 154:../src/smc_gen/r_drw2d_rx/src/tes/dave_intern.h ****    d2_contextdata *srccontext;         /* last context that acted as source for display list (for d
 155:../src/smc_gen/r_drw2d_rx/src/tes/dave_intern.h ****    d2_color       *srcclut;            /* last clut that was loaded  */
 156:../src/smc_gen/r_drw2d_rx/src/tes/dave_intern.h **** 
 157:../src/smc_gen/r_drw2d_rx/src/tes/dave_intern.h ****    void *   framebuffer;               /* rendering baseaddress */
 158:../src/smc_gen/r_drw2d_rx/src/tes/dave_intern.h ****    d2_s32   pitch, bpp;                /* framebuffer pitch and bytes per pixel */
 159:../src/smc_gen/r_drw2d_rx/src/tes/dave_intern.h ****    d2_s32   fbformat;                  /* framebuffer format */
 160:../src/smc_gen/r_drw2d_rx/src/tes/dave_intern.h ****    d2_u32   fbwidth,fbheight;          /* framebuffer size */
 161:../src/smc_gen/r_drw2d_rx/src/tes/dave_intern.h ****    d2_u32   fbstylemask;               /* dave ctrl1 bitmask for framebuffer format */
 162:../src/smc_gen/r_drw2d_rx/src/tes/dave_intern.h ****    d2_u32   cr2;                       /* control register 2 */
 163:../src/smc_gen/r_drw2d_rx/src/tes/dave_intern.h **** 
 164:../src/smc_gen/r_drw2d_rx/src/tes/dave_intern.h ****    d2_u32   cachectlmask;              /* dave cache ctrl register bitmask */
 165:../src/smc_gen/r_drw2d_rx/src/tes/dave_intern.h ****    d2_u32   perftriggermask;           /* dave performance counter trigger source register bitmask 
 166:../src/smc_gen/r_drw2d_rx/src/tes/dave_intern.h **** 
 167:../src/smc_gen/r_drw2d_rx/src/tes/dave_intern.h ****    d2_u32   rendermode;                /* see 'enum d2_rendermodes' */
 168:../src/smc_gen/r_drw2d_rx/src/tes/dave_intern.h ****    d2_u32   flags;                     /* see 'enum d2_deviceflags' */
 169:../src/smc_gen/r_drw2d_rx/src/tes/dave_intern.h ****    d2_width outlinewidth;
 170:../src/smc_gen/r_drw2d_rx/src/tes/dave_intern.h ****    d2_point soffx, soffy;
 171:../src/smc_gen/r_drw2d_rx/src/tes/dave_intern.h ****    d2_point clipxmin, clipymin;
 172:../src/smc_gen/r_drw2d_rx/src/tes/dave_intern.h ****    d2_point clipxmax, clipymax;
 173:../src/smc_gen/r_drw2d_rx/src/tes/dave_intern.h **** 
 174:../src/smc_gen/r_drw2d_rx/src/tes/dave_intern.h ****    d2_lowlocalmem_mode *lowlocalmem_mode;       /* only used in 'low localmem' mode */
 175:../src/smc_gen/r_drw2d_rx/src/tes/dave_intern.h **** 
 176:../src/smc_gen/r_drw2d_rx/src/tes/dave_intern.h ****    d2_u32 hwrevision;
 177:../src/smc_gen/r_drw2d_rx/src/tes/dave_intern.h ****    d2_u32 hwmemarchitecture;
 178:../src/smc_gen/r_drw2d_rx/src/tes/dave_intern.h **** 
 179:../src/smc_gen/r_drw2d_rx/src/tes/dave_intern.h ****    d2_u32 dlistblocksize;              /* specify number of entries to grow when dlist is full */
 180:../src/smc_gen/r_drw2d_rx/src/tes/dave_intern.h **** #ifdef D2_USEREGCACHE
 181:../src/smc_gen/r_drw2d_rx/src/tes/dave_intern.h ****    d2_cacheddata cache;                 /* register cache for this device */
 182:../src/smc_gen/r_drw2d_rx/src/tes/dave_intern.h **** #endif
 183:../src/smc_gen/r_drw2d_rx/src/tes/dave_intern.h ****    /* display list assembly buffer */
 184:../src/smc_gen/r_drw2d_rx/src/tes/dave_intern.h ****    d2_dlist_scratch_entry *dlscratch_base;
 185:../src/smc_gen/r_drw2d_rx/src/tes/dave_intern.h ****    d2_dlist_scratch_entry *dlscratch_pos;
 186:../src/smc_gen/r_drw2d_rx/src/tes/dave_intern.h ****    d2_s32                  dlscratch_cnt;
 187:../src/smc_gen/r_drw2d_rx/src/tes/dave_intern.h ****    d2_fp_scratchfull       dlscratch_hook;
 188:../src/smc_gen/r_drw2d_rx/src/tes/dave_intern.h **** 
 189:../src/smc_gen/r_drw2d_rx/src/tes/dave_intern.h ****    d2_s8   lasttextwasrle;               /* last texture format was RLE */
 190:../src/smc_gen/r_drw2d_rx/src/tes/dave_intern.h ****    d2_s8   maxpatlen;                    /* maximum size of pattern bitvector supported by the hard
 191:../src/smc_gen/r_drw2d_rx/src/tes/dave_intern.h ****    d2_s8   errorcode;                    /* last actions detaild result code */
 192:../src/smc_gen/r_drw2d_rx/src/tes/dave_intern.h ****    d2_s8   delayed_errorcode;            /* errorcondition that exists until the renderbuffer gets 
 193:../src/smc_gen/r_drw2d_rx/src/tes/dave_intern.h ****    d2_s8   hilimiterprecision_supported; /* is set to 1 when the hilimiterprecision feature is supp
 194:../src/smc_gen/r_drw2d_rx/src/tes/dave_intern.h **** 
 195:../src/smc_gen/r_drw2d_rx/src/tes/dave_intern.h ****    d2_s8   dlist_indirect_supported;     /* is set to 1 when lists of dlist addresses are supported
 196:../src/smc_gen/r_drw2d_rx/src/tes/dave_intern.h ****    d2_s32* dlist_list_single[2];         /* for d2_executedlist we need an extra dlist list with ju
 197:../src/smc_gen/r_drw2d_rx/src/tes/dave_intern.h **** 
 198:../src/smc_gen/r_drw2d_rx/src/tes/dave_intern.h **** } d2_devicedata;
 199:../src/smc_gen/r_drw2d_rx/src/tes/dave_intern.h **** 
 200:../src/smc_gen/r_drw2d_rx/src/tes/dave_intern.h **** /*--------------------------------------------------------------------------- */
 201:../src/smc_gen/r_drw2d_rx/src/tes/dave_intern.h **** 
 202:../src/smc_gen/r_drw2d_rx/src/tes/dave_intern.h **** typedef struct _d2_bbox
 203:../src/smc_gen/r_drw2d_rx/src/tes/dave_intern.h **** {
 204:../src/smc_gen/r_drw2d_rx/src/tes/dave_intern.h ****    d2_point xmin, ymin;
 205:../src/smc_gen/r_drw2d_rx/src/tes/dave_intern.h ****    d2_point xmax, ymax;
 206:../src/smc_gen/r_drw2d_rx/src/tes/dave_intern.h **** } d2_bbox;
 207:../src/smc_gen/r_drw2d_rx/src/tes/dave_intern.h **** 
 208:../src/smc_gen/r_drw2d_rx/src/tes/dave_intern.h **** typedef struct _d2_limdata
 209:../src/smc_gen/r_drw2d_rx/src/tes/dave_intern.h **** {
 210:../src/smc_gen/r_drw2d_rx/src/tes/dave_intern.h ****    d2_s32 start;
 211:../src/smc_gen/r_drw2d_rx/src/tes/dave_intern.h ****    d2_s32 xadd;
 212:../src/smc_gen/r_drw2d_rx/src/tes/dave_intern.h ****    d2_s32 yadd;
 213:../src/smc_gen/r_drw2d_rx/src/tes/dave_intern.h **** } d2_limdata;
 214:../src/smc_gen/r_drw2d_rx/src/tes/dave_intern.h **** 
 215:../src/smc_gen/r_drw2d_rx/src/tes/dave_intern.h **** /*---------------------------------------------------------------------------
 216:../src/smc_gen/r_drw2d_rx/src/tes/dave_intern.h ****  * Internal flags */
 217:../src/smc_gen/r_drw2d_rx/src/tes/dave_intern.h **** 
 218:../src/smc_gen/r_drw2d_rx/src/tes/dave_intern.h **** typedef d2_u32 d2_lineendflags_intern;
 219:../src/smc_gen/r_drw2d_rx/src/tes/dave_intern.h **** 
 220:../src/smc_gen/r_drw2d_rx/src/tes/dave_intern.h **** #define d2_lei_base                256u
 221:../src/smc_gen/r_drw2d_rx/src/tes/dave_intern.h **** 
 222:../src/smc_gen/r_drw2d_rx/src/tes/dave_intern.h **** #define d2_lei_ext_first_edge     (d2_lei_base *  2)
 223:../src/smc_gen/r_drw2d_rx/src/tes/dave_intern.h **** #define d2_lei_ext_last_edge      (d2_lei_base *  4)
 224:../src/smc_gen/r_drw2d_rx/src/tes/dave_intern.h **** #define d2_lei_buffer_first_edge  (d2_lei_base *  8)
 225:../src/smc_gen/r_drw2d_rx/src/tes/dave_intern.h **** #define d2_lei_buffer_last_edge   (d2_lei_base * 16)
 226:../src/smc_gen/r_drw2d_rx/src/tes/dave_intern.h **** #define d2_lei_miter_edge         (d2_lei_base * 32)
 227:../src/smc_gen/r_drw2d_rx/src/tes/dave_intern.h **** #define d2_lei_miter1_flip        (d2_lei_base * 64)
 228:../src/smc_gen/r_drw2d_rx/src/tes/dave_intern.h **** #define d2_lei_miter2_flip        (d2_lei_base *128)
 229:../src/smc_gen/r_drw2d_rx/src/tes/dave_intern.h **** 
 230:../src/smc_gen/r_drw2d_rx/src/tes/dave_intern.h **** /*---------------------------------------------------------------------------
 231:../src/smc_gen/r_drw2d_rx/src/tes/dave_intern.h ****  * Internal macros */
 232:../src/smc_gen/r_drw2d_rx/src/tes/dave_intern.h **** 
 233:../src/smc_gen/r_drw2d_rx/src/tes/dave_intern.h **** #define D2_DEV(d)           ((d2_devicedata *) (d))           /* PRQA S 3453 */ /* $Misra: #MACRO_T
 234:../src/smc_gen/r_drw2d_rx/src/tes/dave_intern.h **** #define D2_CTX(c)           ((d2_contextdata *) (c))          /* PRQA S 3453 */ /* $Misra: #MACRO_T
 235:../src/smc_gen/r_drw2d_rx/src/tes/dave_intern.h **** #define D2_FNC(r)           ((d2_renderfunctions *) (r))      /* PRQA S 3453 */ /* $Misra: #MACRO_T
 236:../src/smc_gen/r_drw2d_rx/src/tes/dave_intern.h **** #define D2_DRB(r)           ((d2_rbuffer *) (r))              /* PRQA S 3453 */ /* $Misra: #MACRO_T
 237:../src/smc_gen/r_drw2d_rx/src/tes/dave_intern.h **** 
 238:../src/smc_gen/r_drw2d_rx/src/tes/dave_intern.h **** static D2_INLINE d2_s32 d2_seterr(d2_device *handle, d2_s32 err); /* to satisfy MISRA rule 3450 */
 239:../src/smc_gen/r_drw2d_rx/src/tes/dave_intern.h **** static D2_INLINE d2_s32 d2_seterr(d2_device *handle, d2_s32 err) /* PRQA S 3219, 3480 */ /* $Misra:
 240:../src/smc_gen/r_drw2d_rx/src/tes/dave_intern.h **** {
 241:../src/smc_gen/r_drw2d_rx/src/tes/dave_intern.h ****    D2_DEV(handle)->errorcode = (d2_s8)(err);
 242:../src/smc_gen/r_drw2d_rx/src/tes/dave_intern.h **** 
 243:../src/smc_gen/r_drw2d_rx/src/tes/dave_intern.h ****    return err;
 244:../src/smc_gen/r_drw2d_rx/src/tes/dave_intern.h **** }
 245:../src/smc_gen/r_drw2d_rx/src/tes/dave_intern.h **** 
 246:../src/smc_gen/r_drw2d_rx/src/tes/dave_intern.h **** #define D2_SETERR(d,e)      d2_seterr(d, e)                   /* PRQA S 3453 */ /* $Misra: #MACRO_F
 247:../src/smc_gen/r_drw2d_rx/src/tes/dave_intern.h **** #define D2_SETOK(d)         D2_SETERR(d, D2_OK)               /* PRQA S 3453 */ /* $Misra: #MACRO_F
 248:../src/smc_gen/r_drw2d_rx/src/tes/dave_intern.h **** #define D2_RETERR(d,e)      return D2_SETERR(d,e)             /* PRQA S 3453 */ /* $Misra: #MISRA_B
 249:../src/smc_gen/r_drw2d_rx/src/tes/dave_intern.h **** #define D2_RETERRU(d,e)     return (d2_u32) (D2_SETERR(d,e))  /* PRQA S 3412 */ /* $Misra: #MACRO_R
 250:../src/smc_gen/r_drw2d_rx/src/tes/dave_intern.h **** #define D2_RETOK(d)         return D2_SETOK(d)                /* PRQA S 3412 */ /* $Misra: #MACRO_R
 251:../src/smc_gen/r_drw2d_rx/src/tes/dave_intern.h **** 
 252:../src/smc_gen/r_drw2d_rx/src/tes/dave_intern.h **** #ifdef _DEBUG
 253:../src/smc_gen/r_drw2d_rx/src/tes/dave_intern.h **** #define D2_VALIDATE(x,e)    if (0 == (x)) \
 254:../src/smc_gen/r_drw2d_rx/src/tes/dave_intern.h ****    {                                      \
 255:../src/smc_gen/r_drw2d_rx/src/tes/dave_intern.h ****       return (e);                         \
 256:../src/smc_gen/r_drw2d_rx/src/tes/dave_intern.h ****    }(void)0                                                   /* PRQA S 3412 */ /* $Misra: #COMPILE
 257:../src/smc_gen/r_drw2d_rx/src/tes/dave_intern.h **** #define D2_CHECKERR(x,e)    if (! (x))    \
 258:../src/smc_gen/r_drw2d_rx/src/tes/dave_intern.h ****    {                                      \
 259:../src/smc_gen/r_drw2d_rx/src/tes/dave_intern.h ****       D2_RETERR(handle, (e));             \
 260:../src/smc_gen/r_drw2d_rx/src/tes/dave_intern.h ****    }(void)0                                                   /* PRQA S 3412 */ /* $Misra: #COMPILE
 261:../src/smc_gen/r_drw2d_rx/src/tes/dave_intern.h **** #define D2_VALIDATEP(x,e)   if (0 == (x)) \
 262:../src/smc_gen/r_drw2d_rx/src/tes/dave_intern.h ****    {                                      \
 263:../src/smc_gen/r_drw2d_rx/src/tes/dave_intern.h ****       return 0;                           \
 264:../src/smc_gen/r_drw2d_rx/src/tes/dave_intern.h ****    }(void)0                                                   /* PRQA S 3412 */ /* $Misra: #COMPILE
 265:../src/smc_gen/r_drw2d_rx/src/tes/dave_intern.h **** #define D2_CHECKERRP(x,e)   if (! (x)) \
 266:../src/smc_gen/r_drw2d_rx/src/tes/dave_intern.h ****    {                                   \
 267:../src/smc_gen/r_drw2d_rx/src/tes/dave_intern.h ****       (void)D2_SETERR(handle, (e));    \
 268:../src/smc_gen/r_drw2d_rx/src/tes/dave_intern.h ****       return 0;                        \
 269:../src/smc_gen/r_drw2d_rx/src/tes/dave_intern.h ****    } (void)0                                                  /* PRQA S 3412 */ /* $Misra: #COMPILE
 270:../src/smc_gen/r_drw2d_rx/src/tes/dave_intern.h **** #define D2_CHECKRANGE( v, min, max ) if( ((min) > (v)) || ( (v) > (max)) ) \
 271:../src/smc_gen/r_drw2d_rx/src/tes/dave_intern.h ****    {                                                                       \
 272:../src/smc_gen/r_drw2d_rx/src/tes/dave_intern.h ****       (void)D2_SETERR( handle, D2_INVALIDINDEX);                           \
 273:../src/smc_gen/r_drw2d_rx/src/tes/dave_intern.h ****       return D2_INVALIDINDEX;                                              \
 274:../src/smc_gen/r_drw2d_rx/src/tes/dave_intern.h ****    }(void)0                                                   /* PRQA S 3412 */ /* $Misra: #COMPILE
 275:../src/smc_gen/r_drw2d_rx/src/tes/dave_intern.h **** #else
 276:../src/smc_gen/r_drw2d_rx/src/tes/dave_intern.h **** #define D2_VALIDATE(x,e)(void)0              /* PRQA S 4130, 3112, 3453 */ /* $Misra: #DEBUG_MACRO 
 277:../src/smc_gen/r_drw2d_rx/src/tes/dave_intern.h **** #define D2_CHECKERR(x,e)(void)0              /* PRQA S 4130, 3112, 3453 */ /* $Misra: #DEBUG_MACRO 
 278:../src/smc_gen/r_drw2d_rx/src/tes/dave_intern.h **** #define D2_VALIDATEP(x,e)(void)0             /* PRQA S 4130, 3112, 3453 */ /* $Misra: #DEBUG_MACRO 
 279:../src/smc_gen/r_drw2d_rx/src/tes/dave_intern.h **** #define D2_CHECKERRP(x,e)(void)0             /* PRQA S 4130, 3112, 3453 */ /* $Misra: #DEBUG_MACRO 
 280:../src/smc_gen/r_drw2d_rx/src/tes/dave_intern.h **** #define D2_CHECKRANGE( v, min, max )(void)0  /* PRQA S 4130, 3112, 3453 */ /* $Misra: #DEBUG_MACRO 
 281:../src/smc_gen/r_drw2d_rx/src/tes/dave_intern.h **** #endif
 282:../src/smc_gen/r_drw2d_rx/src/tes/dave_intern.h **** 
 283:../src/smc_gen/r_drw2d_rx/src/tes/dave_intern.h **** D2_EXTERN void d2_cast32to64(d2_s32 par, d2_int64 *res);
 284:../src/smc_gen/r_drw2d_rx/src/tes/dave_intern.h **** D2_EXTERN d2_s32  d2_cast64to32(const d2_int64 *par);
 285:../src/smc_gen/r_drw2d_rx/src/tes/dave_intern.h **** D2_EXTERN void d2_add64(const d2_int64 *a, const d2_int64 *b, d2_int64 *res);
 286:../src/smc_gen/r_drw2d_rx/src/tes/dave_intern.h **** D2_EXTERN void d2_sub64(const d2_int64 *a, const d2_int64 *b, d2_int64 *res);
 287:../src/smc_gen/r_drw2d_rx/src/tes/dave_intern.h **** D2_EXTERN void d2_mul3232to64(d2_s32 a, d2_s32 b, d2_int64 *res);
 288:../src/smc_gen/r_drw2d_rx/src/tes/dave_intern.h **** D2_EXTERN void d2_mul3264(d2_s32 a, d2_int64 *b, d2_int64 *res);
 289:../src/smc_gen/r_drw2d_rx/src/tes/dave_intern.h **** D2_EXTERN void d2_div6432(const d2_int64 *dividend, d2_s32 divisor, d2_int64 *res);
 290:../src/smc_gen/r_drw2d_rx/src/tes/dave_intern.h **** D2_EXTERN void d2_shiftleft64(const d2_int64 *var, d2_s32 index, d2_int64 *res);
 291:../src/smc_gen/r_drw2d_rx/src/tes/dave_intern.h **** D2_EXTERN void d2_shiftright64(const d2_int64 *var, d2_s32 index, d2_int64 *res);
 292:../src/smc_gen/r_drw2d_rx/src/tes/dave_intern.h **** 
 293:../src/smc_gen/r_drw2d_rx/src/tes/dave_intern.h **** #ifdef _NO_LL_
 294:../src/smc_gen/r_drw2d_rx/src/tes/dave_intern.h **** #define D2_CAST32TO64(PAR, RES)    d2_cast32to64(PAR, RES)     /* PRQA S 3453 */ /* $Misra: #MACRO_
 295:../src/smc_gen/r_drw2d_rx/src/tes/dave_intern.h **** #define D2_CAST64TO32(PAR)         d2_cast64to32(PAR)          /* PRQA S 3453 */ /* $Misra: #MACRO_
 296:../src/smc_gen/r_drw2d_rx/src/tes/dave_intern.h **** #define D2_ADD64(A, B, RES)        d2_add64(A, B, RES)         /* PRQA S 3453 */ /* $Misra: #MACRO_
 297:../src/smc_gen/r_drw2d_rx/src/tes/dave_intern.h **** #define D2_SUB64(A, B, RES)        d2_sub64(A, B, RES)         /* PRQA S 3453 */ /* $Misra: #MACRO_
 298:../src/smc_gen/r_drw2d_rx/src/tes/dave_intern.h **** #define D2_MUL3232TO64(A, B, RES)  d2_mul3232to64(A, B, RES)   /* PRQA S 3453 */ /* $Misra: #MACRO_
 299:../src/smc_gen/r_drw2d_rx/src/tes/dave_intern.h **** #define D2_MUL3264(A, B, RES)      d2_mul3264(A, B, RES)       /* PRQA S 3453 */ /* $Misra: #MACRO_
 300:../src/smc_gen/r_drw2d_rx/src/tes/dave_intern.h **** #define D2_DIV6432(DVD, DVS, RES)  d2_div6432(DVD, DVS, RES)   /* PRQA S 3453 */ /* $Misra: #MACRO_
 301:../src/smc_gen/r_drw2d_rx/src/tes/dave_intern.h **** #define D2_SHIFTLEFT64(V, I, RES)  d2_shiftleft64(V, I, RES)   /* PRQA S 3453 */ /* $Misra: #MACRO_
 302:../src/smc_gen/r_drw2d_rx/src/tes/dave_intern.h **** #define D2_SHIFTRIGHT64(V, I, RES) d2_shiftright64(V, I, RES)  /* PRQA S 3453 */ /* $Misra: #MACRO_
 303:../src/smc_gen/r_drw2d_rx/src/tes/dave_intern.h **** #else
 304:../src/smc_gen/r_drw2d_rx/src/tes/dave_intern.h **** #define D2_CAST32TO64(PAR, RES)    *(RES) = (PAR)              /* PRQA S 3453 */ /* $Misra: #MACRO_
 305:../src/smc_gen/r_drw2d_rx/src/tes/dave_intern.h **** #define D2_CAST64TO32(PAR)         ((d2_s32)*(PAR))            /* PRQA S 3453 */ /* $Misra: #MACRO_
 306:../src/smc_gen/r_drw2d_rx/src/tes/dave_intern.h **** #define D2_ADD64(A, B, RES)        *(RES) = (*(A)) + (*(B))    /* PRQA S 3453 */ /* $Misra: #MACRO_
 307:../src/smc_gen/r_drw2d_rx/src/tes/dave_intern.h **** #define D2_SUB64(A, B, RES)        *(RES) = (*(A)) - (*(B))    /* PRQA S 3453 */ /* $Misra: #MACRO_
 308:../src/smc_gen/r_drw2d_rx/src/tes/dave_intern.h **** #define D2_MUL3232TO64(A, B, RES)  *(RES) = ((A)) * (*(B))     /* PRQA S 3453 */ /* $Misra: #MACRO_
 309:../src/smc_gen/r_drw2d_rx/src/tes/dave_intern.h **** #define D2_MUL3264(A, B, RES)      *(RES) = ((A)) * (*(B))     /* PRQA S 3453 */ /* $Misra: #MACRO_
 310:../src/smc_gen/r_drw2d_rx/src/tes/dave_intern.h **** #define D2_DIV6432(DVD, DVS, RES)  *(RES) = (*(DVD)) / ((DVS)) /* PRQA S 3453 */ /* $Misra: #MACRO_
 311:../src/smc_gen/r_drw2d_rx/src/tes/dave_intern.h **** #define D2_SHIFTLEFT64(V, I, RES)  *(RES) = ((*(V)) << (I))    /* PRQA S 3453 */ /* $Misra: #MACRO_
 312:../src/smc_gen/r_drw2d_rx/src/tes/dave_intern.h **** #define D2_SHIFTRIGHT64(V, I, RES) *(RES) = ((*(V)) >> (I))    /* PRQA S 3453 */ /* $Misra: #MACRO_
 313:../src/smc_gen/r_drw2d_rx/src/tes/dave_intern.h **** #endif
 314:../src/smc_gen/r_drw2d_rx/src/tes/dave_intern.h **** 
 315:../src/smc_gen/r_drw2d_rx/src/tes/dave_intern.h **** 
 316:../src/smc_gen/r_drw2d_rx/src/tes/dave_intern.h **** /*---------------------------------------------------------------------------
 317:../src/smc_gen/r_drw2d_rx/src/tes/dave_intern.h ****  * Display List entry macro (moved from dlist.h because of include dependencies) */
 318:../src/smc_gen/r_drw2d_rx/src/tes/dave_intern.h **** 
 319:../src/smc_gen/r_drw2d_rx/src/tes/dave_intern.h **** static D2_INLINE void d2_add2dlist_intern( d2_devicedata *handle, d2_u32 regIdx, d2_s32 value )  /*
 783                             		.loc 2 319 23 view .LVU264
 784                             	.LBB83:
 320:../src/smc_gen/r_drw2d_rx/src/tes/dave_intern.h **** {
 321:../src/smc_gen/r_drw2d_rx/src/tes/dave_intern.h ****    d2_dlist_scratch_entry *entry = handle->dlscratch_pos;
 785                             		.loc 2 321 4 view .LVU265
 786                             		.loc 2 321 28 is_stmt 0 view .LVU266
 787 03f4 ED A7 6E                		mov.L	440[r10], r7
 788                             	.LVL86:
 322:../src/smc_gen/r_drw2d_rx/src/tes/dave_intern.h ****    handle->dlscratch_pos++;
 789                             		.loc 2 322 4 is_stmt 1 view .LVU267
 790                             		.loc 2 322 25 is_stmt 0 view .LVU268
 791 03f7 71 74 08                		add	#8, r7, r4
 792 03fa E7 A4 6E                		mov.L	r4, 440[r10]
 323:../src/smc_gen/r_drw2d_rx/src/tes/dave_intern.h **** 
 324:../src/smc_gen/r_drw2d_rx/src/tes/dave_intern.h ****    entry->reg   = regIdx;
 793                             		.loc 2 324 4 is_stmt 1 view .LVU269
 794                             		.loc 2 324 17 is_stmt 0 view .LVU270
 795 03fd F8 76 04                		mov.L	#4, [r7]
 325:../src/smc_gen/r_drw2d_rx/src/tes/dave_intern.h ****    entry->value = value;
 796                             		.loc 2 325 4 is_stmt 1 view .LVU271
 797                             		.loc 2 325 17 is_stmt 0 view .LVU272
 798 0400 A0 7D                   		mov.L	r5, 4[r7]
 326:../src/smc_gen/r_drw2d_rx/src/tes/dave_intern.h **** 
 327:../src/smc_gen/r_drw2d_rx/src/tes/dave_intern.h ****    --handle->dlscratch_cnt;
 799                             		.loc 2 327 4 is_stmt 1 view .LVU273
 800                             		.loc 2 327 12 is_stmt 0 view .LVU274
 801 0402 ED A7 6F                		mov.L	444[r10], r7
 802                             	.LVL87:
 803                             		.loc 2 327 4 view .LVU275
 804 0405 60 17                   		sub	#1, r7
 805 0407 E7 A7 6F                		mov.L	r7, 444[r10]
 328:../src/smc_gen/r_drw2d_rx/src/tes/dave_intern.h ****    if(handle->dlscratch_cnt <= 0)
 806                             		.loc 2 328 4 is_stmt 1 view .LVU276
 807                             		.loc 2 328 6 is_stmt 0 view .LVU277
 808 040a 61 07                   		cmp	#0, r7
 809 040c 2A 05 38 14 03          		ble	.L70
 810                             	.LVL88:
 811                             	.L42:
 812                             		.loc 2 328 6 view .LVU278
 813                             	.LBE83:
 814                             	.LBE82:
 307:../src/smc_gen/r_drw2d_rx/src/tes/dave_quad.c ****    D2_DLISTWRITES( D2_L1YADD , edge[0].yadd );
 815                             		.loc 1 307 4 is_stmt 1 view .LVU279
 816 0411 A9 85                   		mov.L	24[r0], r5
 817                             	.LVL89:
 818                             	.LBB87:
 819                             	.LBI87:
 319:../src/smc_gen/r_drw2d_rx/src/tes/dave_intern.h **** {
 820                             		.loc 2 319 23 view .LVU280
 821                             	.LBB88:
 321:../src/smc_gen/r_drw2d_rx/src/tes/dave_intern.h ****    handle->dlscratch_pos++;
 822                             		.loc 2 321 4 view .LVU281
 321:../src/smc_gen/r_drw2d_rx/src/tes/dave_intern.h ****    handle->dlscratch_pos++;
 823                             		.loc 2 321 28 is_stmt 0 view .LVU282
 824 0413 ED A7 6E                		mov.L	440[r10], r7
 825                             	.LVL90:
 322:../src/smc_gen/r_drw2d_rx/src/tes/dave_intern.h **** 
 826                             		.loc 2 322 4 is_stmt 1 view .LVU283
 322:../src/smc_gen/r_drw2d_rx/src/tes/dave_intern.h **** 
 827                             		.loc 2 322 25 is_stmt 0 view .LVU284
 828 0416 71 74 08                		add	#8, r7, r4
 829 0419 E7 A4 6E                		mov.L	r4, 440[r10]
 324:../src/smc_gen/r_drw2d_rx/src/tes/dave_intern.h ****    entry->value = value;
 830                             		.loc 2 324 4 is_stmt 1 view .LVU285
 324:../src/smc_gen/r_drw2d_rx/src/tes/dave_intern.h ****    entry->value = value;
 831                             		.loc 2 324 17 is_stmt 0 view .LVU286
 832 041c F8 76 0A                		mov.L	#10, [r7]
 325:../src/smc_gen/r_drw2d_rx/src/tes/dave_intern.h **** 
 833                             		.loc 2 325 4 is_stmt 1 view .LVU287
 325:../src/smc_gen/r_drw2d_rx/src/tes/dave_intern.h **** 
 834                             		.loc 2 325 17 is_stmt 0 view .LVU288
 835 041f A0 7D                   		mov.L	r5, 4[r7]
 327:../src/smc_gen/r_drw2d_rx/src/tes/dave_intern.h ****    if(handle->dlscratch_cnt <= 0)
 836                             		.loc 2 327 4 is_stmt 1 view .LVU289
 327:../src/smc_gen/r_drw2d_rx/src/tes/dave_intern.h ****    if(handle->dlscratch_cnt <= 0)
 837                             		.loc 2 327 12 is_stmt 0 view .LVU290
 838 0421 ED A7 6F                		mov.L	444[r10], r7
 839                             	.LVL91:
 327:../src/smc_gen/r_drw2d_rx/src/tes/dave_intern.h ****    if(handle->dlscratch_cnt <= 0)
 840                             		.loc 2 327 4 view .LVU291
 841 0424 60 17                   		sub	#1, r7
 842 0426 E7 A7 6F                		mov.L	r7, 444[r10]
 843                             		.loc 2 328 4 is_stmt 1 view .LVU292
 844                             		.loc 2 328 6 is_stmt 0 view .LVU293
 845 0429 61 07                   		cmp	#0, r7
 846 042b 2A 05 38 FF 02          		ble	.L71
 847                             	.LVL92:
 848                             	.L43:
 849                             		.loc 2 328 6 view .LVU294
 850                             	.LBE88:
 851                             	.LBE87:
 308:../src/smc_gen/r_drw2d_rx/src/tes/dave_quad.c ****    D2_DLISTWRITES( D2_L2START, edge[1].start );
 852                             		.loc 1 308 4 is_stmt 1 view .LVU295
 853 0430 A9 8D                   		mov.L	28[r0], r5
 854                             	.LVL93:
 855                             	.LBB92:
 856                             	.LBI92:
 319:../src/smc_gen/r_drw2d_rx/src/tes/dave_intern.h **** {
 857                             		.loc 2 319 23 view .LVU296
 858                             	.LBB93:
 321:../src/smc_gen/r_drw2d_rx/src/tes/dave_intern.h ****    handle->dlscratch_pos++;
 859                             		.loc 2 321 4 view .LVU297
 321:../src/smc_gen/r_drw2d_rx/src/tes/dave_intern.h ****    handle->dlscratch_pos++;
 860                             		.loc 2 321 28 is_stmt 0 view .LVU298
 861 0432 ED A7 6E                		mov.L	440[r10], r7
 862                             	.LVL94:
 322:../src/smc_gen/r_drw2d_rx/src/tes/dave_intern.h **** 
 863                             		.loc 2 322 4 is_stmt 1 view .LVU299
 322:../src/smc_gen/r_drw2d_rx/src/tes/dave_intern.h **** 
 864                             		.loc 2 322 25 is_stmt 0 view .LVU300
 865 0435 71 74 08                		add	#8, r7, r4
 866 0438 E7 A4 6E                		mov.L	r4, 440[r10]
 324:../src/smc_gen/r_drw2d_rx/src/tes/dave_intern.h ****    entry->value = value;
 867                             		.loc 2 324 4 is_stmt 1 view .LVU301
 324:../src/smc_gen/r_drw2d_rx/src/tes/dave_intern.h ****    entry->value = value;
 868                             		.loc 2 324 17 is_stmt 0 view .LVU302
 869 043b F8 76 10                		mov.L	#16, [r7]
 325:../src/smc_gen/r_drw2d_rx/src/tes/dave_intern.h **** 
 870                             		.loc 2 325 4 is_stmt 1 view .LVU303
 325:../src/smc_gen/r_drw2d_rx/src/tes/dave_intern.h **** 
 871                             		.loc 2 325 17 is_stmt 0 view .LVU304
 872 043e A0 7D                   		mov.L	r5, 4[r7]
 327:../src/smc_gen/r_drw2d_rx/src/tes/dave_intern.h ****    if(handle->dlscratch_cnt <= 0)
 873                             		.loc 2 327 4 is_stmt 1 view .LVU305
 327:../src/smc_gen/r_drw2d_rx/src/tes/dave_intern.h ****    if(handle->dlscratch_cnt <= 0)
 874                             		.loc 2 327 12 is_stmt 0 view .LVU306
 875 0440 ED A7 6F                		mov.L	444[r10], r7
 876                             	.LVL95:
 327:../src/smc_gen/r_drw2d_rx/src/tes/dave_intern.h ****    if(handle->dlscratch_cnt <= 0)
 877                             		.loc 2 327 4 view .LVU307
 878 0443 60 17                   		sub	#1, r7
 879 0445 E7 A7 6F                		mov.L	r7, 444[r10]
 880                             		.loc 2 328 4 is_stmt 1 view .LVU308
 881                             		.loc 2 328 6 is_stmt 0 view .LVU309
 882 0448 61 07                   		cmp	#0, r7
 883 044a 2A 05 38 EA 02          		ble	.L72
 884                             	.LVL96:
 885                             	.L44:
 886                             		.loc 2 328 6 view .LVU310
 887                             	.LBE93:
 888                             	.LBE92:
 309:../src/smc_gen/r_drw2d_rx/src/tes/dave_quad.c ****    D2_DLISTWRITES( D2_L2XADD , edge[1].xadd );
 889                             		.loc 1 309 4 is_stmt 1 view .LVU311
 890 044f AA 05                   		mov.L	32[r0], r5
 891                             	.LVL97:
 892                             	.LBB97:
 893                             	.LBI97:
 319:../src/smc_gen/r_drw2d_rx/src/tes/dave_intern.h **** {
 894                             		.loc 2 319 23 view .LVU312
 895                             	.LBB98:
 321:../src/smc_gen/r_drw2d_rx/src/tes/dave_intern.h ****    handle->dlscratch_pos++;
 896                             		.loc 2 321 4 view .LVU313
 321:../src/smc_gen/r_drw2d_rx/src/tes/dave_intern.h ****    handle->dlscratch_pos++;
 897                             		.loc 2 321 28 is_stmt 0 view .LVU314
 898 0451 ED A7 6E                		mov.L	440[r10], r7
 899                             	.LVL98:
 322:../src/smc_gen/r_drw2d_rx/src/tes/dave_intern.h **** 
 900                             		.loc 2 322 4 is_stmt 1 view .LVU315
 322:../src/smc_gen/r_drw2d_rx/src/tes/dave_intern.h **** 
 901                             		.loc 2 322 25 is_stmt 0 view .LVU316
 902 0454 71 74 08                		add	#8, r7, r4
 903 0457 E7 A4 6E                		mov.L	r4, 440[r10]
 324:../src/smc_gen/r_drw2d_rx/src/tes/dave_intern.h ****    entry->value = value;
 904                             		.loc 2 324 4 is_stmt 1 view .LVU317
 324:../src/smc_gen/r_drw2d_rx/src/tes/dave_intern.h ****    entry->value = value;
 905                             		.loc 2 324 17 is_stmt 0 view .LVU318
 906 045a F8 76 05                		mov.L	#5, [r7]
 325:../src/smc_gen/r_drw2d_rx/src/tes/dave_intern.h **** 
 907                             		.loc 2 325 4 is_stmt 1 view .LVU319
 325:../src/smc_gen/r_drw2d_rx/src/tes/dave_intern.h **** 
 908                             		.loc 2 325 17 is_stmt 0 view .LVU320
 909 045d A0 7D                   		mov.L	r5, 4[r7]
 327:../src/smc_gen/r_drw2d_rx/src/tes/dave_intern.h ****    if(handle->dlscratch_cnt <= 0)
 910                             		.loc 2 327 4 is_stmt 1 view .LVU321
 327:../src/smc_gen/r_drw2d_rx/src/tes/dave_intern.h ****    if(handle->dlscratch_cnt <= 0)
 911                             		.loc 2 327 12 is_stmt 0 view .LVU322
 912 045f ED A7 6F                		mov.L	444[r10], r7
 913                             	.LVL99:
 327:../src/smc_gen/r_drw2d_rx/src/tes/dave_intern.h ****    if(handle->dlscratch_cnt <= 0)
 914                             		.loc 2 327 4 view .LVU323
 915 0462 60 17                   		sub	#1, r7
 916 0464 E7 A7 6F                		mov.L	r7, 444[r10]
 917                             		.loc 2 328 4 is_stmt 1 view .LVU324
 918                             		.loc 2 328 6 is_stmt 0 view .LVU325
 919 0467 61 07                   		cmp	#0, r7
 920 0469 2A 05 38 D5 02          		ble	.L73
 921                             	.LVL100:
 922                             	.L45:
 923                             		.loc 2 328 6 view .LVU326
 924                             	.LBE98:
 925                             	.LBE97:
 310:../src/smc_gen/r_drw2d_rx/src/tes/dave_quad.c ****    D2_DLISTWRITES( D2_L2YADD , edge[1].yadd );
 926                             		.loc 1 310 4 is_stmt 1 view .LVU327
 927 046e AA 0D                   		mov.L	36[r0], r5
 928                             	.LVL101:
 929                             	.LBB102:
 930                             	.LBI102:
 319:../src/smc_gen/r_drw2d_rx/src/tes/dave_intern.h **** {
 931                             		.loc 2 319 23 view .LVU328
 932                             	.LBB103:
 321:../src/smc_gen/r_drw2d_rx/src/tes/dave_intern.h ****    handle->dlscratch_pos++;
 933                             		.loc 2 321 4 view .LVU329
 321:../src/smc_gen/r_drw2d_rx/src/tes/dave_intern.h ****    handle->dlscratch_pos++;
 934                             		.loc 2 321 28 is_stmt 0 view .LVU330
 935 0470 ED A7 6E                		mov.L	440[r10], r7
 936                             	.LVL102:
 322:../src/smc_gen/r_drw2d_rx/src/tes/dave_intern.h **** 
 937                             		.loc 2 322 4 is_stmt 1 view .LVU331
 322:../src/smc_gen/r_drw2d_rx/src/tes/dave_intern.h **** 
 938                             		.loc 2 322 25 is_stmt 0 view .LVU332
 939 0473 71 74 08                		add	#8, r7, r4
 940 0476 E7 A4 6E                		mov.L	r4, 440[r10]
 324:../src/smc_gen/r_drw2d_rx/src/tes/dave_intern.h ****    entry->value = value;
 941                             		.loc 2 324 4 is_stmt 1 view .LVU333
 324:../src/smc_gen/r_drw2d_rx/src/tes/dave_intern.h ****    entry->value = value;
 942                             		.loc 2 324 17 is_stmt 0 view .LVU334
 943 0479 F8 76 0B                		mov.L	#11, [r7]
 325:../src/smc_gen/r_drw2d_rx/src/tes/dave_intern.h **** 
 944                             		.loc 2 325 4 is_stmt 1 view .LVU335
 325:../src/smc_gen/r_drw2d_rx/src/tes/dave_intern.h **** 
 945                             		.loc 2 325 17 is_stmt 0 view .LVU336
 946 047c A0 7D                   		mov.L	r5, 4[r7]
 327:../src/smc_gen/r_drw2d_rx/src/tes/dave_intern.h ****    if(handle->dlscratch_cnt <= 0)
 947                             		.loc 2 327 4 is_stmt 1 view .LVU337
 327:../src/smc_gen/r_drw2d_rx/src/tes/dave_intern.h ****    if(handle->dlscratch_cnt <= 0)
 948                             		.loc 2 327 12 is_stmt 0 view .LVU338
 949 047e ED A7 6F                		mov.L	444[r10], r7
 950                             	.LVL103:
 327:../src/smc_gen/r_drw2d_rx/src/tes/dave_intern.h ****    if(handle->dlscratch_cnt <= 0)
 951                             		.loc 2 327 4 view .LVU339
 952 0481 60 17                   		sub	#1, r7
 953 0483 E7 A7 6F                		mov.L	r7, 444[r10]
 954                             		.loc 2 328 4 is_stmt 1 view .LVU340
 955                             		.loc 2 328 6 is_stmt 0 view .LVU341
 956 0486 61 07                   		cmp	#0, r7
 957 0488 2A 05 38 C0 02          		ble	.L74
 958                             	.LVL104:
 959                             	.L46:
 960                             		.loc 2 328 6 view .LVU342
 961                             	.LBE103:
 962                             	.LBE102:
 311:../src/smc_gen/r_drw2d_rx/src/tes/dave_quad.c ****    D2_DLISTWRITES( D2_L3START, edge[2].start );
 963                             		.loc 1 311 4 is_stmt 1 view .LVU343
 964 048d AA 85                   		mov.L	40[r0], r5
 965                             	.LVL105:
 966                             	.LBB107:
 967                             	.LBI107:
 319:../src/smc_gen/r_drw2d_rx/src/tes/dave_intern.h **** {
 968                             		.loc 2 319 23 view .LVU344
 969                             	.LBB108:
 321:../src/smc_gen/r_drw2d_rx/src/tes/dave_intern.h ****    handle->dlscratch_pos++;
 970                             		.loc 2 321 4 view .LVU345
 321:../src/smc_gen/r_drw2d_rx/src/tes/dave_intern.h ****    handle->dlscratch_pos++;
 971                             		.loc 2 321 28 is_stmt 0 view .LVU346
 972 048f ED A7 6E                		mov.L	440[r10], r7
 973                             	.LVL106:
 322:../src/smc_gen/r_drw2d_rx/src/tes/dave_intern.h **** 
 974                             		.loc 2 322 4 is_stmt 1 view .LVU347
 322:../src/smc_gen/r_drw2d_rx/src/tes/dave_intern.h **** 
 975                             		.loc 2 322 25 is_stmt 0 view .LVU348
 976 0492 71 74 08                		add	#8, r7, r4
 977 0495 E7 A4 6E                		mov.L	r4, 440[r10]
 324:../src/smc_gen/r_drw2d_rx/src/tes/dave_intern.h ****    entry->value = value;
 978                             		.loc 2 324 4 is_stmt 1 view .LVU349
 324:../src/smc_gen/r_drw2d_rx/src/tes/dave_intern.h ****    entry->value = value;
 979                             		.loc 2 324 17 is_stmt 0 view .LVU350
 980 0498 F8 76 11                		mov.L	#17, [r7]
 325:../src/smc_gen/r_drw2d_rx/src/tes/dave_intern.h **** 
 981                             		.loc 2 325 4 is_stmt 1 view .LVU351
 325:../src/smc_gen/r_drw2d_rx/src/tes/dave_intern.h **** 
 982                             		.loc 2 325 17 is_stmt 0 view .LVU352
 983 049b A0 7D                   		mov.L	r5, 4[r7]
 327:../src/smc_gen/r_drw2d_rx/src/tes/dave_intern.h ****    if(handle->dlscratch_cnt <= 0)
 984                             		.loc 2 327 4 is_stmt 1 view .LVU353
 327:../src/smc_gen/r_drw2d_rx/src/tes/dave_intern.h ****    if(handle->dlscratch_cnt <= 0)
 985                             		.loc 2 327 12 is_stmt 0 view .LVU354
 986 049d ED A7 6F                		mov.L	444[r10], r7
 987                             	.LVL107:
 327:../src/smc_gen/r_drw2d_rx/src/tes/dave_intern.h ****    if(handle->dlscratch_cnt <= 0)
 988                             		.loc 2 327 4 view .LVU355
 989 04a0 60 17                   		sub	#1, r7
 990 04a2 E7 A7 6F                		mov.L	r7, 444[r10]
 991                             		.loc 2 328 4 is_stmt 1 view .LVU356
 992                             		.loc 2 328 6 is_stmt 0 view .LVU357
 993 04a5 61 07                   		cmp	#0, r7
 994 04a7 2A 05 38 AB 02          		ble	.L75
 995                             	.LVL108:
 996                             	.L47:
 997                             		.loc 2 328 6 view .LVU358
 998                             	.LBE108:
 999                             	.LBE107:
 312:../src/smc_gen/r_drw2d_rx/src/tes/dave_quad.c ****    D2_DLISTWRITES( D2_L3XADD , edge[2].xadd );
 1000                             		.loc 1 312 4 is_stmt 1 view .LVU359
 1001 04ac AA 8D                   		mov.L	44[r0], r5
 1002                             	.LVL109:
 1003                             	.LBB112:
 1004                             	.LBI112:
 319:../src/smc_gen/r_drw2d_rx/src/tes/dave_intern.h **** {
 1005                             		.loc 2 319 23 view .LVU360
 1006                             	.LBB113:
 321:../src/smc_gen/r_drw2d_rx/src/tes/dave_intern.h ****    handle->dlscratch_pos++;
 1007                             		.loc 2 321 4 view .LVU361
 321:../src/smc_gen/r_drw2d_rx/src/tes/dave_intern.h ****    handle->dlscratch_pos++;
 1008                             		.loc 2 321 28 is_stmt 0 view .LVU362
 1009 04ae ED A7 6E                		mov.L	440[r10], r7
 1010                             	.LVL110:
 322:../src/smc_gen/r_drw2d_rx/src/tes/dave_intern.h **** 
 1011                             		.loc 2 322 4 is_stmt 1 view .LVU363
 322:../src/smc_gen/r_drw2d_rx/src/tes/dave_intern.h **** 
 1012                             		.loc 2 322 25 is_stmt 0 view .LVU364
 1013 04b1 71 74 08                		add	#8, r7, r4
 1014 04b4 E7 A4 6E                		mov.L	r4, 440[r10]
 324:../src/smc_gen/r_drw2d_rx/src/tes/dave_intern.h ****    entry->value = value;
 1015                             		.loc 2 324 4 is_stmt 1 view .LVU365
 324:../src/smc_gen/r_drw2d_rx/src/tes/dave_intern.h ****    entry->value = value;
 1016                             		.loc 2 324 17 is_stmt 0 view .LVU366
 1017 04b7 F8 76 06                		mov.L	#6, [r7]
 325:../src/smc_gen/r_drw2d_rx/src/tes/dave_intern.h **** 
 1018                             		.loc 2 325 4 is_stmt 1 view .LVU367
 325:../src/smc_gen/r_drw2d_rx/src/tes/dave_intern.h **** 
 1019                             		.loc 2 325 17 is_stmt 0 view .LVU368
 1020 04ba A0 7D                   		mov.L	r5, 4[r7]
 327:../src/smc_gen/r_drw2d_rx/src/tes/dave_intern.h ****    if(handle->dlscratch_cnt <= 0)
 1021                             		.loc 2 327 4 is_stmt 1 view .LVU369
 327:../src/smc_gen/r_drw2d_rx/src/tes/dave_intern.h ****    if(handle->dlscratch_cnt <= 0)
 1022                             		.loc 2 327 12 is_stmt 0 view .LVU370
 1023 04bc ED A7 6F                		mov.L	444[r10], r7
 1024                             	.LVL111:
 327:../src/smc_gen/r_drw2d_rx/src/tes/dave_intern.h ****    if(handle->dlscratch_cnt <= 0)
 1025                             		.loc 2 327 4 view .LVU371
 1026 04bf 60 17                   		sub	#1, r7
 1027 04c1 E7 A7 6F                		mov.L	r7, 444[r10]
 1028                             		.loc 2 328 4 is_stmt 1 view .LVU372
 1029                             		.loc 2 328 6 is_stmt 0 view .LVU373
 1030 04c4 61 07                   		cmp	#0, r7
 1031 04c6 2A 05 38 96 02          		ble	.L76
 1032                             	.LVL112:
 1033                             	.L48:
 1034                             		.loc 2 328 6 view .LVU374
 1035                             	.LBE113:
 1036                             	.LBE112:
 313:../src/smc_gen/r_drw2d_rx/src/tes/dave_quad.c ****    D2_DLISTWRITES( D2_L3YADD , edge[2].yadd );
 1037                             		.loc 1 313 4 is_stmt 1 view .LVU375
 1038 04cb AB 05                   		mov.L	48[r0], r5
 1039                             	.LVL113:
 1040                             	.LBB117:
 1041                             	.LBI117:
 319:../src/smc_gen/r_drw2d_rx/src/tes/dave_intern.h **** {
 1042                             		.loc 2 319 23 view .LVU376
 1043                             	.LBB118:
 321:../src/smc_gen/r_drw2d_rx/src/tes/dave_intern.h ****    handle->dlscratch_pos++;
 1044                             		.loc 2 321 4 view .LVU377
 321:../src/smc_gen/r_drw2d_rx/src/tes/dave_intern.h ****    handle->dlscratch_pos++;
 1045                             		.loc 2 321 28 is_stmt 0 view .LVU378
 1046 04cd ED A7 6E                		mov.L	440[r10], r7
 1047                             	.LVL114:
 322:../src/smc_gen/r_drw2d_rx/src/tes/dave_intern.h **** 
 1048                             		.loc 2 322 4 is_stmt 1 view .LVU379
 322:../src/smc_gen/r_drw2d_rx/src/tes/dave_intern.h **** 
 1049                             		.loc 2 322 25 is_stmt 0 view .LVU380
 1050 04d0 71 74 08                		add	#8, r7, r4
 1051 04d3 E7 A4 6E                		mov.L	r4, 440[r10]
 324:../src/smc_gen/r_drw2d_rx/src/tes/dave_intern.h ****    entry->value = value;
 1052                             		.loc 2 324 4 is_stmt 1 view .LVU381
 324:../src/smc_gen/r_drw2d_rx/src/tes/dave_intern.h ****    entry->value = value;
 1053                             		.loc 2 324 17 is_stmt 0 view .LVU382
 1054 04d6 F8 76 0C                		mov.L	#12, [r7]
 325:../src/smc_gen/r_drw2d_rx/src/tes/dave_intern.h **** 
 1055                             		.loc 2 325 4 is_stmt 1 view .LVU383
 325:../src/smc_gen/r_drw2d_rx/src/tes/dave_intern.h **** 
 1056                             		.loc 2 325 17 is_stmt 0 view .LVU384
 1057 04d9 A0 7D                   		mov.L	r5, 4[r7]
 327:../src/smc_gen/r_drw2d_rx/src/tes/dave_intern.h ****    if(handle->dlscratch_cnt <= 0)
 1058                             		.loc 2 327 4 is_stmt 1 view .LVU385
 327:../src/smc_gen/r_drw2d_rx/src/tes/dave_intern.h ****    if(handle->dlscratch_cnt <= 0)
 1059                             		.loc 2 327 12 is_stmt 0 view .LVU386
 1060 04db ED A7 6F                		mov.L	444[r10], r7
 1061                             	.LVL115:
 327:../src/smc_gen/r_drw2d_rx/src/tes/dave_intern.h ****    if(handle->dlscratch_cnt <= 0)
 1062                             		.loc 2 327 4 view .LVU387
 1063 04de 60 17                   		sub	#1, r7
 1064 04e0 E7 A7 6F                		mov.L	r7, 444[r10]
 1065                             		.loc 2 328 4 is_stmt 1 view .LVU388
 1066                             		.loc 2 328 6 is_stmt 0 view .LVU389
 1067 04e3 61 07                   		cmp	#0, r7
 1068 04e5 2A 05 38 81 02          		ble	.L77
 1069                             	.LVL116:
 1070                             	.L49:
 1071                             		.loc 2 328 6 view .LVU390
 1072                             	.LBE118:
 1073                             	.LBE117:
 314:../src/smc_gen/r_drw2d_rx/src/tes/dave_quad.c ****    D2_DLISTWRITES( D2_L4START, edge[3].start );
 1074                             		.loc 1 314 4 is_stmt 1 view .LVU391
 1075 04ea AB 0D                   		mov.L	52[r0], r5
 1076                             	.LVL117:
 1077                             	.LBB122:
 1078                             	.LBI122:
 319:../src/smc_gen/r_drw2d_rx/src/tes/dave_intern.h **** {
 1079                             		.loc 2 319 23 view .LVU392
 1080                             	.LBB123:
 321:../src/smc_gen/r_drw2d_rx/src/tes/dave_intern.h ****    handle->dlscratch_pos++;
 1081                             		.loc 2 321 4 view .LVU393
 321:../src/smc_gen/r_drw2d_rx/src/tes/dave_intern.h ****    handle->dlscratch_pos++;
 1082                             		.loc 2 321 28 is_stmt 0 view .LVU394
 1083 04ec ED A7 6E                		mov.L	440[r10], r7
 1084                             	.LVL118:
 322:../src/smc_gen/r_drw2d_rx/src/tes/dave_intern.h **** 
 1085                             		.loc 2 322 4 is_stmt 1 view .LVU395
 322:../src/smc_gen/r_drw2d_rx/src/tes/dave_intern.h **** 
 1086                             		.loc 2 322 25 is_stmt 0 view .LVU396
 1087 04ef 71 74 08                		add	#8, r7, r4
 1088 04f2 E7 A4 6E                		mov.L	r4, 440[r10]
 324:../src/smc_gen/r_drw2d_rx/src/tes/dave_intern.h ****    entry->value = value;
 1089                             		.loc 2 324 4 is_stmt 1 view .LVU397
 324:../src/smc_gen/r_drw2d_rx/src/tes/dave_intern.h ****    entry->value = value;
 1090                             		.loc 2 324 17 is_stmt 0 view .LVU398
 1091 04f5 F8 76 12                		mov.L	#18, [r7]
 325:../src/smc_gen/r_drw2d_rx/src/tes/dave_intern.h **** 
 1092                             		.loc 2 325 4 is_stmt 1 view .LVU399
 325:../src/smc_gen/r_drw2d_rx/src/tes/dave_intern.h **** 
 1093                             		.loc 2 325 17 is_stmt 0 view .LVU400
 1094 04f8 A0 7D                   		mov.L	r5, 4[r7]
 327:../src/smc_gen/r_drw2d_rx/src/tes/dave_intern.h ****    if(handle->dlscratch_cnt <= 0)
 1095                             		.loc 2 327 4 is_stmt 1 view .LVU401
 327:../src/smc_gen/r_drw2d_rx/src/tes/dave_intern.h ****    if(handle->dlscratch_cnt <= 0)
 1096                             		.loc 2 327 12 is_stmt 0 view .LVU402
 1097 04fa ED A7 6F                		mov.L	444[r10], r7
 1098                             	.LVL119:
 327:../src/smc_gen/r_drw2d_rx/src/tes/dave_intern.h ****    if(handle->dlscratch_cnt <= 0)
 1099                             		.loc 2 327 4 view .LVU403
 1100 04fd 60 17                   		sub	#1, r7
 1101 04ff E7 A7 6F                		mov.L	r7, 444[r10]
 1102                             		.loc 2 328 4 is_stmt 1 view .LVU404
 1103                             		.loc 2 328 6 is_stmt 0 view .LVU405
 1104 0502 61 07                   		cmp	#0, r7
 1105 0504 2A 05 38 6C 02          		ble	.L78
 1106                             	.LVL120:
 1107                             	.L50:
 1108                             		.loc 2 328 6 view .LVU406
 1109                             	.LBE123:
 1110                             	.LBE122:
 315:../src/smc_gen/r_drw2d_rx/src/tes/dave_quad.c ****    D2_DLISTWRITES( D2_L4XADD , edge[3].xadd );
 1111                             		.loc 1 315 4 is_stmt 1 view .LVU407
 1112 0509 AB 85                   		mov.L	56[r0], r5
 1113                             	.LVL121:
 1114                             	.LBB127:
 1115                             	.LBI127:
 319:../src/smc_gen/r_drw2d_rx/src/tes/dave_intern.h **** {
 1116                             		.loc 2 319 23 view .LVU408
 1117                             	.LBB128:
 321:../src/smc_gen/r_drw2d_rx/src/tes/dave_intern.h ****    handle->dlscratch_pos++;
 1118                             		.loc 2 321 4 view .LVU409
 321:../src/smc_gen/r_drw2d_rx/src/tes/dave_intern.h ****    handle->dlscratch_pos++;
 1119                             		.loc 2 321 28 is_stmt 0 view .LVU410
 1120 050b ED A7 6E                		mov.L	440[r10], r7
 1121                             	.LVL122:
 322:../src/smc_gen/r_drw2d_rx/src/tes/dave_intern.h **** 
 1122                             		.loc 2 322 4 is_stmt 1 view .LVU411
 322:../src/smc_gen/r_drw2d_rx/src/tes/dave_intern.h **** 
 1123                             		.loc 2 322 25 is_stmt 0 view .LVU412
 1124 050e 71 74 08                		add	#8, r7, r4
 1125 0511 E7 A4 6E                		mov.L	r4, 440[r10]
 324:../src/smc_gen/r_drw2d_rx/src/tes/dave_intern.h ****    entry->value = value;
 1126                             		.loc 2 324 4 is_stmt 1 view .LVU413
 324:../src/smc_gen/r_drw2d_rx/src/tes/dave_intern.h ****    entry->value = value;
 1127                             		.loc 2 324 17 is_stmt 0 view .LVU414
 1128 0514 F8 76 07                		mov.L	#7, [r7]
 325:../src/smc_gen/r_drw2d_rx/src/tes/dave_intern.h **** 
 1129                             		.loc 2 325 4 is_stmt 1 view .LVU415
 325:../src/smc_gen/r_drw2d_rx/src/tes/dave_intern.h **** 
 1130                             		.loc 2 325 17 is_stmt 0 view .LVU416
 1131 0517 A0 7D                   		mov.L	r5, 4[r7]
 327:../src/smc_gen/r_drw2d_rx/src/tes/dave_intern.h ****    if(handle->dlscratch_cnt <= 0)
 1132                             		.loc 2 327 4 is_stmt 1 view .LVU417
 327:../src/smc_gen/r_drw2d_rx/src/tes/dave_intern.h ****    if(handle->dlscratch_cnt <= 0)
 1133                             		.loc 2 327 12 is_stmt 0 view .LVU418
 1134 0519 ED A7 6F                		mov.L	444[r10], r7
 1135                             	.LVL123:
 327:../src/smc_gen/r_drw2d_rx/src/tes/dave_intern.h ****    if(handle->dlscratch_cnt <= 0)
 1136                             		.loc 2 327 4 view .LVU419
 1137 051c 60 17                   		sub	#1, r7
 1138 051e E7 A7 6F                		mov.L	r7, 444[r10]
 1139                             		.loc 2 328 4 is_stmt 1 view .LVU420
 1140                             		.loc 2 328 6 is_stmt 0 view .LVU421
 1141 0521 61 07                   		cmp	#0, r7
 1142 0523 2A 05 38 57 02          		ble	.L79
 1143                             	.LVL124:
 1144                             	.L51:
 1145                             		.loc 2 328 6 view .LVU422
 1146                             	.LBE128:
 1147                             	.LBE127:
 316:../src/smc_gen/r_drw2d_rx/src/tes/dave_quad.c ****    D2_DLISTWRITES( D2_L4YADD , edge[3].yadd );
 1148                             		.loc 1 316 4 is_stmt 1 view .LVU423
 1149 0528 AB 8D                   		mov.L	60[r0], r5
 1150                             	.LVL125:
 1151                             	.LBB132:
 1152                             	.LBI132:
 319:../src/smc_gen/r_drw2d_rx/src/tes/dave_intern.h **** {
 1153                             		.loc 2 319 23 view .LVU424
 1154                             	.LBB133:
 321:../src/smc_gen/r_drw2d_rx/src/tes/dave_intern.h ****    handle->dlscratch_pos++;
 1155                             		.loc 2 321 4 view .LVU425
 321:../src/smc_gen/r_drw2d_rx/src/tes/dave_intern.h ****    handle->dlscratch_pos++;
 1156                             		.loc 2 321 28 is_stmt 0 view .LVU426
 1157 052a ED A7 6E                		mov.L	440[r10], r7
 1158                             	.LVL126:
 322:../src/smc_gen/r_drw2d_rx/src/tes/dave_intern.h **** 
 1159                             		.loc 2 322 4 is_stmt 1 view .LVU427
 322:../src/smc_gen/r_drw2d_rx/src/tes/dave_intern.h **** 
 1160                             		.loc 2 322 25 is_stmt 0 view .LVU428
 1161 052d 71 74 08                		add	#8, r7, r4
 1162 0530 E7 A4 6E                		mov.L	r4, 440[r10]
 324:../src/smc_gen/r_drw2d_rx/src/tes/dave_intern.h ****    entry->value = value;
 1163                             		.loc 2 324 4 is_stmt 1 view .LVU429
 324:../src/smc_gen/r_drw2d_rx/src/tes/dave_intern.h ****    entry->value = value;
 1164                             		.loc 2 324 17 is_stmt 0 view .LVU430
 1165 0533 F8 76 0D                		mov.L	#13, [r7]
 325:../src/smc_gen/r_drw2d_rx/src/tes/dave_intern.h **** 
 1166                             		.loc 2 325 4 is_stmt 1 view .LVU431
 325:../src/smc_gen/r_drw2d_rx/src/tes/dave_intern.h **** 
 1167                             		.loc 2 325 17 is_stmt 0 view .LVU432
 1168 0536 A0 7D                   		mov.L	r5, 4[r7]
 327:../src/smc_gen/r_drw2d_rx/src/tes/dave_intern.h ****    if(handle->dlscratch_cnt <= 0)
 1169                             		.loc 2 327 4 is_stmt 1 view .LVU433
 327:../src/smc_gen/r_drw2d_rx/src/tes/dave_intern.h ****    if(handle->dlscratch_cnt <= 0)
 1170                             		.loc 2 327 12 is_stmt 0 view .LVU434
 1171 0538 ED A7 6F                		mov.L	444[r10], r7
 1172                             	.LVL127:
 327:../src/smc_gen/r_drw2d_rx/src/tes/dave_intern.h ****    if(handle->dlscratch_cnt <= 0)
 1173                             		.loc 2 327 4 view .LVU435
 1174 053b 60 17                   		sub	#1, r7
 1175 053d E7 A7 6F                		mov.L	r7, 444[r10]
 1176                             		.loc 2 328 4 is_stmt 1 view .LVU436
 1177                             		.loc 2 328 6 is_stmt 0 view .LVU437
 1178 0540 61 07                   		cmp	#0, r7
 1179 0542 2A 05 38 42 02          		ble	.L80
 1180                             	.LVL128:
 1181                             	.L52:
 1182                             		.loc 2 328 6 view .LVU438
 1183                             	.LBE133:
 1184                             	.LBE132:
 317:../src/smc_gen/r_drw2d_rx/src/tes/dave_quad.c ****    D2_DLISTWRITEU( D2_CONTROL,  control );
 1185                             		.loc 1 317 4 is_stmt 1 view .LVU439
 1186 0547 AC 05                   		mov.L	64[r0], r5
 1187                             	.LVL129:
 1188                             	.LBB137:
 1189                             	.LBI137:
 319:../src/smc_gen/r_drw2d_rx/src/tes/dave_intern.h **** {
 1190                             		.loc 2 319 23 view .LVU440
 1191                             	.LBB138:
 321:../src/smc_gen/r_drw2d_rx/src/tes/dave_intern.h ****    handle->dlscratch_pos++;
 1192                             		.loc 2 321 4 view .LVU441
 321:../src/smc_gen/r_drw2d_rx/src/tes/dave_intern.h ****    handle->dlscratch_pos++;
 1193                             		.loc 2 321 28 is_stmt 0 view .LVU442
 1194 0549 ED A7 6E                		mov.L	440[r10], r7
 1195                             	.LVL130:
 322:../src/smc_gen/r_drw2d_rx/src/tes/dave_intern.h **** 
 1196                             		.loc 2 322 4 is_stmt 1 view .LVU443
 322:../src/smc_gen/r_drw2d_rx/src/tes/dave_intern.h **** 
 1197                             		.loc 2 322 25 is_stmt 0 view .LVU444
 1198 054c 71 74 08                		add	#8, r7, r4
 1199 054f E7 A4 6E                		mov.L	r4, 440[r10]
 324:../src/smc_gen/r_drw2d_rx/src/tes/dave_intern.h ****    entry->value = value;
 1200                             		.loc 2 324 4 is_stmt 1 view .LVU445
 324:../src/smc_gen/r_drw2d_rx/src/tes/dave_intern.h ****    entry->value = value;
 1201                             		.loc 2 324 17 is_stmt 0 view .LVU446
 1202 0552 F8 76 13                		mov.L	#19, [r7]
 325:../src/smc_gen/r_drw2d_rx/src/tes/dave_intern.h **** 
 1203                             		.loc 2 325 4 is_stmt 1 view .LVU447
 325:../src/smc_gen/r_drw2d_rx/src/tes/dave_intern.h **** 
 1204                             		.loc 2 325 17 is_stmt 0 view .LVU448
 1205 0555 A0 7D                   		mov.L	r5, 4[r7]
 327:../src/smc_gen/r_drw2d_rx/src/tes/dave_intern.h ****    if(handle->dlscratch_cnt <= 0)
 1206                             		.loc 2 327 4 is_stmt 1 view .LVU449
 327:../src/smc_gen/r_drw2d_rx/src/tes/dave_intern.h ****    if(handle->dlscratch_cnt <= 0)
 1207                             		.loc 2 327 12 is_stmt 0 view .LVU450
 1208 0557 ED A7 6F                		mov.L	444[r10], r7
 1209                             	.LVL131:
 327:../src/smc_gen/r_drw2d_rx/src/tes/dave_intern.h ****    if(handle->dlscratch_cnt <= 0)
 1210                             		.loc 2 327 4 view .LVU451
 1211 055a 60 17                   		sub	#1, r7
 1212 055c E7 A7 6F                		mov.L	r7, 444[r10]
 1213                             		.loc 2 328 4 is_stmt 1 view .LVU452
 1214                             		.loc 2 328 6 is_stmt 0 view .LVU453
 1215 055f 61 07                   		cmp	#0, r7
 1216 0561 2A 05 38 2D 02          		ble	.L81
 1217                             	.LVL132:
 1218                             	.L53:
 1219                             		.loc 2 328 6 view .LVU454
 1220                             	.LBE138:
 1221                             	.LBE137:
 318:../src/smc_gen/r_drw2d_rx/src/tes/dave_quad.c **** 
 1222                             		.loc 1 318 4 is_stmt 1 view .LVU455
 1223                             	.LBB142:
 1224                             	.LBI142:
 319:../src/smc_gen/r_drw2d_rx/src/tes/dave_intern.h **** {
 1225                             		.loc 2 319 23 view .LVU456
 1226                             	.LBB143:
 321:../src/smc_gen/r_drw2d_rx/src/tes/dave_intern.h ****    handle->dlscratch_pos++;
 1227                             		.loc 2 321 4 view .LVU457
 321:../src/smc_gen/r_drw2d_rx/src/tes/dave_intern.h ****    handle->dlscratch_pos++;
 1228                             		.loc 2 321 28 is_stmt 0 view .LVU458
 1229 0566 ED A7 6E                		mov.L	440[r10], r7
 1230                             	.LVL133:
 322:../src/smc_gen/r_drw2d_rx/src/tes/dave_intern.h **** 
 1231                             		.loc 2 322 4 is_stmt 1 view .LVU459
 322:../src/smc_gen/r_drw2d_rx/src/tes/dave_intern.h **** 
 1232                             		.loc 2 322 25 is_stmt 0 view .LVU460
 1233 0569 71 75 08                		add	#8, r7, r5
 1234 056c E7 A5 6E                		mov.L	r5, 440[r10]
 324:../src/smc_gen/r_drw2d_rx/src/tes/dave_intern.h ****    entry->value = value;
 1235                             		.loc 2 324 4 is_stmt 1 view .LVU461
 324:../src/smc_gen/r_drw2d_rx/src/tes/dave_intern.h ****    entry->value = value;
 1236                             		.loc 2 324 17 is_stmt 0 view .LVU462
 1237 056f F8 76 00                		mov.L	#0, [r7]
 325:../src/smc_gen/r_drw2d_rx/src/tes/dave_intern.h **** 
 1238                             		.loc 2 325 4 is_stmt 1 view .LVU463
 325:../src/smc_gen/r_drw2d_rx/src/tes/dave_intern.h **** 
 1239                             		.loc 2 325 17 is_stmt 0 view .LVU464
 1240 0572 A0 7E                   		mov.L	r6, 4[r7]
 327:../src/smc_gen/r_drw2d_rx/src/tes/dave_intern.h ****    if(handle->dlscratch_cnt <= 0)
 1241                             		.loc 2 327 4 is_stmt 1 view .LVU465
 327:../src/smc_gen/r_drw2d_rx/src/tes/dave_intern.h ****    if(handle->dlscratch_cnt <= 0)
 1242                             		.loc 2 327 12 is_stmt 0 view .LVU466
 1243 0574 ED A7 6F                		mov.L	444[r10], r7
 1244                             	.LVL134:
 327:../src/smc_gen/r_drw2d_rx/src/tes/dave_intern.h ****    if(handle->dlscratch_cnt <= 0)
 1245                             		.loc 2 327 4 view .LVU467
 1246 0577 60 17                   		sub	#1, r7
 1247 0579 E7 A7 6F                		mov.L	r7, 444[r10]
 1248                             		.loc 2 328 4 is_stmt 1 view .LVU468
 1249                             		.loc 2 328 6 is_stmt 0 view .LVU469
 1250 057c 61 07                   		cmp	#0, r7
 1251 057e 2A 05 38 1A 02          		ble	.L82
 1252                             	.LVL135:
 1253                             	.L54:
 1254                             		.loc 2 328 6 view .LVU470
 1255                             	.LBE143:
 1256                             	.LBE142:
 321:../src/smc_gen/r_drw2d_rx/src/tes/dave_quad.c ****    {
 1257                             		.loc 1 321 4 is_stmt 1 view .LVU471
 321:../src/smc_gen/r_drw2d_rx/src/tes/dave_quad.c ****    {
 1258                             		.loc 1 321 6 is_stmt 0 view .LVU472
 1259 0583 61 09                   		cmp	#0, r9
 1260 0585 3A 1F 02                		beq	.L55
 323:../src/smc_gen/r_drw2d_rx/src/tes/dave_quad.c ****    }
 1261                             		.loc 1 323 7 is_stmt 1 view .LVU473
 1262 0588 AF 83                   		mov.L	120[r0], r3
 1263 058a 62 13                   		add	#1, r3
 1264 058c 66 C2                   		mov.L	#12, r2
 1265 058e 4B 02                   		add	r0, r2
 1266 0590 EF A1                   		mov.L	r10, r1
 1267 0592 05 00 00 00             		bsr	_d2_startrender_bottom_intern
 1268                             	.LVL136:
 1269 0596 38 12 FC                		bra	.L1
 1270                             	.LVL137:
 1271                             	.L64:
 189:../src/smc_gen/r_drw2d_rx/src/tes/dave_quad.c ****       control |= D2C_LIM1THRESHOLD;
 1272                             		.loc 1 189 7 view .LVU474
 1273 0599 E5 00 1F 01             		mov.L	124[r0], 4[r0]
 1274 059d E3 08                   		mov.L	r8, [r0]
 1275 059f AE 84                   		mov.L	104[r0], r4
 1276 05a1 71 01 14                		add	#20, r0, r1
 1277 05a4 05 00 00 00             		bsr	_d2_triedge_setup_intern
 1278                             	.LVL138:
 190:../src/smc_gen/r_drw2d_rx/src/tes/dave_quad.c ****       edge[0].start += D2_FIX16(1) / 2;
 1279                             		.loc 1 190 7 view .LVU475
 191:../src/smc_gen/r_drw2d_rx/src/tes/dave_quad.c ****    }
 1280                             		.loc 1 191 7 view .LVU476
 191:../src/smc_gen/r_drw2d_rx/src/tes/dave_quad.c ****    }
 1281                             		.loc 1 191 21 is_stmt 0 view .LVU477
 1282 05a8 A9 0D                   		mov.L	20[r0], r5
 1283 05aa 73 55 00 80 00          		add	#0x8000, r5
 1284 05af A1 0D                   		mov.L	r5, 20[r0]
 190:../src/smc_gen/r_drw2d_rx/src/tes/dave_quad.c ****       edge[0].start += D2_FIX16(1) / 2;
 1285                             		.loc 1 190 15 view .LVU478
 1286 05b1 FB 6A 00 02             		mov.L	#0x200, r6
 1287 05b5 38 71 FD                		bra	.L27
 1288                             	.LVL139:
 1289                             	.L28:
 201:../src/smc_gen/r_drw2d_rx/src/tes/dave_quad.c ****          edge[0].start += D2_FIX16(1);
 1290                             		.loc 1 201 10 is_stmt 1 view .LVU479
 1291 05b8 E5 00 1F 01             		mov.L	124[r0], 4[r0]
 1292 05bc E3 08                   		mov.L	r8, [r0]
 1293 05be AE 84                   		mov.L	104[r0], r4
 1294 05c0 71 01 14                		add	#20, r0, r1
 1295 05c3 05 00 00 00             		bsr	_d2_triedge_setup_intern
 1296                             	.LVL140:
 202:../src/smc_gen/r_drw2d_rx/src/tes/dave_quad.c ****       }
 1297                             		.loc 1 202 10 view .LVU480
 202:../src/smc_gen/r_drw2d_rx/src/tes/dave_quad.c ****       }
 1298                             		.loc 1 202 24 is_stmt 0 view .LVU481
 1299 05c7 A9 0D                   		mov.L	20[r0], r5
 1300 05c9 73 55 00 00 01          		add	#0x10000, r5
 1301 05ce A1 0D                   		mov.L	r5, 20[r0]
 1302 05d0 38 56 FD                		bra	.L27
 1303                             	.LVL141:
 1304                             	.L65:
 208:../src/smc_gen/r_drw2d_rx/src/tes/dave_quad.c ****       control |= D2C_LIM2THRESHOLD;
 1305                             		.loc 1 208 7 is_stmt 1 view .LVU482
 1306 05d3 E5 00 20 01             		mov.L	128[r0], 4[r0]
 1307 05d7 E3 0D                   		mov.L	r13, [r0]
 1308 05d9 AE 8C                   		mov.L	108[r0], r4
 1309 05db DF 93                   		mov.W	r9, r3
 1310 05dd ED 09 14                		mov.L	80[r0], r9
 1311                             	.LVL142:
 208:../src/smc_gen/r_drw2d_rx/src/tes/dave_quad.c ****       control |= D2C_LIM2THRESHOLD;
 1312                             		.loc 1 208 7 is_stmt 0 view .LVU483
 1313 05e0 DF 92                   		mov.W	r9, r2
 1314 05e2 71 01 20                		add	#32, r0, r1
 1315 05e5 05 00 00 00             		bsr	_d2_triedge_setup_intern
 1316                             	.LVL143:
 209:../src/smc_gen/r_drw2d_rx/src/tes/dave_quad.c ****       edge[1].start += D2_FIX16(1) / 2;
 1317                             		.loc 1 209 7 is_stmt 1 view .LVU484
 209:../src/smc_gen/r_drw2d_rx/src/tes/dave_quad.c ****       edge[1].start += D2_FIX16(1) / 2;
 1318                             		.loc 1 209 15 is_stmt 0 view .LVU485
 1319 05e9 78 A6                   		bset	#10, r6
 1320                             	.LVL144:
 210:../src/smc_gen/r_drw2d_rx/src/tes/dave_quad.c ****    }
 1321                             		.loc 1 210 7 is_stmt 1 view .LVU486
 210:../src/smc_gen/r_drw2d_rx/src/tes/dave_quad.c ****    }
 1322                             		.loc 1 210 21 is_stmt 0 view .LVU487
 1323 05eb AA 05                   		mov.L	32[r0], r5
 1324 05ed 73 55 00 80 00          		add	#0x8000, r5
 1325 05f2 A2 05                   		mov.L	r5, 32[r0]
 1326 05f4 38 5B FD                		bra	.L30
 1327                             	.LVL145:
 1328                             	.L31:
 220:../src/smc_gen/r_drw2d_rx/src/tes/dave_quad.c ****          edge[1].start += D2_FIX16(1);
 1329                             		.loc 1 220 10 is_stmt 1 view .LVU488
 1330 05f7 E5 00 20 01             		mov.L	128[r0], 4[r0]
 1331 05fb E3 0D                   		mov.L	r13, [r0]
 1332 05fd AE 8C                   		mov.L	108[r0], r4
 1333 05ff DF 93                   		mov.W	r9, r3
 1334 0601 ED 09 14                		mov.L	80[r0], r9
 1335                             	.LVL146:
 220:../src/smc_gen/r_drw2d_rx/src/tes/dave_quad.c ****          edge[1].start += D2_FIX16(1);
 1336                             		.loc 1 220 10 is_stmt 0 view .LVU489
 1337 0604 DF 92                   		mov.W	r9, r2
 1338 0606 71 01 20                		add	#32, r0, r1
 1339 0609 05 00 00 00             		bsr	_d2_triedge_setup_intern
 1340                             	.LVL147:
 221:../src/smc_gen/r_drw2d_rx/src/tes/dave_quad.c ****       }
 1341                             		.loc 1 221 10 is_stmt 1 view .LVU490
 221:../src/smc_gen/r_drw2d_rx/src/tes/dave_quad.c ****       }
 1342                             		.loc 1 221 24 is_stmt 0 view .LVU491
 1343 060d AA 05                   		mov.L	32[r0], r5
 1344 060f 73 55 00 00 01          		add	#0x10000, r5
 1345 0614 A2 05                   		mov.L	r5, 32[r0]
 1346 0616 38 39 FD                		bra	.L30
 1347                             	.L66:
 227:../src/smc_gen/r_drw2d_rx/src/tes/dave_quad.c ****       control |= D2C_LIM3THRESHOLD;
 1348                             		.loc 1 227 7 is_stmt 1 view .LVU492
 1349 0619 E5 00 21 01             		mov.L	132[r0], 4[r0]
 1350 061d E3 0C                   		mov.L	r12, [r0]
 1351 061f AF 04                   		mov.L	112[r0], r4
 1352 0621 ED 09 13                		mov.L	76[r0], r9
 1353 0624 DF 93                   		mov.W	r9, r3
 1354 0626 ED 09 11                		mov.L	68[r0], r9
 1355 0629 DF 92                   		mov.W	r9, r2
 1356 062b 71 01 2C                		add	#44, r0, r1
 1357 062e 05 00 00 00             		bsr	_d2_triedge_setup_intern
 1358                             	.LVL148:
 228:../src/smc_gen/r_drw2d_rx/src/tes/dave_quad.c ****       edge[2].start += D2_FIX16(1) / 2;
 1359                             		.loc 1 228 7 view .LVU493
 228:../src/smc_gen/r_drw2d_rx/src/tes/dave_quad.c ****       edge[2].start += D2_FIX16(1) / 2;
 1360                             		.loc 1 228 15 is_stmt 0 view .LVU494
 1361 0632 78 B6                   		bset	#11, r6
 1362                             	.LVL149:
 229:../src/smc_gen/r_drw2d_rx/src/tes/dave_quad.c ****    }
 1363                             		.loc 1 229 7 is_stmt 1 view .LVU495
 229:../src/smc_gen/r_drw2d_rx/src/tes/dave_quad.c ****    }
 1364                             		.loc 1 229 21 is_stmt 0 view .LVU496
 1365 0634 AA 8D                   		mov.L	44[r0], r5
 1366 0636 73 55 00 80 00          		add	#0x8000, r5
 1367 063b A2 8D                   		mov.L	r5, 44[r0]
 1368 063d 38 41 FD                		bra	.L33
 1369                             	.L34:
 239:../src/smc_gen/r_drw2d_rx/src/tes/dave_quad.c ****          edge[2].start += D2_FIX16(1);
 1370                             		.loc 1 239 10 is_stmt 1 view .LVU497
 1371 0640 E5 00 21 01             		mov.L	132[r0], 4[r0]
 1372 0644 E3 0C                   		mov.L	r12, [r0]
 1373 0646 AF 04                   		mov.L	112[r0], r4
 1374 0648 ED 09 13                		mov.L	76[r0], r9
 1375 064b DF 93                   		mov.W	r9, r3
 1376 064d ED 09 11                		mov.L	68[r0], r9
 1377 0650 DF 92                   		mov.W	r9, r2
 1378 0652 71 01 2C                		add	#44, r0, r1
 1379 0655 05 00 00 00             		bsr	_d2_triedge_setup_intern
 1380                             	.LVL150:
 240:../src/smc_gen/r_drw2d_rx/src/tes/dave_quad.c ****       }
 1381                             		.loc 1 240 10 view .LVU498
 240:../src/smc_gen/r_drw2d_rx/src/tes/dave_quad.c ****       }
 1382                             		.loc 1 240 24 is_stmt 0 view .LVU499
 1383 0659 AA 8D                   		mov.L	44[r0], r5
 1384 065b 73 55 00 00 01          		add	#0x10000, r5
 1385 0660 A2 8D                   		mov.L	r5, 44[r0]
 1386 0662 38 1C FD                		bra	.L33
 1387                             	.L67:
 246:../src/smc_gen/r_drw2d_rx/src/tes/dave_quad.c ****       control |= D2C_LIM4THRESHOLD;
 1388                             		.loc 1 246 7 is_stmt 1 view .LVU500
 1389 0665 E5 00 22 01             		mov.L	136[r0], 4[r0]
 1390 0669 E3 0B                   		mov.L	r11, [r0]
 1391 066b AF 0C                   		mov.L	116[r0], r4
 1392 066d ED 09 12                		mov.L	72[r0], r9
 1393 0670 DF 93                   		mov.W	r9, r3
 1394 0672 ED 09 15                		mov.L	84[r0], r9
 1395 0675 DF 92                   		mov.W	r9, r2
 1396 0677 71 01 38                		add	#56, r0, r1
 1397 067a 05 00 00 00             		bsr	_d2_triedge_setup_intern
 1398                             	.LVL151:
 247:../src/smc_gen/r_drw2d_rx/src/tes/dave_quad.c ****       edge[3].start += D2_FIX16(1) / 2;
 1399                             		.loc 1 247 7 view .LVU501
 247:../src/smc_gen/r_drw2d_rx/src/tes/dave_quad.c ****       edge[3].start += D2_FIX16(1) / 2;
 1400                             		.loc 1 247 15 is_stmt 0 view .LVU502
 1401 067e 78 C6                   		bset	#12, r6
 1402                             	.LVL152:
 248:../src/smc_gen/r_drw2d_rx/src/tes/dave_quad.c ****    }
 1403                             		.loc 1 248 7 is_stmt 1 view .LVU503
 248:../src/smc_gen/r_drw2d_rx/src/tes/dave_quad.c ****    }
 1404                             		.loc 1 248 21 is_stmt 0 view .LVU504
 1405 0680 AB 85                   		mov.L	56[r0], r5
 1406 0682 73 55 00 80 00          		add	#0x8000, r5
 1407 0687 A3 85                   		mov.L	r5, 56[r0]
 1408 0689 38 24 FD                		bra	.L36
 1409                             	.L37:
 258:../src/smc_gen/r_drw2d_rx/src/tes/dave_quad.c ****          edge[3].start += D2_FIX16(1);
 1410                             		.loc 1 258 10 is_stmt 1 view .LVU505
 1411 068c E5 00 22 01             		mov.L	136[r0], 4[r0]
 1412 0690 E3 0B                   		mov.L	r11, [r0]
 1413 0692 AF 0C                   		mov.L	116[r0], r4
 1414 0694 ED 09 12                		mov.L	72[r0], r9
 1415 0697 DF 93                   		mov.W	r9, r3
 1416 0699 ED 09 15                		mov.L	84[r0], r9
 1417 069c DF 92                   		mov.W	r9, r2
 1418 069e 71 01 38                		add	#56, r0, r1
 1419 06a1 05 00 00 00             		bsr	_d2_triedge_setup_intern
 1420                             	.LVL153:
 259:../src/smc_gen/r_drw2d_rx/src/tes/dave_quad.c ****       }
 1421                             		.loc 1 259 10 view .LVU506
 259:../src/smc_gen/r_drw2d_rx/src/tes/dave_quad.c ****       }
 1422                             		.loc 1 259 24 is_stmt 0 view .LVU507
 1423 06a5 AB 85                   		mov.L	56[r0], r5
 1424 06a7 73 55 00 00 01          		add	#0x10000, r5
 1425 06ac A3 85                   		mov.L	r5, 56[r0]
 1426 06ae 38 FF FC                		bra	.L36
 1427                             	.LVL154:
 1428                             	.L56:
 271:../src/smc_gen/r_drw2d_rx/src/tes/dave_quad.c ****    }
 1429                             		.loc 1 271 12 view .LVU508
 1430 06b1 66 09                   		mov.L	#0, r9
 1431 06b3 38 0F FD                		bra	.L38
 1432                             	.LVL155:
 1433                             	.L68:
 280:../src/smc_gen/r_drw2d_rx/src/tes/dave_quad.c **** 
 1434                             		.loc 1 280 7 is_stmt 1 view .LVU509
 280:../src/smc_gen/r_drw2d_rx/src/tes/dave_quad.c **** 
 1435                             		.loc 1 280 17 is_stmt 0 view .LVU510
 1436 06b6 E3 06                   		mov.L	r6, [r0]
 1437 06b8 66 44                   		mov.L	#4, r4
 1438 06ba 66 C3                   		mov.L	#12, r3
 1439 06bc 4B 03                   		add	r0, r3
 1440 06be EF 72                   		mov.L	r7, r2
 1441 06c0 EF A1                   		mov.L	r10, r1
 1442 06c2 05 00 00 00             		bsr	_d2_initgradients_intern
 1443                             	.LVL156:
 1444 06c6 EF 16                   		mov.L	r1, r6
 1445                             	.LVL157:
 282:../src/smc_gen/r_drw2d_rx/src/tes/dave_quad.c ****       {
 1446                             		.loc 1 282 7 is_stmt 1 view .LVU511
 282:../src/smc_gen/r_drw2d_rx/src/tes/dave_quad.c ****       {
 1447                             		.loc 1 282 9 is_stmt 0 view .LVU512
 1448 06c8 FD 70 C1 00 00 80 00    		tst	#0x800000, r1
 1449 06cf 3B 02 FD                		bne	.L39
 284:../src/smc_gen/r_drw2d_rx/src/tes/dave_quad.c ****       }
 1450                             		.loc 1 284 15 view .LVU513
 1451 06d2 66 09                   		mov.L	#0, r9
 1452                             	.LVL158:
 284:../src/smc_gen/r_drw2d_rx/src/tes/dave_quad.c ****       }
 1453                             		.loc 1 284 15 view .LVU514
 1454 06d4 38 02 FD                		bra	.L40
 1455                             	.LVL159:
 1456                             	.L69:
 1457                             	.LBB147:
 291:../src/smc_gen/r_drw2d_rx/src/tes/dave_quad.c ****       d2_invertlimiter_intern(&edge[0], h);
 1458                             		.loc 1 291 7 is_stmt 1 view .LVU515
 291:../src/smc_gen/r_drw2d_rx/src/tes/dave_quad.c ****       d2_invertlimiter_intern(&edge[0], h);
 1459                             		.loc 1 291 18 is_stmt 0 view .LVU516
 1460 06d7 9A 0F                   		mov.W	18[r0], r7
 1461 06d9 06 41 07 07             		sub	14[r0].W, r7
 291:../src/smc_gen/r_drw2d_rx/src/tes/dave_quad.c ****       d2_invertlimiter_intern(&edge[0], h);
 1462                             		.loc 1 291 14 view .LVU517
 1463 06dd 6A 47                   		shar	#4, r7
 1464                             	.LVL160:
 292:../src/smc_gen/r_drw2d_rx/src/tes/dave_quad.c ****       d2_invertlimiter_intern(&edge[1], h);
 1465                             		.loc 1 292 7 is_stmt 1 view .LVU518
 1466 06df EF 72                   		mov.L	r7, r2
 1467 06e1 71 01 14                		add	#20, r0, r1
 1468 06e4 05 00 00 00             		bsr	_d2_invertlimiter_intern
 1469                             	.LVL161:
 293:../src/smc_gen/r_drw2d_rx/src/tes/dave_quad.c ****       d2_invertlimiter_intern(&edge[2], h);
 1470                             		.loc 1 293 7 view .LVU519
 1471 06e8 EF 72                   		mov.L	r7, r2
 1472 06ea 71 01 20                		add	#32, r0, r1
 1473 06ed 05 00 00 00             		bsr	_d2_invertlimiter_intern
 1474                             	.LVL162:
 294:../src/smc_gen/r_drw2d_rx/src/tes/dave_quad.c ****       d2_invertlimiter_intern(&edge[3], h);
 1475                             		.loc 1 294 7 view .LVU520
 1476 06f1 EF 72                   		mov.L	r7, r2
 1477 06f3 71 01 2C                		add	#44, r0, r1
 1478 06f6 05 00 00 00             		bsr	_d2_invertlimiter_intern
 1479                             	.LVL163:
 295:../src/smc_gen/r_drw2d_rx/src/tes/dave_quad.c ****       d2_setuppattern( handle, ctx, &bbox, 1 );
 1480                             		.loc 1 295 7 view .LVU521
 1481 06fa EF 72                   		mov.L	r7, r2
 1482 06fc 71 01 38                		add	#56, r0, r1
 1483 06ff 05 00 00 00             		bsr	_d2_invertlimiter_intern
 1484                             	.LVL164:
 296:../src/smc_gen/r_drw2d_rx/src/tes/dave_quad.c ****       d2_setuptexture( handle, ctx, &bbox, 1 );
 1485                             		.loc 1 296 7 view .LVU522
 1486 0703 66 14                   		mov.L	#1, r4
 1487 0705 66 C3                   		mov.L	#12, r3
 1488 0707 4B 03                   		add	r0, r3
 1489 0709 AD 82                   		mov.L	88[r0], r2
 1490 070b EF A1                   		mov.L	r10, r1
 1491 070d 05 00 00 00             		bsr	_d2_setuppattern
 1492                             	.LVL165:
 297:../src/smc_gen/r_drw2d_rx/src/tes/dave_quad.c ****    }
 1493                             		.loc 1 297 7 view .LVU523
 1494 0711 66 14                   		mov.L	#1, r4
 1495 0713 66 C3                   		mov.L	#12, r3
 1496 0715 4B 03                   		add	r0, r3
 1497 0717 AD 82                   		mov.L	88[r0], r2
 1498 0719 EF A1                   		mov.L	r10, r1
 1499 071b 05 00 00 00             		bsr	_d2_setuptexture
 1500                             	.LVL166:
 1501                             	.LBE147:
 1502 071f 38 D3 FC                		bra	.L41
 1503                             	.LVL167:
 1504                             	.L70:
 1505                             	.LBB148:
 1506                             	.LBB86:
 1507                             	.LBB84:
 1508                             	.LBI84:
 319:../src/smc_gen/r_drw2d_rx/src/tes/dave_intern.h **** {
 1509                             		.loc 2 319 23 view .LVU524
 1510                             	.LBB85:
 329:../src/smc_gen/r_drw2d_rx/src/tes/dave_intern.h ****    {
 330:../src/smc_gen/r_drw2d_rx/src/tes/dave_intern.h ****       handle->dlscratch_hook( (d2_device*) handle );
 1511                             		.loc 2 330 7 view .LVU525
 1512                             		.loc 2 330 13 is_stmt 0 view .LVU526
 1513 0722 ED A7 70                		mov.L	448[r10], r7
 1514                             		.loc 2 330 7 view .LVU527
 1515 0725 EF A1                   		mov.L	r10, r1
 1516 0727 7F 17                   		jsr	r7
 1517                             	.LVL168:
 1518                             		.loc 2 330 7 view .LVU528
 1519 0729 38 E8 FC                		bra	.L42
 1520                             	.LVL169:
 1521                             	.L71:
 1522                             		.loc 2 330 7 view .LVU529
 1523                             	.LBE85:
 1524                             	.LBE84:
 1525                             	.LBE86:
 1526                             	.LBE148:
 1527                             	.LBB149:
 1528                             	.LBB91:
 1529                             	.LBB89:
 1530                             	.LBI89:
 319:../src/smc_gen/r_drw2d_rx/src/tes/dave_intern.h **** {
 1531                             		.loc 2 319 23 is_stmt 1 view .LVU530
 1532                             	.LBB90:
 1533                             		.loc 2 330 7 view .LVU531
 1534                             		.loc 2 330 13 is_stmt 0 view .LVU532
 1535 072c ED A7 70                		mov.L	448[r10], r7
 1536                             		.loc 2 330 7 view .LVU533
 1537 072f EF A1                   		mov.L	r10, r1
 1538 0731 7F 17                   		jsr	r7
 1539                             	.LVL170:
 1540                             		.loc 2 330 7 view .LVU534
 1541 0733 38 FD FC                		bra	.L43
 1542                             	.LVL171:
 1543                             	.L72:
 1544                             		.loc 2 330 7 view .LVU535
 1545                             	.LBE90:
 1546                             	.LBE89:
 1547                             	.LBE91:
 1548                             	.LBE149:
 1549                             	.LBB150:
 1550                             	.LBB96:
 1551                             	.LBB94:
 1552                             	.LBI94:
 319:../src/smc_gen/r_drw2d_rx/src/tes/dave_intern.h **** {
 1553                             		.loc 2 319 23 is_stmt 1 view .LVU536
 1554                             	.LBB95:
 1555                             		.loc 2 330 7 view .LVU537
 1556                             		.loc 2 330 13 is_stmt 0 view .LVU538
 1557 0736 ED A7 70                		mov.L	448[r10], r7
 1558                             		.loc 2 330 7 view .LVU539
 1559 0739 EF A1                   		mov.L	r10, r1
 1560 073b 7F 17                   		jsr	r7
 1561                             	.LVL172:
 1562                             		.loc 2 330 7 view .LVU540
 1563 073d 38 12 FD                		bra	.L44
 1564                             	.LVL173:
 1565                             	.L73:
 1566                             		.loc 2 330 7 view .LVU541
 1567                             	.LBE95:
 1568                             	.LBE94:
 1569                             	.LBE96:
 1570                             	.LBE150:
 1571                             	.LBB151:
 1572                             	.LBB101:
 1573                             	.LBB99:
 1574                             	.LBI99:
 319:../src/smc_gen/r_drw2d_rx/src/tes/dave_intern.h **** {
 1575                             		.loc 2 319 23 is_stmt 1 view .LVU542
 1576                             	.LBB100:
 1577                             		.loc 2 330 7 view .LVU543
 1578                             		.loc 2 330 13 is_stmt 0 view .LVU544
 1579 0740 ED A7 70                		mov.L	448[r10], r7
 1580                             		.loc 2 330 7 view .LVU545
 1581 0743 EF A1                   		mov.L	r10, r1
 1582 0745 7F 17                   		jsr	r7
 1583                             	.LVL174:
 1584                             		.loc 2 330 7 view .LVU546
 1585 0747 38 27 FD                		bra	.L45
 1586                             	.LVL175:
 1587                             	.L74:
 1588                             		.loc 2 330 7 view .LVU547
 1589                             	.LBE100:
 1590                             	.LBE99:
 1591                             	.LBE101:
 1592                             	.LBE151:
 1593                             	.LBB152:
 1594                             	.LBB106:
 1595                             	.LBB104:
 1596                             	.LBI104:
 319:../src/smc_gen/r_drw2d_rx/src/tes/dave_intern.h **** {
 1597                             		.loc 2 319 23 is_stmt 1 view .LVU548
 1598                             	.LBB105:
 1599                             		.loc 2 330 7 view .LVU549
 1600                             		.loc 2 330 13 is_stmt 0 view .LVU550
 1601 074a ED A7 70                		mov.L	448[r10], r7
 1602                             		.loc 2 330 7 view .LVU551
 1603 074d EF A1                   		mov.L	r10, r1
 1604 074f 7F 17                   		jsr	r7
 1605                             	.LVL176:
 1606                             		.loc 2 330 7 view .LVU552
 1607 0751 38 3C FD                		bra	.L46
 1608                             	.LVL177:
 1609                             	.L75:
 1610                             		.loc 2 330 7 view .LVU553
 1611                             	.LBE105:
 1612                             	.LBE104:
 1613                             	.LBE106:
 1614                             	.LBE152:
 1615                             	.LBB153:
 1616                             	.LBB111:
 1617                             	.LBB109:
 1618                             	.LBI109:
 319:../src/smc_gen/r_drw2d_rx/src/tes/dave_intern.h **** {
 1619                             		.loc 2 319 23 is_stmt 1 view .LVU554
 1620                             	.LBB110:
 1621                             		.loc 2 330 7 view .LVU555
 1622                             		.loc 2 330 13 is_stmt 0 view .LVU556
 1623 0754 ED A7 70                		mov.L	448[r10], r7
 1624                             		.loc 2 330 7 view .LVU557
 1625 0757 EF A1                   		mov.L	r10, r1
 1626 0759 7F 17                   		jsr	r7
 1627                             	.LVL178:
 1628                             		.loc 2 330 7 view .LVU558
 1629 075b 38 51 FD                		bra	.L47
 1630                             	.LVL179:
 1631                             	.L76:
 1632                             		.loc 2 330 7 view .LVU559
 1633                             	.LBE110:
 1634                             	.LBE109:
 1635                             	.LBE111:
 1636                             	.LBE153:
 1637                             	.LBB154:
 1638                             	.LBB116:
 1639                             	.LBB114:
 1640                             	.LBI114:
 319:../src/smc_gen/r_drw2d_rx/src/tes/dave_intern.h **** {
 1641                             		.loc 2 319 23 is_stmt 1 view .LVU560
 1642                             	.LBB115:
 1643                             		.loc 2 330 7 view .LVU561
 1644                             		.loc 2 330 13 is_stmt 0 view .LVU562
 1645 075e ED A7 70                		mov.L	448[r10], r7
 1646                             		.loc 2 330 7 view .LVU563
 1647 0761 EF A1                   		mov.L	r10, r1
 1648 0763 7F 17                   		jsr	r7
 1649                             	.LVL180:
 1650                             		.loc 2 330 7 view .LVU564
 1651 0765 38 66 FD                		bra	.L48
 1652                             	.LVL181:
 1653                             	.L77:
 1654                             		.loc 2 330 7 view .LVU565
 1655                             	.LBE115:
 1656                             	.LBE114:
 1657                             	.LBE116:
 1658                             	.LBE154:
 1659                             	.LBB155:
 1660                             	.LBB121:
 1661                             	.LBB119:
 1662                             	.LBI119:
 319:../src/smc_gen/r_drw2d_rx/src/tes/dave_intern.h **** {
 1663                             		.loc 2 319 23 is_stmt 1 view .LVU566
 1664                             	.LBB120:
 1665                             		.loc 2 330 7 view .LVU567
 1666                             		.loc 2 330 13 is_stmt 0 view .LVU568
 1667 0768 ED A7 70                		mov.L	448[r10], r7
 1668                             		.loc 2 330 7 view .LVU569
 1669 076b EF A1                   		mov.L	r10, r1
 1670 076d 7F 17                   		jsr	r7
 1671                             	.LVL182:
 1672                             		.loc 2 330 7 view .LVU570
 1673 076f 38 7B FD                		bra	.L49
 1674                             	.LVL183:
 1675                             	.L78:
 1676                             		.loc 2 330 7 view .LVU571
 1677                             	.LBE120:
 1678                             	.LBE119:
 1679                             	.LBE121:
 1680                             	.LBE155:
 1681                             	.LBB156:
 1682                             	.LBB126:
 1683                             	.LBB124:
 1684                             	.LBI124:
 319:../src/smc_gen/r_drw2d_rx/src/tes/dave_intern.h **** {
 1685                             		.loc 2 319 23 is_stmt 1 view .LVU572
 1686                             	.LBB125:
 1687                             		.loc 2 330 7 view .LVU573
 1688                             		.loc 2 330 13 is_stmt 0 view .LVU574
 1689 0772 ED A7 70                		mov.L	448[r10], r7
 1690                             		.loc 2 330 7 view .LVU575
 1691 0775 EF A1                   		mov.L	r10, r1
 1692 0777 7F 17                   		jsr	r7
 1693                             	.LVL184:
 1694                             		.loc 2 330 7 view .LVU576
 1695 0779 38 90 FD                		bra	.L50
 1696                             	.LVL185:
 1697                             	.L79:
 1698                             		.loc 2 330 7 view .LVU577
 1699                             	.LBE125:
 1700                             	.LBE124:
 1701                             	.LBE126:
 1702                             	.LBE156:
 1703                             	.LBB157:
 1704                             	.LBB131:
 1705                             	.LBB129:
 1706                             	.LBI129:
 319:../src/smc_gen/r_drw2d_rx/src/tes/dave_intern.h **** {
 1707                             		.loc 2 319 23 is_stmt 1 view .LVU578
 1708                             	.LBB130:
 1709                             		.loc 2 330 7 view .LVU579
 1710                             		.loc 2 330 13 is_stmt 0 view .LVU580
 1711 077c ED A7 70                		mov.L	448[r10], r7
 1712                             		.loc 2 330 7 view .LVU581
 1713 077f EF A1                   		mov.L	r10, r1
 1714 0781 7F 17                   		jsr	r7
 1715                             	.LVL186:
 1716                             		.loc 2 330 7 view .LVU582
 1717 0783 38 A5 FD                		bra	.L51
 1718                             	.LVL187:
 1719                             	.L80:
 1720                             		.loc 2 330 7 view .LVU583
 1721                             	.LBE130:
 1722                             	.LBE129:
 1723                             	.LBE131:
 1724                             	.LBE157:
 1725                             	.LBB158:
 1726                             	.LBB136:
 1727                             	.LBB134:
 1728                             	.LBI134:
 319:../src/smc_gen/r_drw2d_rx/src/tes/dave_intern.h **** {
 1729                             		.loc 2 319 23 is_stmt 1 view .LVU584
 1730                             	.LBB135:
 1731                             		.loc 2 330 7 view .LVU585
 1732                             		.loc 2 330 13 is_stmt 0 view .LVU586
 1733 0786 ED A7 70                		mov.L	448[r10], r7
 1734                             		.loc 2 330 7 view .LVU587
 1735 0789 EF A1                   		mov.L	r10, r1
 1736 078b 7F 17                   		jsr	r7
 1737                             	.LVL188:
 1738                             		.loc 2 330 7 view .LVU588
 1739 078d 38 BA FD                		bra	.L52
 1740                             	.LVL189:
 1741                             	.L81:
 1742                             		.loc 2 330 7 view .LVU589
 1743                             	.LBE135:
 1744                             	.LBE134:
 1745                             	.LBE136:
 1746                             	.LBE158:
 1747                             	.LBB159:
 1748                             	.LBB141:
 1749                             	.LBB139:
 1750                             	.LBI139:
 319:../src/smc_gen/r_drw2d_rx/src/tes/dave_intern.h **** {
 1751                             		.loc 2 319 23 is_stmt 1 view .LVU590
 1752                             	.LBB140:
 1753                             		.loc 2 330 7 view .LVU591
 1754                             		.loc 2 330 13 is_stmt 0 view .LVU592
 1755 0790 ED A7 70                		mov.L	448[r10], r7
 1756                             		.loc 2 330 7 view .LVU593
 1757 0793 EF A1                   		mov.L	r10, r1
 1758 0795 7F 17                   		jsr	r7
 1759                             	.LVL190:
 1760                             		.loc 2 330 7 view .LVU594
 1761 0797 38 CF FD                		bra	.L53
 1762                             	.LVL191:
 1763                             	.L82:
 1764                             		.loc 2 330 7 view .LVU595
 1765                             	.LBE140:
 1766                             	.LBE139:
 1767                             	.LBE141:
 1768                             	.LBE159:
 1769                             	.LBB160:
 1770                             	.LBB146:
 1771                             	.LBB144:
 1772                             	.LBI144:
 319:../src/smc_gen/r_drw2d_rx/src/tes/dave_intern.h **** {
 1773                             		.loc 2 319 23 is_stmt 1 view .LVU596
 1774                             	.LBB145:
 1775                             		.loc 2 330 7 view .LVU597
 1776                             		.loc 2 330 13 is_stmt 0 view .LVU598
 1777 079a ED A7 70                		mov.L	448[r10], r7
 1778                             		.loc 2 330 7 view .LVU599
 1779 079d EF A1                   		mov.L	r10, r1
 1780 079f 7F 17                   		jsr	r7
 1781                             	.LVL192:
 1782                             		.loc 2 330 7 view .LVU600
 1783 07a1 38 E2 FD                		bra	.L54
 1784                             	.LVL193:
 1785                             	.L55:
 1786                             		.loc 2 330 7 view .LVU601
 1787                             	.LBE145:
 1788                             	.LBE144:
 1789                             	.LBE146:
 1790                             	.LBE160:
 327:../src/smc_gen/r_drw2d_rx/src/tes/dave_quad.c ****    }
 1791                             		.loc 1 327 7 is_stmt 1 view .LVU602
 1792 07a4 AF 83                   		mov.L	120[r0], r3
 1793 07a6 62 13                   		add	#1, r3
 1794 07a8 66 C2                   		mov.L	#12, r2
 1795 07aa 4B 02                   		add	r0, r2
 1796 07ac EF A1                   		mov.L	r10, r1
 1797 07ae 05 00 00 00             		bsr	_d2_startrender_intern
 1798                             	.LVL194:
 330:../src/smc_gen/r_drw2d_rx/src/tes/dave_quad.c **** }
 1799                             		.loc 1 330 11 is_stmt 0 view .LVU603
 1800 07b2 66 19                   		mov.L	#1, r9
 1801 07b4 38 F4 F9                		bra	.L1
 1802                             	.LFE6:
 1804 07b7 03                      		.section	.text.d2_renderquad_outline,"ax",@progbits
 1805                             		.global	_d2_renderquad_outline
 1807                             	_d2_renderquad_outline:
 1808                             	.LVL195:
 1809                             	.LFB7:
 332:../src/smc_gen/r_drw2d_rx/src/tes/dave_quad.c **** 
 333:../src/smc_gen/r_drw2d_rx/src/tes/dave_quad.c **** 
 334:../src/smc_gen/r_drw2d_rx/src/tes/dave_quad.c **** /*--------------------------------------------------------------------------
 335:../src/smc_gen/r_drw2d_rx/src/tes/dave_quad.c ****  * shared edges do not contribute to vertex tangents. to implement this
 336:../src/smc_gen/r_drw2d_rx/src/tes/dave_quad.c ****  * a set of line/open polyline/closed polyline configurations is used
 337:../src/smc_gen/r_drw2d_rx/src/tes/dave_quad.c ****  * depending on the shared edge configuration
 338:../src/smc_gen/r_drw2d_rx/src/tes/dave_quad.c ****  * */
 339:../src/smc_gen/r_drw2d_rx/src/tes/dave_quad.c **** d2_s32 d2_renderquad_outline( d2_device *handle, d2_point x1, d2_point y1, d2_point x2, d2_point y2
 340:../src/smc_gen/r_drw2d_rx/src/tes/dave_quad.c **** {
 1810                             		.loc 1 340 1 is_stmt 1 view -0
 1811                             		.loc 1 340 1 is_stmt 0 view .LVU605
 1812 0000 6E 6D                   		pushm	r6-r13
 1813                             	.LCFI2:
 1814                             		.loc 1 340 1 view .LVU606
 1815 0002 71 00 D0                		add	#-48, r0
 1816                             	.LCFI3:
 1817 0005 75 47 54                		mov.L	#0x54, r7
 1818 0008 4B 07                   		add	r0, r7
 1819 000a DC 7B                   		mov.W	[r7], r11
 1820 000c DD 7C 01                		mov.W	2[r7], r12
 1821 000f DD 79 02                		mov.W	4[r7], r9
 1822 0012 DD 78 03                		mov.W	6[r7], r8
 1823 0015 DD 7D 04                		mov.W	8[r7], r13
 1824 0018 A8 FD                   		mov.L	12[r7], r5
 341:../src/smc_gen/r_drw2d_rx/src/tes/dave_quad.c ****    d2_width wo = (d2_width)(D2_DEV(handle)->outlinewidth * 2);
 1825                             		.loc 1 341 4 is_stmt 1 view .LVU607
 1826                             		.loc 1 341 43 is_stmt 0 view .LVU608
 1827 001a DD 1E 36                		mov.W	108[r1], r14
 1828                             		.loc 1 341 58 view .LVU609
 1829 001d FF 27 EE                		add	r14, r14, r7
 1830                             	.LVL196:
 342:../src/smc_gen/r_drw2d_rx/src/tes/dave_quad.c ****    d2_contextdata *ctx = D2_DEV(handle)->ctxoutline;
 1831                             		.loc 1 342 4 is_stmt 1 view .LVU610
 1832                             		.loc 1 342 20 is_stmt 0 view .LVU611
 1833 0020 ED 1E 0B                		mov.L	44[r1], r14
 1834                             	.LVL197:
 343:../src/smc_gen/r_drw2d_rx/src/tes/dave_quad.c ****    d2_point verts[4*2];
 1835                             		.loc 1 343 4 is_stmt 1 view .LVU612
 344:../src/smc_gen/r_drw2d_rx/src/tes/dave_quad.c **** 
 345:../src/smc_gen/r_drw2d_rx/src/tes/dave_quad.c ****    /* isolate sharing flags */
 346:../src/smc_gen/r_drw2d_rx/src/tes/dave_quad.c ****    flags = flags & (d2_edge0_shared | d2_edge1_shared | d2_edge2_shared | d2_edge3_shared);
 1836                             		.loc 1 346 4 view .LVU613
 1837                             		.loc 1 346 10 is_stmt 0 view .LVU614
 1838 0023 64 F5                   		and #15, r5
 1839                             	.LVL198:
 347:../src/smc_gen/r_drw2d_rx/src/tes/dave_quad.c **** 
 348:../src/smc_gen/r_drw2d_rx/src/tes/dave_quad.c ****    /* skip invisible cases */
 349:../src/smc_gen/r_drw2d_rx/src/tes/dave_quad.c ****    if(wo < D2_EPSILON)
 1840                             		.loc 1 349 4 is_stmt 1 view .LVU615
 1841                             		.loc 1 349 6 is_stmt 0 view .LVU616
 1842 0025 DF 7A                   		mov.W	r7, r10
 1843 0027 61 0A                   		cmp	#0, r10
 1844 0029 2B 51                   		ble	.L84
 1845 002b DF 46                   		mov.W	r4, r6
 1846 002d EF 1A                   		mov.L	r1, r10
 350:../src/smc_gen/r_drw2d_rx/src/tes/dave_quad.c ****    {
 351:../src/smc_gen/r_drw2d_rx/src/tes/dave_quad.c ****       return D2_OK;
 352:../src/smc_gen/r_drw2d_rx/src/tes/dave_quad.c ****    }
 353:../src/smc_gen/r_drw2d_rx/src/tes/dave_quad.c **** 
 354:../src/smc_gen/r_drw2d_rx/src/tes/dave_quad.c ****    /* special case all sharing combinations */
 355:../src/smc_gen/r_drw2d_rx/src/tes/dave_quad.c ****    switch(flags)
 1847                             		.loc 1 355 4 is_stmt 1 view .LVU617
 1848 002f 61 75                   		cmp	#7, r5
 1849 0031 3A 52 02                		beq	.L85
 1850 0034 25 05 38 85 00          		bgtu	.L86
 1851 0039 61 35                   		cmp	#3, r5
 1852 003b 3A 47 01                		beq	.L87
 1853 003e 24 41                   		bgtu	.L88
 1854 0040 61 15                   		cmp	#1, r5
 1855 0042 3A DA 00                		beq	.L89
 1856 0045 25 05 38 08 01          		bgtu	.L107
 356:../src/smc_gen/r_drw2d_rx/src/tes/dave_quad.c ****    {
 357:../src/smc_gen/r_drw2d_rx/src/tes/dave_quad.c ****       /* no shared edge - use a closed polyline */
 358:../src/smc_gen/r_drw2d_rx/src/tes/dave_quad.c ****       case 0:
 359:../src/smc_gen/r_drw2d_rx/src/tes/dave_quad.c ****          verts[0] = x1;  verts[1] = y1;
 1857                             		.loc 1 359 10 view .LVU618
 1858                             		.loc 1 359 19 is_stmt 0 view .LVU619
 1859 004a 92 02                   		mov.W	r2, 16[r0]
 1860                             		.loc 1 359 26 is_stmt 1 view .LVU620
 1861                             		.loc 1 359 35 is_stmt 0 view .LVU621
 1862 004c 92 0B                   		mov.W	r3, 18[r0]
 360:../src/smc_gen/r_drw2d_rx/src/tes/dave_quad.c ****          verts[2] = x2;  verts[3] = y2;
 1863                             		.loc 1 360 10 is_stmt 1 view .LVU622
 1864                             		.loc 1 360 19 is_stmt 0 view .LVU623
 1865 004e 92 84                   		mov.W	r4, 20[r0]
 1866                             		.loc 1 360 26 is_stmt 1 view .LVU624
 1867                             		.loc 1 360 35 is_stmt 0 view .LVU625
 1868 0050 D7 0B 0B                		mov.W	r11, 22[r0]
 361:../src/smc_gen/r_drw2d_rx/src/tes/dave_quad.c ****          verts[4] = x3;  verts[5] = y3;
 1869                             		.loc 1 361 10 is_stmt 1 view .LVU626
 1870                             		.loc 1 361 19 is_stmt 0 view .LVU627
 1871 0053 D7 0C 0C                		mov.W	r12, 24[r0]
 1872                             		.loc 1 361 26 is_stmt 1 view .LVU628
 1873                             		.loc 1 361 35 is_stmt 0 view .LVU629
 1874 0056 D7 09 0D                		mov.W	r9, 26[r0]
 362:../src/smc_gen/r_drw2d_rx/src/tes/dave_quad.c ****          verts[6] = x4;  verts[7] = y4;
 1875                             		.loc 1 362 10 is_stmt 1 view .LVU630
 1876                             		.loc 1 362 19 is_stmt 0 view .LVU631
 1877 0059 D7 08 0E                		mov.W	r8, 28[r0]
 1878                             		.loc 1 362 26 is_stmt 1 view .LVU632
 1879                             		.loc 1 362 35 is_stmt 0 view .LVU633
 1880 005c D7 0D 0F                		mov.W	r13, 30[r0]
 363:../src/smc_gen/r_drw2d_rx/src/tes/dave_quad.c ****          (void)d2_renderpolyline_intern( D2_DEV(handle), ctx, verts, NULL, 4, wo, d2_le_closed, 0, 
 1881                             		.loc 1 363 10 is_stmt 1 view .LVU634
 1882                             		.loc 1 363 16 is_stmt 0 view .LVU635
 1883 005f 3D 07 00                		mov.W	#0, 14[r0]
 1884 0062 3D 06 00                		mov.W	#0, 12[r0]
 1885 0065 3E 02 04                		mov.L	#4, 8[r0]
 1886 0068 90 87                   		mov.W	r7, 4[r0]
 1887 006a F8 06 04                		mov.L	#4, [r0]
 1888 006d 66 04                   		mov.L	#0, r4
 1889                             	.LVL199:
 1890                             		.loc 1 363 16 view .LVU636
 1891 006f 75 43 10                		mov.L	#16, r3
 1892                             	.LVL200:
 1893                             		.loc 1 363 16 view .LVU637
 1894 0072 4B 03                   		add	r0, r3
 1895 0074 EF E2                   		mov.L	r14, r2
 1896                             	.LVL201:
 1897                             		.loc 1 363 16 view .LVU638
 1898 0076 05 00 00 00             		bsr	_d2_renderpolyline_intern
 1899                             	.LVL202:
 364:../src/smc_gen/r_drw2d_rx/src/tes/dave_quad.c ****          break;
 1900                             		.loc 1 364 10 is_stmt 1 view .LVU639
 1901                             		.balign 8,3,1
 1902                             	.L84:
 365:../src/smc_gen/r_drw2d_rx/src/tes/dave_quad.c **** 
 366:../src/smc_gen/r_drw2d_rx/src/tes/dave_quad.c ****          /* single shared edge - use an open polyline */
 367:../src/smc_gen/r_drw2d_rx/src/tes/dave_quad.c ****       case d2_edge0_shared:
 368:../src/smc_gen/r_drw2d_rx/src/tes/dave_quad.c ****          verts[0] = x1;  verts[1] = y1;
 369:../src/smc_gen/r_drw2d_rx/src/tes/dave_quad.c ****          verts[2] = x4;  verts[3] = y4;
 370:../src/smc_gen/r_drw2d_rx/src/tes/dave_quad.c ****          verts[4] = x3;  verts[5] = y3;
 371:../src/smc_gen/r_drw2d_rx/src/tes/dave_quad.c ****          verts[6] = x2;  verts[7] = y2;
 372:../src/smc_gen/r_drw2d_rx/src/tes/dave_quad.c ****          (void)d2_renderpolyline_intern( D2_DEV(handle), ctx, verts, NULL, 4, wo, d2_le_exclude_bot
 373:../src/smc_gen/r_drw2d_rx/src/tes/dave_quad.c ****          break;
 374:../src/smc_gen/r_drw2d_rx/src/tes/dave_quad.c **** 
 375:../src/smc_gen/r_drw2d_rx/src/tes/dave_quad.c ****       case d2_edge1_shared:
 376:../src/smc_gen/r_drw2d_rx/src/tes/dave_quad.c ****          verts[0] = x2;  verts[1] = y2;
 377:../src/smc_gen/r_drw2d_rx/src/tes/dave_quad.c ****          verts[2] = x1;  verts[3] = y1;
 378:../src/smc_gen/r_drw2d_rx/src/tes/dave_quad.c ****          verts[4] = x4;  verts[5] = y4;
 379:../src/smc_gen/r_drw2d_rx/src/tes/dave_quad.c ****          verts[6] = x3;  verts[7] = y3;
 380:../src/smc_gen/r_drw2d_rx/src/tes/dave_quad.c ****          (void)d2_renderpolyline_intern( D2_DEV(handle), ctx, verts, NULL, 4, wo, d2_le_exclude_bot
 381:../src/smc_gen/r_drw2d_rx/src/tes/dave_quad.c ****          break;
 382:../src/smc_gen/r_drw2d_rx/src/tes/dave_quad.c **** 
 383:../src/smc_gen/r_drw2d_rx/src/tes/dave_quad.c ****       case d2_edge2_shared:
 384:../src/smc_gen/r_drw2d_rx/src/tes/dave_quad.c ****          verts[0] = x4;  verts[1] = y4;
 385:../src/smc_gen/r_drw2d_rx/src/tes/dave_quad.c ****          verts[2] = x1;  verts[3] = y1;
 386:../src/smc_gen/r_drw2d_rx/src/tes/dave_quad.c ****          verts[4] = x2;  verts[5] = y2;
 387:../src/smc_gen/r_drw2d_rx/src/tes/dave_quad.c ****          verts[6] = x3;  verts[7] = y3;
 388:../src/smc_gen/r_drw2d_rx/src/tes/dave_quad.c ****          (void)d2_renderpolyline_intern( D2_DEV(handle), ctx, verts, NULL, 4, wo, d2_le_exclude_bot
 389:../src/smc_gen/r_drw2d_rx/src/tes/dave_quad.c ****          break;
 390:../src/smc_gen/r_drw2d_rx/src/tes/dave_quad.c **** 
 391:../src/smc_gen/r_drw2d_rx/src/tes/dave_quad.c ****       case d2_edge3_shared:
 392:../src/smc_gen/r_drw2d_rx/src/tes/dave_quad.c ****          verts[0] = x1;  verts[1] = y1;
 393:../src/smc_gen/r_drw2d_rx/src/tes/dave_quad.c ****          verts[2] = x2;  verts[3] = y2;
 394:../src/smc_gen/r_drw2d_rx/src/tes/dave_quad.c ****          verts[4] = x3;  verts[5] = y3;
 395:../src/smc_gen/r_drw2d_rx/src/tes/dave_quad.c ****          verts[6] = x4;  verts[7] = y4;
 396:../src/smc_gen/r_drw2d_rx/src/tes/dave_quad.c ****          (void)d2_renderpolyline_intern( D2_DEV(handle), ctx, verts, NULL, 4, wo, d2_le_exclude_bot
 397:../src/smc_gen/r_drw2d_rx/src/tes/dave_quad.c ****          break;
 398:../src/smc_gen/r_drw2d_rx/src/tes/dave_quad.c **** 
 399:../src/smc_gen/r_drw2d_rx/src/tes/dave_quad.c ****          /* two adjacent shared edges - use two lines */
 400:../src/smc_gen/r_drw2d_rx/src/tes/dave_quad.c ****       case d2_edge0_shared | d2_edge1_shared:
 401:../src/smc_gen/r_drw2d_rx/src/tes/dave_quad.c ****          verts[0] = x1;  verts[1] = y1;
 402:../src/smc_gen/r_drw2d_rx/src/tes/dave_quad.c ****          verts[2] = x4;  verts[3] = y4;
 403:../src/smc_gen/r_drw2d_rx/src/tes/dave_quad.c ****          verts[4] = x3;  verts[5] = y3;
 404:../src/smc_gen/r_drw2d_rx/src/tes/dave_quad.c ****          (void)d2_renderpolyline_intern( D2_DEV(handle), ctx, verts, NULL, 3, wo, d2_le_exclude_bot
 405:../src/smc_gen/r_drw2d_rx/src/tes/dave_quad.c ****          break;
 406:../src/smc_gen/r_drw2d_rx/src/tes/dave_quad.c **** 
 407:../src/smc_gen/r_drw2d_rx/src/tes/dave_quad.c ****       case d2_edge1_shared | d2_edge2_shared:
 408:../src/smc_gen/r_drw2d_rx/src/tes/dave_quad.c ****          verts[0] = x4;  verts[1] = y4;
 409:../src/smc_gen/r_drw2d_rx/src/tes/dave_quad.c ****          verts[2] = x1;  verts[3] = y1;
 410:../src/smc_gen/r_drw2d_rx/src/tes/dave_quad.c ****          verts[4] = x2;  verts[5] = y2;
 411:../src/smc_gen/r_drw2d_rx/src/tes/dave_quad.c ****          (void)d2_renderpolyline_intern( D2_DEV(handle), ctx, verts, NULL, 3, wo, d2_le_exclude_bot
 412:../src/smc_gen/r_drw2d_rx/src/tes/dave_quad.c ****          break;
 413:../src/smc_gen/r_drw2d_rx/src/tes/dave_quad.c **** 
 414:../src/smc_gen/r_drw2d_rx/src/tes/dave_quad.c ****       case d2_edge2_shared | d2_edge3_shared:
 415:../src/smc_gen/r_drw2d_rx/src/tes/dave_quad.c ****          verts[0] = x1;  verts[1] = y1;
 416:../src/smc_gen/r_drw2d_rx/src/tes/dave_quad.c ****          verts[2] = x2;  verts[3] = y2;
 417:../src/smc_gen/r_drw2d_rx/src/tes/dave_quad.c ****          verts[4] = x3;  verts[5] = y3;
 418:../src/smc_gen/r_drw2d_rx/src/tes/dave_quad.c ****          (void)d2_renderpolyline_intern( D2_DEV(handle), ctx, verts, NULL, 3, wo, d2_le_exclude_bot
 419:../src/smc_gen/r_drw2d_rx/src/tes/dave_quad.c ****          break;
 420:../src/smc_gen/r_drw2d_rx/src/tes/dave_quad.c **** 
 421:../src/smc_gen/r_drw2d_rx/src/tes/dave_quad.c ****       case d2_edge3_shared | d2_edge0_shared:
 422:../src/smc_gen/r_drw2d_rx/src/tes/dave_quad.c ****          verts[0] = x2;  verts[1] = y2;
 423:../src/smc_gen/r_drw2d_rx/src/tes/dave_quad.c ****          verts[2] = x3;  verts[3] = y3;
 424:../src/smc_gen/r_drw2d_rx/src/tes/dave_quad.c ****          verts[4] = x4;  verts[5] = y4;
 425:../src/smc_gen/r_drw2d_rx/src/tes/dave_quad.c ****          (void)d2_renderpolyline_intern( D2_DEV(handle), ctx, verts, NULL, 3, wo, d2_le_exclude_bot
 426:../src/smc_gen/r_drw2d_rx/src/tes/dave_quad.c ****          break; 
 427:../src/smc_gen/r_drw2d_rx/src/tes/dave_quad.c **** 
 428:../src/smc_gen/r_drw2d_rx/src/tes/dave_quad.c ****          /* two opposite shared edges - use a single lines */
 429:../src/smc_gen/r_drw2d_rx/src/tes/dave_quad.c ****       case d2_edge0_shared | d2_edge2_shared:
 430:../src/smc_gen/r_drw2d_rx/src/tes/dave_quad.c ****          (void)d2_renderline_outline_I( handle, x1, y1, x4, y4, wo, d2_le_exclude_both );
 431:../src/smc_gen/r_drw2d_rx/src/tes/dave_quad.c ****          (void)d2_renderline_outline_I( handle, x3, y3, x2, y2, wo, d2_le_exclude_both );
 432:../src/smc_gen/r_drw2d_rx/src/tes/dave_quad.c ****          break;
 433:../src/smc_gen/r_drw2d_rx/src/tes/dave_quad.c **** 
 434:../src/smc_gen/r_drw2d_rx/src/tes/dave_quad.c ****       case d2_edge1_shared | d2_edge3_shared:
 435:../src/smc_gen/r_drw2d_rx/src/tes/dave_quad.c ****          (void)d2_renderline_outline_I( handle, x2, y2, x1, y1, wo, d2_le_exclude_both );
 436:../src/smc_gen/r_drw2d_rx/src/tes/dave_quad.c ****          (void)d2_renderline_outline_I( handle, x4, y4, x3, y3, wo, d2_le_exclude_both );
 437:../src/smc_gen/r_drw2d_rx/src/tes/dave_quad.c ****          break;
 438:../src/smc_gen/r_drw2d_rx/src/tes/dave_quad.c **** 
 439:../src/smc_gen/r_drw2d_rx/src/tes/dave_quad.c ****          /* three shared edges - use a single lines */
 440:../src/smc_gen/r_drw2d_rx/src/tes/dave_quad.c ****       case d2_edge0_shared | d2_edge1_shared | d2_edge2_shared:
 441:../src/smc_gen/r_drw2d_rx/src/tes/dave_quad.c ****          (void)d2_renderline_outline_I( handle, x1, y1, x4, y4, wo, d2_le_exclude_both );
 442:../src/smc_gen/r_drw2d_rx/src/tes/dave_quad.c ****          break;
 443:../src/smc_gen/r_drw2d_rx/src/tes/dave_quad.c **** 
 444:../src/smc_gen/r_drw2d_rx/src/tes/dave_quad.c ****       case d2_edge0_shared | d2_edge1_shared | d2_edge3_shared:
 445:../src/smc_gen/r_drw2d_rx/src/tes/dave_quad.c ****          (void)d2_renderline_outline_I( handle, x4, y4, x3, y3, wo, d2_le_exclude_both );
 446:../src/smc_gen/r_drw2d_rx/src/tes/dave_quad.c ****          break;
 447:../src/smc_gen/r_drw2d_rx/src/tes/dave_quad.c **** 
 448:../src/smc_gen/r_drw2d_rx/src/tes/dave_quad.c ****       case d2_edge0_shared | d2_edge2_shared | d2_edge3_shared:
 449:../src/smc_gen/r_drw2d_rx/src/tes/dave_quad.c ****          (void)d2_renderline_outline_I( handle, x3, y3, x2, y2, wo, d2_le_exclude_both );
 450:../src/smc_gen/r_drw2d_rx/src/tes/dave_quad.c ****          break;
 451:../src/smc_gen/r_drw2d_rx/src/tes/dave_quad.c **** 
 452:../src/smc_gen/r_drw2d_rx/src/tes/dave_quad.c ****       case d2_edge1_shared | d2_edge2_shared | d2_edge3_shared:
 453:../src/smc_gen/r_drw2d_rx/src/tes/dave_quad.c ****          (void)d2_renderline_outline_I( handle, x1, y1, x2, y2, wo, d2_le_exclude_both );
 454:../src/smc_gen/r_drw2d_rx/src/tes/dave_quad.c ****          break;
 455:../src/smc_gen/r_drw2d_rx/src/tes/dave_quad.c **** 
 456:../src/smc_gen/r_drw2d_rx/src/tes/dave_quad.c ****          /* more than three shared edges - no outline at all */
 457:../src/smc_gen/r_drw2d_rx/src/tes/dave_quad.c **** 
 458:../src/smc_gen/r_drw2d_rx/src/tes/dave_quad.c ****       default:
 459:../src/smc_gen/r_drw2d_rx/src/tes/dave_quad.c ****          break;
 460:../src/smc_gen/r_drw2d_rx/src/tes/dave_quad.c ****    }
 461:../src/smc_gen/r_drw2d_rx/src/tes/dave_quad.c **** 
 462:../src/smc_gen/r_drw2d_rx/src/tes/dave_quad.c ****    return D2_OK;
 463:../src/smc_gen/r_drw2d_rx/src/tes/dave_quad.c **** }
 1903                             		.loc 1 463 1 is_stmt 0 view .LVU640
 1904 007a 66 01                   		mov.L	#0, r1
 1905 007c 3F 6D 14                		rtsd	#80, r6-r13
 1906                             	.LVL203:
 1907                             	.L88:
 355:../src/smc_gen/r_drw2d_rx/src/tes/dave_quad.c ****    {
 1908                             		.loc 1 355 4 view .LVU641
 1909 007f 61 55                   		cmp	#5, r5
 1910 0081 3A B8 01                		beq	.L92
 1911 0084 25 05 38 2A 01          		bgtu	.L108
 384:../src/smc_gen/r_drw2d_rx/src/tes/dave_quad.c ****          verts[2] = x1;  verts[3] = y1;
 1912                             		.loc 1 384 10 is_stmt 1 view .LVU642
 384:../src/smc_gen/r_drw2d_rx/src/tes/dave_quad.c ****          verts[2] = x1;  verts[3] = y1;
 1913                             		.loc 1 384 19 is_stmt 0 view .LVU643
 1914 0089 D7 08 08                		mov.W	r8, 16[r0]
 384:../src/smc_gen/r_drw2d_rx/src/tes/dave_quad.c ****          verts[2] = x1;  verts[3] = y1;
 1915                             		.loc 1 384 26 is_stmt 1 view .LVU644
 384:../src/smc_gen/r_drw2d_rx/src/tes/dave_quad.c ****          verts[2] = x1;  verts[3] = y1;
 1916                             		.loc 1 384 35 is_stmt 0 view .LVU645
 1917 008c D7 0D 09                		mov.W	r13, 18[r0]
 385:../src/smc_gen/r_drw2d_rx/src/tes/dave_quad.c ****          verts[4] = x2;  verts[5] = y2;
 1918                             		.loc 1 385 10 is_stmt 1 view .LVU646
 385:../src/smc_gen/r_drw2d_rx/src/tes/dave_quad.c ****          verts[4] = x2;  verts[5] = y2;
 1919                             		.loc 1 385 19 is_stmt 0 view .LVU647
 1920 008f 92 82                   		mov.W	r2, 20[r0]
 385:../src/smc_gen/r_drw2d_rx/src/tes/dave_quad.c ****          verts[4] = x2;  verts[5] = y2;
 1921                             		.loc 1 385 26 is_stmt 1 view .LVU648
 385:../src/smc_gen/r_drw2d_rx/src/tes/dave_quad.c ****          verts[4] = x2;  verts[5] = y2;
 1922                             		.loc 1 385 35 is_stmt 0 view .LVU649
 1923 0091 92 8B                   		mov.W	r3, 22[r0]
 386:../src/smc_gen/r_drw2d_rx/src/tes/dave_quad.c ****          verts[6] = x3;  verts[7] = y3;
 1924                             		.loc 1 386 10 is_stmt 1 view .LVU650
 386:../src/smc_gen/r_drw2d_rx/src/tes/dave_quad.c ****          verts[6] = x3;  verts[7] = y3;
 1925                             		.loc 1 386 19 is_stmt 0 view .LVU651
 1926 0093 93 04                   		mov.W	r4, 24[r0]
 386:../src/smc_gen/r_drw2d_rx/src/tes/dave_quad.c ****          verts[6] = x3;  verts[7] = y3;
 1927                             		.loc 1 386 26 is_stmt 1 view .LVU652
 386:../src/smc_gen/r_drw2d_rx/src/tes/dave_quad.c ****          verts[6] = x3;  verts[7] = y3;
 1928                             		.loc 1 386 35 is_stmt 0 view .LVU653
 1929 0095 D7 0B 0D                		mov.W	r11, 26[r0]
 387:../src/smc_gen/r_drw2d_rx/src/tes/dave_quad.c ****          (void)d2_renderpolyline_intern( D2_DEV(handle), ctx, verts, NULL, 4, wo, d2_le_exclude_bot
 1930                             		.loc 1 387 10 is_stmt 1 view .LVU654
 387:../src/smc_gen/r_drw2d_rx/src/tes/dave_quad.c ****          (void)d2_renderpolyline_intern( D2_DEV(handle), ctx, verts, NULL, 4, wo, d2_le_exclude_bot
 1931                             		.loc 1 387 19 is_stmt 0 view .LVU655
 1932 0098 D7 0C 0E                		mov.W	r12, 28[r0]
 387:../src/smc_gen/r_drw2d_rx/src/tes/dave_quad.c ****          (void)d2_renderpolyline_intern( D2_DEV(handle), ctx, verts, NULL, 4, wo, d2_le_exclude_bot
 1933                             		.loc 1 387 26 is_stmt 1 view .LVU656
 387:../src/smc_gen/r_drw2d_rx/src/tes/dave_quad.c ****          (void)d2_renderpolyline_intern( D2_DEV(handle), ctx, verts, NULL, 4, wo, d2_le_exclude_bot
 1934                             		.loc 1 387 35 is_stmt 0 view .LVU657
 1935 009b D7 09 0F                		mov.W	r9, 30[r0]
 388:../src/smc_gen/r_drw2d_rx/src/tes/dave_quad.c ****          break;
 1936                             		.loc 1 388 10 is_stmt 1 view .LVU658
 388:../src/smc_gen/r_drw2d_rx/src/tes/dave_quad.c ****          break;
 1937                             		.loc 1 388 16 is_stmt 0 view .LVU659
 1938 009e 3D 07 00                		mov.W	#0, 14[r0]
 1939 00a1 3D 06 00                		mov.W	#0, 12[r0]
 1940 00a4 3E 02 03                		mov.L	#3, 8[r0]
 1941 00a7 90 87                   		mov.W	r7, 4[r0]
 1942 00a9 F8 06 04                		mov.L	#4, [r0]
 1943 00ac 66 04                   		mov.L	#0, r4
 1944                             	.LVL204:
 388:../src/smc_gen/r_drw2d_rx/src/tes/dave_quad.c ****          break;
 1945                             		.loc 1 388 16 view .LVU660
 1946 00ae 75 43 10                		mov.L	#16, r3
 1947                             	.LVL205:
 388:../src/smc_gen/r_drw2d_rx/src/tes/dave_quad.c ****          break;
 1948                             		.loc 1 388 16 view .LVU661
 1949 00b1 4B 03                   		add	r0, r3
 1950 00b3 EF E2                   		mov.L	r14, r2
 1951                             	.LVL206:
 388:../src/smc_gen/r_drw2d_rx/src/tes/dave_quad.c ****          break;
 1952                             		.loc 1 388 16 view .LVU662
 1953 00b5 05 00 00 00             		bsr	_d2_renderpolyline_intern
 1954                             	.LVL207:
 389:../src/smc_gen/r_drw2d_rx/src/tes/dave_quad.c **** 
 1955                             		.loc 1 389 10 is_stmt 1 view .LVU663
 1956 00b9 2E C1                   		bra	.L84
 1957                             	.LVL208:
 1958                             	.L86:
 355:../src/smc_gen/r_drw2d_rx/src/tes/dave_quad.c ****    {
 1959                             		.loc 1 355 4 is_stmt 0 view .LVU664
 1960 00bb 61 B5                   		cmp	#11, r5
 1961 00bd 3A D6 01                		beq	.L95
 1962 00c0 24 3F                   		bgtu	.L96
 1963 00c2 61 95                   		cmp	#9, r5
 1964 00c4 3A 46 01                		beq	.L97
 1965 00c7 25 05 38 93 01          		bgtu	.L109
 392:../src/smc_gen/r_drw2d_rx/src/tes/dave_quad.c ****          verts[2] = x2;  verts[3] = y2;
 1966                             		.loc 1 392 10 is_stmt 1 view .LVU665
 392:../src/smc_gen/r_drw2d_rx/src/tes/dave_quad.c ****          verts[2] = x2;  verts[3] = y2;
 1967                             		.loc 1 392 19 is_stmt 0 view .LVU666
 1968 00cc 92 02                   		mov.W	r2, 16[r0]
 392:../src/smc_gen/r_drw2d_rx/src/tes/dave_quad.c ****          verts[2] = x2;  verts[3] = y2;
 1969                             		.loc 1 392 26 is_stmt 1 view .LVU667
 392:../src/smc_gen/r_drw2d_rx/src/tes/dave_quad.c ****          verts[2] = x2;  verts[3] = y2;
 1970                             		.loc 1 392 35 is_stmt 0 view .LVU668
 1971 00ce 92 0B                   		mov.W	r3, 18[r0]
 393:../src/smc_gen/r_drw2d_rx/src/tes/dave_quad.c ****          verts[4] = x3;  verts[5] = y3;
 1972                             		.loc 1 393 10 is_stmt 1 view .LVU669
 393:../src/smc_gen/r_drw2d_rx/src/tes/dave_quad.c ****          verts[4] = x3;  verts[5] = y3;
 1973                             		.loc 1 393 19 is_stmt 0 view .LVU670
 1974 00d0 92 84                   		mov.W	r4, 20[r0]
 393:../src/smc_gen/r_drw2d_rx/src/tes/dave_quad.c ****          verts[4] = x3;  verts[5] = y3;
 1975                             		.loc 1 393 26 is_stmt 1 view .LVU671
 393:../src/smc_gen/r_drw2d_rx/src/tes/dave_quad.c ****          verts[4] = x3;  verts[5] = y3;
 1976                             		.loc 1 393 35 is_stmt 0 view .LVU672
 1977 00d2 D7 0B 0B                		mov.W	r11, 22[r0]
 394:../src/smc_gen/r_drw2d_rx/src/tes/dave_quad.c ****          verts[6] = x4;  verts[7] = y4;
 1978                             		.loc 1 394 10 is_stmt 1 view .LVU673
 394:../src/smc_gen/r_drw2d_rx/src/tes/dave_quad.c ****          verts[6] = x4;  verts[7] = y4;
 1979                             		.loc 1 394 19 is_stmt 0 view .LVU674
 1980 00d5 D7 0C 0C                		mov.W	r12, 24[r0]
 394:../src/smc_gen/r_drw2d_rx/src/tes/dave_quad.c ****          verts[6] = x4;  verts[7] = y4;
 1981                             		.loc 1 394 26 is_stmt 1 view .LVU675
 394:../src/smc_gen/r_drw2d_rx/src/tes/dave_quad.c ****          verts[6] = x4;  verts[7] = y4;
 1982                             		.loc 1 394 35 is_stmt 0 view .LVU676
 1983 00d8 D7 09 0D                		mov.W	r9, 26[r0]
 395:../src/smc_gen/r_drw2d_rx/src/tes/dave_quad.c ****          (void)d2_renderpolyline_intern( D2_DEV(handle), ctx, verts, NULL, 4, wo, d2_le_exclude_bot
 1984                             		.loc 1 395 10 is_stmt 1 view .LVU677
 395:../src/smc_gen/r_drw2d_rx/src/tes/dave_quad.c ****          (void)d2_renderpolyline_intern( D2_DEV(handle), ctx, verts, NULL, 4, wo, d2_le_exclude_bot
 1985                             		.loc 1 395 19 is_stmt 0 view .LVU678
 1986 00db D7 08 0E                		mov.W	r8, 28[r0]
 395:../src/smc_gen/r_drw2d_rx/src/tes/dave_quad.c ****          (void)d2_renderpolyline_intern( D2_DEV(handle), ctx, verts, NULL, 4, wo, d2_le_exclude_bot
 1987                             		.loc 1 395 26 is_stmt 1 view .LVU679
 395:../src/smc_gen/r_drw2d_rx/src/tes/dave_quad.c ****          (void)d2_renderpolyline_intern( D2_DEV(handle), ctx, verts, NULL, 4, wo, d2_le_exclude_bot
 1988                             		.loc 1 395 35 is_stmt 0 view .LVU680
 1989 00de D7 0D 0F                		mov.W	r13, 30[r0]
 396:../src/smc_gen/r_drw2d_rx/src/tes/dave_quad.c ****          break;
 1990                             		.loc 1 396 10 is_stmt 1 view .LVU681
 396:../src/smc_gen/r_drw2d_rx/src/tes/dave_quad.c ****          break;
 1991                             		.loc 1 396 16 is_stmt 0 view .LVU682
 1992 00e1 3D 07 00                		mov.W	#0, 14[r0]
 1993 00e4 3D 06 00                		mov.W	#0, 12[r0]
 1994 00e7 3E 02 03                		mov.L	#3, 8[r0]
 1995 00ea 90 87                   		mov.W	r7, 4[r0]
 1996 00ec F8 06 04                		mov.L	#4, [r0]
 1997 00ef 66 04                   		mov.L	#0, r4
 1998                             	.LVL209:
 396:../src/smc_gen/r_drw2d_rx/src/tes/dave_quad.c ****          break;
 1999                             		.loc 1 396 16 view .LVU683
 2000 00f1 75 43 10                		mov.L	#16, r3
 2001                             	.LVL210:
 396:../src/smc_gen/r_drw2d_rx/src/tes/dave_quad.c ****          break;
 2002                             		.loc 1 396 16 view .LVU684
 2003 00f4 4B 03                   		add	r0, r3
 2004 00f6 EF E2                   		mov.L	r14, r2
 2005                             	.LVL211:
 396:../src/smc_gen/r_drw2d_rx/src/tes/dave_quad.c ****          break;
 2006                             		.loc 1 396 16 view .LVU685
 2007 00f8 05 00 00 00             		bsr	_d2_renderpolyline_intern
 2008                             	.LVL212:
 397:../src/smc_gen/r_drw2d_rx/src/tes/dave_quad.c **** 
 2009                             		.loc 1 397 10 is_stmt 1 view .LVU686
 2010 00fc 38 7E FF                		bra	.L84
 2011                             	.LVL213:
 2012                             	.L96:
 355:../src/smc_gen/r_drw2d_rx/src/tes/dave_quad.c ****    {
 2013                             		.loc 1 355 4 is_stmt 0 view .LVU687
 2014 00ff 61 D5                   		cmp	#13, r5
 2015 0101 3A A6 01                		beq	.L100
 2016 0104 22 05 38 D7 00          		bltu	.L101
 2017 0109 61 E5                   		cmp	#14, r5
 2018 010b 3B 6F FF                		bne	.L84
 453:../src/smc_gen/r_drw2d_rx/src/tes/dave_quad.c ****          break;
 2019                             		.loc 1 453 10 is_stmt 1 view .LVU688
 453:../src/smc_gen/r_drw2d_rx/src/tes/dave_quad.c ****          break;
 2020                             		.loc 1 453 16 is_stmt 0 view .LVU689
 2021 010e 3E 01 03                		mov.L	#3, 4[r0]
 2022 0111 90 0F                   		mov.W	r7, 2[r0]
 2023 0113 D3 0B                   		mov.W	r11, [r0]
 2024 0115 05 00 00 00             		bsr	_d2_renderline_outline_I
 2025                             	.LVL214:
 454:../src/smc_gen/r_drw2d_rx/src/tes/dave_quad.c **** 
 2026                             		.loc 1 454 10 is_stmt 1 view .LVU690
 2027 0119 38 61 FF                		bra	.L84
 2028                             	.LVL215:
 2029                             	.L89:
 368:../src/smc_gen/r_drw2d_rx/src/tes/dave_quad.c ****          verts[2] = x4;  verts[3] = y4;
 2030                             		.loc 1 368 10 view .LVU691
 368:../src/smc_gen/r_drw2d_rx/src/tes/dave_quad.c ****          verts[2] = x4;  verts[3] = y4;
 2031                             		.loc 1 368 19 is_stmt 0 view .LVU692
 2032 011c 92 02                   		mov.W	r2, 16[r0]
 368:../src/smc_gen/r_drw2d_rx/src/tes/dave_quad.c ****          verts[2] = x4;  verts[3] = y4;
 2033                             		.loc 1 368 26 is_stmt 1 view .LVU693
 368:../src/smc_gen/r_drw2d_rx/src/tes/dave_quad.c ****          verts[2] = x4;  verts[3] = y4;
 2034                             		.loc 1 368 35 is_stmt 0 view .LVU694
 2035 011e 92 0B                   		mov.W	r3, 18[r0]
 369:../src/smc_gen/r_drw2d_rx/src/tes/dave_quad.c ****          verts[4] = x3;  verts[5] = y3;
 2036                             		.loc 1 369 10 is_stmt 1 view .LVU695
 369:../src/smc_gen/r_drw2d_rx/src/tes/dave_quad.c ****          verts[4] = x3;  verts[5] = y3;
 2037                             		.loc 1 369 19 is_stmt 0 view .LVU696
 2038 0120 D7 08 0A                		mov.W	r8, 20[r0]
 369:../src/smc_gen/r_drw2d_rx/src/tes/dave_quad.c ****          verts[4] = x3;  verts[5] = y3;
 2039                             		.loc 1 369 26 is_stmt 1 view .LVU697
 369:../src/smc_gen/r_drw2d_rx/src/tes/dave_quad.c ****          verts[4] = x3;  verts[5] = y3;
 2040                             		.loc 1 369 35 is_stmt 0 view .LVU698
 2041 0123 D7 0D 0B                		mov.W	r13, 22[r0]
 370:../src/smc_gen/r_drw2d_rx/src/tes/dave_quad.c ****          verts[6] = x2;  verts[7] = y2;
 2042                             		.loc 1 370 10 is_stmt 1 view .LVU699
 370:../src/smc_gen/r_drw2d_rx/src/tes/dave_quad.c ****          verts[6] = x2;  verts[7] = y2;
 2043                             		.loc 1 370 19 is_stmt 0 view .LVU700
 2044 0126 D7 0C 0C                		mov.W	r12, 24[r0]
 370:../src/smc_gen/r_drw2d_rx/src/tes/dave_quad.c ****          verts[6] = x2;  verts[7] = y2;
 2045                             		.loc 1 370 26 is_stmt 1 view .LVU701
 370:../src/smc_gen/r_drw2d_rx/src/tes/dave_quad.c ****          verts[6] = x2;  verts[7] = y2;
 2046                             		.loc 1 370 35 is_stmt 0 view .LVU702
 2047 0129 D7 09 0D                		mov.W	r9, 26[r0]
 371:../src/smc_gen/r_drw2d_rx/src/tes/dave_quad.c ****          (void)d2_renderpolyline_intern( D2_DEV(handle), ctx, verts, NULL, 4, wo, d2_le_exclude_bot
 2048                             		.loc 1 371 10 is_stmt 1 view .LVU703
 371:../src/smc_gen/r_drw2d_rx/src/tes/dave_quad.c ****          (void)d2_renderpolyline_intern( D2_DEV(handle), ctx, verts, NULL, 4, wo, d2_le_exclude_bot
 2049                             		.loc 1 371 19 is_stmt 0 view .LVU704
 2050 012c 93 84                   		mov.W	r4, 28[r0]
 371:../src/smc_gen/r_drw2d_rx/src/tes/dave_quad.c ****          (void)d2_renderpolyline_intern( D2_DEV(handle), ctx, verts, NULL, 4, wo, d2_le_exclude_bot
 2051                             		.loc 1 371 26 is_stmt 1 view .LVU705
 371:../src/smc_gen/r_drw2d_rx/src/tes/dave_quad.c ****          (void)d2_renderpolyline_intern( D2_DEV(handle), ctx, verts, NULL, 4, wo, d2_le_exclude_bot
 2052                             		.loc 1 371 35 is_stmt 0 view .LVU706
 2053 012e D7 0B 0F                		mov.W	r11, 30[r0]
 372:../src/smc_gen/r_drw2d_rx/src/tes/dave_quad.c ****          break;
 2054                             		.loc 1 372 10 is_stmt 1 view .LVU707
 372:../src/smc_gen/r_drw2d_rx/src/tes/dave_quad.c ****          break;
 2055                             		.loc 1 372 16 is_stmt 0 view .LVU708
 2056 0131 3D 07 00                		mov.W	#0, 14[r0]
 2057 0134 3D 06 00                		mov.W	#0, 12[r0]
 2058 0137 3E 02 03                		mov.L	#3, 8[r0]
 2059 013a 90 87                   		mov.W	r7, 4[r0]
 2060 013c F8 06 04                		mov.L	#4, [r0]
 2061 013f 66 04                   		mov.L	#0, r4
 2062                             	.LVL216:
 372:../src/smc_gen/r_drw2d_rx/src/tes/dave_quad.c ****          break;
 2063                             		.loc 1 372 16 view .LVU709
 2064 0141 75 43 10                		mov.L	#16, r3
 2065                             	.LVL217:
 372:../src/smc_gen/r_drw2d_rx/src/tes/dave_quad.c ****          break;
 2066                             		.loc 1 372 16 view .LVU710
 2067 0144 4B 03                   		add	r0, r3
 2068 0146 EF E2                   		mov.L	r14, r2
 2069                             	.LVL218:
 372:../src/smc_gen/r_drw2d_rx/src/tes/dave_quad.c ****          break;
 2070                             		.loc 1 372 16 view .LVU711
 2071 0148 05 00 00 00             		bsr	_d2_renderpolyline_intern
 2072                             	.LVL219:
 373:../src/smc_gen/r_drw2d_rx/src/tes/dave_quad.c **** 
 2073                             		.loc 1 373 10 is_stmt 1 view .LVU712
 2074 014c 38 2E FF                		bra	.L84
 2075                             	.LVL220:
 2076                             	.L107:
 376:../src/smc_gen/r_drw2d_rx/src/tes/dave_quad.c ****          verts[2] = x1;  verts[3] = y1;
 2077                             		.loc 1 376 10 view .LVU713
 376:../src/smc_gen/r_drw2d_rx/src/tes/dave_quad.c ****          verts[2] = x1;  verts[3] = y1;
 2078                             		.loc 1 376 19 is_stmt 0 view .LVU714
 2079 014f 92 04                   		mov.W	r4, 16[r0]
 376:../src/smc_gen/r_drw2d_rx/src/tes/dave_quad.c ****          verts[2] = x1;  verts[3] = y1;
 2080                             		.loc 1 376 26 is_stmt 1 view .LVU715
 376:../src/smc_gen/r_drw2d_rx/src/tes/dave_quad.c ****          verts[2] = x1;  verts[3] = y1;
 2081                             		.loc 1 376 35 is_stmt 0 view .LVU716
 2082 0151 D7 0B 09                		mov.W	r11, 18[r0]
 377:../src/smc_gen/r_drw2d_rx/src/tes/dave_quad.c ****          verts[4] = x4;  verts[5] = y4;
 2083                             		.loc 1 377 10 is_stmt 1 view .LVU717
 377:../src/smc_gen/r_drw2d_rx/src/tes/dave_quad.c ****          verts[4] = x4;  verts[5] = y4;
 2084                             		.loc 1 377 19 is_stmt 0 view .LVU718
 2085 0154 92 82                   		mov.W	r2, 20[r0]
 377:../src/smc_gen/r_drw2d_rx/src/tes/dave_quad.c ****          verts[4] = x4;  verts[5] = y4;
 2086                             		.loc 1 377 26 is_stmt 1 view .LVU719
 377:../src/smc_gen/r_drw2d_rx/src/tes/dave_quad.c ****          verts[4] = x4;  verts[5] = y4;
 2087                             		.loc 1 377 35 is_stmt 0 view .LVU720
 2088 0156 92 8B                   		mov.W	r3, 22[r0]
 378:../src/smc_gen/r_drw2d_rx/src/tes/dave_quad.c ****          verts[6] = x3;  verts[7] = y3;
 2089                             		.loc 1 378 10 is_stmt 1 view .LVU721
 378:../src/smc_gen/r_drw2d_rx/src/tes/dave_quad.c ****          verts[6] = x3;  verts[7] = y3;
 2090                             		.loc 1 378 19 is_stmt 0 view .LVU722
 2091 0158 D7 08 0C                		mov.W	r8, 24[r0]
 378:../src/smc_gen/r_drw2d_rx/src/tes/dave_quad.c ****          verts[6] = x3;  verts[7] = y3;
 2092                             		.loc 1 378 26 is_stmt 1 view .LVU723
 378:../src/smc_gen/r_drw2d_rx/src/tes/dave_quad.c ****          verts[6] = x3;  verts[7] = y3;
 2093                             		.loc 1 378 35 is_stmt 0 view .LVU724
 2094 015b D7 0D 0D                		mov.W	r13, 26[r0]
 379:../src/smc_gen/r_drw2d_rx/src/tes/dave_quad.c ****          (void)d2_renderpolyline_intern( D2_DEV(handle), ctx, verts, NULL, 4, wo, d2_le_exclude_bot
 2095                             		.loc 1 379 10 is_stmt 1 view .LVU725
 379:../src/smc_gen/r_drw2d_rx/src/tes/dave_quad.c ****          (void)d2_renderpolyline_intern( D2_DEV(handle), ctx, verts, NULL, 4, wo, d2_le_exclude_bot
 2096                             		.loc 1 379 19 is_stmt 0 view .LVU726
 2097 015e D7 0C 0E                		mov.W	r12, 28[r0]
 379:../src/smc_gen/r_drw2d_rx/src/tes/dave_quad.c ****          (void)d2_renderpolyline_intern( D2_DEV(handle), ctx, verts, NULL, 4, wo, d2_le_exclude_bot
 2098                             		.loc 1 379 26 is_stmt 1 view .LVU727
 379:../src/smc_gen/r_drw2d_rx/src/tes/dave_quad.c ****          (void)d2_renderpolyline_intern( D2_DEV(handle), ctx, verts, NULL, 4, wo, d2_le_exclude_bot
 2099                             		.loc 1 379 35 is_stmt 0 view .LVU728
 2100 0161 D7 09 0F                		mov.W	r9, 30[r0]
 380:../src/smc_gen/r_drw2d_rx/src/tes/dave_quad.c ****          break;
 2101                             		.loc 1 380 10 is_stmt 1 view .LVU729
 380:../src/smc_gen/r_drw2d_rx/src/tes/dave_quad.c ****          break;
 2102                             		.loc 1 380 16 is_stmt 0 view .LVU730
 2103 0164 3D 07 00                		mov.W	#0, 14[r0]
 2104 0167 3D 06 00                		mov.W	#0, 12[r0]
 2105 016a 3E 02 03                		mov.L	#3, 8[r0]
 2106 016d 90 87                   		mov.W	r7, 4[r0]
 2107 016f F8 06 04                		mov.L	#4, [r0]
 2108 0172 66 04                   		mov.L	#0, r4
 2109                             	.LVL221:
 380:../src/smc_gen/r_drw2d_rx/src/tes/dave_quad.c ****          break;
 2110                             		.loc 1 380 16 view .LVU731
 2111 0174 75 43 10                		mov.L	#16, r3
 2112                             	.LVL222:
 380:../src/smc_gen/r_drw2d_rx/src/tes/dave_quad.c ****          break;
 2113                             		.loc 1 380 16 view .LVU732
 2114 0177 4B 03                   		add	r0, r3
 2115 0179 EF E2                   		mov.L	r14, r2
 2116                             	.LVL223:
 380:../src/smc_gen/r_drw2d_rx/src/tes/dave_quad.c ****          break;
 2117                             		.loc 1 380 16 view .LVU733
 2118 017b 05 00 00 00             		bsr	_d2_renderpolyline_intern
 2119                             	.LVL224:
 381:../src/smc_gen/r_drw2d_rx/src/tes/dave_quad.c **** 
 2120                             		.loc 1 381 10 is_stmt 1 view .LVU734
 2121 017f 38 FB FE                		bra	.L84
 2122                             	.LVL225:
 2123                             	.L87:
 401:../src/smc_gen/r_drw2d_rx/src/tes/dave_quad.c ****          verts[2] = x4;  verts[3] = y4;
 2124                             		.loc 1 401 10 view .LVU735
 401:../src/smc_gen/r_drw2d_rx/src/tes/dave_quad.c ****          verts[2] = x4;  verts[3] = y4;
 2125                             		.loc 1 401 19 is_stmt 0 view .LVU736
 2126 0182 92 02                   		mov.W	r2, 16[r0]
 401:../src/smc_gen/r_drw2d_rx/src/tes/dave_quad.c ****          verts[2] = x4;  verts[3] = y4;
 2127                             		.loc 1 401 26 is_stmt 1 view .LVU737
 401:../src/smc_gen/r_drw2d_rx/src/tes/dave_quad.c ****          verts[2] = x4;  verts[3] = y4;
 2128                             		.loc 1 401 35 is_stmt 0 view .LVU738
 2129 0184 92 0B                   		mov.W	r3, 18[r0]
 402:../src/smc_gen/r_drw2d_rx/src/tes/dave_quad.c ****          verts[4] = x3;  verts[5] = y3;
 2130                             		.loc 1 402 10 is_stmt 1 view .LVU739
 402:../src/smc_gen/r_drw2d_rx/src/tes/dave_quad.c ****          verts[4] = x3;  verts[5] = y3;
 2131                             		.loc 1 402 19 is_stmt 0 view .LVU740
 2132 0186 D7 08 0A                		mov.W	r8, 20[r0]
 402:../src/smc_gen/r_drw2d_rx/src/tes/dave_quad.c ****          verts[4] = x3;  verts[5] = y3;
 2133                             		.loc 1 402 26 is_stmt 1 view .LVU741
 402:../src/smc_gen/r_drw2d_rx/src/tes/dave_quad.c ****          verts[4] = x3;  verts[5] = y3;
 2134                             		.loc 1 402 35 is_stmt 0 view .LVU742
 2135 0189 D7 0D 0B                		mov.W	r13, 22[r0]
 403:../src/smc_gen/r_drw2d_rx/src/tes/dave_quad.c ****          (void)d2_renderpolyline_intern( D2_DEV(handle), ctx, verts, NULL, 3, wo, d2_le_exclude_bot
 2136                             		.loc 1 403 10 is_stmt 1 view .LVU743
 403:../src/smc_gen/r_drw2d_rx/src/tes/dave_quad.c ****          (void)d2_renderpolyline_intern( D2_DEV(handle), ctx, verts, NULL, 3, wo, d2_le_exclude_bot
 2137                             		.loc 1 403 19 is_stmt 0 view .LVU744
 2138 018c D7 0C 0C                		mov.W	r12, 24[r0]
 403:../src/smc_gen/r_drw2d_rx/src/tes/dave_quad.c ****          (void)d2_renderpolyline_intern( D2_DEV(handle), ctx, verts, NULL, 3, wo, d2_le_exclude_bot
 2139                             		.loc 1 403 26 is_stmt 1 view .LVU745
 403:../src/smc_gen/r_drw2d_rx/src/tes/dave_quad.c ****          (void)d2_renderpolyline_intern( D2_DEV(handle), ctx, verts, NULL, 3, wo, d2_le_exclude_bot
 2140                             		.loc 1 403 35 is_stmt 0 view .LVU746
 2141 018f D7 09 0D                		mov.W	r9, 26[r0]
 404:../src/smc_gen/r_drw2d_rx/src/tes/dave_quad.c ****          break;
 2142                             		.loc 1 404 10 is_stmt 1 view .LVU747
 404:../src/smc_gen/r_drw2d_rx/src/tes/dave_quad.c ****          break;
 2143                             		.loc 1 404 16 is_stmt 0 view .LVU748
 2144 0192 3D 07 00                		mov.W	#0, 14[r0]
 2145 0195 3D 06 00                		mov.W	#0, 12[r0]
 2146 0198 3E 02 03                		mov.L	#3, 8[r0]
 2147 019b 90 87                   		mov.W	r7, 4[r0]
 2148 019d F8 06 03                		mov.L	#3, [r0]
 2149 01a0 66 04                   		mov.L	#0, r4
 2150                             	.LVL226:
 404:../src/smc_gen/r_drw2d_rx/src/tes/dave_quad.c ****          break;
 2151                             		.loc 1 404 16 view .LVU749
 2152 01a2 75 43 10                		mov.L	#16, r3
 2153                             	.LVL227:
 404:../src/smc_gen/r_drw2d_rx/src/tes/dave_quad.c ****          break;
 2154                             		.loc 1 404 16 view .LVU750
 2155 01a5 4B 03                   		add	r0, r3
 2156 01a7 EF E2                   		mov.L	r14, r2
 2157                             	.LVL228:
 404:../src/smc_gen/r_drw2d_rx/src/tes/dave_quad.c ****          break;
 2158                             		.loc 1 404 16 view .LVU751
 2159 01a9 05 00 00 00             		bsr	_d2_renderpolyline_intern
 2160                             	.LVL229:
 405:../src/smc_gen/r_drw2d_rx/src/tes/dave_quad.c **** 
 2161                             		.loc 1 405 10 is_stmt 1 view .LVU752
 2162 01ad 38 CD FE                		bra	.L84
 2163                             	.LVL230:
 2164                             	.L108:
 408:../src/smc_gen/r_drw2d_rx/src/tes/dave_quad.c ****          verts[2] = x1;  verts[3] = y1;
 2165                             		.loc 1 408 10 view .LVU753
 408:../src/smc_gen/r_drw2d_rx/src/tes/dave_quad.c ****          verts[2] = x1;  verts[3] = y1;
 2166                             		.loc 1 408 19 is_stmt 0 view .LVU754
 2167 01b0 D7 08 08                		mov.W	r8, 16[r0]
 408:../src/smc_gen/r_drw2d_rx/src/tes/dave_quad.c ****          verts[2] = x1;  verts[3] = y1;
 2168                             		.loc 1 408 26 is_stmt 1 view .LVU755
 408:../src/smc_gen/r_drw2d_rx/src/tes/dave_quad.c ****          verts[2] = x1;  verts[3] = y1;
 2169                             		.loc 1 408 35 is_stmt 0 view .LVU756
 2170 01b3 D7 0D 09                		mov.W	r13, 18[r0]
 409:../src/smc_gen/r_drw2d_rx/src/tes/dave_quad.c ****          verts[4] = x2;  verts[5] = y2;
 2171                             		.loc 1 409 10 is_stmt 1 view .LVU757
 409:../src/smc_gen/r_drw2d_rx/src/tes/dave_quad.c ****          verts[4] = x2;  verts[5] = y2;
 2172                             		.loc 1 409 19 is_stmt 0 view .LVU758
 2173 01b6 92 82                   		mov.W	r2, 20[r0]
 409:../src/smc_gen/r_drw2d_rx/src/tes/dave_quad.c ****          verts[4] = x2;  verts[5] = y2;
 2174                             		.loc 1 409 26 is_stmt 1 view .LVU759
 409:../src/smc_gen/r_drw2d_rx/src/tes/dave_quad.c ****          verts[4] = x2;  verts[5] = y2;
 2175                             		.loc 1 409 35 is_stmt 0 view .LVU760
 2176 01b8 92 8B                   		mov.W	r3, 22[r0]
 410:../src/smc_gen/r_drw2d_rx/src/tes/dave_quad.c ****          (void)d2_renderpolyline_intern( D2_DEV(handle), ctx, verts, NULL, 3, wo, d2_le_exclude_bot
 2177                             		.loc 1 410 10 is_stmt 1 view .LVU761
 410:../src/smc_gen/r_drw2d_rx/src/tes/dave_quad.c ****          (void)d2_renderpolyline_intern( D2_DEV(handle), ctx, verts, NULL, 3, wo, d2_le_exclude_bot
 2178                             		.loc 1 410 19 is_stmt 0 view .LVU762
 2179 01ba 93 04                   		mov.W	r4, 24[r0]
 410:../src/smc_gen/r_drw2d_rx/src/tes/dave_quad.c ****          (void)d2_renderpolyline_intern( D2_DEV(handle), ctx, verts, NULL, 3, wo, d2_le_exclude_bot
 2180                             		.loc 1 410 26 is_stmt 1 view .LVU763
 410:../src/smc_gen/r_drw2d_rx/src/tes/dave_quad.c ****          (void)d2_renderpolyline_intern( D2_DEV(handle), ctx, verts, NULL, 3, wo, d2_le_exclude_bot
 2181                             		.loc 1 410 35 is_stmt 0 view .LVU764
 2182 01bc D7 0B 0D                		mov.W	r11, 26[r0]
 411:../src/smc_gen/r_drw2d_rx/src/tes/dave_quad.c ****          break;
 2183                             		.loc 1 411 10 is_stmt 1 view .LVU765
 411:../src/smc_gen/r_drw2d_rx/src/tes/dave_quad.c ****          break;
 2184                             		.loc 1 411 16 is_stmt 0 view .LVU766
 2185 01bf 3D 07 00                		mov.W	#0, 14[r0]
 2186 01c2 3D 06 00                		mov.W	#0, 12[r0]
 2187 01c5 3E 02 03                		mov.L	#3, 8[r0]
 2188 01c8 90 87                   		mov.W	r7, 4[r0]
 2189 01ca F8 06 03                		mov.L	#3, [r0]
 2190 01cd 66 04                   		mov.L	#0, r4
 2191                             	.LVL231:
 411:../src/smc_gen/r_drw2d_rx/src/tes/dave_quad.c ****          break;
 2192                             		.loc 1 411 16 view .LVU767
 2193 01cf 75 43 10                		mov.L	#16, r3
 2194                             	.LVL232:
 411:../src/smc_gen/r_drw2d_rx/src/tes/dave_quad.c ****          break;
 2195                             		.loc 1 411 16 view .LVU768
 2196 01d2 4B 03                   		add	r0, r3
 2197 01d4 EF E2                   		mov.L	r14, r2
 2198                             	.LVL233:
 411:../src/smc_gen/r_drw2d_rx/src/tes/dave_quad.c ****          break;
 2199                             		.loc 1 411 16 view .LVU769
 2200 01d6 05 00 00 00             		bsr	_d2_renderpolyline_intern
 2201                             	.LVL234:
 412:../src/smc_gen/r_drw2d_rx/src/tes/dave_quad.c **** 
 2202                             		.loc 1 412 10 is_stmt 1 view .LVU770
 2203 01da 38 A0 FE                		bra	.L84
 2204                             	.LVL235:
 2205                             	.L101:
 415:../src/smc_gen/r_drw2d_rx/src/tes/dave_quad.c ****          verts[2] = x2;  verts[3] = y2;
 2206                             		.loc 1 415 10 view .LVU771
 415:../src/smc_gen/r_drw2d_rx/src/tes/dave_quad.c ****          verts[2] = x2;  verts[3] = y2;
 2207                             		.loc 1 415 19 is_stmt 0 view .LVU772
 2208 01dd 92 02                   		mov.W	r2, 16[r0]
 415:../src/smc_gen/r_drw2d_rx/src/tes/dave_quad.c ****          verts[2] = x2;  verts[3] = y2;
 2209                             		.loc 1 415 26 is_stmt 1 view .LVU773
 415:../src/smc_gen/r_drw2d_rx/src/tes/dave_quad.c ****          verts[2] = x2;  verts[3] = y2;
 2210                             		.loc 1 415 35 is_stmt 0 view .LVU774
 2211 01df 92 0B                   		mov.W	r3, 18[r0]
 416:../src/smc_gen/r_drw2d_rx/src/tes/dave_quad.c ****          verts[4] = x3;  verts[5] = y3;
 2212                             		.loc 1 416 10 is_stmt 1 view .LVU775
 416:../src/smc_gen/r_drw2d_rx/src/tes/dave_quad.c ****          verts[4] = x3;  verts[5] = y3;
 2213                             		.loc 1 416 19 is_stmt 0 view .LVU776
 2214 01e1 92 84                   		mov.W	r4, 20[r0]
 416:../src/smc_gen/r_drw2d_rx/src/tes/dave_quad.c ****          verts[4] = x3;  verts[5] = y3;
 2215                             		.loc 1 416 26 is_stmt 1 view .LVU777
 416:../src/smc_gen/r_drw2d_rx/src/tes/dave_quad.c ****          verts[4] = x3;  verts[5] = y3;
 2216                             		.loc 1 416 35 is_stmt 0 view .LVU778
 2217 01e3 D7 0B 0B                		mov.W	r11, 22[r0]
 417:../src/smc_gen/r_drw2d_rx/src/tes/dave_quad.c ****          (void)d2_renderpolyline_intern( D2_DEV(handle), ctx, verts, NULL, 3, wo, d2_le_exclude_bot
 2218                             		.loc 1 417 10 is_stmt 1 view .LVU779
 417:../src/smc_gen/r_drw2d_rx/src/tes/dave_quad.c ****          (void)d2_renderpolyline_intern( D2_DEV(handle), ctx, verts, NULL, 3, wo, d2_le_exclude_bot
 2219                             		.loc 1 417 19 is_stmt 0 view .LVU780
 2220 01e6 D7 0C 0C                		mov.W	r12, 24[r0]
 417:../src/smc_gen/r_drw2d_rx/src/tes/dave_quad.c ****          (void)d2_renderpolyline_intern( D2_DEV(handle), ctx, verts, NULL, 3, wo, d2_le_exclude_bot
 2221                             		.loc 1 417 26 is_stmt 1 view .LVU781
 417:../src/smc_gen/r_drw2d_rx/src/tes/dave_quad.c ****          (void)d2_renderpolyline_intern( D2_DEV(handle), ctx, verts, NULL, 3, wo, d2_le_exclude_bot
 2222                             		.loc 1 417 35 is_stmt 0 view .LVU782
 2223 01e9 D7 09 0D                		mov.W	r9, 26[r0]
 418:../src/smc_gen/r_drw2d_rx/src/tes/dave_quad.c ****          break;
 2224                             		.loc 1 418 10 is_stmt 1 view .LVU783
 418:../src/smc_gen/r_drw2d_rx/src/tes/dave_quad.c ****          break;
 2225                             		.loc 1 418 16 is_stmt 0 view .LVU784
 2226 01ec 3D 07 00                		mov.W	#0, 14[r0]
 2227 01ef 3D 06 00                		mov.W	#0, 12[r0]
 2228 01f2 3E 02 03                		mov.L	#3, 8[r0]
 2229 01f5 90 87                   		mov.W	r7, 4[r0]
 2230 01f7 F8 06 03                		mov.L	#3, [r0]
 2231 01fa 66 04                   		mov.L	#0, r4
 2232                             	.LVL236:
 418:../src/smc_gen/r_drw2d_rx/src/tes/dave_quad.c ****          break;
 2233                             		.loc 1 418 16 view .LVU785
 2234 01fc 75 43 10                		mov.L	#16, r3
 2235                             	.LVL237:
 418:../src/smc_gen/r_drw2d_rx/src/tes/dave_quad.c ****          break;
 2236                             		.loc 1 418 16 view .LVU786
 2237 01ff 4B 03                   		add	r0, r3
 2238 0201 EF E2                   		mov.L	r14, r2
 2239                             	.LVL238:
 418:../src/smc_gen/r_drw2d_rx/src/tes/dave_quad.c ****          break;
 2240                             		.loc 1 418 16 view .LVU787
 2241 0203 05 00 00 00             		bsr	_d2_renderpolyline_intern
 2242                             	.LVL239:
 419:../src/smc_gen/r_drw2d_rx/src/tes/dave_quad.c **** 
 2243                             		.loc 1 419 10 is_stmt 1 view .LVU788
 2244 0207 38 73 FE                		bra	.L84
 2245                             	.LVL240:
 2246                             	.L97:
 422:../src/smc_gen/r_drw2d_rx/src/tes/dave_quad.c ****          verts[2] = x3;  verts[3] = y3;
 2247                             		.loc 1 422 10 view .LVU789
 422:../src/smc_gen/r_drw2d_rx/src/tes/dave_quad.c ****          verts[2] = x3;  verts[3] = y3;
 2248                             		.loc 1 422 19 is_stmt 0 view .LVU790
 2249 020a 92 04                   		mov.W	r4, 16[r0]
 422:../src/smc_gen/r_drw2d_rx/src/tes/dave_quad.c ****          verts[2] = x3;  verts[3] = y3;
 2250                             		.loc 1 422 26 is_stmt 1 view .LVU791
 422:../src/smc_gen/r_drw2d_rx/src/tes/dave_quad.c ****          verts[2] = x3;  verts[3] = y3;
 2251                             		.loc 1 422 35 is_stmt 0 view .LVU792
 2252 020c D7 0B 09                		mov.W	r11, 18[r0]
 423:../src/smc_gen/r_drw2d_rx/src/tes/dave_quad.c ****          verts[4] = x4;  verts[5] = y4;
 2253                             		.loc 1 423 10 is_stmt 1 view .LVU793
 423:../src/smc_gen/r_drw2d_rx/src/tes/dave_quad.c ****          verts[4] = x4;  verts[5] = y4;
 2254                             		.loc 1 423 19 is_stmt 0 view .LVU794
 2255 020f D7 0C 0A                		mov.W	r12, 20[r0]
 423:../src/smc_gen/r_drw2d_rx/src/tes/dave_quad.c ****          verts[4] = x4;  verts[5] = y4;
 2256                             		.loc 1 423 26 is_stmt 1 view .LVU795
 423:../src/smc_gen/r_drw2d_rx/src/tes/dave_quad.c ****          verts[4] = x4;  verts[5] = y4;
 2257                             		.loc 1 423 35 is_stmt 0 view .LVU796
 2258 0212 D7 09 0B                		mov.W	r9, 22[r0]
 424:../src/smc_gen/r_drw2d_rx/src/tes/dave_quad.c ****          (void)d2_renderpolyline_intern( D2_DEV(handle), ctx, verts, NULL, 3, wo, d2_le_exclude_bot
 2259                             		.loc 1 424 10 is_stmt 1 view .LVU797
 424:../src/smc_gen/r_drw2d_rx/src/tes/dave_quad.c ****          (void)d2_renderpolyline_intern( D2_DEV(handle), ctx, verts, NULL, 3, wo, d2_le_exclude_bot
 2260                             		.loc 1 424 19 is_stmt 0 view .LVU798
 2261 0215 D7 08 0C                		mov.W	r8, 24[r0]
 424:../src/smc_gen/r_drw2d_rx/src/tes/dave_quad.c ****          (void)d2_renderpolyline_intern( D2_DEV(handle), ctx, verts, NULL, 3, wo, d2_le_exclude_bot
 2262                             		.loc 1 424 26 is_stmt 1 view .LVU799
 424:../src/smc_gen/r_drw2d_rx/src/tes/dave_quad.c ****          (void)d2_renderpolyline_intern( D2_DEV(handle), ctx, verts, NULL, 3, wo, d2_le_exclude_bot
 2263                             		.loc 1 424 35 is_stmt 0 view .LVU800
 2264 0218 D7 0D 0D                		mov.W	r13, 26[r0]
 425:../src/smc_gen/r_drw2d_rx/src/tes/dave_quad.c ****          break; 
 2265                             		.loc 1 425 10 is_stmt 1 view .LVU801
 425:../src/smc_gen/r_drw2d_rx/src/tes/dave_quad.c ****          break; 
 2266                             		.loc 1 425 16 is_stmt 0 view .LVU802
 2267 021b 3D 07 00                		mov.W	#0, 14[r0]
 2268 021e 3D 06 00                		mov.W	#0, 12[r0]
 2269 0221 3E 02 03                		mov.L	#3, 8[r0]
 2270 0224 90 87                   		mov.W	r7, 4[r0]
 2271 0226 F8 06 03                		mov.L	#3, [r0]
 2272 0229 66 04                   		mov.L	#0, r4
 2273                             	.LVL241:
 425:../src/smc_gen/r_drw2d_rx/src/tes/dave_quad.c ****          break; 
 2274                             		.loc 1 425 16 view .LVU803
 2275 022b 75 43 10                		mov.L	#16, r3
 2276                             	.LVL242:
 425:../src/smc_gen/r_drw2d_rx/src/tes/dave_quad.c ****          break; 
 2277                             		.loc 1 425 16 view .LVU804
 2278 022e 4B 03                   		add	r0, r3
 2279 0230 EF E2                   		mov.L	r14, r2
 2280                             	.LVL243:
 425:../src/smc_gen/r_drw2d_rx/src/tes/dave_quad.c ****          break; 
 2281                             		.loc 1 425 16 view .LVU805
 2282 0232 05 00 00 00             		bsr	_d2_renderpolyline_intern
 2283                             	.LVL244:
 426:../src/smc_gen/r_drw2d_rx/src/tes/dave_quad.c **** 
 2284                             		.loc 1 426 10 is_stmt 1 view .LVU806
 2285 0236 38 44 FE                		bra	.L84
 2286                             	.LVL245:
 2287                             	.L92:
 430:../src/smc_gen/r_drw2d_rx/src/tes/dave_quad.c ****          (void)d2_renderline_outline_I( handle, x3, y3, x2, y2, wo, d2_le_exclude_both );
 2288                             		.loc 1 430 10 view .LVU807
 430:../src/smc_gen/r_drw2d_rx/src/tes/dave_quad.c ****          (void)d2_renderline_outline_I( handle, x3, y3, x2, y2, wo, d2_le_exclude_both );
 2289                             		.loc 1 430 16 is_stmt 0 view .LVU808
 2290 0239 3E 01 03                		mov.L	#3, 4[r0]
 2291 023c 90 0F                   		mov.W	r7, 2[r0]
 2292 023e D3 0D                   		mov.W	r13, [r0]
 2293 0240 DF 84                   		mov.W	r8, r4
 2294                             	.LVL246:
 430:../src/smc_gen/r_drw2d_rx/src/tes/dave_quad.c ****          (void)d2_renderline_outline_I( handle, x3, y3, x2, y2, wo, d2_le_exclude_both );
 2295                             		.loc 1 430 16 view .LVU809
 2296 0242 05 00 00 00             		bsr	_d2_renderline_outline_I
 2297                             	.LVL247:
 431:../src/smc_gen/r_drw2d_rx/src/tes/dave_quad.c ****          break;
 2298                             		.loc 1 431 10 is_stmt 1 view .LVU810
 431:../src/smc_gen/r_drw2d_rx/src/tes/dave_quad.c ****          break;
 2299                             		.loc 1 431 16 is_stmt 0 view .LVU811
 2300 0246 3E 01 03                		mov.L	#3, 4[r0]
 2301 0249 90 0F                   		mov.W	r7, 2[r0]
 2302 024b D3 0B                   		mov.W	r11, [r0]
 2303 024d DF 64                   		mov.W	r6, r4
 2304 024f DF 93                   		mov.W	r9, r3
 2305 0251 DF C2                   		mov.W	r12, r2
 2306 0253 EF A1                   		mov.L	r10, r1
 2307 0255 05 00 00 00             		bsr	_d2_renderline_outline_I
 2308                             	.LVL248:
 432:../src/smc_gen/r_drw2d_rx/src/tes/dave_quad.c **** 
 2309                             		.loc 1 432 10 is_stmt 1 view .LVU812
 2310 0259 38 21 FE                		bra	.L84
 2311                             	.LVL249:
 2312                             	.L109:
 435:../src/smc_gen/r_drw2d_rx/src/tes/dave_quad.c ****          (void)d2_renderline_outline_I( handle, x4, y4, x3, y3, wo, d2_le_exclude_both );
 2313                             		.loc 1 435 10 view .LVU813
 435:../src/smc_gen/r_drw2d_rx/src/tes/dave_quad.c ****          (void)d2_renderline_outline_I( handle, x4, y4, x3, y3, wo, d2_le_exclude_both );
 2314                             		.loc 1 435 16 is_stmt 0 view .LVU814
 2315 025c 3E 01 03                		mov.L	#3, 4[r0]
 2316 025f 90 0F                   		mov.W	r7, 2[r0]
 2317 0261 D3 03                   		mov.W	r3, [r0]
 2318 0263 DF 24                   		mov.W	r2, r4
 2319                             	.LVL250:
 435:../src/smc_gen/r_drw2d_rx/src/tes/dave_quad.c ****          (void)d2_renderline_outline_I( handle, x4, y4, x3, y3, wo, d2_le_exclude_both );
 2320                             		.loc 1 435 16 view .LVU815
 2321 0265 DF B3                   		mov.W	r11, r3
 2322                             	.LVL251:
 435:../src/smc_gen/r_drw2d_rx/src/tes/dave_quad.c ****          (void)d2_renderline_outline_I( handle, x4, y4, x3, y3, wo, d2_le_exclude_both );
 2323                             		.loc 1 435 16 view .LVU816
 2324 0267 DF 62                   		mov.W	r6, r2
 2325                             	.LVL252:
 435:../src/smc_gen/r_drw2d_rx/src/tes/dave_quad.c ****          (void)d2_renderline_outline_I( handle, x4, y4, x3, y3, wo, d2_le_exclude_both );
 2326                             		.loc 1 435 16 view .LVU817
 2327 0269 05 00 00 00             		bsr	_d2_renderline_outline_I
 2328                             	.LVL253:
 436:../src/smc_gen/r_drw2d_rx/src/tes/dave_quad.c ****          break;
 2329                             		.loc 1 436 10 is_stmt 1 view .LVU818
 436:../src/smc_gen/r_drw2d_rx/src/tes/dave_quad.c ****          break;
 2330                             		.loc 1 436 16 is_stmt 0 view .LVU819
 2331 026d 3E 01 03                		mov.L	#3, 4[r0]
 2332 0270 90 0F                   		mov.W	r7, 2[r0]
 2333 0272 D3 09                   		mov.W	r9, [r0]
 2334 0274 DF C4                   		mov.W	r12, r4
 2335 0276 DF D3                   		mov.W	r13, r3
 2336 0278 DF 82                   		mov.W	r8, r2
 2337 027a EF A1                   		mov.L	r10, r1
 2338 027c 05 00 00 00             		bsr	_d2_renderline_outline_I
 2339                             	.LVL254:
 437:../src/smc_gen/r_drw2d_rx/src/tes/dave_quad.c **** 
 2340                             		.loc 1 437 10 is_stmt 1 view .LVU820
 2341 0280 38 FA FD                		bra	.L84
 2342                             	.LVL255:
 2343                             	.L85:
 441:../src/smc_gen/r_drw2d_rx/src/tes/dave_quad.c ****          break;
 2344                             		.loc 1 441 10 view .LVU821
 441:../src/smc_gen/r_drw2d_rx/src/tes/dave_quad.c ****          break;
 2345                             		.loc 1 441 16 is_stmt 0 view .LVU822
 2346 0283 3E 01 03                		mov.L	#3, 4[r0]
 2347 0286 90 0F                   		mov.W	r7, 2[r0]
 2348 0288 D3 0D                   		mov.W	r13, [r0]
 2349 028a DF 84                   		mov.W	r8, r4
 2350                             	.LVL256:
 441:../src/smc_gen/r_drw2d_rx/src/tes/dave_quad.c ****          break;
 2351                             		.loc 1 441 16 view .LVU823
 2352 028c 05 00 00 00             		bsr	_d2_renderline_outline_I
 2353                             	.LVL257:
 442:../src/smc_gen/r_drw2d_rx/src/tes/dave_quad.c **** 
 2354                             		.loc 1 442 10 is_stmt 1 view .LVU824
 2355 0290 38 EA FD                		bra	.L84
 2356                             	.LVL258:
 2357                             	.L95:
 445:../src/smc_gen/r_drw2d_rx/src/tes/dave_quad.c ****          break;
 2358                             		.loc 1 445 10 view .LVU825
 445:../src/smc_gen/r_drw2d_rx/src/tes/dave_quad.c ****          break;
 2359                             		.loc 1 445 16 is_stmt 0 view .LVU826
 2360 0293 3E 01 03                		mov.L	#3, 4[r0]
 2361 0296 90 0F                   		mov.W	r7, 2[r0]
 2362 0298 D3 09                   		mov.W	r9, [r0]
 2363 029a DF C4                   		mov.W	r12, r4
 2364                             	.LVL259:
 445:../src/smc_gen/r_drw2d_rx/src/tes/dave_quad.c ****          break;
 2365                             		.loc 1 445 16 view .LVU827
 2366 029c DF D3                   		mov.W	r13, r3
 2367                             	.LVL260:
 445:../src/smc_gen/r_drw2d_rx/src/tes/dave_quad.c ****          break;
 2368                             		.loc 1 445 16 view .LVU828
 2369 029e DF 82                   		mov.W	r8, r2
 2370                             	.LVL261:
 445:../src/smc_gen/r_drw2d_rx/src/tes/dave_quad.c ****          break;
 2371                             		.loc 1 445 16 view .LVU829
 2372 02a0 05 00 00 00             		bsr	_d2_renderline_outline_I
 2373                             	.LVL262:
 446:../src/smc_gen/r_drw2d_rx/src/tes/dave_quad.c **** 
 2374                             		.loc 1 446 10 is_stmt 1 view .LVU830
 2375 02a4 38 D6 FD                		bra	.L84
 2376                             	.LVL263:
 2377                             	.L100:
 449:../src/smc_gen/r_drw2d_rx/src/tes/dave_quad.c ****          break;
 2378                             		.loc 1 449 10 view .LVU831
 449:../src/smc_gen/r_drw2d_rx/src/tes/dave_quad.c ****          break;
 2379                             		.loc 1 449 16 is_stmt 0 view .LVU832
 2380 02a7 3E 01 03                		mov.L	#3, 4[r0]
 2381 02aa 90 0F                   		mov.W	r7, 2[r0]
 2382 02ac D3 0B                   		mov.W	r11, [r0]
 2383 02ae DF 93                   		mov.W	r9, r3
 2384                             	.LVL264:
 449:../src/smc_gen/r_drw2d_rx/src/tes/dave_quad.c ****          break;
 2385                             		.loc 1 449 16 view .LVU833
 2386 02b0 DF C2                   		mov.W	r12, r2
 2387                             	.LVL265:
 449:../src/smc_gen/r_drw2d_rx/src/tes/dave_quad.c ****          break;
 2388                             		.loc 1 449 16 view .LVU834
 2389 02b2 05 00 00 00             		bsr	_d2_renderline_outline_I
 2390                             	.LVL266:
 450:../src/smc_gen/r_drw2d_rx/src/tes/dave_quad.c **** 
 2391                             		.loc 1 450 10 is_stmt 1 view .LVU835
 2392 02b6 38 C4 FD                		bra	.L84
 2393                             	.LFE7:
 2395 02b9 FD 70 40 00 00 00 80    		.section	.text.d2_renderquad_solid,"ax",@progbits
 2396                             		.global	_d2_renderquad_solid
 2398                             	_d2_renderquad_solid:
 2399                             	.LVL267:
 2400                             	.LFB8:
 464:../src/smc_gen/r_drw2d_rx/src/tes/dave_quad.c **** 
 465:../src/smc_gen/r_drw2d_rx/src/tes/dave_quad.c **** /*--------------------------------------------------------------------------
 466:../src/smc_gen/r_drw2d_rx/src/tes/dave_quad.c ****  *
 467:../src/smc_gen/r_drw2d_rx/src/tes/dave_quad.c ****  * */
 468:../src/smc_gen/r_drw2d_rx/src/tes/dave_quad.c **** d2_s32 d2_renderquad_solid( d2_device *handle, d2_point x1, d2_point y1, d2_point x2, d2_point y2, 
 469:../src/smc_gen/r_drw2d_rx/src/tes/dave_quad.c **** {
 2401                             		.loc 1 469 1 view -0
 2402                             		.loc 1 469 1 is_stmt 0 view .LVU837
 2403 0000 7E A7                   		push.l	r7
 2404                             	.LCFI4:
 2405                             		.loc 1 469 1 view .LVU838
 2406 0002 71 00 E0                		add	#-32, r0
 2407                             	.LCFI5:
 2408 0005 75 47 28                		mov.L	#40, r7
 2409 0008 4B 07                   		add	r0, r7
 470:../src/smc_gen/r_drw2d_rx/src/tes/dave_quad.c ****    (void)d2_renderquad_intern( D2_DEV(handle), D2_DEV(handle)->ctxsolid, x1,y1, x2,y2, x3,y3, x4,y4
 2410                             		.loc 1 470 4 is_stmt 1 view .LVU839
 2411                             		.loc 1 470 10 is_stmt 0 view .LVU840
 2412 000a AA 95                   		mov.L	40[r1], r5
 2413 000c E5 70 03 03             		mov.L	12[r7], 12[r0]
 2414 0010 D5 70 04 05             		mov.W	8[r7], 10[r0]
 2415 0014 D5 70 03 04             		mov.W	6[r7], 8[r0]
 2416 0018 D5 70 02 03             		mov.W	4[r7], 6[r0]
 2417 001c D5 70 01 02             		mov.W	2[r7], 4[r0]
 2418 0020 D4 70 01                		mov.W	[r7], 2[r0]
 2419 0023 D3 04                   		mov.W	r4, [r0]
 2420 0025 DF 34                   		mov.W	r3, r4
 2421                             	.LVL268:
 2422                             		.loc 1 470 10 view .LVU841
 2423 0027 DF 23                   		mov.W	r2, r3
 2424                             	.LVL269:
 2425                             		.loc 1 470 10 view .LVU842
 2426 0029 EF 52                   		mov.L	r5, r2
 2427                             	.LVL270:
 2428                             		.loc 1 470 10 view .LVU843
 2429 002b 05 00 00 00             		bsr	_d2_renderquad_intern
 2430                             	.LVL271:
 471:../src/smc_gen/r_drw2d_rx/src/tes/dave_quad.c ****       
 472:../src/smc_gen/r_drw2d_rx/src/tes/dave_quad.c ****    /* HACK: replaced with rendering two triangles */
 473:../src/smc_gen/r_drw2d_rx/src/tes/dave_quad.c **** /*
 474:../src/smc_gen/r_drw2d_rx/src/tes/dave_quad.c ****   d2_rendertri_solid( handle, x1,y1, x2,y2, x3,y3, flags | d2_edge2_shared );
 475:../src/smc_gen/r_drw2d_rx/src/tes/dave_quad.c ****   d2_rendertri_solid( handle, x3,y3, x4,y4, x1,y1, (flags >> 2) | d2_edge2_shared );
 476:../src/smc_gen/r_drw2d_rx/src/tes/dave_quad.c **** */
 477:../src/smc_gen/r_drw2d_rx/src/tes/dave_quad.c ****  
 478:../src/smc_gen/r_drw2d_rx/src/tes/dave_quad.c ****    return D2_OK;
 2431                             		.loc 1 478 4 is_stmt 1 view .LVU844
 479:../src/smc_gen/r_drw2d_rx/src/tes/dave_quad.c **** }
 2432                             		.loc 1 479 1 is_stmt 0 view .LVU845
 2433 002f 66 01                   		mov.L	#0, r1
 2434 0031 3F 77 09                		rtsd	#36, r7-r7
 2435                             	.LFE8:
 2437                             		.section	.text.d2_renderquad_solidoutline,"ax",@progbits
 2438                             		.global	_d2_renderquad_solidoutline
 2440                             	_d2_renderquad_solidoutline:
 2441                             	.LVL272:
 2442                             	.LFB9:
 480:../src/smc_gen/r_drw2d_rx/src/tes/dave_quad.c **** 
 481:../src/smc_gen/r_drw2d_rx/src/tes/dave_quad.c **** /*--------------------------------------------------------------------------
 482:../src/smc_gen/r_drw2d_rx/src/tes/dave_quad.c ****  *
 483:../src/smc_gen/r_drw2d_rx/src/tes/dave_quad.c ****  * */
 484:../src/smc_gen/r_drw2d_rx/src/tes/dave_quad.c **** d2_s32 d2_renderquad_solidoutline( d2_device *handle, d2_point x1, d2_point y1, d2_point x2, d2_poi
 485:../src/smc_gen/r_drw2d_rx/src/tes/dave_quad.c **** {
 2443                             		.loc 1 485 1 is_stmt 1 view -0
 2444                             		.loc 1 485 1 is_stmt 0 view .LVU847
 2445 0000 6E 6D                   		pushm	r6-r13
 2446                             	.LCFI6:
 2447                             		.loc 1 485 1 view .LVU848
 2448 0002 71 00 DC                		add	#-36, r0
 2449                             	.LCFI7:
 2450 0005 75 47 48                		mov.L	#0x48, r7
 2451 0008 4B 07                   		add	r0, r7
 2452 000a EF 1A                   		mov.L	r1, r10
 2453 000c 92 02                   		mov.W	r2, 16[r0]
 2454 000e DF 3D                   		mov.W	r3, r13
 2455 0010 92 0C                   		mov.W	r4, 18[r0]
 2456 0012 DC 78                   		mov.W	[r7], r8
 2457 0014 98 7E                   		mov.W	2[r7], r6
 2458 0016 DD 7B 02                		mov.W	4[r7], r11
 2459 0019 DD 7C 03                		mov.W	6[r7], r12
 2460 001c DD 79 04                		mov.W	8[r7], r9
 2461 001f A8 FF                   		mov.L	12[r7], r7
 486:../src/smc_gen/r_drw2d_rx/src/tes/dave_quad.c **** 
 487:../src/smc_gen/r_drw2d_rx/src/tes/dave_quad.c ****    /* render outline */
 488:../src/smc_gen/r_drw2d_rx/src/tes/dave_quad.c ****    (void)d2_renderquad_outline( handle, x1,y1, x2,y2, x3,y3, x4,y4, flags );
 2462                             		.loc 1 488 4 is_stmt 1 view .LVU849
 2463                             		.loc 1 488 10 is_stmt 0 view .LVU850
 2464 0021 A0 8F                   		mov.L	r7, 12[r0]
 2465 0023 D7 09 04                		mov.W	r9, 8[r0]
 2466 0026 D7 0C 03                		mov.W	r12, 6[r0]
 2467 0029 D7 0B 02                		mov.W	r11, 4[r0]
 2468 002c 90 0E                   		mov.W	r6, 2[r0]
 2469 002e D3 08                   		mov.W	r8, [r0]
 2470 0030 05 00 00 00             		bsr	_d2_renderquad_outline
 2471                             	.LVL273:
 489:../src/smc_gen/r_drw2d_rx/src/tes/dave_quad.c **** 
 490:../src/smc_gen/r_drw2d_rx/src/tes/dave_quad.c ****    /* render solid [base part] */
 491:../src/smc_gen/r_drw2d_rx/src/tes/dave_quad.c ****    d2_rendertolayer_intern( handle );
 2472                             		.loc 1 491 4 is_stmt 1 view .LVU851
 2473 0034 EF A1                   		mov.L	r10, r1
 2474 0036 05 00 00 00             		bsr	_d2_rendertolayer_intern
 2475                             	.LVL274:
 492:../src/smc_gen/r_drw2d_rx/src/tes/dave_quad.c ****    (void)d2_renderquad_intern( D2_DEV(handle), D2_DEV(handle)->ctxsolid, x1,y1, x2,y2, x3,y3, x4,y4
 2476                             		.loc 1 492 4 view .LVU852
 2477                             		.loc 1 492 10 is_stmt 0 view .LVU853
 2478 003a A0 8F                   		mov.L	r7, 12[r0]
 2479 003c D7 09 05                		mov.W	r9, 10[r0]
 2480 003f D7 0C 04                		mov.W	r12, 8[r0]
 2481 0042 D7 0B 03                		mov.W	r11, 6[r0]
 2482 0045 90 86                   		mov.W	r6, 4[r0]
 2483 0047 D7 08 01                		mov.W	r8, 2[r0]
 2484 004a D1 00 09                		mov.W	18[r0], [r0]
 2485 004d DF D4                   		mov.W	r13, r4
 2486 004f 9A 03                   		mov.W	16[r0], r3
 2487 0051 ED A2 0A                		mov.L	40[r10], r2
 2488 0054 EF A1                   		mov.L	r10, r1
 2489 0056 05 00 00 00             		bsr	_d2_renderquad_intern
 2490                             	.LVL275:
 493:../src/smc_gen/r_drw2d_rx/src/tes/dave_quad.c **** 
 494:../src/smc_gen/r_drw2d_rx/src/tes/dave_quad.c ****    d2_rendertobase_intern( handle );
 2491                             		.loc 1 494 4 is_stmt 1 view .LVU854
 2492 005a EF A1                   		mov.L	r10, r1
 2493 005c 05 00 00 00             		bsr	_d2_rendertobase_intern
 2494                             	.LVL276:
 495:../src/smc_gen/r_drw2d_rx/src/tes/dave_quad.c ****    return D2_OK;
 2495                             		.loc 1 495 4 view .LVU855
 496:../src/smc_gen/r_drw2d_rx/src/tes/dave_quad.c **** }
 2496                             		.loc 1 496 1 is_stmt 0 view .LVU856
 2497 0060 66 01                   		mov.L	#0, r1
 2498 0062 3F 6D 11                		rtsd	#68, r6-r13
 2499                             		.loc 1 496 1 view .LVU857
 2500                             	.LFE9:
 2502                             		.section	.text.d2_renderquad_shadow,"ax",@progbits
 2503                             		.global	_d2_renderquad_shadow
 2505                             	_d2_renderquad_shadow:
 2506                             	.LVL277:
 2507                             	.LFB10:
 497:../src/smc_gen/r_drw2d_rx/src/tes/dave_quad.c **** 
 498:../src/smc_gen/r_drw2d_rx/src/tes/dave_quad.c **** /*--------------------------------------------------------------------------
 499:../src/smc_gen/r_drw2d_rx/src/tes/dave_quad.c ****  *
 500:../src/smc_gen/r_drw2d_rx/src/tes/dave_quad.c ****  * */
 501:../src/smc_gen/r_drw2d_rx/src/tes/dave_quad.c **** d2_s32 d2_renderquad_shadow( d2_device *handle, d2_point x1, d2_point y1, d2_point x2, d2_point y2,
 502:../src/smc_gen/r_drw2d_rx/src/tes/dave_quad.c **** {
 2508                             		.loc 1 502 1 is_stmt 1 view -0
 2509                             		.loc 1 502 1 is_stmt 0 view .LVU859
 2510 0000 6E 6C                   		pushm	r6-r12
 2511                             	.LCFI8:
 2512                             		.loc 1 502 1 view .LVU860
 2513 0002 71 00 E0                		add	#-32, r0
 2514                             	.LCFI9:
 2515 0005 75 47 40                		mov.L	#0x40, r7
 2516 0008 4B 07                   		add	r0, r7
 2517 000a DC 76                   		mov.W	[r7], r6
 2518 000c DD 7B 01                		mov.W	2[r7], r11
 2519 000f DD 7C 02                		mov.W	4[r7], r12
 2520 0012 DD 79 03                		mov.W	6[r7], r9
 2521 0015 DD 78 04                		mov.W	8[r7], r8
 503:../src/smc_gen/r_drw2d_rx/src/tes/dave_quad.c ****    d2_point sx,sy;
 2522                             		.loc 1 503 4 is_stmt 1 view .LVU861
 504:../src/smc_gen/r_drw2d_rx/src/tes/dave_quad.c **** 
 505:../src/smc_gen/r_drw2d_rx/src/tes/dave_quad.c ****    sx = D2_DEV(handle)->soffx;
 2523                             		.loc 1 505 4 view .LVU862
 2524                             		.loc 1 505 7 is_stmt 0 view .LVU863
 2525 0018 DD 15 37                		mov.W	110[r1], r5
 2526                             	.LVL278:
 506:../src/smc_gen/r_drw2d_rx/src/tes/dave_quad.c ****    sy = D2_DEV(handle)->soffy;
 2527                             		.loc 1 506 4 is_stmt 1 view .LVU864
 2528                             		.loc 1 506 7 is_stmt 0 view .LVU865
 2529 001b DD 1E 38                		mov.W	112[r1], r14
 2530                             	.LVL279:
 507:../src/smc_gen/r_drw2d_rx/src/tes/dave_quad.c **** 
 508:../src/smc_gen/r_drw2d_rx/src/tes/dave_quad.c ****    /* render shadow */
 509:../src/smc_gen/r_drw2d_rx/src/tes/dave_quad.c ****    (void)d2_renderquad_intern( D2_DEV(handle), D2_DEV(handle)->ctxoutline, (d2_point)(x1+sx),(d2_po
 2531                             		.loc 1 509 4 is_stmt 1 view .LVU866
 2532                             		.loc 1 509 126 is_stmt 0 view .LVU867
 2533 001e 4B 54                   		add	r5, r4
 2534                             	.LVL280:
 2535                             		.loc 1 509 144 view .LVU868
 2536 0020 4B E6                   		add	r14, r6
 2537                             		.loc 1 509 163 view .LVU869
 2538 0022 4B 5B                   		add	r5, r11
 2539                             		.loc 1 509 182 view .LVU870
 2540 0024 4B EC                   		add	r14, r12
 2541                             		.loc 1 509 201 view .LVU871
 2542 0026 4B 59                   		add	r5, r9
 2543                             		.loc 1 509 220 view .LVU872
 2544 0028 4B E8                   		add	r14, r8
 2545                             		.loc 1 509 10 view .LVU873
 2546 002a E5 70 03 03             		mov.L	12[r7], 12[r0]
 2547 002e D7 08 05                		mov.W	r8, 10[r0]
 2548 0031 D7 09 04                		mov.W	r9, 8[r0]
 2549 0034 D7 0C 03                		mov.W	r12, 6[r0]
 2550 0037 D7 0B 02                		mov.W	r11, 4[r0]
 2551 003a 90 0E                   		mov.W	r6, 2[r0]
 2552 003c D3 04                   		mov.W	r4, [r0]
 2553 003e FF 24 E3                		add	r14, r3, r4
 2554 0041 FF 23 52                		add	r5, r2, r3
 2555                             	.LVL281:
 2556                             		.loc 1 509 10 view .LVU874
 2557 0044 AA 9A                   		mov.L	44[r1], r2
 2558                             	.LVL282:
 2559                             		.loc 1 509 10 view .LVU875
 2560 0046 05 00 00 00             		bsr	_d2_renderquad_intern
 2561                             	.LVL283:
 510:../src/smc_gen/r_drw2d_rx/src/tes/dave_quad.c **** 
 511:../src/smc_gen/r_drw2d_rx/src/tes/dave_quad.c ****    return D2_OK;
 2562                             		.loc 1 511 4 is_stmt 1 view .LVU876
 512:../src/smc_gen/r_drw2d_rx/src/tes/dave_quad.c **** }
 2563                             		.loc 1 512 1 is_stmt 0 view .LVU877
 2564 004a 66 01                   		mov.L	#0, r1
 2565 004c 3F 6C 0F                		rtsd	#60, r6-r12
 2566                             	.LFE10:
 2568                             		.section	.text.d2_renderquad_solidshadow,"ax",@progbits
 2569                             		.global	_d2_renderquad_solidshadow
 2571                             	_d2_renderquad_solidshadow:
 2572                             	.LVL284:
 2573                             	.LFB11:
 513:../src/smc_gen/r_drw2d_rx/src/tes/dave_quad.c **** 
 514:../src/smc_gen/r_drw2d_rx/src/tes/dave_quad.c **** /*--------------------------------------------------------------------------
 515:../src/smc_gen/r_drw2d_rx/src/tes/dave_quad.c ****  *
 516:../src/smc_gen/r_drw2d_rx/src/tes/dave_quad.c ****  * */
 517:../src/smc_gen/r_drw2d_rx/src/tes/dave_quad.c **** d2_s32 d2_renderquad_solidshadow( d2_device *handle, d2_point x1, d2_point y1, d2_point x2, d2_poin
 518:../src/smc_gen/r_drw2d_rx/src/tes/dave_quad.c **** {
 2574                             		.loc 1 518 1 is_stmt 1 view -0
 2575                             		.loc 1 518 1 is_stmt 0 view .LVU879
 2576 0000 6E 6D                   		pushm	r6-r13
 2577                             	.LCFI10:
 2578                             		.loc 1 518 1 view .LVU880
 2579 0002 71 00 CC                		add	#-52, r0
 2580                             	.LCFI11:
 2581 0005 75 47 58                		mov.L	#0x58, r7
 2582 0008 4B 07                   		add	r0, r7
 2583 000a EF 1A                   		mov.L	r1, r10
 2584 000c DF 26                   		mov.W	r2, r6
 2585 000e DF 3B                   		mov.W	r3, r11
 2586 0010 DF 4C                   		mov.W	r4, r12
 2587 0012 DC 7D                   		mov.W	[r7], r13
 2588 0014 D5 70 01 08             		mov.W	2[r7], 16[r0]
 2589 0018 D5 70 02 0A             		mov.W	4[r7], 20[r0]
 2590 001c DD 79 03                		mov.W	6[r7], r9
 2591 001f DD 78 04                		mov.W	8[r7], r8
 2592 0022 E5 70 03 06             		mov.L	12[r7], 24[r0]
 519:../src/smc_gen/r_drw2d_rx/src/tes/dave_quad.c ****    d2_point sx,sy;
 2593                             		.loc 1 519 4 is_stmt 1 view .LVU881
 520:../src/smc_gen/r_drw2d_rx/src/tes/dave_quad.c **** 
 521:../src/smc_gen/r_drw2d_rx/src/tes/dave_quad.c ****    sx = D2_DEV(handle)->soffx;
 2594                             		.loc 1 521 4 view .LVU882
 2595                             		.loc 1 521 7 is_stmt 0 view .LVU883
 2596 0026 DD 13 37                		mov.W	110[r1], r3
 2597                             	.LVL285:
 522:../src/smc_gen/r_drw2d_rx/src/tes/dave_quad.c ****    sy = D2_DEV(handle)->soffy;
 2598                             		.loc 1 522 4 is_stmt 1 view .LVU884
 2599                             		.loc 1 522 7 is_stmt 0 view .LVU885
 2600 0029 DD 14 38                		mov.W	112[r1], r4
 2601                             	.LVL286:
 523:../src/smc_gen/r_drw2d_rx/src/tes/dave_quad.c **** 
 524:../src/smc_gen/r_drw2d_rx/src/tes/dave_quad.c ****    /* render shadow */
 525:../src/smc_gen/r_drw2d_rx/src/tes/dave_quad.c ****    (void)d2_renderquad_intern( D2_DEV(handle), D2_DEV(handle)->ctxoutline, (d2_point)(x1+sx), (d2_p
 2602                             		.loc 1 525 4 is_stmt 1 view .LVU886
 2603                             		.loc 1 525 127 is_stmt 0 view .LVU887
 2604 002c FF 25 3C                		add	r3, r12, r5
 2605                             		.loc 1 525 146 view .LVU888
 2606 002f FF 22 4D                		add	r4, r13, r2
 2607                             	.LVL287:
 2608                             		.loc 1 525 165 view .LVU889
 2609 0032 9A 07                   		mov.W	16[r0], r7
 2610 0034 4B 37                   		add	r3, r7
 2611 0036 A2 07                   		mov.L	r7, 32[r0]
 2612                             		.loc 1 525 184 view .LVU890
 2613 0038 DD 0F 0A                		mov.W	20[r0], r15
 2614 003b 4B 4F                   		add	r4, r15
 2615                             		.loc 1 525 203 view .LVU891
 2616 003d FF 27 39                		add	r3, r9, r7
 2617                             		.loc 1 525 222 view .LVU892
 2618 0040 FF 2E 48                		add	r4, r8, r14
 2619                             		.loc 1 525 10 view .LVU893
 2620 0043 E5 00 06 03             		mov.L	24[r0], 12[r0]
 2621 0047 D7 0E 05                		mov.W	r14, 10[r0]
 2622 004a 91 07                   		mov.W	r7, 8[r0]
 2623 004c D7 0F 03                		mov.W	r15, 6[r0]
 2624 004f AA 07                   		mov.L	32[r0], r7
 2625 0051 90 87                   		mov.W	r7, 4[r0]
 2626 0053 90 0A                   		mov.W	r2, 2[r0]
 2627 0055 D3 05                   		mov.W	r5, [r0]
 2628 0057 4B B4                   		add	r11, r4
 2629                             	.LVL288:
 2630                             		.loc 1 525 10 view .LVU894
 2631 0059 4B 63                   		add	r6, r3
 2632                             	.LVL289:
 2633                             		.loc 1 525 10 view .LVU895
 2634 005b AA 9A                   		mov.L	44[r1], r2
 2635 005d 05 00 00 00             		bsr	_d2_renderquad_intern
 2636                             	.LVL290:
 526:../src/smc_gen/r_drw2d_rx/src/tes/dave_quad.c **** 
 527:../src/smc_gen/r_drw2d_rx/src/tes/dave_quad.c ****    /* render solid [base part] */
 528:../src/smc_gen/r_drw2d_rx/src/tes/dave_quad.c ****    d2_rendertolayer_intern( handle );
 2637                             		.loc 1 528 4 is_stmt 1 view .LVU896
 2638 0061 EF A1                   		mov.L	r10, r1
 2639 0063 05 00 00 00             		bsr	_d2_rendertolayer_intern
 2640                             	.LVL291:
 529:../src/smc_gen/r_drw2d_rx/src/tes/dave_quad.c ****    (void)d2_renderquad_intern( D2_DEV(handle), D2_DEV(handle)->ctxsolid, x1, y1, x2, y2, x3, y3, x4
 2641                             		.loc 1 529 4 view .LVU897
 2642                             		.loc 1 529 10 is_stmt 0 view .LVU898
 2643 0067 E5 00 06 03             		mov.L	24[r0], 12[r0]
 2644 006b D7 08 05                		mov.W	r8, 10[r0]
 2645 006e D7 09 04                		mov.W	r9, 8[r0]
 2646 0071 D5 00 0A 03             		mov.W	20[r0], 6[r0]
 2647 0075 D5 00 08 02             		mov.W	16[r0], 4[r0]
 2648 0079 D7 0D 01                		mov.W	r13, 2[r0]
 2649 007c D3 0C                   		mov.W	r12, [r0]
 2650 007e DF B4                   		mov.W	r11, r4
 2651 0080 DF 63                   		mov.W	r6, r3
 2652 0082 ED A2 0A                		mov.L	40[r10], r2
 2653 0085 EF A1                   		mov.L	r10, r1
 2654 0087 05 00 00 00             		bsr	_d2_renderquad_intern
 2655                             	.LVL292:
 530:../src/smc_gen/r_drw2d_rx/src/tes/dave_quad.c **** 
 531:../src/smc_gen/r_drw2d_rx/src/tes/dave_quad.c ****    d2_rendertobase_intern( handle );
 2656                             		.loc 1 531 4 is_stmt 1 view .LVU899
 2657 008b EF A1                   		mov.L	r10, r1
 2658 008d 05 00 00 00             		bsr	_d2_rendertobase_intern
 2659                             	.LVL293:
 532:../src/smc_gen/r_drw2d_rx/src/tes/dave_quad.c **** 
 533:../src/smc_gen/r_drw2d_rx/src/tes/dave_quad.c ****    return D2_OK;
 2660                             		.loc 1 533 4 view .LVU900
 534:../src/smc_gen/r_drw2d_rx/src/tes/dave_quad.c **** }
 2661                             		.loc 1 534 1 is_stmt 0 view .LVU901
 2662 0091 66 01                   		mov.L	#0, r1
 2663 0093 3F 6D 15                		rtsd	#84, r6-r13
 2664                             		.loc 1 534 1 view .LVU902
 2665                             	.LFE11:
 2861                             	.Letext0:
 2862                             		.file 3 "D:\\e2_studio\\workspace\\FULLMONI_WIDE\\Firmware\\src\\smc_gen\\r_drw2d_rx\\inc\\tes/dav
 2863                             		.file 4 "D:\\e2_studio\\workspace\\FULLMONI_WIDE\\Firmware\\src\\smc_gen\\r_drw2d_rx\\inc\\tes/dav
 2864                             		.file 5 "../src/smc_gen/r_drw2d_rx/src/tes/dave_dlist.h"
 2865                             		.file 6 "../src/smc_gen/r_drw2d_rx/src/tes/dave_rbuffer.h"
 2866                             		.file 7 "../src/smc_gen/r_drw2d_rx/src/tes/dave_gradient.h"
 2867                             		.file 8 "../src/smc_gen/r_drw2d_rx/src/tes/dave_context.h"
 2868                             		.file 9 "../src/smc_gen/r_drw2d_rx/src/tes/dave_polyline.h"
 2869                             		.file 10 "../src/smc_gen/r_drw2d_rx/src/tes/dave_line.h"
 2870                             		.file 11 "../src/smc_gen/r_drw2d_rx/src/tes/dave_edge.h"
 2871                             		.file 12 "../src/smc_gen/r_drw2d_rx/src/tes/dave_pattern.h"
 2872                             		.file 13 "../src/smc_gen/r_drw2d_rx/src/tes/dave_texture.h"
 2873                             		.file 14 "../src/smc_gen/r_drw2d_rx/src/tes/dave_viewport.h"
 2874                             		.file 15 "../src/smc_gen/r_drw2d_rx/src/tes/dave_render.h"
