   1                             		.file	"dave_driver.c"
   2                             		.section P,"ax"
   3                             	.Ltext0:
   4                             		.section	.text.d2_strcpy,"ax",@progbits
   6                             	_d2_strcpy:
   7                             	.LVL0:
   8                             	.LFB17:
   9                             		.file 1 "../src/smc_gen/r_drw2d_rx/src/tes/dave_driver.c"
   1:../src/smc_gen/r_drw2d_rx/src/tes/dave_driver.c **** /*--------------------------------------------------------------------------
   2:../src/smc_gen/r_drw2d_rx/src/tes/dave_driver.c ****  * Project: D/AVE
   3:../src/smc_gen/r_drw2d_rx/src/tes/dave_driver.c ****  * File:    dave_driver.c (%version: 51 %)
   4:../src/smc_gen/r_drw2d_rx/src/tes/dave_driver.c ****  *          created Mon Jan 10 13:38:34 2005 by hh04027
   5:../src/smc_gen/r_drw2d_rx/src/tes/dave_driver.c ****  *
   6:../src/smc_gen/r_drw2d_rx/src/tes/dave_driver.c ****  * Description:
   7:../src/smc_gen/r_drw2d_rx/src/tes/dave_driver.c ****  *  %date_modified: Mon Mar 12 15:29:14 2007 %  (%derived_by:  hh74026 %)
   8:../src/smc_gen/r_drw2d_rx/src/tes/dave_driver.c ****  *
   9:../src/smc_gen/r_drw2d_rx/src/tes/dave_driver.c ****  * Changes:
  10:../src/smc_gen/r_drw2d_rx/src/tes/dave_driver.c ****  *  2005-12-22 CSe  removed transfermode field, added flags field in d2_opendevice()
  11:../src/smc_gen/r_drw2d_rx/src/tes/dave_driver.c ****  *  2006-02-16 CSe  added performance counter support + cache burstmodes
  12:../src/smc_gen/r_drw2d_rx/src/tes/dave_driver.c ****  *  2006-02-28 CSe  removed d2_df_dlist_big_endian which is now handled by hw
  13:../src/smc_gen/r_drw2d_rx/src/tes/dave_driver.c ****  *  2006-04-12 CSe  completed documentation for d2_opendevice
  14:../src/smc_gen/r_drw2d_rx/src/tes/dave_driver.c ****  *  2006-04-13 CSe  extended hwrevision for performance counter feature bit
  15:../src/smc_gen/r_drw2d_rx/src/tes/dave_driver.c ****  *  2006-05-10 CSe  moved initialization of dlists from d2_opendevice to d2_inithw
  16:../src/smc_gen/r_drw2d_rx/src/tes/dave_driver.c ****  *  2006-10-30 CSe  removed waitdlist flag
  17:../src/smc_gen/r_drw2d_rx/src/tes/dave_driver.c ****  *  2006-11-07 CSe  added dlist_buffer to device struct for 'd2_df_low_localmem' mode
  18:../src/smc_gen/r_drw2d_rx/src/tes/dave_driver.c ****  *  2007-03-01 MGe  added check of null values after creation of renderbuffers
  19:../src/smc_gen/r_drw2d_rx/src/tes/dave_driver.c ****  *  2007-03-12 CSe  fixed error in d2_lowlocalmemmode
  20:../src/smc_gen/r_drw2d_rx/src/tes/dave_driver.c ****  *  2007-05-23 MGe  added null checks in d2_inithw; initalize delayed_errorcode in context
  21:../src/smc_gen/r_drw2d_rx/src/tes/dave_driver.c ****  *  2007-08-30 ASc  replaced clib functions, removed tabs, added description for
  22:../src/smc_gen/r_drw2d_rx/src/tes/dave_driver.c ****  *                  d2_getrendermode, changed C++ to C comments, changed g_versionid
  23:../src/smc_gen/r_drw2d_rx/src/tes/dave_driver.c ****  *  2007-09-10 ASc  smaller updates of d2_lowlocalmemmode and d2_inithw
  24:../src/smc_gen/r_drw2d_rx/src/tes/dave_driver.c ****  *  2008-01-15 ASc  add error checking for d2_geterror and d2_geterrorstr
  25:../src/smc_gen/r_drw2d_rx/src/tes/dave_driver.c ****  *  2010-07-08 MRe  fixed support for register caching defined by D2_USEREGCACHE
  26:../src/smc_gen/r_drw2d_rx/src/tes/dave_driver.c ****  *  2010-07-08 MRe  new device flag d2_df_no_registercaching
  27:../src/smc_gen/r_drw2d_rx/src/tes/dave_driver.c ****  *  2011-03-10 MRe  fixed delayed error handling in d2_geterror
  28:../src/smc_gen/r_drw2d_rx/src/tes/dave_driver.c ****  *  2011-03-11 MRe  improved/removed context backup for blit
  29:../src/smc_gen/r_drw2d_rx/src/tes/dave_driver.c ****  *  2012-09-25 BSp  MISRA cleanup
  30:../src/smc_gen/r_drw2d_rx/src/tes/dave_driver.c ****  *  2013-06-25 MRe  changed check of dlistblocks in d2_lowlocalmemmode to >= 1
  31:../src/smc_gen/r_drw2d_rx/src/tes/dave_driver.c ****  *-------------------------------------------------------------------------- */
  32:../src/smc_gen/r_drw2d_rx/src/tes/dave_driver.c ****  
  33:../src/smc_gen/r_drw2d_rx/src/tes/dave_driver.c **** /*--------------------------------------------------------------------------
  34:../src/smc_gen/r_drw2d_rx/src/tes/dave_driver.c ****  *
  35:../src/smc_gen/r_drw2d_rx/src/tes/dave_driver.c ****  * Title: Basic Functions
  36:../src/smc_gen/r_drw2d_rx/src/tes/dave_driver.c ****  * Driver device management and hardware initialization / shutdown.
  37:../src/smc_gen/r_drw2d_rx/src/tes/dave_driver.c ****  *
  38:../src/smc_gen/r_drw2d_rx/src/tes/dave_driver.c ****  *-------------------------------------------------------------------------- */
  39:../src/smc_gen/r_drw2d_rx/src/tes/dave_driver.c **** #include "dave_driver.h"
  40:../src/smc_gen/r_drw2d_rx/src/tes/dave_driver.c **** #include "dave_intern.h"
  41:../src/smc_gen/r_drw2d_rx/src/tes/dave_driver.c **** #include "dave_memory.h"
  42:../src/smc_gen/r_drw2d_rx/src/tes/dave_driver.c **** #include "dave_render.h"
  43:../src/smc_gen/r_drw2d_rx/src/tes/dave_driver.c **** #include "dave_dlist.h"
  44:../src/smc_gen/r_drw2d_rx/src/tes/dave_driver.c **** 
  45:../src/smc_gen/r_drw2d_rx/src/tes/dave_driver.c **** /*-------------------------------------------------------------------------- */
  46:../src/smc_gen/r_drw2d_rx/src/tes/dave_driver.c **** static d2_devicedata *g_devicechain = NULL;
  47:../src/smc_gen/r_drw2d_rx/src/tes/dave_driver.c **** 
  48:../src/smc_gen/r_drw2d_rx/src/tes/dave_driver.c **** #ifdef _DEBUG
  49:../src/smc_gen/r_drw2d_rx/src/tes/dave_driver.c **** #define _DEBUG_STR " _DEBUG "
  50:../src/smc_gen/r_drw2d_rx/src/tes/dave_driver.c **** #else
  51:../src/smc_gen/r_drw2d_rx/src/tes/dave_driver.c **** #define _DEBUG_STR ""
  52:../src/smc_gen/r_drw2d_rx/src/tes/dave_driver.c **** #endif 
  53:../src/smc_gen/r_drw2d_rx/src/tes/dave_driver.c **** 
  54:../src/smc_gen/r_drw2d_rx/src/tes/dave_driver.c **** /*---------------------------------------------------------------------------
  55:../src/smc_gen/r_drw2d_rx/src/tes/dave_driver.c ****  * List of hardware registers that can be cached for redundancy elimination
  56:../src/smc_gen/r_drw2d_rx/src/tes/dave_driver.c ****  * */
  57:../src/smc_gen/r_drw2d_rx/src/tes/dave_driver.c **** #ifdef D2_USEREGCACHE
  58:../src/smc_gen/r_drw2d_rx/src/tes/dave_driver.c **** const d2_u8 d2_cacheableregs[D2_QUANTITY] ={
  59:../src/smc_gen/r_drw2d_rx/src/tes/dave_driver.c ****    0,    /*D2_CONTROL      0 */
  60:../src/smc_gen/r_drw2d_rx/src/tes/dave_driver.c ****    1,    /*D2_CONTROL2     1 */
  61:../src/smc_gen/r_drw2d_rx/src/tes/dave_driver.c ****    0,    /*                2 */
  62:../src/smc_gen/r_drw2d_rx/src/tes/dave_driver.c ****    0,    /*                3 */
  63:../src/smc_gen/r_drw2d_rx/src/tes/dave_driver.c ****    0,    /*D2_L1START      4 */
  64:../src/smc_gen/r_drw2d_rx/src/tes/dave_driver.c ****    0,    /*D2_L2START      5 */
  65:../src/smc_gen/r_drw2d_rx/src/tes/dave_driver.c ****    0,    /*D2_L3START      6 */
  66:../src/smc_gen/r_drw2d_rx/src/tes/dave_driver.c ****    0,    /*D2_L4START      7 */
  67:../src/smc_gen/r_drw2d_rx/src/tes/dave_driver.c ****    0,    /*D2_L5START      8 */
  68:../src/smc_gen/r_drw2d_rx/src/tes/dave_driver.c ****    0,    /*D2_L6START      9 */
  69:../src/smc_gen/r_drw2d_rx/src/tes/dave_driver.c ****    1,    /*D2_L1XADD       10 */
  70:../src/smc_gen/r_drw2d_rx/src/tes/dave_driver.c ****    1,    /*D2_L2XADD       11 */
  71:../src/smc_gen/r_drw2d_rx/src/tes/dave_driver.c ****    1,    /*D2_L3XADD       12 */
  72:../src/smc_gen/r_drw2d_rx/src/tes/dave_driver.c ****    1,    /*D2_L4XADD       13 */
  73:../src/smc_gen/r_drw2d_rx/src/tes/dave_driver.c ****    1,    /*D2_L5XADD       14 */
  74:../src/smc_gen/r_drw2d_rx/src/tes/dave_driver.c ****    1,    /*D2_L6XADD       15 */
  75:../src/smc_gen/r_drw2d_rx/src/tes/dave_driver.c ****    0,    /*D2_L1YADD       16 */
  76:../src/smc_gen/r_drw2d_rx/src/tes/dave_driver.c ****    1,    /*D2_L2YADD       17 */
  77:../src/smc_gen/r_drw2d_rx/src/tes/dave_driver.c ****    0,    /*D2_L3YADD       18 */
  78:../src/smc_gen/r_drw2d_rx/src/tes/dave_driver.c ****    1,    /*D2_L4YADD       19 */
  79:../src/smc_gen/r_drw2d_rx/src/tes/dave_driver.c ****    0,    /*D2_L5YADD       20 */
  80:../src/smc_gen/r_drw2d_rx/src/tes/dave_driver.c ****    1,    /*D2_L6YADD       21 */
  81:../src/smc_gen/r_drw2d_rx/src/tes/dave_driver.c ****    1,    /*D2_L1BAND       22 */
  82:../src/smc_gen/r_drw2d_rx/src/tes/dave_driver.c ****    1,    /*D2_L2BAND       23 */
  83:../src/smc_gen/r_drw2d_rx/src/tes/dave_driver.c ****    0,    /*                24 */
  84:../src/smc_gen/r_drw2d_rx/src/tes/dave_driver.c ****    1,    /*D2_COLOR1       25 */
  85:../src/smc_gen/r_drw2d_rx/src/tes/dave_driver.c ****    1,    /*D2_COLOR2       26 */
  86:../src/smc_gen/r_drw2d_rx/src/tes/dave_driver.c ****    0,    /*                27 */
  87:../src/smc_gen/r_drw2d_rx/src/tes/dave_driver.c ****    0,    /*                28 */
  88:../src/smc_gen/r_drw2d_rx/src/tes/dave_driver.c ****    1,    /*D2_PATTERN      29 */
  89:../src/smc_gen/r_drw2d_rx/src/tes/dave_driver.c ****    1,    /*D2_SIZE         30 */
  90:../src/smc_gen/r_drw2d_rx/src/tes/dave_driver.c ****    1,    /*D2_PITCH        31 */
  91:../src/smc_gen/r_drw2d_rx/src/tes/dave_driver.c ****    0,    /*D2_ORIGIN       32 */
  92:../src/smc_gen/r_drw2d_rx/src/tes/dave_driver.c ****    0,    /*                33 */
  93:../src/smc_gen/r_drw2d_rx/src/tes/dave_driver.c ****    0,    /*                34 */
  94:../src/smc_gen/r_drw2d_rx/src/tes/dave_driver.c ****    0,    /*                35 */
  95:../src/smc_gen/r_drw2d_rx/src/tes/dave_driver.c ****    0,    /*D2_LUSTART      36 */
  96:../src/smc_gen/r_drw2d_rx/src/tes/dave_driver.c ****    1,    /*D2_LUXADD       37 */
  97:../src/smc_gen/r_drw2d_rx/src/tes/dave_driver.c ****    1,    /*D2_LUYADD       38 */
  98:../src/smc_gen/r_drw2d_rx/src/tes/dave_driver.c ****    0,    /*D2_LVSTARTI     39 */
  99:../src/smc_gen/r_drw2d_rx/src/tes/dave_driver.c ****    0,    /*D2_LVSTARTF     40 */
 100:../src/smc_gen/r_drw2d_rx/src/tes/dave_driver.c ****    1,    /*D2_LVXADDI      41 */
 101:../src/smc_gen/r_drw2d_rx/src/tes/dave_driver.c ****    1,    /*D2_LVYADDI      42 */
 102:../src/smc_gen/r_drw2d_rx/src/tes/dave_driver.c ****    1,    /*D2_LVYXADDF     43 */
 103:../src/smc_gen/r_drw2d_rx/src/tes/dave_driver.c ****    0,    /*                44 */
 104:../src/smc_gen/r_drw2d_rx/src/tes/dave_driver.c ****    1,    /*D2_TEXPITCH     45 */
 105:../src/smc_gen/r_drw2d_rx/src/tes/dave_driver.c ****    1,    /*D2_TEXMASK      46 */
 106:../src/smc_gen/r_drw2d_rx/src/tes/dave_driver.c ****    1,    /*D2_TEXORIGIN    47 */
 107:../src/smc_gen/r_drw2d_rx/src/tes/dave_driver.c ****    0,    /*D2_IRQCTL       48 */
 108:../src/smc_gen/r_drw2d_rx/src/tes/dave_driver.c ****    0,    /*D2_CACHECTL     49 */
 109:../src/smc_gen/r_drw2d_rx/src/tes/dave_driver.c ****    0,    /*D2_DLISTSTART   50 */
 110:../src/smc_gen/r_drw2d_rx/src/tes/dave_driver.c ****    0,    /*D2_PERFCOUNT1   51 */
 111:../src/smc_gen/r_drw2d_rx/src/tes/dave_driver.c ****    0,    /*D2_PERFCOUNT2   52 */
 112:../src/smc_gen/r_drw2d_rx/src/tes/dave_driver.c ****    0,    /*D2_PERFTRIGGER  53 */
 113:../src/smc_gen/r_drw2d_rx/src/tes/dave_driver.c ****    0,    /*D2_TEXCLUT      54 */
 114:../src/smc_gen/r_drw2d_rx/src/tes/dave_driver.c ****    0,    /*D2_TEXCLUT_ADDR 55 */
 115:../src/smc_gen/r_drw2d_rx/src/tes/dave_driver.c ****    0,    /*D2_TEXCLUT_DATA 56 */
 116:../src/smc_gen/r_drw2d_rx/src/tes/dave_driver.c ****    1,    /*D2_TEXCLUT_OFFSET 57 */
 117:../src/smc_gen/r_drw2d_rx/src/tes/dave_driver.c ****    1     /*D2_COLKEY       58 */
 118:../src/smc_gen/r_drw2d_rx/src/tes/dave_driver.c **** };
 119:../src/smc_gen/r_drw2d_rx/src/tes/dave_driver.c **** #endif
 120:../src/smc_gen/r_drw2d_rx/src/tes/dave_driver.c **** 
 121:../src/smc_gen/r_drw2d_rx/src/tes/dave_driver.c **** 
 122:../src/smc_gen/r_drw2d_rx/src/tes/dave_driver.c **** /*--------------------------------------------------------------------------
 123:../src/smc_gen/r_drw2d_rx/src/tes/dave_driver.c ****  * Group: Static functions
 124:../src/smc_gen/r_drw2d_rx/src/tes/dave_driver.c ****  * */
 125:../src/smc_gen/r_drw2d_rx/src/tes/dave_driver.c **** 
 126:../src/smc_gen/r_drw2d_rx/src/tes/dave_driver.c **** static d2_contextdata_backup * d2_newbackupcontext_intern( d2_device *handle, d2_u32 flags );
 127:../src/smc_gen/r_drw2d_rx/src/tes/dave_driver.c **** static void d2_strcpy(d2_char *dst, const d2_char *src, d2_u32 dst_size);
 128:../src/smc_gen/r_drw2d_rx/src/tes/dave_driver.c **** static void d2_strcat(d2_char *dst, const d2_char *src, d2_u32 dst_size);
 129:../src/smc_gen/r_drw2d_rx/src/tes/dave_driver.c **** #ifdef NEED_D2_INTTOSTR
 130:../src/smc_gen/r_drw2d_rx/src/tes/dave_driver.c **** static void d2_inttostr(d2_char *a_dst, d2_u32 a_number, d2_u32 a_size);
 131:../src/smc_gen/r_drw2d_rx/src/tes/dave_driver.c **** #endif /* NEED_D2_INTTOSTR */
 132:../src/smc_gen/r_drw2d_rx/src/tes/dave_driver.c **** static void d2_hextostr(d2_char *a_dst, d2_u32 a_number, d2_u32 a_size);
 133:../src/smc_gen/r_drw2d_rx/src/tes/dave_driver.c **** 
 134:../src/smc_gen/r_drw2d_rx/src/tes/dave_driver.c **** /*--------------------------------------------------------------------------
 135:../src/smc_gen/r_drw2d_rx/src/tes/dave_driver.c ****  * Group: Device management
 136:../src/smc_gen/r_drw2d_rx/src/tes/dave_driver.c ****  * */
 137:../src/smc_gen/r_drw2d_rx/src/tes/dave_driver.c **** 
 138:../src/smc_gen/r_drw2d_rx/src/tes/dave_driver.c **** /*--------------------------------------------------------------------------
 139:../src/smc_gen/r_drw2d_rx/src/tes/dave_driver.c ****  * function: d2_getversionstring
 140:../src/smc_gen/r_drw2d_rx/src/tes/dave_driver.c ****  * Query versionID string (device independent)
 141:../src/smc_gen/r_drw2d_rx/src/tes/dave_driver.c ****  *
 142:../src/smc_gen/r_drw2d_rx/src/tes/dave_driver.c ****  * returns:
 143:../src/smc_gen/r_drw2d_rx/src/tes/dave_driver.c ****  *  human readable driver version as a string.
 144:../src/smc_gen/r_drw2d_rx/src/tes/dave_driver.c ****  *
 145:../src/smc_gen/r_drw2d_rx/src/tes/dave_driver.c ****  * see also:
 146:../src/smc_gen/r_drw2d_rx/src/tes/dave_driver.c ****  *  <d2_getversion>
 147:../src/smc_gen/r_drw2d_rx/src/tes/dave_driver.c ****  * */
 148:../src/smc_gen/r_drw2d_rx/src/tes/dave_driver.c **** const d2_char * d2_getversionstring( void )
 149:../src/smc_gen/r_drw2d_rx/src/tes/dave_driver.c **** {
 150:../src/smc_gen/r_drw2d_rx/src/tes/dave_driver.c ****    static const d2_char g_versionid[] ="@(#)DAVE driver " D2_VERSION_STRING D2_VERSION_STATE " - " 
 151:../src/smc_gen/r_drw2d_rx/src/tes/dave_driver.c **** 
 152:../src/smc_gen/r_drw2d_rx/src/tes/dave_driver.c ****    return g_versionid;
 153:../src/smc_gen/r_drw2d_rx/src/tes/dave_driver.c **** }
 154:../src/smc_gen/r_drw2d_rx/src/tes/dave_driver.c **** 
 155:../src/smc_gen/r_drw2d_rx/src/tes/dave_driver.c **** /*--------------------------------------------------------------------------
 156:../src/smc_gen/r_drw2d_rx/src/tes/dave_driver.c ****  * function: d2_getversion
 157:../src/smc_gen/r_drw2d_rx/src/tes/dave_driver.c ****  * Query versionID (device independent)
 158:../src/smc_gen/r_drw2d_rx/src/tes/dave_driver.c ****  *
 159:../src/smc_gen/r_drw2d_rx/src/tes/dave_driver.c ****  * returns:
 160:../src/smc_gen/r_drw2d_rx/src/tes/dave_driver.c ****  *  driver revision as a single 32bit integer 
 161:../src/smc_gen/r_drw2d_rx/src/tes/dave_driver.c ****  * 
 162:../src/smc_gen/r_drw2d_rx/src/tes/dave_driver.c ****  * bits 31..24 - branch number
 163:../src/smc_gen/r_drw2d_rx/src/tes/dave_driver.c ****  * bits 23..16 - major version number
 164:../src/smc_gen/r_drw2d_rx/src/tes/dave_driver.c ****  * bits 15..0  - minor version number
 165:../src/smc_gen/r_drw2d_rx/src/tes/dave_driver.c ****  *
 166:../src/smc_gen/r_drw2d_rx/src/tes/dave_driver.c ****  * see also:
 167:../src/smc_gen/r_drw2d_rx/src/tes/dave_driver.c ****  *  <d2_getversionstring>
 168:../src/smc_gen/r_drw2d_rx/src/tes/dave_driver.c ****  * */
 169:../src/smc_gen/r_drw2d_rx/src/tes/dave_driver.c **** d2_s32 d2_getversion( void )
 170:../src/smc_gen/r_drw2d_rx/src/tes/dave_driver.c **** {
 171:../src/smc_gen/r_drw2d_rx/src/tes/dave_driver.c ****    return D2_VERSION;
 172:../src/smc_gen/r_drw2d_rx/src/tes/dave_driver.c **** }
 173:../src/smc_gen/r_drw2d_rx/src/tes/dave_driver.c **** 
 174:../src/smc_gen/r_drw2d_rx/src/tes/dave_driver.c **** /*--------------------------------------------------------------------------
 175:../src/smc_gen/r_drw2d_rx/src/tes/dave_driver.c ****  * d2_newbackupcontext_intern
 176:../src/smc_gen/r_drw2d_rx/src/tes/dave_driver.c ****  * Create a backup area for context data that is used by blit.
 177:../src/smc_gen/r_drw2d_rx/src/tes/dave_driver.c ****  * */
 178:../src/smc_gen/r_drw2d_rx/src/tes/dave_driver.c **** static d2_contextdata_backup * d2_newbackupcontext_intern( d2_device *handle, d2_u32 flags )
 179:../src/smc_gen/r_drw2d_rx/src/tes/dave_driver.c **** {
 180:../src/smc_gen/r_drw2d_rx/src/tes/dave_driver.c ****    d2_contextdata_backup *ctx;
 181:../src/smc_gen/r_drw2d_rx/src/tes/dave_driver.c **** 
 182:../src/smc_gen/r_drw2d_rx/src/tes/dave_driver.c ****    if(0 != (flags & d2_df_no_blitctxbackup))
 183:../src/smc_gen/r_drw2d_rx/src/tes/dave_driver.c ****    {
 184:../src/smc_gen/r_drw2d_rx/src/tes/dave_driver.c ****       ctx = 0;
 185:../src/smc_gen/r_drw2d_rx/src/tes/dave_driver.c ****    }
 186:../src/smc_gen/r_drw2d_rx/src/tes/dave_driver.c ****    else
 187:../src/smc_gen/r_drw2d_rx/src/tes/dave_driver.c ****    {
 188:../src/smc_gen/r_drw2d_rx/src/tes/dave_driver.c ****       ctx = (d2_contextdata_backup *) d2_getmem_p( sizeof(d2_contextdata_backup) );
 189:../src/smc_gen/r_drw2d_rx/src/tes/dave_driver.c ****    }
 190:../src/smc_gen/r_drw2d_rx/src/tes/dave_driver.c **** 
 191:../src/smc_gen/r_drw2d_rx/src/tes/dave_driver.c ****    (void)D2_SETOK(handle);
 192:../src/smc_gen/r_drw2d_rx/src/tes/dave_driver.c ****    return ctx;
 193:../src/smc_gen/r_drw2d_rx/src/tes/dave_driver.c **** }
 194:../src/smc_gen/r_drw2d_rx/src/tes/dave_driver.c **** 
 195:../src/smc_gen/r_drw2d_rx/src/tes/dave_driver.c **** /*--------------------------------------------------------------------------
 196:../src/smc_gen/r_drw2d_rx/src/tes/dave_driver.c ****  * function: d2_opendevice
 197:../src/smc_gen/r_drw2d_rx/src/tes/dave_driver.c ****  * Create a new device handle.
 198:../src/smc_gen/r_drw2d_rx/src/tes/dave_driver.c ****  *
 199:../src/smc_gen/r_drw2d_rx/src/tes/dave_driver.c ****  * A device is the basic software object. It contains references to objects
 200:../src/smc_gen/r_drw2d_rx/src/tes/dave_driver.c ****  * that the drawing engine requires, (e.g.: displaylists). 
 201:../src/smc_gen/r_drw2d_rx/src/tes/dave_driver.c ****  * All 2D drawing functions require such a device pointer as first parameter. 
 202:../src/smc_gen/r_drw2d_rx/src/tes/dave_driver.c ****  *
 203:../src/smc_gen/r_drw2d_rx/src/tes/dave_driver.c ****  * A device on its own is useless, unless bound to a physical hardware (i.e.: Drawing Engine).
 204:../src/smc_gen/r_drw2d_rx/src/tes/dave_driver.c ****  * The binding is done by the function <d2_inithw>. A hardware instance can only be mapped to
 205:../src/smc_gen/r_drw2d_rx/src/tes/dave_driver.c ****  * one device object.
 206:../src/smc_gen/r_drw2d_rx/src/tes/dave_driver.c ****  * It is not possible to share a single device pointer between different processes.
 207:../src/smc_gen/r_drw2d_rx/src/tes/dave_driver.c ****  *
 208:../src/smc_gen/r_drw2d_rx/src/tes/dave_driver.c ****  * Creating a device will never fail (sufficient memory assumed) but binding
 209:../src/smc_gen/r_drw2d_rx/src/tes/dave_driver.c ****  * it to a hardware (see: <d2_inithw>) can fail.
 210:../src/smc_gen/r_drw2d_rx/src/tes/dave_driver.c ****  *
 211:../src/smc_gen/r_drw2d_rx/src/tes/dave_driver.c ****  * parameters:
 212:../src/smc_gen/r_drw2d_rx/src/tes/dave_driver.c ****  *  flags - a bitfield containing flags
 213:../src/smc_gen/r_drw2d_rx/src/tes/dave_driver.c ****  *
 214:../src/smc_gen/r_drw2d_rx/src/tes/dave_driver.c ****  * flags:
 215:../src/smc_gen/r_drw2d_rx/src/tes/dave_driver.c ****  *  d2_df_no_dlist           - don't use a display list (slower single command mode)
 216:../src/smc_gen/r_drw2d_rx/src/tes/dave_driver.c ****  *  d2_df_no_irq             - don't use an interrupt (slower polling used instead)
 217:../src/smc_gen/r_drw2d_rx/src/tes/dave_driver.c ****  *  d2_df_no_fbcache         - disable framebuffer cache (attention: see note below)
 218:../src/smc_gen/r_drw2d_rx/src/tes/dave_driver.c ****  *  d2_df_no_texcache        - disable texture cache (attention: see note below)
 219:../src/smc_gen/r_drw2d_rx/src/tes/dave_driver.c ****  *  d2_df_no_dwclear         - disable double word clearing in d2_clear
 220:../src/smc_gen/r_drw2d_rx/src/tes/dave_driver.c ****  *  d2_df_no_registercaching - don't use register caching
 221:../src/smc_gen/r_drw2d_rx/src/tes/dave_driver.c ****  *  d2_df_no_blitctxbackup   - don't backup context data at blit for better performance; previous t
 222:../src/smc_gen/r_drw2d_rx/src/tes/dave_driver.c ****  *
 223:../src/smc_gen/r_drw2d_rx/src/tes/dave_driver.c ****  * note:
 224:../src/smc_gen/r_drw2d_rx/src/tes/dave_driver.c ****  *  Flags 'd2_df_no_fbcache' and 'd2_df_no_texcache' should only be used for debugging purposes.
 225:../src/smc_gen/r_drw2d_rx/src/tes/dave_driver.c ****  *  Especially when multithreading is used, these flags must not be set different for devices which
 226:../src/smc_gen/r_drw2d_rx/src/tes/dave_driver.c ****  *  <d2_inithw>.
 227:../src/smc_gen/r_drw2d_rx/src/tes/dave_driver.c ****  *
 228:../src/smc_gen/r_drw2d_rx/src/tes/dave_driver.c ****  * returns:
 229:../src/smc_gen/r_drw2d_rx/src/tes/dave_driver.c ****  *  device pointer or NULL if not enough memory was available
 230:../src/smc_gen/r_drw2d_rx/src/tes/dave_driver.c ****  * */
 231:../src/smc_gen/r_drw2d_rx/src/tes/dave_driver.c **** d2_device * d2_opendevice( d2_u32 flags )
 232:../src/smc_gen/r_drw2d_rx/src/tes/dave_driver.c **** {
 233:../src/smc_gen/r_drw2d_rx/src/tes/dave_driver.c **** #ifdef D2_USEREGCACHE
 234:../src/smc_gen/r_drw2d_rx/src/tes/dave_driver.c ****    d2_s32 i;
 235:../src/smc_gen/r_drw2d_rx/src/tes/dave_driver.c **** #endif
 236:../src/smc_gen/r_drw2d_rx/src/tes/dave_driver.c **** 
 237:../src/smc_gen/r_drw2d_rx/src/tes/dave_driver.c ****    d2_devicedata *handle = (d2_devicedata *) d2_getmem_p( sizeof(d2_devicedata) );
 238:../src/smc_gen/r_drw2d_rx/src/tes/dave_driver.c **** 
 239:../src/smc_gen/r_drw2d_rx/src/tes/dave_driver.c ****    if(NULL != handle)
 240:../src/smc_gen/r_drw2d_rx/src/tes/dave_driver.c ****    {
 241:../src/smc_gen/r_drw2d_rx/src/tes/dave_driver.c ****       /* initialize device context */
 242:../src/smc_gen/r_drw2d_rx/src/tes/dave_driver.c ****       handle->flags             = flags;
 243:../src/smc_gen/r_drw2d_rx/src/tes/dave_driver.c ****       handle->errorcode         = D2_OK;
 244:../src/smc_gen/r_drw2d_rx/src/tes/dave_driver.c ****       handle->delayed_errorcode = D2_OK;
 245:../src/smc_gen/r_drw2d_rx/src/tes/dave_driver.c ****       handle->hwid              = NULL;
 246:../src/smc_gen/r_drw2d_rx/src/tes/dave_driver.c ****       handle->ctxchain          = NULL;
 247:../src/smc_gen/r_drw2d_rx/src/tes/dave_driver.c ****       handle->fbformat          = 2;
 248:../src/smc_gen/r_drw2d_rx/src/tes/dave_driver.c ****       handle->fbwidth           = 0;
 249:../src/smc_gen/r_drw2d_rx/src/tes/dave_driver.c ****       handle->fbheight          = 0;
 250:../src/smc_gen/r_drw2d_rx/src/tes/dave_driver.c ****       handle->fbstylemask       = D2C_WRITEFORMAT2;
 251:../src/smc_gen/r_drw2d_rx/src/tes/dave_driver.c ****       handle->ctxdef            = d2_newcontext( handle );   /* create default context */
 252:../src/smc_gen/r_drw2d_rx/src/tes/dave_driver.c ****       handle->ctxselected       = handle->ctxdef;
 253:../src/smc_gen/r_drw2d_rx/src/tes/dave_driver.c ****       handle->ctxsolid          = handle->ctxdef;
 254:../src/smc_gen/r_drw2d_rx/src/tes/dave_driver.c ****       handle->ctxoutline        = handle->ctxdef;
 255:../src/smc_gen/r_drw2d_rx/src/tes/dave_driver.c **** #ifdef D2_USEBLITBACKUPCONTEXT
 256:../src/smc_gen/r_drw2d_rx/src/tes/dave_driver.c ****       handle->blitcontext       = d2_newcontext( handle ); /* create blit context */
 257:../src/smc_gen/r_drw2d_rx/src/tes/dave_driver.c **** #else
 258:../src/smc_gen/r_drw2d_rx/src/tes/dave_driver.c ****       handle->blitcontext_b     = d2_newbackupcontext_intern( handle, flags ); /* create backup for
 259:../src/smc_gen/r_drw2d_rx/src/tes/dave_driver.c **** #endif
 260:../src/smc_gen/r_drw2d_rx/src/tes/dave_driver.c ****       handle->srccontext        = NULL;
 261:../src/smc_gen/r_drw2d_rx/src/tes/dave_driver.c ****       handle->srcclut           = NULL;
 262:../src/smc_gen/r_drw2d_rx/src/tes/dave_driver.c ****       handle->lasttextwasrle    = 0;
 263:../src/smc_gen/r_drw2d_rx/src/tes/dave_driver.c ****       /* default rendering parameters */
 264:../src/smc_gen/r_drw2d_rx/src/tes/dave_driver.c ****       handle->framebuffer       = NULL;
 265:../src/smc_gen/r_drw2d_rx/src/tes/dave_driver.c ****       handle->pitch             = 0;
 266:../src/smc_gen/r_drw2d_rx/src/tes/dave_driver.c ****       handle->bpp               = 0;
 267:../src/smc_gen/r_drw2d_rx/src/tes/dave_driver.c ****       handle->rendermode        = d2_rm_solid;
 268:../src/smc_gen/r_drw2d_rx/src/tes/dave_driver.c ****       handle->outlinewidth      = 0;
 269:../src/smc_gen/r_drw2d_rx/src/tes/dave_driver.c ****       handle->soffx             = 0;
 270:../src/smc_gen/r_drw2d_rx/src/tes/dave_driver.c ****       handle->soffy             = 0;
 271:../src/smc_gen/r_drw2d_rx/src/tes/dave_driver.c ****       handle->clipxmin          = 0;
 272:../src/smc_gen/r_drw2d_rx/src/tes/dave_driver.c ****       handle->clipymin          = 0;
 273:../src/smc_gen/r_drw2d_rx/src/tes/dave_driver.c ****       handle->clipxmax          = 0;
 274:../src/smc_gen/r_drw2d_rx/src/tes/dave_driver.c ****       handle->clipymax          = 0;
 275:../src/smc_gen/r_drw2d_rx/src/tes/dave_driver.c ****       /* initialize default display lists */
 276:../src/smc_gen/r_drw2d_rx/src/tes/dave_driver.c ****       handle->renderbuffer[0]   = NULL;
 277:../src/smc_gen/r_drw2d_rx/src/tes/dave_driver.c ****       handle->renderbuffer[1]   = NULL;
 278:../src/smc_gen/r_drw2d_rx/src/tes/dave_driver.c ****       /* preselect list */
 279:../src/smc_gen/r_drw2d_rx/src/tes/dave_driver.c ****       handle->selectedbuffer   = NULL;
 280:../src/smc_gen/r_drw2d_rx/src/tes/dave_driver.c ****       handle->writelist        = NULL;
 281:../src/smc_gen/r_drw2d_rx/src/tes/dave_driver.c ****       handle->readlist         = NULL;
 282:../src/smc_gen/r_drw2d_rx/src/tes/dave_driver.c ****       handle->dlistblocksize   = D2_DLISTBLOCKSIZE;
 283:../src/smc_gen/r_drw2d_rx/src/tes/dave_driver.c **** 
 284:../src/smc_gen/r_drw2d_rx/src/tes/dave_driver.c ****       /* 0x30 is for enabling burstmode of caches -> can be removed for later versions */
 285:../src/smc_gen/r_drw2d_rx/src/tes/dave_driver.c ****       handle->cachectlmask     = D2C_CACHECTL_ENABLE_FB | D2C_CACHECTL_ENABLE_TX;
 286:../src/smc_gen/r_drw2d_rx/src/tes/dave_driver.c **** 
 287:../src/smc_gen/r_drw2d_rx/src/tes/dave_driver.c ****       if(0 != (flags & d2_df_no_fbcache))
 288:../src/smc_gen/r_drw2d_rx/src/tes/dave_driver.c ****       {
 289:../src/smc_gen/r_drw2d_rx/src/tes/dave_driver.c ****          handle->cachectlmask &= ~D2C_CACHECTL_ENABLE_FB;
 290:../src/smc_gen/r_drw2d_rx/src/tes/dave_driver.c ****       }
 291:../src/smc_gen/r_drw2d_rx/src/tes/dave_driver.c **** 
 292:../src/smc_gen/r_drw2d_rx/src/tes/dave_driver.c ****       if(0 != (flags & d2_df_no_texcache))
 293:../src/smc_gen/r_drw2d_rx/src/tes/dave_driver.c ****       {
 294:../src/smc_gen/r_drw2d_rx/src/tes/dave_driver.c ****          handle->cachectlmask &= ~D2C_CACHECTL_ENABLE_TX;
 295:../src/smc_gen/r_drw2d_rx/src/tes/dave_driver.c ****       }
 296:../src/smc_gen/r_drw2d_rx/src/tes/dave_driver.c **** 
 297:../src/smc_gen/r_drw2d_rx/src/tes/dave_driver.c ****       handle->perftriggermask  = 0;
 298:../src/smc_gen/r_drw2d_rx/src/tes/dave_driver.c ****       handle->lowlocalmem_mode = NULL;
 299:../src/smc_gen/r_drw2d_rx/src/tes/dave_driver.c **** 
 300:../src/smc_gen/r_drw2d_rx/src/tes/dave_driver.c ****       /* clear register cache */
 301:../src/smc_gen/r_drw2d_rx/src/tes/dave_driver.c **** #ifdef D2_USEREGCACHE
 302:../src/smc_gen/r_drw2d_rx/src/tes/dave_driver.c ****       for(i=0; i<D2_QUANTITY; i++)
 303:../src/smc_gen/r_drw2d_rx/src/tes/dave_driver.c ****       {
 304:../src/smc_gen/r_drw2d_rx/src/tes/dave_driver.c ****          handle->cache.data[i]  = 0;
 305:../src/smc_gen/r_drw2d_rx/src/tes/dave_driver.c ****          handle->cache.valid[i] = 0;
 306:../src/smc_gen/r_drw2d_rx/src/tes/dave_driver.c ****       }
 307:../src/smc_gen/r_drw2d_rx/src/tes/dave_driver.c **** #endif
 308:../src/smc_gen/r_drw2d_rx/src/tes/dave_driver.c **** 
 309:../src/smc_gen/r_drw2d_rx/src/tes/dave_driver.c ****       /* hw revision */
 310:../src/smc_gen/r_drw2d_rx/src/tes/dave_driver.c ****       handle->hwrevision                   = 0;
 311:../src/smc_gen/r_drw2d_rx/src/tes/dave_driver.c ****       handle->hilimiterprecision_supported = 0;
 312:../src/smc_gen/r_drw2d_rx/src/tes/dave_driver.c ****       handle->maxpatlen                    = 8;
 313:../src/smc_gen/r_drw2d_rx/src/tes/dave_driver.c **** 
 314:../src/smc_gen/r_drw2d_rx/src/tes/dave_driver.c ****       /* attach to chain */
 315:../src/smc_gen/r_drw2d_rx/src/tes/dave_driver.c ****       handle->next = g_devicechain;
 316:../src/smc_gen/r_drw2d_rx/src/tes/dave_driver.c ****       g_devicechain = handle;
 317:../src/smc_gen/r_drw2d_rx/src/tes/dave_driver.c ****    }
 318:../src/smc_gen/r_drw2d_rx/src/tes/dave_driver.c **** 
 319:../src/smc_gen/r_drw2d_rx/src/tes/dave_driver.c ****    return handle;
 320:../src/smc_gen/r_drw2d_rx/src/tes/dave_driver.c **** }
 321:../src/smc_gen/r_drw2d_rx/src/tes/dave_driver.c **** 
 322:../src/smc_gen/r_drw2d_rx/src/tes/dave_driver.c **** /*--------------------------------------------------------------------------
 323:../src/smc_gen/r_drw2d_rx/src/tes/dave_driver.c ****  * function: d2_closedevice
 324:../src/smc_gen/r_drw2d_rx/src/tes/dave_driver.c ****  * Destroy a device handle.
 325:../src/smc_gen/r_drw2d_rx/src/tes/dave_driver.c ****  *
 326:../src/smc_gen/r_drw2d_rx/src/tes/dave_driver.c ****  * All contexts associated with the device are destroyed as well.
 327:../src/smc_gen/r_drw2d_rx/src/tes/dave_driver.c ****  *
 328:../src/smc_gen/r_drw2d_rx/src/tes/dave_driver.c ****  * parameters:
 329:../src/smc_gen/r_drw2d_rx/src/tes/dave_driver.c ****  *   handle - device pointer (see: <d2_opendevice>)
 330:../src/smc_gen/r_drw2d_rx/src/tes/dave_driver.c ****  *
 331:../src/smc_gen/r_drw2d_rx/src/tes/dave_driver.c ****  * returns:
 332:../src/smc_gen/r_drw2d_rx/src/tes/dave_driver.c ****  *   errorcode (D2_OK if successfull) see list of <Errorcodes> for details
 333:../src/smc_gen/r_drw2d_rx/src/tes/dave_driver.c ****  * */
 334:../src/smc_gen/r_drw2d_rx/src/tes/dave_driver.c **** d2_s32 d2_closedevice( d2_device *handle )
 335:../src/smc_gen/r_drw2d_rx/src/tes/dave_driver.c **** {
 336:../src/smc_gen/r_drw2d_rx/src/tes/dave_driver.c ****    d2_s32 result;
 337:../src/smc_gen/r_drw2d_rx/src/tes/dave_driver.c ****    d2_devicedata **prev;
 338:../src/smc_gen/r_drw2d_rx/src/tes/dave_driver.c ****    D2_VALIDATE( handle, D2_INVALIDDEVICE); /* PRQA S 4130, 3112 */ /* $Misra: #DEBUG_MACRO $*/
 339:../src/smc_gen/r_drw2d_rx/src/tes/dave_driver.c **** 
 340:../src/smc_gen/r_drw2d_rx/src/tes/dave_driver.c ****    /* release hardware if assigned */
 341:../src/smc_gen/r_drw2d_rx/src/tes/dave_driver.c ****    if(NULL != D2_DEV(handle)->hwid)
 342:../src/smc_gen/r_drw2d_rx/src/tes/dave_driver.c ****    {
 343:../src/smc_gen/r_drw2d_rx/src/tes/dave_driver.c ****       result = d2_deinithw( handle );
 344:../src/smc_gen/r_drw2d_rx/src/tes/dave_driver.c ****    }
 345:../src/smc_gen/r_drw2d_rx/src/tes/dave_driver.c ****    else
 346:../src/smc_gen/r_drw2d_rx/src/tes/dave_driver.c ****    {
 347:../src/smc_gen/r_drw2d_rx/src/tes/dave_driver.c ****       result = D2_OK;
 348:../src/smc_gen/r_drw2d_rx/src/tes/dave_driver.c ****    }
 349:../src/smc_gen/r_drw2d_rx/src/tes/dave_driver.c **** 
 350:../src/smc_gen/r_drw2d_rx/src/tes/dave_driver.c ****    /* find in chain */
 351:../src/smc_gen/r_drw2d_rx/src/tes/dave_driver.c ****    prev = &g_devicechain;
 352:../src/smc_gen/r_drw2d_rx/src/tes/dave_driver.c ****    while( (NULL != prev) && (*prev != handle))
 353:../src/smc_gen/r_drw2d_rx/src/tes/dave_driver.c ****    {
 354:../src/smc_gen/r_drw2d_rx/src/tes/dave_driver.c ****       prev = (d2_devicedata **) *prev;
 355:../src/smc_gen/r_drw2d_rx/src/tes/dave_driver.c ****    }
 356:../src/smc_gen/r_drw2d_rx/src/tes/dave_driver.c **** 
 357:../src/smc_gen/r_drw2d_rx/src/tes/dave_driver.c ****    if(NULL == prev)
 358:../src/smc_gen/r_drw2d_rx/src/tes/dave_driver.c ****    {
 359:../src/smc_gen/r_drw2d_rx/src/tes/dave_driver.c ****       return D2_INVALIDDEVICE;
 360:../src/smc_gen/r_drw2d_rx/src/tes/dave_driver.c ****    }
 361:../src/smc_gen/r_drw2d_rx/src/tes/dave_driver.c **** 
 362:../src/smc_gen/r_drw2d_rx/src/tes/dave_driver.c ****    /* remove from chain */
 363:../src/smc_gen/r_drw2d_rx/src/tes/dave_driver.c ****    *prev = D2_DEV(handle)->next;
 364:../src/smc_gen/r_drw2d_rx/src/tes/dave_driver.c **** 
 365:../src/smc_gen/r_drw2d_rx/src/tes/dave_driver.c ****    /* free render contexts */
 366:../src/smc_gen/r_drw2d_rx/src/tes/dave_driver.c ****    D2_DEV(handle)->ctxdef = NULL; /* necessary in order to free default context */
 367:../src/smc_gen/r_drw2d_rx/src/tes/dave_driver.c **** 
 368:../src/smc_gen/r_drw2d_rx/src/tes/dave_driver.c ****    while(NULL != D2_DEV(handle)->ctxchain)
 369:../src/smc_gen/r_drw2d_rx/src/tes/dave_driver.c ****    {
 370:../src/smc_gen/r_drw2d_rx/src/tes/dave_driver.c ****       (void)d2_freecontext(D2_DEV(handle), D2_DEV(handle)->ctxchain);
 371:../src/smc_gen/r_drw2d_rx/src/tes/dave_driver.c ****    }
 372:../src/smc_gen/r_drw2d_rx/src/tes/dave_driver.c **** 
 373:../src/smc_gen/r_drw2d_rx/src/tes/dave_driver.c ****    if(0 != D2_DEV(handle)->lowlocalmem_mode)
 374:../src/smc_gen/r_drw2d_rx/src/tes/dave_driver.c ****    {
 375:../src/smc_gen/r_drw2d_rx/src/tes/dave_driver.c ****       d2_freemem_p(D2_DEV(handle)->lowlocalmem_mode);
 376:../src/smc_gen/r_drw2d_rx/src/tes/dave_driver.c ****    }
 377:../src/smc_gen/r_drw2d_rx/src/tes/dave_driver.c **** 
 378:../src/smc_gen/r_drw2d_rx/src/tes/dave_driver.c **** #ifdef D2_USEBLITBACKUPCONTEXT
 379:../src/smc_gen/r_drw2d_rx/src/tes/dave_driver.c ****    D2_DEV(handle)->blitcontext = NULL; /* was freed by chain */
 380:../src/smc_gen/r_drw2d_rx/src/tes/dave_driver.c **** #else
 381:../src/smc_gen/r_drw2d_rx/src/tes/dave_driver.c ****    if(NULL != D2_DEV(handle)->blitcontext_b)
 382:../src/smc_gen/r_drw2d_rx/src/tes/dave_driver.c ****    {
 383:../src/smc_gen/r_drw2d_rx/src/tes/dave_driver.c ****       d2_freemem_p(D2_DEV(handle)->blitcontext_b);
 384:../src/smc_gen/r_drw2d_rx/src/tes/dave_driver.c ****    }
 385:../src/smc_gen/r_drw2d_rx/src/tes/dave_driver.c ****    D2_DEV(handle)->blitcontext_b = NULL;
 386:../src/smc_gen/r_drw2d_rx/src/tes/dave_driver.c **** #endif
 387:../src/smc_gen/r_drw2d_rx/src/tes/dave_driver.c **** 
 388:../src/smc_gen/r_drw2d_rx/src/tes/dave_driver.c ****    /* free context memory */
 389:../src/smc_gen/r_drw2d_rx/src/tes/dave_driver.c ****    d2_freemem_p( handle );
 390:../src/smc_gen/r_drw2d_rx/src/tes/dave_driver.c **** 
 391:../src/smc_gen/r_drw2d_rx/src/tes/dave_driver.c ****    return result;
 392:../src/smc_gen/r_drw2d_rx/src/tes/dave_driver.c **** }
 393:../src/smc_gen/r_drw2d_rx/src/tes/dave_driver.c **** 
 394:../src/smc_gen/r_drw2d_rx/src/tes/dave_driver.c **** /*--------------------------------------------------------------------------
 395:../src/smc_gen/r_drw2d_rx/src/tes/dave_driver.c ****  * function: d2_geterror
 396:../src/smc_gen/r_drw2d_rx/src/tes/dave_driver.c ****  * Query device error information.
 397:../src/smc_gen/r_drw2d_rx/src/tes/dave_driver.c ****  *
 398:../src/smc_gen/r_drw2d_rx/src/tes/dave_driver.c ****  * See list of all <Errorcodes> for more details.
 399:../src/smc_gen/r_drw2d_rx/src/tes/dave_driver.c ****  *
 400:../src/smc_gen/r_drw2d_rx/src/tes/dave_driver.c ****  * parameters:
 401:../src/smc_gen/r_drw2d_rx/src/tes/dave_driver.c ****  *   handle - device pointer (see: <d2_opendevice>)
 402:../src/smc_gen/r_drw2d_rx/src/tes/dave_driver.c ****  *
 403:../src/smc_gen/r_drw2d_rx/src/tes/dave_driver.c ****  * returns:
 404:../src/smc_gen/r_drw2d_rx/src/tes/dave_driver.c ****  *   integer error code (0 is no error)
 405:../src/smc_gen/r_drw2d_rx/src/tes/dave_driver.c ****  * */
 406:../src/smc_gen/r_drw2d_rx/src/tes/dave_driver.c **** d2_s32 d2_geterror( const d2_device *handle )
 407:../src/smc_gen/r_drw2d_rx/src/tes/dave_driver.c **** {
 408:../src/smc_gen/r_drw2d_rx/src/tes/dave_driver.c ****    d2_s32 errorCode;
 409:../src/smc_gen/r_drw2d_rx/src/tes/dave_driver.c **** 
 410:../src/smc_gen/r_drw2d_rx/src/tes/dave_driver.c ****    if(NULL != handle)
 411:../src/smc_gen/r_drw2d_rx/src/tes/dave_driver.c ****    {
 412:../src/smc_gen/r_drw2d_rx/src/tes/dave_driver.c ****       /*D2_VALIDATE( handle, D2_INVALIDDEVICE);*/ /* PRQA S 4130, 3112 */ /* $Misra: #DEBUG_MACRO $
 413:../src/smc_gen/r_drw2d_rx/src/tes/dave_driver.c **** 
 414:../src/smc_gen/r_drw2d_rx/src/tes/dave_driver.c ****       errorCode = D2_DEV(handle)->errorcode;
 415:../src/smc_gen/r_drw2d_rx/src/tes/dave_driver.c **** 
 416:../src/smc_gen/r_drw2d_rx/src/tes/dave_driver.c ****       if(errorCode == D2_OK)
 417:../src/smc_gen/r_drw2d_rx/src/tes/dave_driver.c ****       {
 418:../src/smc_gen/r_drw2d_rx/src/tes/dave_driver.c ****          errorCode = D2_DEV(handle)->delayed_errorcode;
 419:../src/smc_gen/r_drw2d_rx/src/tes/dave_driver.c ****       }
 420:../src/smc_gen/r_drw2d_rx/src/tes/dave_driver.c ****    }
 421:../src/smc_gen/r_drw2d_rx/src/tes/dave_driver.c ****    else
 422:../src/smc_gen/r_drw2d_rx/src/tes/dave_driver.c ****    {
 423:../src/smc_gen/r_drw2d_rx/src/tes/dave_driver.c ****       errorCode = D2_INVALIDDEVICE;
 424:../src/smc_gen/r_drw2d_rx/src/tes/dave_driver.c ****    }
 425:../src/smc_gen/r_drw2d_rx/src/tes/dave_driver.c **** 
 426:../src/smc_gen/r_drw2d_rx/src/tes/dave_driver.c ****    return errorCode;
 427:../src/smc_gen/r_drw2d_rx/src/tes/dave_driver.c **** }
 428:../src/smc_gen/r_drw2d_rx/src/tes/dave_driver.c **** 
 429:../src/smc_gen/r_drw2d_rx/src/tes/dave_driver.c **** /*--------------------------------------------------------------------------
 430:../src/smc_gen/r_drw2d_rx/src/tes/dave_driver.c ****  * function: d2_geterrorstring
 431:../src/smc_gen/r_drw2d_rx/src/tes/dave_driver.c ****  * Query detailed device error information.
 432:../src/smc_gen/r_drw2d_rx/src/tes/dave_driver.c ****  *
 433:../src/smc_gen/r_drw2d_rx/src/tes/dave_driver.c ****  * See list of all <Errorcodes> for more details.
 434:../src/smc_gen/r_drw2d_rx/src/tes/dave_driver.c ****  *
 435:../src/smc_gen/r_drw2d_rx/src/tes/dave_driver.c ****  * parameters:
 436:../src/smc_gen/r_drw2d_rx/src/tes/dave_driver.c ****  *   handle - device pointer (see: <d2_opendevice>)
 437:../src/smc_gen/r_drw2d_rx/src/tes/dave_driver.c ****  *
 438:../src/smc_gen/r_drw2d_rx/src/tes/dave_driver.c ****  * returns:
 439:../src/smc_gen/r_drw2d_rx/src/tes/dave_driver.c ****  *   string with human readable error description, or 0 if an error occurs
 440:../src/smc_gen/r_drw2d_rx/src/tes/dave_driver.c ****  * */
 441:../src/smc_gen/r_drw2d_rx/src/tes/dave_driver.c **** const d2_char * d2_geterrorstring( const d2_device *handle )
 442:../src/smc_gen/r_drw2d_rx/src/tes/dave_driver.c **** {
 443:../src/smc_gen/r_drw2d_rx/src/tes/dave_driver.c ****    D2_VALIDATEP( handle, D2_INVALIDDEVICE); /* PRQA S 4130, 3112 */ /* $Misra: #DEBUG_MACRO $*/
 444:../src/smc_gen/r_drw2d_rx/src/tes/dave_driver.c ****    return d2_translateerror( d2_geterror( handle ) );
 445:../src/smc_gen/r_drw2d_rx/src/tes/dave_driver.c **** }
 446:../src/smc_gen/r_drw2d_rx/src/tes/dave_driver.c **** 
 447:../src/smc_gen/r_drw2d_rx/src/tes/dave_driver.c **** /*--------------------------------------------------------------------------
 448:../src/smc_gen/r_drw2d_rx/src/tes/dave_driver.c ****  * Function: d2_inithw
 449:../src/smc_gen/r_drw2d_rx/src/tes/dave_driver.c ****  *
 450:../src/smc_gen/r_drw2d_rx/src/tes/dave_driver.c ****  * Initialize hardware for working with specified device.
 451:../src/smc_gen/r_drw2d_rx/src/tes/dave_driver.c ****  * After creation a device is 'bound' to a hardware instance by calling
 452:../src/smc_gen/r_drw2d_rx/src/tes/dave_driver.c ****  * inithw for this device. A single device cannot work with multiple
 453:../src/smc_gen/r_drw2d_rx/src/tes/dave_driver.c ****  * hardware units.
 454:../src/smc_gen/r_drw2d_rx/src/tes/dave_driver.c ****  *
 455:../src/smc_gen/r_drw2d_rx/src/tes/dave_driver.c ****  * parameters:
 456:../src/smc_gen/r_drw2d_rx/src/tes/dave_driver.c ****  *   handle - device pointer (see: <d2_opendevice>)
 457:../src/smc_gen/r_drw2d_rx/src/tes/dave_driver.c ****  *   flags - hardware instance id (use 0 for default)
 458:../src/smc_gen/r_drw2d_rx/src/tes/dave_driver.c ****  *
 459:../src/smc_gen/r_drw2d_rx/src/tes/dave_driver.c ****  * returns:
 460:../src/smc_gen/r_drw2d_rx/src/tes/dave_driver.c ****  *   errorcode (D2_OK if successfull) see list of <Errorcodes> for details
 461:../src/smc_gen/r_drw2d_rx/src/tes/dave_driver.c ****  * */
 462:../src/smc_gen/r_drw2d_rx/src/tes/dave_driver.c **** d2_s32 d2_inithw( d2_device *handle, d2_u32 flags )
 463:../src/smc_gen/r_drw2d_rx/src/tes/dave_driver.c **** {
 464:../src/smc_gen/r_drw2d_rx/src/tes/dave_driver.c **** #ifdef D2_USEREGCACHE
 465:../src/smc_gen/r_drw2d_rx/src/tes/dave_driver.c ****    d2_s32 i;
 466:../src/smc_gen/r_drw2d_rx/src/tes/dave_driver.c **** #endif
 467:../src/smc_gen/r_drw2d_rx/src/tes/dave_driver.c ****    d2_devicedata *d2_dev = D2_DEV(handle);
 468:../src/smc_gen/r_drw2d_rx/src/tes/dave_driver.c **** 
 469:../src/smc_gen/r_drw2d_rx/src/tes/dave_driver.c ****    D2_VALIDATE( handle, D2_INVALIDDEVICE);             /* PRQA S 4130, 3112 */ /* $Misra: #DEBUG_MA
 470:../src/smc_gen/r_drw2d_rx/src/tes/dave_driver.c ****    D2_CHECKERR( d2_dev->hwid == NULL, D2_DEVASSIGNED); /* PRQA S 4130, 3112 */ /* $Misra: #DEBUG_MA
 471:../src/smc_gen/r_drw2d_rx/src/tes/dave_driver.c **** 
 472:../src/smc_gen/r_drw2d_rx/src/tes/dave_driver.c ****    d2_dev->hwid = d2hw_acquire( handle, flags );
 473:../src/smc_gen/r_drw2d_rx/src/tes/dave_driver.c ****    if(NULL == d2_dev->hwid)
 474:../src/smc_gen/r_drw2d_rx/src/tes/dave_driver.c ****    {
 475:../src/smc_gen/r_drw2d_rx/src/tes/dave_driver.c ****       D2_RETERR(handle, D2_HWINUSE);
 476:../src/smc_gen/r_drw2d_rx/src/tes/dave_driver.c ****    }
 477:../src/smc_gen/r_drw2d_rx/src/tes/dave_driver.c **** 
 478:../src/smc_gen/r_drw2d_rx/src/tes/dave_driver.c ****    /* invalidate register cache */
 479:../src/smc_gen/r_drw2d_rx/src/tes/dave_driver.c **** #ifdef D2_USEREGCACHE
 480:../src/smc_gen/r_drw2d_rx/src/tes/dave_driver.c ****    for(i=0; i<D2_QUANTITY; i++)
 481:../src/smc_gen/r_drw2d_rx/src/tes/dave_driver.c ****    {
 482:../src/smc_gen/r_drw2d_rx/src/tes/dave_driver.c ****       d2_dev->cache.valid[i] = 0;
 483:../src/smc_gen/r_drw2d_rx/src/tes/dave_driver.c ****    }
 484:../src/smc_gen/r_drw2d_rx/src/tes/dave_driver.c **** #endif
 485:../src/smc_gen/r_drw2d_rx/src/tes/dave_driver.c **** 
 486:../src/smc_gen/r_drw2d_rx/src/tes/dave_driver.c ****    /* setup a ring of two display list blocks as local buffer for low_localmem mode */
 487:../src/smc_gen/r_drw2d_rx/src/tes/dave_driver.c ****    if(0 != d2_dev->lowlocalmem_mode)
 488:../src/smc_gen/r_drw2d_rx/src/tes/dave_driver.c ****    {
 489:../src/smc_gen/r_drw2d_rx/src/tes/dave_driver.c ****       d2_lowlocalmem_mode* llm_mode = d2_dev->lowlocalmem_mode;
 490:../src/smc_gen/r_drw2d_rx/src/tes/dave_driver.c **** 
 491:../src/smc_gen/r_drw2d_rx/src/tes/dave_driver.c ****       llm_mode->dlist_buffer = d2_alloc_dlistblock_intern(handle, d2_dev->dlistblocksize);
 492:../src/smc_gen/r_drw2d_rx/src/tes/dave_driver.c ****       D2_CHECKERR( llm_mode->dlist_buffer, D2_NOMEMORY ); /* PRQA S 4130, 3112 */ /* $Misra: #DEBUG
 493:../src/smc_gen/r_drw2d_rx/src/tes/dave_driver.c ****       llm_mode->dlist_buffer->next = d2_alloc_dlistblock_intern(handle, d2_dev->dlistblocksize);
 494:../src/smc_gen/r_drw2d_rx/src/tes/dave_driver.c ****       D2_CHECKERR( llm_mode->dlist_buffer->next, D2_NOMEMORY ); /* PRQA S 4130, 3112 */ /* $Misra: 
 495:../src/smc_gen/r_drw2d_rx/src/tes/dave_driver.c ****       llm_mode->dlist_buffer->next->next = llm_mode->dlist_buffer;
 496:../src/smc_gen/r_drw2d_rx/src/tes/dave_driver.c ****    }
 497:../src/smc_gen/r_drw2d_rx/src/tes/dave_driver.c **** 
 498:../src/smc_gen/r_drw2d_rx/src/tes/dave_driver.c ****    /* initialize default display lists (allocates memory -> can't be done before
 499:../src/smc_gen/r_drw2d_rx/src/tes/dave_driver.c ****     * lowlevel initialization!!) */
 500:../src/smc_gen/r_drw2d_rx/src/tes/dave_driver.c ****    d2_dev->renderbuffer[0] = (d2_rbuffer*) d2_newrenderbuffer( handle, d2_dev->dlistblocksize, d2_d
 501:../src/smc_gen/r_drw2d_rx/src/tes/dave_driver.c ****    d2_dev->renderbuffer[1] = (d2_rbuffer*) d2_newrenderbuffer( handle, d2_dev->dlistblocksize, d2_d
 502:../src/smc_gen/r_drw2d_rx/src/tes/dave_driver.c **** 
 503:../src/smc_gen/r_drw2d_rx/src/tes/dave_driver.c ****    if( (NULL == d2_dev->renderbuffer[0]) || (NULL == d2_dev->renderbuffer[1]) )
 504:../src/smc_gen/r_drw2d_rx/src/tes/dave_driver.c ****    {
 505:../src/smc_gen/r_drw2d_rx/src/tes/dave_driver.c ****       (void)D2_SETERR( handle, D2_NOMEMORY);
 506:../src/smc_gen/r_drw2d_rx/src/tes/dave_driver.c ****       return D2_NOMEMORY;
 507:../src/smc_gen/r_drw2d_rx/src/tes/dave_driver.c ****    }
 508:../src/smc_gen/r_drw2d_rx/src/tes/dave_driver.c **** 
 509:../src/smc_gen/r_drw2d_rx/src/tes/dave_driver.c ****    /* preselect list */
 510:../src/smc_gen/r_drw2d_rx/src/tes/dave_driver.c ****    d2_dev->selectedbuffer = d2_dev->renderbuffer[0];
 511:../src/smc_gen/r_drw2d_rx/src/tes/dave_driver.c ****    d2_dev->writelist      = &d2_dev->renderbuffer[0]->baselist;
 512:../src/smc_gen/r_drw2d_rx/src/tes/dave_driver.c ****    d2_dev->readlist       = &d2_dev->renderbuffer[1]->baselist;
 513:../src/smc_gen/r_drw2d_rx/src/tes/dave_driver.c ****    d2_dev->srccontext     = NULL;
 514:../src/smc_gen/r_drw2d_rx/src/tes/dave_driver.c **** 
 515:../src/smc_gen/r_drw2d_rx/src/tes/dave_driver.c ****    /* allocate and init list assembly scratch buffer */
 516:../src/smc_gen/r_drw2d_rx/src/tes/dave_driver.c ****    d2_dev->dlscratch_base = (d2_dlist_scratch_entry*) d2_getmem_p( D2_DLISTSCRATCH * sizeof(d2_dlis
 517:../src/smc_gen/r_drw2d_rx/src/tes/dave_driver.c ****    D2_CHECKERR( d2_dev->dlscratch_base, D2_NOMEMORY ); /* PRQA S 4130, 3112 */ /* $Misra: #DEBUG_MA
 518:../src/smc_gen/r_drw2d_rx/src/tes/dave_driver.c ****    d2_dev->dlscratch_pos  = d2_dev->dlscratch_base;
 519:../src/smc_gen/r_drw2d_rx/src/tes/dave_driver.c ****    d2_dev->dlscratch_cnt  = D2_DLISTSCRATCH;
 520:../src/smc_gen/r_drw2d_rx/src/tes/dave_driver.c ****    d2_dev->dlscratch_hook = &d2_scratch2dlist_intern;
 521:../src/smc_gen/r_drw2d_rx/src/tes/dave_driver.c **** 
 522:../src/smc_gen/r_drw2d_rx/src/tes/dave_driver.c **** 
 523:../src/smc_gen/r_drw2d_rx/src/tes/dave_driver.c ****    d2_dev->dlist_indirect_supported = 0;
 524:../src/smc_gen/r_drw2d_rx/src/tes/dave_driver.c ****    if(0 != d1_devicesupported(d2_dev->hwid, D1_DLISTINDIRECT))
 525:../src/smc_gen/r_drw2d_rx/src/tes/dave_driver.c ****    {
 526:../src/smc_gen/r_drw2d_rx/src/tes/dave_driver.c ****       /* query d1 driver to use lists of dlist start addresses */
 527:../src/smc_gen/r_drw2d_rx/src/tes/dave_driver.c ****       d1_setregister(d2_dev->hwid, D1_DLISTINDIRECT, 0, 0x000000ff);
 528:../src/smc_gen/r_drw2d_rx/src/tes/dave_driver.c ****       if(0x000000ff == d1_getregister(d2_dev->hwid, D1_DLISTINDIRECT, 0))
 529:../src/smc_gen/r_drw2d_rx/src/tes/dave_driver.c ****       {
 530:../src/smc_gen/r_drw2d_rx/src/tes/dave_driver.c ****          d2_dev->dlist_indirect_supported = 1;
 531:../src/smc_gen/r_drw2d_rx/src/tes/dave_driver.c ****       }
 532:../src/smc_gen/r_drw2d_rx/src/tes/dave_driver.c ****    }
 533:../src/smc_gen/r_drw2d_rx/src/tes/dave_driver.c **** 
 534:../src/smc_gen/r_drw2d_rx/src/tes/dave_driver.c ****    D2_RETOK(handle);
 535:../src/smc_gen/r_drw2d_rx/src/tes/dave_driver.c **** }
 536:../src/smc_gen/r_drw2d_rx/src/tes/dave_driver.c **** 
 537:../src/smc_gen/r_drw2d_rx/src/tes/dave_driver.c **** /*--------------------------------------------------------------------------
 538:../src/smc_gen/r_drw2d_rx/src/tes/dave_driver.c ****  * function: d2_deinithw
 539:../src/smc_gen/r_drw2d_rx/src/tes/dave_driver.c ****  * Unlink hardware currently bound by specified device.
 540:../src/smc_gen/r_drw2d_rx/src/tes/dave_driver.c ****  * Hardware must be deinitialized before it can be reinitalized for another
 541:../src/smc_gen/r_drw2d_rx/src/tes/dave_driver.c ****  * device.
 542:../src/smc_gen/r_drw2d_rx/src/tes/dave_driver.c ****  *
 543:../src/smc_gen/r_drw2d_rx/src/tes/dave_driver.c ****  * parameters:
 544:../src/smc_gen/r_drw2d_rx/src/tes/dave_driver.c ****  *   handle - device pointer (see: <d2_opendevice>)
 545:../src/smc_gen/r_drw2d_rx/src/tes/dave_driver.c ****  *
 546:../src/smc_gen/r_drw2d_rx/src/tes/dave_driver.c ****  * returns:
 547:../src/smc_gen/r_drw2d_rx/src/tes/dave_driver.c ****  *   errorcode (D2_OK if successfull) see list of <Errorcodes> for details
 548:../src/smc_gen/r_drw2d_rx/src/tes/dave_driver.c ****  * */
 549:../src/smc_gen/r_drw2d_rx/src/tes/dave_driver.c **** d2_s32 d2_deinithw( d2_device *handle )
 550:../src/smc_gen/r_drw2d_rx/src/tes/dave_driver.c **** {
 551:../src/smc_gen/r_drw2d_rx/src/tes/dave_driver.c ****    D2_VALIDATE( handle, D2_INVALIDDEVICE); /* PRQA S 4130, 3112 */ /* $Misra: #DEBUG_MACRO $*/
 552:../src/smc_gen/r_drw2d_rx/src/tes/dave_driver.c ****    /* error if no hw assigned ? */
 553:../src/smc_gen/r_drw2d_rx/src/tes/dave_driver.c **** 
 554:../src/smc_gen/r_drw2d_rx/src/tes/dave_driver.c ****    if(NULL != D2_DEV(handle)->hwid)
 555:../src/smc_gen/r_drw2d_rx/src/tes/dave_driver.c ****    {
 556:../src/smc_gen/r_drw2d_rx/src/tes/dave_driver.c ****       d2_s32 err;
 557:../src/smc_gen/r_drw2d_rx/src/tes/dave_driver.c ****       d2_rbuffer *rb1,*rb2;
 558:../src/smc_gen/r_drw2d_rx/src/tes/dave_driver.c **** 
 559:../src/smc_gen/r_drw2d_rx/src/tes/dave_driver.c ****       if(0 != D2_DEV(handle)->lowlocalmem_mode)
 560:../src/smc_gen/r_drw2d_rx/src/tes/dave_driver.c ****       {
 561:../src/smc_gen/r_drw2d_rx/src/tes/dave_driver.c ****          /* free the ring of displaylist blocks */
 562:../src/smc_gen/r_drw2d_rx/src/tes/dave_driver.c ****          D2_DEV(handle)->lowlocalmem_mode->dlist_buffer->next->next = NULL;
 563:../src/smc_gen/r_drw2d_rx/src/tes/dave_driver.c ****          d2_free_dlistblock_intern(handle, D2_DEV(handle)->lowlocalmem_mode->dlist_buffer);
 564:../src/smc_gen/r_drw2d_rx/src/tes/dave_driver.c ****       }
 565:../src/smc_gen/r_drw2d_rx/src/tes/dave_driver.c **** 
 566:../src/smc_gen/r_drw2d_rx/src/tes/dave_driver.c ****       /* free display lists */
 567:../src/smc_gen/r_drw2d_rx/src/tes/dave_driver.c ****       rb1 = D2_DEV(handle)->renderbuffer[0];
 568:../src/smc_gen/r_drw2d_rx/src/tes/dave_driver.c ****       rb2 = D2_DEV(handle)->renderbuffer[1];
 569:../src/smc_gen/r_drw2d_rx/src/tes/dave_driver.c ****       D2_DEV(handle)->renderbuffer[0] = NULL; /* necessary in oder to free default buffer */
 570:../src/smc_gen/r_drw2d_rx/src/tes/dave_driver.c ****       D2_DEV(handle)->renderbuffer[1] = NULL;
 571:../src/smc_gen/r_drw2d_rx/src/tes/dave_driver.c ****       if(NULL != rb1)
 572:../src/smc_gen/r_drw2d_rx/src/tes/dave_driver.c ****       {
 573:../src/smc_gen/r_drw2d_rx/src/tes/dave_driver.c ****          (void)d2_freerenderbuffer( handle, rb1 );
 574:../src/smc_gen/r_drw2d_rx/src/tes/dave_driver.c ****       }
 575:../src/smc_gen/r_drw2d_rx/src/tes/dave_driver.c ****       if(NULL != rb2)
 576:../src/smc_gen/r_drw2d_rx/src/tes/dave_driver.c ****       {
 577:../src/smc_gen/r_drw2d_rx/src/tes/dave_driver.c ****          (void)d2_freerenderbuffer( handle, rb2 );
 578:../src/smc_gen/r_drw2d_rx/src/tes/dave_driver.c ****       }
 579:../src/smc_gen/r_drw2d_rx/src/tes/dave_driver.c ****       D2_DEV(handle)->selectedbuffer = NULL;
 580:../src/smc_gen/r_drw2d_rx/src/tes/dave_driver.c ****       D2_DEV(handle)->writelist      = NULL;
 581:../src/smc_gen/r_drw2d_rx/src/tes/dave_driver.c ****       D2_DEV(handle)->readlist       = NULL;
 582:../src/smc_gen/r_drw2d_rx/src/tes/dave_driver.c ****       D2_DEV(handle)->srccontext     = NULL;
 583:../src/smc_gen/r_drw2d_rx/src/tes/dave_driver.c **** 
 584:../src/smc_gen/r_drw2d_rx/src/tes/dave_driver.c ****       /* free scratch buffer */
 585:../src/smc_gen/r_drw2d_rx/src/tes/dave_driver.c ****       d2_freemem_p(D2_DEV(handle)->dlscratch_base);
 586:../src/smc_gen/r_drw2d_rx/src/tes/dave_driver.c ****       D2_DEV(handle)->dlscratch_base = NULL;
 587:../src/smc_gen/r_drw2d_rx/src/tes/dave_driver.c ****       D2_DEV(handle)->dlscratch_pos  = NULL;
 588:../src/smc_gen/r_drw2d_rx/src/tes/dave_driver.c **** 
 589:../src/smc_gen/r_drw2d_rx/src/tes/dave_driver.c ****       err = d2hw_release( D2_DEV(handle)->hwid );
 590:../src/smc_gen/r_drw2d_rx/src/tes/dave_driver.c ****       D2_DEV(handle)->hwid = NULL;
 591:../src/smc_gen/r_drw2d_rx/src/tes/dave_driver.c ****       D2_RETERR(handle, err);
 592:../src/smc_gen/r_drw2d_rx/src/tes/dave_driver.c ****    }
 593:../src/smc_gen/r_drw2d_rx/src/tes/dave_driver.c **** 
 594:../src/smc_gen/r_drw2d_rx/src/tes/dave_driver.c ****    D2_RETOK(handle);
 595:../src/smc_gen/r_drw2d_rx/src/tes/dave_driver.c **** }
 596:../src/smc_gen/r_drw2d_rx/src/tes/dave_driver.c **** 
 597:../src/smc_gen/r_drw2d_rx/src/tes/dave_driver.c **** /*--------------------------------------------------------------------------
 598:../src/smc_gen/r_drw2d_rx/src/tes/dave_driver.c ****  * function: d2_level1interface
 599:../src/smc_gen/r_drw2d_rx/src/tes/dave_driver.c ****  * Get the lowlevel device handle currently used by the d2_device. This is necessary
 600:../src/smc_gen/r_drw2d_rx/src/tes/dave_driver.c ****  * e.g. for allocating framebuffers using the lowlevel (d1_) interface.
 601:../src/smc_gen/r_drw2d_rx/src/tes/dave_driver.c ****  *
 602:../src/smc_gen/r_drw2d_rx/src/tes/dave_driver.c ****  * parameters:
 603:../src/smc_gen/r_drw2d_rx/src/tes/dave_driver.c ****  *   handle - device pointer (see: <d2_opendevice>)
 604:../src/smc_gen/r_drw2d_rx/src/tes/dave_driver.c ****  *
 605:../src/smc_gen/r_drw2d_rx/src/tes/dave_driver.c ****  * returns:
 606:../src/smc_gen/r_drw2d_rx/src/tes/dave_driver.c ****  *   handle for lowlevel device, or NULL if an error occurs
 607:../src/smc_gen/r_drw2d_rx/src/tes/dave_driver.c ****  * */
 608:../src/smc_gen/r_drw2d_rx/src/tes/dave_driver.c **** d1_device * d2_level1interface( const d2_device *handle )
 609:../src/smc_gen/r_drw2d_rx/src/tes/dave_driver.c **** {
 610:../src/smc_gen/r_drw2d_rx/src/tes/dave_driver.c ****    D2_VALIDATEP( handle, D2_INVALIDDEVICE); /* PRQA S 4130, 3112 */ /* $Misra: #DEBUG_MACRO $*/
 611:../src/smc_gen/r_drw2d_rx/src/tes/dave_driver.c **** 
 612:../src/smc_gen/r_drw2d_rx/src/tes/dave_driver.c ****    return D2_DEV(handle)->hwid;
 613:../src/smc_gen/r_drw2d_rx/src/tes/dave_driver.c **** }
 614:../src/smc_gen/r_drw2d_rx/src/tes/dave_driver.c **** 
 615:../src/smc_gen/r_drw2d_rx/src/tes/dave_driver.c **** /*--------------------------------------------------------------------------
 616:../src/smc_gen/r_drw2d_rx/src/tes/dave_driver.c ****  * function: d2_getrevisionhw
 617:../src/smc_gen/r_drw2d_rx/src/tes/dave_driver.c ****  * Query hw revisionID.
 618:../src/smc_gen/r_drw2d_rx/src/tes/dave_driver.c ****  * This information is available after calling <d2_inithw>.
 619:../src/smc_gen/r_drw2d_rx/src/tes/dave_driver.c ****  *
 620:../src/smc_gen/r_drw2d_rx/src/tes/dave_driver.c ****  * parameters:
 621:../src/smc_gen/r_drw2d_rx/src/tes/dave_driver.c ****  *   handle - device pointer (see: <d2_opendevice>)
 622:../src/smc_gen/r_drw2d_rx/src/tes/dave_driver.c ****  *
 623:../src/smc_gen/r_drw2d_rx/src/tes/dave_driver.c ****  * returns:
 624:../src/smc_gen/r_drw2d_rx/src/tes/dave_driver.c ****  * HW Revision ID
 625:../src/smc_gen/r_drw2d_rx/src/tes/dave_driver.c ****  *
 626:../src/smc_gen/r_drw2d_rx/src/tes/dave_driver.c ****  * HW Revision ID structure:
 627:../src/smc_gen/r_drw2d_rx/src/tes/dave_driver.c ****  * Bit[7..0]   - revision number
 628:../src/smc_gen/r_drw2d_rx/src/tes/dave_driver.c ****  * Bit[11..8]  - branch number
 629:../src/smc_gen/r_drw2d_rx/src/tes/dave_driver.c ****  * Bit[15..12] - D/AVE Type
 630:../src/smc_gen/r_drw2d_rx/src/tes/dave_driver.c ****  * Bit[20..16] - Features
 631:../src/smc_gen/r_drw2d_rx/src/tes/dave_driver.c ****  *
 632:../src/smc_gen/r_drw2d_rx/src/tes/dave_driver.c ****  * D/AVE Type:
 633:../src/smc_gen/r_drw2d_rx/src/tes/dave_driver.c ****  * 0 - D/AVE2DT-S
 634:../src/smc_gen/r_drw2d_rx/src/tes/dave_driver.c ****  * 1 - D/AVE2DT-L
 635:../src/smc_gen/r_drw2d_rx/src/tes/dave_driver.c ****  *
 636:../src/smc_gen/r_drw2d_rx/src/tes/dave_driver.c ****  * Feature bits:
 637:../src/smc_gen/r_drw2d_rx/src/tes/dave_driver.c ****  * Bit[16] - D2FB_SWDAVE (Software D/AVE)
 638:../src/smc_gen/r_drw2d_rx/src/tes/dave_driver.c ****  * Bit[17] - D2FB_DLR (DisplayListReader available)
 639:../src/smc_gen/r_drw2d_rx/src/tes/dave_driver.c ****  * Bit[18] - D2FB_FBCACHE (Framebuffer Cache available)
 640:../src/smc_gen/r_drw2d_rx/src/tes/dave_driver.c ****  * Bit[19] - D2FB_TXCACHE (Texture Cache available)
 641:../src/smc_gen/r_drw2d_rx/src/tes/dave_driver.c ****  * Bit[20] - D2FB_PERFCOUNT (Two performance counters available)
 642:../src/smc_gen/r_drw2d_rx/src/tes/dave_driver.c ****  * Bit[21] - D2FB_TEXCLUT (Color Lookup Table for ai44 format)
 643:../src/smc_gen/r_drw2d_rx/src/tes/dave_driver.c ****  * Bit[22] - D2FB_FBPREFETCH (frame buffer cache prefetch available)
 644:../src/smc_gen/r_drw2d_rx/src/tes/dave_driver.c ****  * Bit[23] - D2FB_RLEUNIT (RLE unit available)
 645:../src/smc_gen/r_drw2d_rx/src/tes/dave_driver.c ****  * Bit[24] - D2FB_TEXCLUT256 (256 entry CLUT available)
 646:../src/smc_gen/r_drw2d_rx/src/tes/dave_driver.c ****  * Bit[25] - D2FB_COLORKEY (color keying available)
 647:../src/smc_gen/r_drw2d_rx/src/tes/dave_driver.c ****  * Bit[26] - D2FB_HILIMITERPRECISION (limiter high precision mode available)
 648:../src/smc_gen/r_drw2d_rx/src/tes/dave_driver.c ****  * Bit[27] - D2FB_ALPHACHANNELBLENDING (alpha channel blending available)
 649:../src/smc_gen/r_drw2d_rx/src/tes/dave_driver.c ****  *
 650:../src/smc_gen/r_drw2d_rx/src/tes/dave_driver.c ****  * see also:
 651:../src/smc_gen/r_drw2d_rx/src/tes/dave_driver.c ****  *  <d2_getrevisionstringhw>
 652:../src/smc_gen/r_drw2d_rx/src/tes/dave_driver.c ****  * */
 653:../src/smc_gen/r_drw2d_rx/src/tes/dave_driver.c **** d2_u32 d2_getrevisionhw( const d2_device *handle )
 654:../src/smc_gen/r_drw2d_rx/src/tes/dave_driver.c **** {
 655:../src/smc_gen/r_drw2d_rx/src/tes/dave_driver.c ****    D2_VALIDATE( handle, D2_INVALIDDEVICE ); /* PRQA S 4130, 3112 */ /* $Misra: #DEBUG_MACRO $*/
 656:../src/smc_gen/r_drw2d_rx/src/tes/dave_driver.c ****    return D2_DEV(handle)->hwrevision;
 657:../src/smc_gen/r_drw2d_rx/src/tes/dave_driver.c **** }
 658:../src/smc_gen/r_drw2d_rx/src/tes/dave_driver.c **** 
 659:../src/smc_gen/r_drw2d_rx/src/tes/dave_driver.c **** /*--------------------------------------------------------------------------
 660:../src/smc_gen/r_drw2d_rx/src/tes/dave_driver.c ****  * Copy a string.
 661:../src/smc_gen/r_drw2d_rx/src/tes/dave_driver.c ****  * 
 662:../src/smc_gen/r_drw2d_rx/src/tes/dave_driver.c ****  * dst      - Destination string 
 663:../src/smc_gen/r_drw2d_rx/src/tes/dave_driver.c ****  * src      - Null-terminated source string
 664:../src/smc_gen/r_drw2d_rx/src/tes/dave_driver.c ****  * dst_size - Size of destination string in chars
 665:../src/smc_gen/r_drw2d_rx/src/tes/dave_driver.c ****  * */
 666:../src/smc_gen/r_drw2d_rx/src/tes/dave_driver.c **** static void d2_strcpy(d2_char *dst, const d2_char *src, d2_u32 dst_size)
 667:../src/smc_gen/r_drw2d_rx/src/tes/dave_driver.c **** {
  10                             		.loc 1 667 1 view -0
 668:../src/smc_gen/r_drw2d_rx/src/tes/dave_driver.c ****    if( (NULL == dst) || (0 == dst_size) )
  11                             		.loc 1 668 4 view .LVU1
  12                             		.loc 1 668 6 is_stmt 0 view .LVU2
  13 0000 61 01                   		cmp	#0, r1
  14 0002 20 1F                   		beq	.L1
  15                             		.loc 1 668 22 discriminator 1 view .LVU3
  16 0004 61 03                   		cmp	#0, r3
  17 0006 20 1B                   		beq	.L1
 669:../src/smc_gen/r_drw2d_rx/src/tes/dave_driver.c ****    {
 670:../src/smc_gen/r_drw2d_rx/src/tes/dave_driver.c ****       return;
 671:../src/smc_gen/r_drw2d_rx/src/tes/dave_driver.c ****    }
 672:../src/smc_gen/r_drw2d_rx/src/tes/dave_driver.c **** 
 673:../src/smc_gen/r_drw2d_rx/src/tes/dave_driver.c ****    --dst_size;
  18                             		.loc 1 673 4 is_stmt 1 view .LVU4
  19 0008 60 13                   		sub	#1, r3
  20                             	.LVL1:
 674:../src/smc_gen/r_drw2d_rx/src/tes/dave_driver.c ****    while( (0 != *src) && (0 != dst_size) )
  21                             		.loc 1 674 4 view .LVU5
  22                             	.L3:
  23                             		.loc 1 674 17 is_stmt 0 view .LVU6
  24 000a CC 25                   		mov.B	[r2], r5
  25                             		.loc 1 674 9 view .LVU7
  26 000c 5B 54                   		movu.B	r5, r4
  27 000e 61 04                   		cmp	#0, r4
  28 0010 20 0E                   		beq	.L4
  29                             		.loc 1 674 23 discriminator 1 view .LVU8
  30 0012 61 03                   		cmp	#0, r3
  31 0014 12                      		beq	.L4
 675:../src/smc_gen/r_drw2d_rx/src/tes/dave_driver.c ****    {
 676:../src/smc_gen/r_drw2d_rx/src/tes/dave_driver.c ****       *dst = *src;
  32                             		.loc 1 676 7 is_stmt 1 view .LVU9
  33                             		.loc 1 676 12 is_stmt 0 view .LVU10
  34 0015 FD 20 15                		mov.B	r5, [r1+]
  35                             	.LVL2:
 677:../src/smc_gen/r_drw2d_rx/src/tes/dave_driver.c ****       dst++;
  36                             		.loc 1 677 7 is_stmt 1 view .LVU11
 678:../src/smc_gen/r_drw2d_rx/src/tes/dave_driver.c ****       src++;
  37                             		.loc 1 678 7 view .LVU12
  38                             		.loc 1 678 10 is_stmt 0 view .LVU13
  39 0018 62 12                   		add	#1, r2
  40                             	.LVL3:
 679:../src/smc_gen/r_drw2d_rx/src/tes/dave_driver.c ****       --dst_size;
  41                             		.loc 1 679 7 is_stmt 1 view .LVU14
  42 001a 60 13                   		sub	#1, r3
  43                             	.LVL4:
  44                             		.loc 1 679 7 is_stmt 0 view .LVU15
  45 001c 2E EE                   		bra	.L3
  46                             	.L4:
 680:../src/smc_gen/r_drw2d_rx/src/tes/dave_driver.c ****    }
 681:../src/smc_gen/r_drw2d_rx/src/tes/dave_driver.c ****    *dst = 0;
  47                             		.loc 1 681 4 is_stmt 1 view .LVU16
  48                             		.loc 1 681 9 is_stmt 0 view .LVU17
  49 001e F8 14 00                		mov.B	#0, [r1]
  50                             	.L1:
 682:../src/smc_gen/r_drw2d_rx/src/tes/dave_driver.c **** }
  51                             		.loc 1 682 1 view .LVU18
  52 0021 02                      		rts
  53                             	.LFE17:
  55                             		.section	.text.d2_strcat,"ax",@progbits
  57                             	_d2_strcat:
  58                             	.LVL5:
  59                             	.LFB18:
 683:../src/smc_gen/r_drw2d_rx/src/tes/dave_driver.c **** 
 684:../src/smc_gen/r_drw2d_rx/src/tes/dave_driver.c **** 
 685:../src/smc_gen/r_drw2d_rx/src/tes/dave_driver.c **** /*--------------------------------------------------------------------------
 686:../src/smc_gen/r_drw2d_rx/src/tes/dave_driver.c ****  * Append a string.
 687:../src/smc_gen/r_drw2d_rx/src/tes/dave_driver.c ****  * 
 688:../src/smc_gen/r_drw2d_rx/src/tes/dave_driver.c ****  * dst      - Destination string 
 689:../src/smc_gen/r_drw2d_rx/src/tes/dave_driver.c ****  * src      - Null-terminated source string
 690:../src/smc_gen/r_drw2d_rx/src/tes/dave_driver.c ****  * dst_size - Size of destination string in chars
 691:../src/smc_gen/r_drw2d_rx/src/tes/dave_driver.c ****  * */
 692:../src/smc_gen/r_drw2d_rx/src/tes/dave_driver.c **** static void d2_strcat(d2_char *dst, const d2_char *src, d2_u32 dst_size)
 693:../src/smc_gen/r_drw2d_rx/src/tes/dave_driver.c **** {
  60                             		.loc 1 693 1 is_stmt 1 view -0
 694:../src/smc_gen/r_drw2d_rx/src/tes/dave_driver.c ****    if(NULL == dst)
  61                             		.loc 1 694 4 view .LVU20
  62                             		.loc 1 694 6 is_stmt 0 view .LVU21
  63 0000 61 01                   		cmp	#0, r1
  64 0002 20 14                   		beq	.L6
 695:../src/smc_gen/r_drw2d_rx/src/tes/dave_driver.c ****    {
 696:../src/smc_gen/r_drw2d_rx/src/tes/dave_driver.c ****       return;
 697:../src/smc_gen/r_drw2d_rx/src/tes/dave_driver.c ****    }
 698:../src/smc_gen/r_drw2d_rx/src/tes/dave_driver.c **** 
 699:../src/smc_gen/r_drw2d_rx/src/tes/dave_driver.c ****    --dst_size;
  65                             		.loc 1 699 4 is_stmt 1 view .LVU22
  66 0004 60 13                   		sub	#1, r3
  67                             	.LVL6:
 700:../src/smc_gen/r_drw2d_rx/src/tes/dave_driver.c ****    while( (0 != *dst) && (0 != dst_size) )
  68                             		.loc 1 700 4 view .LVU23
  69                             	.L8:
  70                             		.loc 1 700 9 is_stmt 0 view .LVU24
  71 0006 58 15                   		movu.B	[r1], r5
  72 0008 61 05                   		cmp	#0, r5
  73 000a 10                      		beq	.L9
  74                             		.loc 1 700 23 discriminator 1 view .LVU25
  75 000b 61 03                   		cmp	#0, r3
  76 000d 15                      		beq	.L9
 701:../src/smc_gen/r_drw2d_rx/src/tes/dave_driver.c ****    {
 702:../src/smc_gen/r_drw2d_rx/src/tes/dave_driver.c ****       dst++;
  77                             		.loc 1 702 7 is_stmt 1 view .LVU26
  78                             		.loc 1 702 10 is_stmt 0 view .LVU27
  79 000e 62 11                   		add	#1, r1
  80                             	.LVL7:
  81                             		.loc 1 702 10 view .LVU28
  82 0010 2E F6                   		bra	.L8
  83                             	.L9:
 703:../src/smc_gen/r_drw2d_rx/src/tes/dave_driver.c ****    }
 704:../src/smc_gen/r_drw2d_rx/src/tes/dave_driver.c **** 
 705:../src/smc_gen/r_drw2d_rx/src/tes/dave_driver.c ****    d2_strcpy(dst, src, dst_size);
  84                             		.loc 1 705 4 is_stmt 1 view .LVU29
  85 0012 05 00 00 00             		bsr	_d2_strcpy
  86                             	.LVL8:
  87                             	.L6:
 706:../src/smc_gen/r_drw2d_rx/src/tes/dave_driver.c **** }
  88                             		.loc 1 706 1 is_stmt 0 view .LVU30
  89 0016 02                      		rts
  90                             	.LFE18:
  92                             		.section	.text.d2_hextostr,"ax",@progbits
  94                             	_d2_hextostr:
  95                             	.LVL9:
  96                             	.LFB19:
 707:../src/smc_gen/r_drw2d_rx/src/tes/dave_driver.c **** 
 708:../src/smc_gen/r_drw2d_rx/src/tes/dave_driver.c **** 
 709:../src/smc_gen/r_drw2d_rx/src/tes/dave_driver.c **** /*--------------------------------------------------------------------------
 710:../src/smc_gen/r_drw2d_rx/src/tes/dave_driver.c ****  * Convert an unsigned integer to a string.
 711:../src/smc_gen/r_drw2d_rx/src/tes/dave_driver.c ****  * 
 712:../src/smc_gen/r_drw2d_rx/src/tes/dave_driver.c ****  * a_dst    - Destination string 
 713:../src/smc_gen/r_drw2d_rx/src/tes/dave_driver.c ****  * a_number - unsigned integer number
 714:../src/smc_gen/r_drw2d_rx/src/tes/dave_driver.c ****  * a_size   - Size of destination string in chars
 715:../src/smc_gen/r_drw2d_rx/src/tes/dave_driver.c ****  * */
 716:../src/smc_gen/r_drw2d_rx/src/tes/dave_driver.c **** #ifdef NEED_D2_INTTOSTR
 717:../src/smc_gen/r_drw2d_rx/src/tes/dave_driver.c **** static void d2_inttostr(d2_char *a_dst, d2_u32 a_number, d2_u32 a_size)
 718:../src/smc_gen/r_drw2d_rx/src/tes/dave_driver.c **** {
 719:../src/smc_gen/r_drw2d_rx/src/tes/dave_driver.c ****    d2_u32 digits = 0;
 720:../src/smc_gen/r_drw2d_rx/src/tes/dave_driver.c ****    d2_u32 divisor = 1;
 721:../src/smc_gen/r_drw2d_rx/src/tes/dave_driver.c ****    d2_u32 num = a_number;
 722:../src/smc_gen/r_drw2d_rx/src/tes/dave_driver.c ****    a_size--;
 723:../src/smc_gen/r_drw2d_rx/src/tes/dave_driver.c **** 
 724:../src/smc_gen/r_drw2d_rx/src/tes/dave_driver.c ****    /* find number of digits */
 725:../src/smc_gen/r_drw2d_rx/src/tes/dave_driver.c ****    do
 726:../src/smc_gen/r_drw2d_rx/src/tes/dave_driver.c ****    {
 727:../src/smc_gen/r_drw2d_rx/src/tes/dave_driver.c ****       num /= 10;
 728:../src/smc_gen/r_drw2d_rx/src/tes/dave_driver.c ****       divisor *= 10;
 729:../src/smc_gen/r_drw2d_rx/src/tes/dave_driver.c ****       digits++;
 730:../src/smc_gen/r_drw2d_rx/src/tes/dave_driver.c ****    } while (num > 0);
 731:../src/smc_gen/r_drw2d_rx/src/tes/dave_driver.c **** 
 732:../src/smc_gen/r_drw2d_rx/src/tes/dave_driver.c ****    /* convert to string */
 733:../src/smc_gen/r_drw2d_rx/src/tes/dave_driver.c ****    while( (a_size > 0) && (digits > 0) )
 734:../src/smc_gen/r_drw2d_rx/src/tes/dave_driver.c ****    {    
 735:../src/smc_gen/r_drw2d_rx/src/tes/dave_driver.c ****       d2_u32 digit;
 736:../src/smc_gen/r_drw2d_rx/src/tes/dave_driver.c **** 
 737:../src/smc_gen/r_drw2d_rx/src/tes/dave_driver.c ****       divisor /= 10;
 738:../src/smc_gen/r_drw2d_rx/src/tes/dave_driver.c ****       digit = a_number / divisor;
 739:../src/smc_gen/r_drw2d_rx/src/tes/dave_driver.c ****       *a_dst = (d2_char) (digit + '0');
 740:../src/smc_gen/r_drw2d_rx/src/tes/dave_driver.c ****       a_dst++;
 741:../src/smc_gen/r_drw2d_rx/src/tes/dave_driver.c ****       a_number -= digit * divisor;
 742:../src/smc_gen/r_drw2d_rx/src/tes/dave_driver.c ****       a_size--;
 743:../src/smc_gen/r_drw2d_rx/src/tes/dave_driver.c ****       digits--;    
 744:../src/smc_gen/r_drw2d_rx/src/tes/dave_driver.c ****    }
 745:../src/smc_gen/r_drw2d_rx/src/tes/dave_driver.c **** 
 746:../src/smc_gen/r_drw2d_rx/src/tes/dave_driver.c ****    /* add termination */
 747:../src/smc_gen/r_drw2d_rx/src/tes/dave_driver.c ****    *a_dst = 0;
 748:../src/smc_gen/r_drw2d_rx/src/tes/dave_driver.c **** }
 749:../src/smc_gen/r_drw2d_rx/src/tes/dave_driver.c **** #endif /* NEED_D2_INTTOSTR */
 750:../src/smc_gen/r_drw2d_rx/src/tes/dave_driver.c **** 
 751:../src/smc_gen/r_drw2d_rx/src/tes/dave_driver.c **** /*--------------------------------------------------------------------------
 752:../src/smc_gen/r_drw2d_rx/src/tes/dave_driver.c ****  * Convert an unsigned integer to a hex string.
 753:../src/smc_gen/r_drw2d_rx/src/tes/dave_driver.c ****  * 
 754:../src/smc_gen/r_drw2d_rx/src/tes/dave_driver.c ****  * a_dst    - Destination string 
 755:../src/smc_gen/r_drw2d_rx/src/tes/dave_driver.c ****  * a_number - unsigned integer number
 756:../src/smc_gen/r_drw2d_rx/src/tes/dave_driver.c ****  * a_size   - Size of destination string in chars
 757:../src/smc_gen/r_drw2d_rx/src/tes/dave_driver.c ****  * */
 758:../src/smc_gen/r_drw2d_rx/src/tes/dave_driver.c **** static void d2_hextostr(d2_char *a_dst, d2_u32 a_number, d2_u32 a_size)
 759:../src/smc_gen/r_drw2d_rx/src/tes/dave_driver.c **** {
  97                             		.loc 1 759 1 is_stmt 1 view -0
 760:../src/smc_gen/r_drw2d_rx/src/tes/dave_driver.c ****    d2_u32 digits = 0;
  98                             		.loc 1 760 4 view .LVU32
 761:../src/smc_gen/r_drw2d_rx/src/tes/dave_driver.c ****    d2_u32 divisor = 1;
  99                             		.loc 1 761 4 view .LVU33
 762:../src/smc_gen/r_drw2d_rx/src/tes/dave_driver.c ****    d2_u32 num = a_number;
 100                             		.loc 1 762 4 view .LVU34
 763:../src/smc_gen/r_drw2d_rx/src/tes/dave_driver.c ****    a_size--;
 101                             		.loc 1 763 4 view .LVU35
 102                             		.loc 1 763 10 is_stmt 0 view .LVU36
 103 0000 60 13                   		sub	#1, r3
 104                             	.LVL10:
 762:../src/smc_gen/r_drw2d_rx/src/tes/dave_driver.c ****    d2_u32 num = a_number;
 105                             		.loc 1 762 11 view .LVU37
 106 0002 EF 24                   		mov.L	r2, r4
 761:../src/smc_gen/r_drw2d_rx/src/tes/dave_driver.c ****    d2_u32 divisor = 1;
 107                             		.loc 1 761 11 view .LVU38
 108 0004 66 1F                   		mov.L	#1, r15
 760:../src/smc_gen/r_drw2d_rx/src/tes/dave_driver.c ****    d2_u32 divisor = 1;
 109                             		.loc 1 760 11 view .LVU39
 110 0006 66 05                   		mov.L	#0, r5
 111 0008 0B                      		bra	.L12
 112                             	.LVL11:
 113                             	.L18:
 764:../src/smc_gen/r_drw2d_rx/src/tes/dave_driver.c **** 
 765:../src/smc_gen/r_drw2d_rx/src/tes/dave_driver.c ****    /* find number of digits */
 766:../src/smc_gen/r_drw2d_rx/src/tes/dave_driver.c ****    do
 767:../src/smc_gen/r_drw2d_rx/src/tes/dave_driver.c ****    {
 768:../src/smc_gen/r_drw2d_rx/src/tes/dave_driver.c ****       num /= 16;
 114                             		.loc 1 768 11 view .LVU40
 115 0009 EF E4                   		mov.L	r14, r4
 116                             	.LVL12:
 117                             	.L12:
 766:../src/smc_gen/r_drw2d_rx/src/tes/dave_driver.c ****    {
 118                             		.loc 1 766 4 is_stmt 1 discriminator 1 view .LVU41
 119                             		.loc 1 768 7 discriminator 1 view .LVU42
 120                             		.loc 1 768 11 is_stmt 0 discriminator 1 view .LVU43
 121 000b FD 84 4E                		shlr	#4, r4, r14
 122                             	.LVL13:
 769:../src/smc_gen/r_drw2d_rx/src/tes/dave_driver.c ****       divisor *= 16;
 123                             		.loc 1 769 7 is_stmt 1 discriminator 1 view .LVU44
 124                             		.loc 1 769 15 is_stmt 0 discriminator 1 view .LVU45
 125 000e 6C 4F                   		shll	#4, r15
 126                             	.LVL14:
 770:../src/smc_gen/r_drw2d_rx/src/tes/dave_driver.c ****       digits++;
 127                             		.loc 1 770 7 is_stmt 1 discriminator 1 view .LVU46
 128                             		.loc 1 770 13 is_stmt 0 discriminator 1 view .LVU47
 129 0010 62 15                   		add	#1, r5
 130                             	.LVL15:
 771:../src/smc_gen/r_drw2d_rx/src/tes/dave_driver.c ****    } while (num > 0);
 131                             		.loc 1 771 4 discriminator 1 view .LVU48
 132 0012 61 F4                   		cmp	#15, r4
 133 0014 24 F5                   		bgtu	.L18
 134 0016 2E 19                   		bra	.L13
 135                             	.LVL16:
 136                             	.L14:
 137                             	.LBB34:
 772:../src/smc_gen/r_drw2d_rx/src/tes/dave_driver.c **** 
 773:../src/smc_gen/r_drw2d_rx/src/tes/dave_driver.c ****    /* convert to string */
 774:../src/smc_gen/r_drw2d_rx/src/tes/dave_driver.c ****    while( (a_size > 0) && (digits > 0) )
 775:../src/smc_gen/r_drw2d_rx/src/tes/dave_driver.c ****    {    
 776:../src/smc_gen/r_drw2d_rx/src/tes/dave_driver.c ****       d2_u32 digit;
 777:../src/smc_gen/r_drw2d_rx/src/tes/dave_driver.c **** 
 778:../src/smc_gen/r_drw2d_rx/src/tes/dave_driver.c ****       divisor /= 16;
 779:../src/smc_gen/r_drw2d_rx/src/tes/dave_driver.c ****       digit = a_number / divisor;
 780:../src/smc_gen/r_drw2d_rx/src/tes/dave_driver.c **** 
 781:../src/smc_gen/r_drw2d_rx/src/tes/dave_driver.c ****       if (digit < 10)
 782:../src/smc_gen/r_drw2d_rx/src/tes/dave_driver.c ****       {
 783:../src/smc_gen/r_drw2d_rx/src/tes/dave_driver.c ****          *a_dst = (d2_char) (digit + '0');
 784:../src/smc_gen/r_drw2d_rx/src/tes/dave_driver.c ****          a_dst++;
 785:../src/smc_gen/r_drw2d_rx/src/tes/dave_driver.c ****       }
 786:../src/smc_gen/r_drw2d_rx/src/tes/dave_driver.c ****       else if (digit < 16)
 138                             		.loc 1 786 12 is_stmt 1 view .LVU49
 139                             		.loc 1 786 15 is_stmt 0 view .LVU50
 140 0018 61 FE                   		cmp	#15, r14
 141 001a 24 08                   		bgtu	.L15
 787:../src/smc_gen/r_drw2d_rx/src/tes/dave_driver.c ****       {
 788:../src/smc_gen/r_drw2d_rx/src/tes/dave_driver.c ****          *a_dst = (d2_char) ((digit - 10) + 'a');
 142                             		.loc 1 788 10 is_stmt 1 view .LVU51
 143                             		.loc 1 788 19 is_stmt 0 view .LVU52
 144 001c 71 EE 57                		add	#0x57, r14
 145                             	.LVL17:
 146                             		.loc 1 788 17 view .LVU53
 147 001f FD 20 1E                		mov.B	r14, [r1+]
 148                             	.LVL18:
 789:../src/smc_gen/r_drw2d_rx/src/tes/dave_driver.c ****          a_dst++;
 149                             		.loc 1 789 10 is_stmt 1 view .LVU54
 150                             	.L15:
 790:../src/smc_gen/r_drw2d_rx/src/tes/dave_driver.c ****       }
 791:../src/smc_gen/r_drw2d_rx/src/tes/dave_driver.c ****       else
 792:../src/smc_gen/r_drw2d_rx/src/tes/dave_driver.c ****       {
 793:../src/smc_gen/r_drw2d_rx/src/tes/dave_driver.c ****          /* empty else block to satisfy MISRA rule 14.10/2004 */
 794:../src/smc_gen/r_drw2d_rx/src/tes/dave_driver.c ****       }
 151                             		.loc 1 794 7 view .LVU55
 795:../src/smc_gen/r_drw2d_rx/src/tes/dave_driver.c ****       /* else if (digit < 16)
 796:../src/smc_gen/r_drw2d_rx/src/tes/dave_driver.c ****          {
 797:../src/smc_gen/r_drw2d_rx/src/tes/dave_driver.c ****            *a_dst = '-';
 798:../src/smc_gen/r_drw2d_rx/src/tes/dave_driver.c ****            a_dst++;
 799:../src/smc_gen/r_drw2d_rx/src/tes/dave_driver.c ****          }
 800:../src/smc_gen/r_drw2d_rx/src/tes/dave_driver.c ****       */ /* (note) block never reached */
 801:../src/smc_gen/r_drw2d_rx/src/tes/dave_driver.c ****       a_number -= digit * divisor;
 152                             		.loc 1 801 7 view .LVU56
 153 0022 EF 2E                   		mov.L	r2, r14
 154 0024 FC 27 4E                		divu	r4, r14
 155 0027 4F E4                   		mul	r14, r4
 156                             	.LVL19:
 157                             		.loc 1 801 7 is_stmt 0 view .LVU57
 158 0029 43 42                   		sub	r4, r2
 159                             	.LVL20:
 802:../src/smc_gen/r_drw2d_rx/src/tes/dave_driver.c ****       a_size--;
 160                             		.loc 1 802 7 is_stmt 1 view .LVU58
 161                             		.loc 1 802 13 is_stmt 0 view .LVU59
 162 002b 60 13                   		sub	#1, r3
 163                             	.LVL21:
 803:../src/smc_gen/r_drw2d_rx/src/tes/dave_driver.c ****       digits--;    
 164                             		.loc 1 803 7 is_stmt 1 view .LVU60
 165                             		.loc 1 803 13 is_stmt 0 view .LVU61
 166 002d 60 15                   		sub	#1, r5
 167                             	.LVL22:
 168                             	.L13:
 169                             		.loc 1 803 13 view .LVU62
 170                             	.LBE34:
 774:../src/smc_gen/r_drw2d_rx/src/tes/dave_driver.c ****    {    
 171                             		.loc 1 774 9 view .LVU63
 172 002f 61 03                   		cmp	#0, r3
 173 0031 20 1C                   		beq	.L16
 774:../src/smc_gen/r_drw2d_rx/src/tes/dave_driver.c ****    {    
 174                             		.loc 1 774 24 discriminator 1 view .LVU64
 175 0033 61 05                   		cmp	#0, r5
 176 0035 20 18                   		beq	.L16
 177                             	.LBB35:
 776:../src/smc_gen/r_drw2d_rx/src/tes/dave_driver.c **** 
 178                             		.loc 1 776 7 is_stmt 1 view .LVU65
 778:../src/smc_gen/r_drw2d_rx/src/tes/dave_driver.c ****       digit = a_number / divisor;
 179                             		.loc 1 778 7 view .LVU66
 778:../src/smc_gen/r_drw2d_rx/src/tes/dave_driver.c ****       digit = a_number / divisor;
 180                             		.loc 1 778 15 is_stmt 0 view .LVU67
 181 0037 FD 84 F4                		shlr	#4, r15, r4
 182 003a EF 4F                   		mov.L	r4, r15
 183                             	.LVL23:
 779:../src/smc_gen/r_drw2d_rx/src/tes/dave_driver.c **** 
 184                             		.loc 1 779 7 is_stmt 1 view .LVU68
 779:../src/smc_gen/r_drw2d_rx/src/tes/dave_driver.c **** 
 185                             		.loc 1 779 13 is_stmt 0 view .LVU69
 186 003c EF 2E                   		mov.L	r2, r14
 187 003e FC 27 4E                		divu	r4, r14
 188                             	.LVL24:
 781:../src/smc_gen/r_drw2d_rx/src/tes/dave_driver.c ****       {
 189                             		.loc 1 781 7 is_stmt 1 view .LVU70
 781:../src/smc_gen/r_drw2d_rx/src/tes/dave_driver.c ****       {
 190                             		.loc 1 781 10 is_stmt 0 view .LVU71
 191 0041 61 9E                   		cmp	#9, r14
 192 0043 24 D5                   		bgtu	.L14
 783:../src/smc_gen/r_drw2d_rx/src/tes/dave_driver.c ****          a_dst++;
 193                             		.loc 1 783 10 is_stmt 1 view .LVU72
 783:../src/smc_gen/r_drw2d_rx/src/tes/dave_driver.c ****          a_dst++;
 194                             		.loc 1 783 19 is_stmt 0 view .LVU73
 195 0045 71 EE 30                		add	#48, r14
 196                             	.LVL25:
 783:../src/smc_gen/r_drw2d_rx/src/tes/dave_driver.c ****          a_dst++;
 197                             		.loc 1 783 17 view .LVU74
 198 0048 FD 20 1E                		mov.B	r14, [r1+]
 199                             	.LVL26:
 784:../src/smc_gen/r_drw2d_rx/src/tes/dave_driver.c ****       }
 200                             		.loc 1 784 10 is_stmt 1 view .LVU75
 784:../src/smc_gen/r_drw2d_rx/src/tes/dave_driver.c ****       }
 201                             		.loc 1 784 10 is_stmt 0 view .LVU76
 202 004b 2E D7                   		bra	.L15
 203                             	.LVL27:
 204                             	.L16:
 784:../src/smc_gen/r_drw2d_rx/src/tes/dave_driver.c ****       }
 205                             		.loc 1 784 10 view .LVU77
 206                             	.LBE35:
 804:../src/smc_gen/r_drw2d_rx/src/tes/dave_driver.c ****    }
 805:../src/smc_gen/r_drw2d_rx/src/tes/dave_driver.c **** 
 806:../src/smc_gen/r_drw2d_rx/src/tes/dave_driver.c ****    /* add termination */
 807:../src/smc_gen/r_drw2d_rx/src/tes/dave_driver.c ****    *a_dst = 0;
 207                             		.loc 1 807 4 is_stmt 1 view .LVU78
 208                             		.loc 1 807 11 is_stmt 0 view .LVU79
 209 004d F8 14 00                		mov.B	#0, [r1]
 808:../src/smc_gen/r_drw2d_rx/src/tes/dave_driver.c **** }
 210                             		.loc 1 808 1 view .LVU80
 211 0050 02                      		rts
 212                             	.LFE19:
 214                             		.section	.text.d2_newbackupcontext_intern,"ax",@progbits
 216                             	_d2_newbackupcontext_intern:
 217                             	.LVL28:
 218                             	.LFB8:
 179:../src/smc_gen/r_drw2d_rx/src/tes/dave_driver.c ****    d2_contextdata_backup *ctx;
 219                             		.loc 1 179 1 is_stmt 1 view -0
 179:../src/smc_gen/r_drw2d_rx/src/tes/dave_driver.c ****    d2_contextdata_backup *ctx;
 220                             		.loc 1 179 1 is_stmt 0 view .LVU82
 221 0000 7E A7                   		push.l	r7
 222                             	.LCFI0:
 223 0002 EF 17                   		mov.L	r1, r7
 180:../src/smc_gen/r_drw2d_rx/src/tes/dave_driver.c **** 
 224                             		.loc 1 180 4 is_stmt 1 view .LVU83
 182:../src/smc_gen/r_drw2d_rx/src/tes/dave_driver.c ****    {
 225                             		.loc 1 182 4 view .LVU84
 182:../src/smc_gen/r_drw2d_rx/src/tes/dave_driver.c ****    {
 226                             		.loc 1 182 6 is_stmt 0 view .LVU85
 227 0004 FD 74 C2 40             		tst	#0x40, r2
 228 0008 21 11                   		bne	.L21
 188:../src/smc_gen/r_drw2d_rx/src/tes/dave_driver.c ****    }
 229                             		.loc 1 188 7 is_stmt 1 view .LVU86
 188:../src/smc_gen/r_drw2d_rx/src/tes/dave_driver.c ****    }
 230                             		.loc 1 188 39 is_stmt 0 view .LVU87
 231 000a 75 41 70                		mov.L	#0x70, r1
 232                             	.LVL29:
 188:../src/smc_gen/r_drw2d_rx/src/tes/dave_driver.c ****    }
 233                             		.loc 1 188 39 view .LVU88
 234 000d 05 00 00 00             		bsr	_d2_getmem_p
 235                             	.LVL30:
 236                             	.L20:
 191:../src/smc_gen/r_drw2d_rx/src/tes/dave_driver.c ****    return ctx;
 237                             		.loc 1 191 4 is_stmt 1 view .LVU89
 238                             	.LBB36:
 239                             	.LBI36:
 240                             		.file 2 "../src/smc_gen/r_drw2d_rx/src/tes/dave_intern.h"
   1:../src/smc_gen/r_drw2d_rx/src/tes/dave_intern.h **** /*--------------------------------------------------------------------------
   2:../src/smc_gen/r_drw2d_rx/src/tes/dave_intern.h ****  * Project: D/AVE
   3:../src/smc_gen/r_drw2d_rx/src/tes/dave_intern.h ****  * File:    dave_intern.h (%version: 29 %)
   4:../src/smc_gen/r_drw2d_rx/src/tes/dave_intern.h ****  *          created Tue Jan 11 12:57:48 2005 by hh04027
   5:../src/smc_gen/r_drw2d_rx/src/tes/dave_intern.h ****  *
   6:../src/smc_gen/r_drw2d_rx/src/tes/dave_intern.h ****  * Description:
   7:../src/smc_gen/r_drw2d_rx/src/tes/dave_intern.h ****  *  %date_modified: Thu Jan 25 18:12:54 2007 %  (%derived_by:  hh74026 %)
   8:../src/smc_gen/r_drw2d_rx/src/tes/dave_intern.h ****  *
   9:../src/smc_gen/r_drw2d_rx/src/tes/dave_intern.h ****  * Changes:
  10:../src/smc_gen/r_drw2d_rx/src/tes/dave_intern.h ****  *  2005-12-22 CSe  removed transfermode field, added flags field in _d2_devicedata
  11:../src/smc_gen/r_drw2d_rx/src/tes/dave_intern.h ****  *  2006-02-16 CSe  added performance counter support
  12:../src/smc_gen/r_drw2d_rx/src/tes/dave_intern.h ****  *  2006-10-30 CSe  removed waitdlist flag
  13:../src/smc_gen/r_drw2d_rx/src/tes/dave_intern.h ****  *  2006-11-07 CSe  removed waitdlist flag
  14:../src/smc_gen/r_drw2d_rx/src/tes/dave_intern.h ****  *  2006-11-07 CSe  added dlist_buffer to device struct for 'd2_df_low_localmem' mode
  15:../src/smc_gen/r_drw2d_rx/src/tes/dave_intern.h ****  *  2007-01-26 CSe  made 'low localmem' mode configurable
  16:../src/smc_gen/r_drw2d_rx/src/tes/dave_intern.h ****  *  2007-05-23 MGe  added delayed_errorcode to context
  17:../src/smc_gen/r_drw2d_rx/src/tes/dave_intern.h ****  *  2008-01-14 ASc  changed comments from C++ to C, removed tabs
  18:../src/smc_gen/r_drw2d_rx/src/tes/dave_intern.h ****  *  2008-11-24 AJ   Added support for IAR compiler
  19:../src/smc_gen/r_drw2d_rx/src/tes/dave_intern.h ****  *  2011-09-05 MRe  added cr2 register to device structure
  20:../src/smc_gen/r_drw2d_rx/src/tes/dave_intern.h ****  *  2012-09-25 BSp  MISRA cleanup
  21:../src/smc_gen/r_drw2d_rx/src/tes/dave_intern.h ****  *-------------------------------------------------------------------------- */
  22:../src/smc_gen/r_drw2d_rx/src/tes/dave_intern.h **** 
  23:../src/smc_gen/r_drw2d_rx/src/tes/dave_intern.h **** #ifndef __1_dave_intern_h_H
  24:../src/smc_gen/r_drw2d_rx/src/tes/dave_intern.h **** #define __1_dave_intern_h_H
  25:../src/smc_gen/r_drw2d_rx/src/tes/dave_intern.h **** /*---------------------------------------------------------------------------
  26:../src/smc_gen/r_drw2d_rx/src/tes/dave_intern.h ****  * define inline modifier if available */
  27:../src/smc_gen/r_drw2d_rx/src/tes/dave_intern.h **** #ifdef _MSC_VER
  28:../src/smc_gen/r_drw2d_rx/src/tes/dave_intern.h **** #define D2_INLINE __forceinline
  29:../src/smc_gen/r_drw2d_rx/src/tes/dave_intern.h **** #else
  30:../src/smc_gen/r_drw2d_rx/src/tes/dave_intern.h **** #ifdef __CA850__
  31:../src/smc_gen/r_drw2d_rx/src/tes/dave_intern.h **** #define D2_INLINE
  32:../src/smc_gen/r_drw2d_rx/src/tes/dave_intern.h **** #elif defined(__ICCV850__)
  33:../src/smc_gen/r_drw2d_rx/src/tes/dave_intern.h **** #define D2_INLINE _Pragma("inline")
  34:../src/smc_gen/r_drw2d_rx/src/tes/dave_intern.h **** #else
  35:../src/smc_gen/r_drw2d_rx/src/tes/dave_intern.h **** #define D2_INLINE inline
  36:../src/smc_gen/r_drw2d_rx/src/tes/dave_intern.h **** #endif
  37:../src/smc_gen/r_drw2d_rx/src/tes/dave_intern.h **** #endif
  38:../src/smc_gen/r_drw2d_rx/src/tes/dave_intern.h **** 
  39:../src/smc_gen/r_drw2d_rx/src/tes/dave_intern.h **** /*---------------------------------------------------------------------------
  40:../src/smc_gen/r_drw2d_rx/src/tes/dave_intern.h ****  * define null to become independent of stdlib */
  41:../src/smc_gen/r_drw2d_rx/src/tes/dave_intern.h **** #ifndef NULL
  42:../src/smc_gen/r_drw2d_rx/src/tes/dave_intern.h **** #ifdef __cplusplus
  43:../src/smc_gen/r_drw2d_rx/src/tes/dave_intern.h **** #define NULL    0
  44:../src/smc_gen/r_drw2d_rx/src/tes/dave_intern.h **** #else
  45:../src/smc_gen/r_drw2d_rx/src/tes/dave_intern.h **** #define NULL    ((void *)0)
  46:../src/smc_gen/r_drw2d_rx/src/tes/dave_intern.h **** #endif
  47:../src/smc_gen/r_drw2d_rx/src/tes/dave_intern.h **** #endif
  48:../src/smc_gen/r_drw2d_rx/src/tes/dave_intern.h **** 
  49:../src/smc_gen/r_drw2d_rx/src/tes/dave_intern.h **** /*---------------------------------------------------------------------------
  50:../src/smc_gen/r_drw2d_rx/src/tes/dave_intern.h ****  * internally used types */
  51:../src/smc_gen/r_drw2d_rx/src/tes/dave_intern.h **** 
  52:../src/smc_gen/r_drw2d_rx/src/tes/dave_intern.h **** #ifdef _MSC_VER
  53:../src/smc_gen/r_drw2d_rx/src/tes/dave_intern.h **** typedef __int64 d2_int64;
  54:../src/smc_gen/r_drw2d_rx/src/tes/dave_intern.h **** #elif (defined(__CA850__) || defined(__ICC850__))
  55:../src/smc_gen/r_drw2d_rx/src/tes/dave_intern.h **** #define _NO_LL_
  56:../src/smc_gen/r_drw2d_rx/src/tes/dave_intern.h **** typedef struct {
  57:../src/smc_gen/r_drw2d_rx/src/tes/dave_intern.h ****    d2_u32 low32;
  58:../src/smc_gen/r_drw2d_rx/src/tes/dave_intern.h ****    d2_s32 high32;
  59:../src/smc_gen/r_drw2d_rx/src/tes/dave_intern.h **** } d2_int64;
  60:../src/smc_gen/r_drw2d_rx/src/tes/dave_intern.h **** #else
  61:../src/smc_gen/r_drw2d_rx/src/tes/dave_intern.h **** typedef long long d2_int64;
  62:../src/smc_gen/r_drw2d_rx/src/tes/dave_intern.h **** #endif
  63:../src/smc_gen/r_drw2d_rx/src/tes/dave_intern.h **** 
  64:../src/smc_gen/r_drw2d_rx/src/tes/dave_intern.h **** /*---------------------------------------------------------------------------
  65:../src/smc_gen/r_drw2d_rx/src/tes/dave_intern.h ****  * use separate context for blit 
  66:../src/smc_gen/r_drw2d_rx/src/tes/dave_intern.h ****  see also d2_df_no_blitctxbackup and d2_bf_no_blitctxbackup*/
  67:../src/smc_gen/r_drw2d_rx/src/tes/dave_intern.h **** 
  68:../src/smc_gen/r_drw2d_rx/src/tes/dave_intern.h **** /*
  69:../src/smc_gen/r_drw2d_rx/src/tes/dave_intern.h **** #define D2_USEBLITBACKUPCONTEXT 
  70:../src/smc_gen/r_drw2d_rx/src/tes/dave_intern.h **** */
  71:../src/smc_gen/r_drw2d_rx/src/tes/dave_intern.h **** 
  72:../src/smc_gen/r_drw2d_rx/src/tes/dave_intern.h **** 
  73:../src/smc_gen/r_drw2d_rx/src/tes/dave_intern.h **** /*---------------------------------------------------------------------------
  74:../src/smc_gen/r_drw2d_rx/src/tes/dave_intern.h ****  * force register cache usage
  75:../src/smc_gen/r_drw2d_rx/src/tes/dave_intern.h ****  see also d2_df_no_registercaching */
  76:../src/smc_gen/r_drw2d_rx/src/tes/dave_intern.h **** 
  77:../src/smc_gen/r_drw2d_rx/src/tes/dave_intern.h **** #define D2_USEREGCACHE 
  78:../src/smc_gen/r_drw2d_rx/src/tes/dave_intern.h **** 
  79:../src/smc_gen/r_drw2d_rx/src/tes/dave_intern.h **** /*---------------------------------------------------------------------------
  80:../src/smc_gen/r_drw2d_rx/src/tes/dave_intern.h ****  * set initial size of list of dlist start address */
  81:../src/smc_gen/r_drw2d_rx/src/tes/dave_intern.h **** 
  82:../src/smc_gen/r_drw2d_rx/src/tes/dave_intern.h **** #define DLIST_ADRESSES_NUMBER 16
  83:../src/smc_gen/r_drw2d_rx/src/tes/dave_intern.h **** 
  84:../src/smc_gen/r_drw2d_rx/src/tes/dave_intern.h **** 
  85:../src/smc_gen/r_drw2d_rx/src/tes/dave_intern.h **** /*---------------------------------------------------------------------------
  86:../src/smc_gen/r_drw2d_rx/src/tes/dave_intern.h ****  * Register Cache */
  87:../src/smc_gen/r_drw2d_rx/src/tes/dave_intern.h **** 
  88:../src/smc_gen/r_drw2d_rx/src/tes/dave_intern.h **** #include "dave_registermap.h"
  89:../src/smc_gen/r_drw2d_rx/src/tes/dave_intern.h **** 
  90:../src/smc_gen/r_drw2d_rx/src/tes/dave_intern.h **** typedef struct _d2_cacheddata
  91:../src/smc_gen/r_drw2d_rx/src/tes/dave_intern.h **** {
  92:../src/smc_gen/r_drw2d_rx/src/tes/dave_intern.h ****    d2_s32    data[  D2_QUANTITY ];
  93:../src/smc_gen/r_drw2d_rx/src/tes/dave_intern.h ****    d2_s8     valid[ D2_QUANTITY ];
  94:../src/smc_gen/r_drw2d_rx/src/tes/dave_intern.h **** } d2_cacheddata;
  95:../src/smc_gen/r_drw2d_rx/src/tes/dave_intern.h **** 
  96:../src/smc_gen/r_drw2d_rx/src/tes/dave_intern.h **** #ifdef D2_USEREGCACHE
  97:../src/smc_gen/r_drw2d_rx/src/tes/dave_intern.h **** D2_EXTERN const d2_u8 d2_cacheableregs[D2_QUANTITY];
  98:../src/smc_gen/r_drw2d_rx/src/tes/dave_intern.h **** #endif
  99:../src/smc_gen/r_drw2d_rx/src/tes/dave_intern.h **** 
 100:../src/smc_gen/r_drw2d_rx/src/tes/dave_intern.h **** typedef void (*d2_fp_scratchfull)( void *handle );
 101:../src/smc_gen/r_drw2d_rx/src/tes/dave_intern.h **** 
 102:../src/smc_gen/r_drw2d_rx/src/tes/dave_intern.h **** /*--------------------------------------------------------------------------- */
 103:../src/smc_gen/r_drw2d_rx/src/tes/dave_intern.h **** #include "dave_base.h"
 104:../src/smc_gen/r_drw2d_rx/src/tes/dave_intern.h **** #include "dave_dlist.h"
 105:../src/smc_gen/r_drw2d_rx/src/tes/dave_intern.h **** #include "dave_rbuffer.h"
 106:../src/smc_gen/r_drw2d_rx/src/tes/dave_intern.h **** #include "dave_hardware.h"
 107:../src/smc_gen/r_drw2d_rx/src/tes/dave_intern.h **** #include "dave_context.h"
 108:../src/smc_gen/r_drw2d_rx/src/tes/dave_intern.h **** #include "dave_math.h"
 109:../src/smc_gen/r_drw2d_rx/src/tes/dave_intern.h **** 
 110:../src/smc_gen/r_drw2d_rx/src/tes/dave_intern.h **** /*---------------------------------------------------------------------------
 111:../src/smc_gen/r_drw2d_rx/src/tes/dave_intern.h ****  * use higher precision of qlimiters */
 112:../src/smc_gen/r_drw2d_rx/src/tes/dave_intern.h **** 
 113:../src/smc_gen/r_drw2d_rx/src/tes/dave_intern.h **** #define LIMITER_HIPRECISION 6 
 114:../src/smc_gen/r_drw2d_rx/src/tes/dave_intern.h **** 
 115:../src/smc_gen/r_drw2d_rx/src/tes/dave_intern.h **** 
 116:../src/smc_gen/r_drw2d_rx/src/tes/dave_intern.h **** /*---------------------------------------------------------------------------
 117:../src/smc_gen/r_drw2d_rx/src/tes/dave_intern.h ****  * These helper macros are used to stringify a given macro */
 118:../src/smc_gen/r_drw2d_rx/src/tes/dave_intern.h **** #define D2_STR(s)           # s
 119:../src/smc_gen/r_drw2d_rx/src/tes/dave_intern.h **** #define D2_XSTR(s)          D2_STR(s)  /* PRQA S 3453 */ /* $Misra: #MISRA_BUG_MACRO_HASH $*/
 120:../src/smc_gen/r_drw2d_rx/src/tes/dave_intern.h **** 
 121:../src/smc_gen/r_drw2d_rx/src/tes/dave_intern.h **** 
 122:../src/smc_gen/r_drw2d_rx/src/tes/dave_intern.h **** /*---------------------------------------------------------------------------
 123:../src/smc_gen/r_drw2d_rx/src/tes/dave_intern.h ****  * Define the D2_VERSION and D2_VERSION_STRING macros */
 124:../src/smc_gen/r_drw2d_rx/src/tes/dave_intern.h **** 
 125:../src/smc_gen/r_drw2d_rx/src/tes/dave_intern.h **** /* Build up the D2_VERSION macro */
 126:../src/smc_gen/r_drw2d_rx/src/tes/dave_intern.h **** #define D2_VERSION ((D2_VERSION_BRANCH << 24) | (D2_VERSION_MAJOR << 16) | D2_VERSION_MINOR )
 127:../src/smc_gen/r_drw2d_rx/src/tes/dave_intern.h **** 
 128:../src/smc_gen/r_drw2d_rx/src/tes/dave_intern.h **** /* Create the D2_VERSION_STRING macro */
 129:../src/smc_gen/r_drw2d_rx/src/tes/dave_intern.h **** #define D2_VERSION_STRING  D2_VERSION_BRANCH_STRING " V" D2_XSTR(D2_VERSION_MAJOR) "." D2_XSTR(D2_V
 130:../src/smc_gen/r_drw2d_rx/src/tes/dave_intern.h **** 
 131:../src/smc_gen/r_drw2d_rx/src/tes/dave_intern.h **** /*---------------------------------------------------------------------------
 132:../src/smc_gen/r_drw2d_rx/src/tes/dave_intern.h ****  * Internal device structure */
 133:../src/smc_gen/r_drw2d_rx/src/tes/dave_intern.h **** 
 134:../src/smc_gen/r_drw2d_rx/src/tes/dave_intern.h **** typedef struct _d2_devicedata
 135:../src/smc_gen/r_drw2d_rx/src/tes/dave_intern.h **** {
 136:../src/smc_gen/r_drw2d_rx/src/tes/dave_intern.h ****    struct _d2_devicedata *next;        /* to chain devices [must be index 0] */
 137:../src/smc_gen/r_drw2d_rx/src/tes/dave_intern.h **** 
 138:../src/smc_gen/r_drw2d_rx/src/tes/dave_intern.h ****    d2_dlist *readlist;                 /* read (executing) dlist */
 139:../src/smc_gen/r_drw2d_rx/src/tes/dave_intern.h ****    d2_dlist *writelist;                /* write (under construction) dlist */
 140:../src/smc_gen/r_drw2d_rx/src/tes/dave_intern.h ****    d2_rbuffer *selectedbuffer;         /* currently selected renderbuffer */
 141:../src/smc_gen/r_drw2d_rx/src/tes/dave_intern.h ****    d2_rbuffer *renderbuffer[2];        /* default renderbuffers */
 142:../src/smc_gen/r_drw2d_rx/src/tes/dave_intern.h **** 
 143:../src/smc_gen/r_drw2d_rx/src/tes/dave_intern.h ****    d1_device      *hwid;               /* lowlevel access handle */
 144:../src/smc_gen/r_drw2d_rx/src/tes/dave_intern.h ****    d2_contextdata *ctxchain;           /* context chain (list of all contexts for this device) */
 145:../src/smc_gen/r_drw2d_rx/src/tes/dave_intern.h ****    d2_contextdata *ctxdef;             /* default context (cannot be removed by application) */
 146:../src/smc_gen/r_drw2d_rx/src/tes/dave_intern.h ****    d2_contextdata *ctxselected;        /* selected context (used as target of context write/read op
 147:../src/smc_gen/r_drw2d_rx/src/tes/dave_intern.h ****    d2_contextdata *ctxsolid;           /* solid context (used as source for rendering solid geometr
 148:../src/smc_gen/r_drw2d_rx/src/tes/dave_intern.h ****    d2_contextdata *ctxoutline;         /* outline context (used as source for rendering outlines) *
 149:../src/smc_gen/r_drw2d_rx/src/tes/dave_intern.h **** #ifdef D2_USEBLITBACKUPCONTEXT
 150:../src/smc_gen/r_drw2d_rx/src/tes/dave_intern.h ****    d2_contextdata *blitcontext;        /* internal context used only for blits */
 151:../src/smc_gen/r_drw2d_rx/src/tes/dave_intern.h **** #else
 152:../src/smc_gen/r_drw2d_rx/src/tes/dave_intern.h ****    d2_contextdata_backup *blitcontext_b; /* internal context backup used only for blits */
 153:../src/smc_gen/r_drw2d_rx/src/tes/dave_intern.h **** #endif
 154:../src/smc_gen/r_drw2d_rx/src/tes/dave_intern.h ****    d2_contextdata *srccontext;         /* last context that acted as source for display list (for d
 155:../src/smc_gen/r_drw2d_rx/src/tes/dave_intern.h ****    d2_color       *srcclut;            /* last clut that was loaded  */
 156:../src/smc_gen/r_drw2d_rx/src/tes/dave_intern.h **** 
 157:../src/smc_gen/r_drw2d_rx/src/tes/dave_intern.h ****    void *   framebuffer;               /* rendering baseaddress */
 158:../src/smc_gen/r_drw2d_rx/src/tes/dave_intern.h ****    d2_s32   pitch, bpp;                /* framebuffer pitch and bytes per pixel */
 159:../src/smc_gen/r_drw2d_rx/src/tes/dave_intern.h ****    d2_s32   fbformat;                  /* framebuffer format */
 160:../src/smc_gen/r_drw2d_rx/src/tes/dave_intern.h ****    d2_u32   fbwidth,fbheight;          /* framebuffer size */
 161:../src/smc_gen/r_drw2d_rx/src/tes/dave_intern.h ****    d2_u32   fbstylemask;               /* dave ctrl1 bitmask for framebuffer format */
 162:../src/smc_gen/r_drw2d_rx/src/tes/dave_intern.h ****    d2_u32   cr2;                       /* control register 2 */
 163:../src/smc_gen/r_drw2d_rx/src/tes/dave_intern.h **** 
 164:../src/smc_gen/r_drw2d_rx/src/tes/dave_intern.h ****    d2_u32   cachectlmask;              /* dave cache ctrl register bitmask */
 165:../src/smc_gen/r_drw2d_rx/src/tes/dave_intern.h ****    d2_u32   perftriggermask;           /* dave performance counter trigger source register bitmask 
 166:../src/smc_gen/r_drw2d_rx/src/tes/dave_intern.h **** 
 167:../src/smc_gen/r_drw2d_rx/src/tes/dave_intern.h ****    d2_u32   rendermode;                /* see 'enum d2_rendermodes' */
 168:../src/smc_gen/r_drw2d_rx/src/tes/dave_intern.h ****    d2_u32   flags;                     /* see 'enum d2_deviceflags' */
 169:../src/smc_gen/r_drw2d_rx/src/tes/dave_intern.h ****    d2_width outlinewidth;
 170:../src/smc_gen/r_drw2d_rx/src/tes/dave_intern.h ****    d2_point soffx, soffy;
 171:../src/smc_gen/r_drw2d_rx/src/tes/dave_intern.h ****    d2_point clipxmin, clipymin;
 172:../src/smc_gen/r_drw2d_rx/src/tes/dave_intern.h ****    d2_point clipxmax, clipymax;
 173:../src/smc_gen/r_drw2d_rx/src/tes/dave_intern.h **** 
 174:../src/smc_gen/r_drw2d_rx/src/tes/dave_intern.h ****    d2_lowlocalmem_mode *lowlocalmem_mode;       /* only used in 'low localmem' mode */
 175:../src/smc_gen/r_drw2d_rx/src/tes/dave_intern.h **** 
 176:../src/smc_gen/r_drw2d_rx/src/tes/dave_intern.h ****    d2_u32 hwrevision;
 177:../src/smc_gen/r_drw2d_rx/src/tes/dave_intern.h ****    d2_u32 hwmemarchitecture;
 178:../src/smc_gen/r_drw2d_rx/src/tes/dave_intern.h **** 
 179:../src/smc_gen/r_drw2d_rx/src/tes/dave_intern.h ****    d2_u32 dlistblocksize;              /* specify number of entries to grow when dlist is full */
 180:../src/smc_gen/r_drw2d_rx/src/tes/dave_intern.h **** #ifdef D2_USEREGCACHE
 181:../src/smc_gen/r_drw2d_rx/src/tes/dave_intern.h ****    d2_cacheddata cache;                 /* register cache for this device */
 182:../src/smc_gen/r_drw2d_rx/src/tes/dave_intern.h **** #endif
 183:../src/smc_gen/r_drw2d_rx/src/tes/dave_intern.h ****    /* display list assembly buffer */
 184:../src/smc_gen/r_drw2d_rx/src/tes/dave_intern.h ****    d2_dlist_scratch_entry *dlscratch_base;
 185:../src/smc_gen/r_drw2d_rx/src/tes/dave_intern.h ****    d2_dlist_scratch_entry *dlscratch_pos;
 186:../src/smc_gen/r_drw2d_rx/src/tes/dave_intern.h ****    d2_s32                  dlscratch_cnt;
 187:../src/smc_gen/r_drw2d_rx/src/tes/dave_intern.h ****    d2_fp_scratchfull       dlscratch_hook;
 188:../src/smc_gen/r_drw2d_rx/src/tes/dave_intern.h **** 
 189:../src/smc_gen/r_drw2d_rx/src/tes/dave_intern.h ****    d2_s8   lasttextwasrle;               /* last texture format was RLE */
 190:../src/smc_gen/r_drw2d_rx/src/tes/dave_intern.h ****    d2_s8   maxpatlen;                    /* maximum size of pattern bitvector supported by the hard
 191:../src/smc_gen/r_drw2d_rx/src/tes/dave_intern.h ****    d2_s8   errorcode;                    /* last actions detaild result code */
 192:../src/smc_gen/r_drw2d_rx/src/tes/dave_intern.h ****    d2_s8   delayed_errorcode;            /* errorcondition that exists until the renderbuffer gets 
 193:../src/smc_gen/r_drw2d_rx/src/tes/dave_intern.h ****    d2_s8   hilimiterprecision_supported; /* is set to 1 when the hilimiterprecision feature is supp
 194:../src/smc_gen/r_drw2d_rx/src/tes/dave_intern.h **** 
 195:../src/smc_gen/r_drw2d_rx/src/tes/dave_intern.h ****    d2_s8   dlist_indirect_supported;     /* is set to 1 when lists of dlist addresses are supported
 196:../src/smc_gen/r_drw2d_rx/src/tes/dave_intern.h ****    d2_s32* dlist_list_single[2];         /* for d2_executedlist we need an extra dlist list with ju
 197:../src/smc_gen/r_drw2d_rx/src/tes/dave_intern.h **** 
 198:../src/smc_gen/r_drw2d_rx/src/tes/dave_intern.h **** } d2_devicedata;
 199:../src/smc_gen/r_drw2d_rx/src/tes/dave_intern.h **** 
 200:../src/smc_gen/r_drw2d_rx/src/tes/dave_intern.h **** /*--------------------------------------------------------------------------- */
 201:../src/smc_gen/r_drw2d_rx/src/tes/dave_intern.h **** 
 202:../src/smc_gen/r_drw2d_rx/src/tes/dave_intern.h **** typedef struct _d2_bbox
 203:../src/smc_gen/r_drw2d_rx/src/tes/dave_intern.h **** {
 204:../src/smc_gen/r_drw2d_rx/src/tes/dave_intern.h ****    d2_point xmin, ymin;
 205:../src/smc_gen/r_drw2d_rx/src/tes/dave_intern.h ****    d2_point xmax, ymax;
 206:../src/smc_gen/r_drw2d_rx/src/tes/dave_intern.h **** } d2_bbox;
 207:../src/smc_gen/r_drw2d_rx/src/tes/dave_intern.h **** 
 208:../src/smc_gen/r_drw2d_rx/src/tes/dave_intern.h **** typedef struct _d2_limdata
 209:../src/smc_gen/r_drw2d_rx/src/tes/dave_intern.h **** {
 210:../src/smc_gen/r_drw2d_rx/src/tes/dave_intern.h ****    d2_s32 start;
 211:../src/smc_gen/r_drw2d_rx/src/tes/dave_intern.h ****    d2_s32 xadd;
 212:../src/smc_gen/r_drw2d_rx/src/tes/dave_intern.h ****    d2_s32 yadd;
 213:../src/smc_gen/r_drw2d_rx/src/tes/dave_intern.h **** } d2_limdata;
 214:../src/smc_gen/r_drw2d_rx/src/tes/dave_intern.h **** 
 215:../src/smc_gen/r_drw2d_rx/src/tes/dave_intern.h **** /*---------------------------------------------------------------------------
 216:../src/smc_gen/r_drw2d_rx/src/tes/dave_intern.h ****  * Internal flags */
 217:../src/smc_gen/r_drw2d_rx/src/tes/dave_intern.h **** 
 218:../src/smc_gen/r_drw2d_rx/src/tes/dave_intern.h **** typedef d2_u32 d2_lineendflags_intern;
 219:../src/smc_gen/r_drw2d_rx/src/tes/dave_intern.h **** 
 220:../src/smc_gen/r_drw2d_rx/src/tes/dave_intern.h **** #define d2_lei_base                256u
 221:../src/smc_gen/r_drw2d_rx/src/tes/dave_intern.h **** 
 222:../src/smc_gen/r_drw2d_rx/src/tes/dave_intern.h **** #define d2_lei_ext_first_edge     (d2_lei_base *  2)
 223:../src/smc_gen/r_drw2d_rx/src/tes/dave_intern.h **** #define d2_lei_ext_last_edge      (d2_lei_base *  4)
 224:../src/smc_gen/r_drw2d_rx/src/tes/dave_intern.h **** #define d2_lei_buffer_first_edge  (d2_lei_base *  8)
 225:../src/smc_gen/r_drw2d_rx/src/tes/dave_intern.h **** #define d2_lei_buffer_last_edge   (d2_lei_base * 16)
 226:../src/smc_gen/r_drw2d_rx/src/tes/dave_intern.h **** #define d2_lei_miter_edge         (d2_lei_base * 32)
 227:../src/smc_gen/r_drw2d_rx/src/tes/dave_intern.h **** #define d2_lei_miter1_flip        (d2_lei_base * 64)
 228:../src/smc_gen/r_drw2d_rx/src/tes/dave_intern.h **** #define d2_lei_miter2_flip        (d2_lei_base *128)
 229:../src/smc_gen/r_drw2d_rx/src/tes/dave_intern.h **** 
 230:../src/smc_gen/r_drw2d_rx/src/tes/dave_intern.h **** /*---------------------------------------------------------------------------
 231:../src/smc_gen/r_drw2d_rx/src/tes/dave_intern.h ****  * Internal macros */
 232:../src/smc_gen/r_drw2d_rx/src/tes/dave_intern.h **** 
 233:../src/smc_gen/r_drw2d_rx/src/tes/dave_intern.h **** #define D2_DEV(d)           ((d2_devicedata *) (d))           /* PRQA S 3453 */ /* $Misra: #MACRO_T
 234:../src/smc_gen/r_drw2d_rx/src/tes/dave_intern.h **** #define D2_CTX(c)           ((d2_contextdata *) (c))          /* PRQA S 3453 */ /* $Misra: #MACRO_T
 235:../src/smc_gen/r_drw2d_rx/src/tes/dave_intern.h **** #define D2_FNC(r)           ((d2_renderfunctions *) (r))      /* PRQA S 3453 */ /* $Misra: #MACRO_T
 236:../src/smc_gen/r_drw2d_rx/src/tes/dave_intern.h **** #define D2_DRB(r)           ((d2_rbuffer *) (r))              /* PRQA S 3453 */ /* $Misra: #MACRO_T
 237:../src/smc_gen/r_drw2d_rx/src/tes/dave_intern.h **** 
 238:../src/smc_gen/r_drw2d_rx/src/tes/dave_intern.h **** static D2_INLINE d2_s32 d2_seterr(d2_device *handle, d2_s32 err); /* to satisfy MISRA rule 3450 */
 239:../src/smc_gen/r_drw2d_rx/src/tes/dave_intern.h **** static D2_INLINE d2_s32 d2_seterr(d2_device *handle, d2_s32 err) /* PRQA S 3219, 3480 */ /* $Misra:
 241                             		.loc 2 239 25 view .LVU90
 242                             	.LBB37:
 240:../src/smc_gen/r_drw2d_rx/src/tes/dave_intern.h **** {
 241:../src/smc_gen/r_drw2d_rx/src/tes/dave_intern.h ****    D2_DEV(handle)->errorcode = (d2_s8)(err);
 243                             		.loc 2 241 4 view .LVU91
 244                             		.loc 2 241 30 is_stmt 0 view .LVU92
 245 0011 FA 74 C6 01 00          		mov.B	#0, 454[r7]
 242:../src/smc_gen/r_drw2d_rx/src/tes/dave_intern.h **** 
 243:../src/smc_gen/r_drw2d_rx/src/tes/dave_intern.h ****    return err;
 246                             		.loc 2 243 4 is_stmt 1 view .LVU93
 247                             	.LVL31:
 248                             		.loc 2 243 4 is_stmt 0 view .LVU94
 249                             	.LBE37:
 250                             	.LBE36:
 192:../src/smc_gen/r_drw2d_rx/src/tes/dave_driver.c **** }
 251                             		.loc 1 192 4 is_stmt 1 view .LVU95
 193:../src/smc_gen/r_drw2d_rx/src/tes/dave_driver.c **** 
 252                             		.loc 1 193 1 is_stmt 0 view .LVU96
 253 0016 3F 77 01                		rtsd	#4, r7-r7
 254                             	.LVL32:
 255                             	.L21:
 184:../src/smc_gen/r_drw2d_rx/src/tes/dave_driver.c ****    }
 256                             		.loc 1 184 11 view .LVU97
 257 0019 66 01                   		mov.L	#0, r1
 258                             	.LVL33:
 184:../src/smc_gen/r_drw2d_rx/src/tes/dave_driver.c ****    }
 259                             		.loc 1 184 11 view .LVU98
 260 001b 2E F6                   		bra	.L20
 261                             	.LFE8:
 263                             		.section	.text.d2_getversionstring,"ax",@progbits
 264                             		.global	_d2_getversionstring
 266                             	_d2_getversionstring:
 267                             	.LFB6:
 149:../src/smc_gen/r_drw2d_rx/src/tes/dave_driver.c ****    static const d2_char g_versionid[] ="@(#)DAVE driver " D2_VERSION_STRING D2_VERSION_STATE " - " 
 268                             		.loc 1 149 1 is_stmt 1 view -0
 150:../src/smc_gen/r_drw2d_rx/src/tes/dave_driver.c **** 
 269                             		.loc 1 150 4 view .LVU100
 152:../src/smc_gen/r_drw2d_rx/src/tes/dave_driver.c **** }
 270                             		.loc 1 152 4 view .LVU101
 153:../src/smc_gen/r_drw2d_rx/src/tes/dave_driver.c **** 
 271                             		.loc 1 153 1 is_stmt 0 view .LVU102
 272 0000 FB 12 00 00 00 00       		mov.L	#_g_versionid.2798, r1
 273 0006 02                      		rts
 274                             	.LFE6:
 276                             		.section	.text.d2_getversion,"ax",@progbits
 277                             		.global	_d2_getversion
 279                             	_d2_getversion:
 280                             	.LFB7:
 170:../src/smc_gen/r_drw2d_rx/src/tes/dave_driver.c ****    return D2_VERSION;
 281                             		.loc 1 170 1 is_stmt 1 view -0
 171:../src/smc_gen/r_drw2d_rx/src/tes/dave_driver.c **** }
 282                             		.loc 1 171 4 view .LVU104
 172:../src/smc_gen/r_drw2d_rx/src/tes/dave_driver.c **** 
 283                             		.loc 1 172 1 is_stmt 0 view .LVU105
 284 0000 FB 1E 11 00 03          		mov.L	#0x30011, r1
 285 0005 02                      		rts
 286                             	.LFE7:
 288                             		.section	.text.d2_opendevice,"ax",@progbits
 289                             		.global	_d2_opendevice
 291                             	_d2_opendevice:
 292                             	.LVL34:
 293                             	.LFB9:
 232:../src/smc_gen/r_drw2d_rx/src/tes/dave_driver.c **** #ifdef D2_USEREGCACHE
 294                             		.loc 1 232 1 is_stmt 1 view -0
 232:../src/smc_gen/r_drw2d_rx/src/tes/dave_driver.c **** #ifdef D2_USEREGCACHE
 295                             		.loc 1 232 1 is_stmt 0 view .LVU107
 296 0000 6E 7A                   		pushm	r7-r10
 297                             	.LCFI1:
 298 0002 EF 1A                   		mov.L	r1, r10
 234:../src/smc_gen/r_drw2d_rx/src/tes/dave_driver.c **** #endif
 299                             		.loc 1 234 4 is_stmt 1 view .LVU108
 237:../src/smc_gen/r_drw2d_rx/src/tes/dave_driver.c **** 
 300                             		.loc 1 237 4 view .LVU109
 237:../src/smc_gen/r_drw2d_rx/src/tes/dave_driver.c **** 
 301                             		.loc 1 237 46 is_stmt 0 view .LVU110
 302 0004 FB 1A D4 01             		mov.L	#0x1d4, r1
 303                             	.LVL35:
 237:../src/smc_gen/r_drw2d_rx/src/tes/dave_driver.c **** 
 304                             		.loc 1 237 46 view .LVU111
 305 0008 05 00 00 00             		bsr	_d2_getmem_p
 306                             	.LVL36:
 307 000c EF 17                   		mov.L	r1, r7
 308                             	.LVL37:
 239:../src/smc_gen/r_drw2d_rx/src/tes/dave_driver.c ****    {
 309                             		.loc 1 239 4 is_stmt 1 view .LVU112
 239:../src/smc_gen/r_drw2d_rx/src/tes/dave_driver.c ****    {
 310                             		.loc 1 239 6 is_stmt 0 view .LVU113
 311 000e 61 01                   		cmp	#0, r1
 312 0010 3A D3 00                		beq	.L25
 242:../src/smc_gen/r_drw2d_rx/src/tes/dave_driver.c ****       handle->errorcode         = D2_OK;
 313                             		.loc 1 242 7 is_stmt 1 view .LVU114
 242:../src/smc_gen/r_drw2d_rx/src/tes/dave_driver.c ****       handle->errorcode         = D2_OK;
 314                             		.loc 1 242 33 is_stmt 0 view .LVU115
 315 0013 E7 1A 1A                		mov.L	r10, 104[r1]
 243:../src/smc_gen/r_drw2d_rx/src/tes/dave_driver.c ****       handle->delayed_errorcode = D2_OK;
 316                             		.loc 1 243 7 is_stmt 1 view .LVU116
 243:../src/smc_gen/r_drw2d_rx/src/tes/dave_driver.c ****       handle->delayed_errorcode = D2_OK;
 317                             		.loc 1 243 33 is_stmt 0 view .LVU117
 318 0016 FA 14 C6 01 00          		mov.B	#0, 454[r1]
 244:../src/smc_gen/r_drw2d_rx/src/tes/dave_driver.c ****       handle->hwid              = NULL;
 319                             		.loc 1 244 7 is_stmt 1 view .LVU118
 244:../src/smc_gen/r_drw2d_rx/src/tes/dave_driver.c ****       handle->hwid              = NULL;
 320                             		.loc 1 244 33 is_stmt 0 view .LVU119
 321 001b FA 14 C7 01 00          		mov.B	#0, 455[r1]
 245:../src/smc_gen/r_drw2d_rx/src/tes/dave_driver.c ****       handle->ctxchain          = NULL;
 322                             		.loc 1 245 7 is_stmt 1 view .LVU120
 245:../src/smc_gen/r_drw2d_rx/src/tes/dave_driver.c ****       handle->ctxchain          = NULL;
 323                             		.loc 1 245 33 is_stmt 0 view .LVU121
 324 0020 3E 16 00                		mov.L	#0, 24[r1]
 246:../src/smc_gen/r_drw2d_rx/src/tes/dave_driver.c ****       handle->fbformat          = 2;
 325                             		.loc 1 246 7 is_stmt 1 view .LVU122
 246:../src/smc_gen/r_drw2d_rx/src/tes/dave_driver.c ****       handle->fbformat          = 2;
 326                             		.loc 1 246 33 is_stmt 0 view .LVU123
 327 0023 3E 17 00                		mov.L	#0, 28[r1]
 247:../src/smc_gen/r_drw2d_rx/src/tes/dave_driver.c ****       handle->fbwidth           = 0;
 328                             		.loc 1 247 7 is_stmt 1 view .LVU124
 247:../src/smc_gen/r_drw2d_rx/src/tes/dave_driver.c ****       handle->fbwidth           = 0;
 329                             		.loc 1 247 33 is_stmt 0 view .LVU125
 330 0026 3E 92 02                		mov.L	#2, 72[r1]
 248:../src/smc_gen/r_drw2d_rx/src/tes/dave_driver.c ****       handle->fbheight          = 0;
 331                             		.loc 1 248 7 is_stmt 1 view .LVU126
 248:../src/smc_gen/r_drw2d_rx/src/tes/dave_driver.c ****       handle->fbheight          = 0;
 332                             		.loc 1 248 33 is_stmt 0 view .LVU127
 333 0029 3E 93 00                		mov.L	#0, 76[r1]
 249:../src/smc_gen/r_drw2d_rx/src/tes/dave_driver.c ****       handle->fbstylemask       = D2C_WRITEFORMAT2;
 334                             		.loc 1 249 7 is_stmt 1 view .LVU128
 249:../src/smc_gen/r_drw2d_rx/src/tes/dave_driver.c ****       handle->fbstylemask       = D2C_WRITEFORMAT2;
 335                             		.loc 1 249 33 is_stmt 0 view .LVU129
 336 002c 3E 94 00                		mov.L	#0, 80[r1]
 250:../src/smc_gen/r_drw2d_rx/src/tes/dave_driver.c ****       handle->ctxdef            = d2_newcontext( handle );   /* create default context */
 337                             		.loc 1 250 7 is_stmt 1 view .LVU130
 250:../src/smc_gen/r_drw2d_rx/src/tes/dave_driver.c ****       handle->ctxdef            = d2_newcontext( handle );   /* create default context */
 338                             		.loc 1 250 33 is_stmt 0 view .LVU131
 339 002f F9 1E 15 00 00 20       		mov.L	#0x200000, 84[r1]
 251:../src/smc_gen/r_drw2d_rx/src/tes/dave_driver.c ****       handle->ctxselected       = handle->ctxdef;
 340                             		.loc 1 251 7 is_stmt 1 view .LVU132
 251:../src/smc_gen/r_drw2d_rx/src/tes/dave_driver.c ****       handle->ctxselected       = handle->ctxdef;
 341                             		.loc 1 251 35 is_stmt 0 view .LVU133
 342 0035 05 00 00 00             		bsr	_d2_newcontext
 343                             	.LVL38:
 251:../src/smc_gen/r_drw2d_rx/src/tes/dave_driver.c ****       handle->ctxselected       = handle->ctxdef;
 344                             		.loc 1 251 33 view .LVU134
 345 0039 A2 71                   		mov.L	r1, 32[r7]
 252:../src/smc_gen/r_drw2d_rx/src/tes/dave_driver.c ****       handle->ctxsolid          = handle->ctxdef;
 346                             		.loc 1 252 7 is_stmt 1 view .LVU135
 252:../src/smc_gen/r_drw2d_rx/src/tes/dave_driver.c ****       handle->ctxsolid          = handle->ctxdef;
 347                             		.loc 1 252 33 is_stmt 0 view .LVU136
 348 003b A2 79                   		mov.L	r1, 36[r7]
 253:../src/smc_gen/r_drw2d_rx/src/tes/dave_driver.c ****       handle->ctxoutline        = handle->ctxdef;
 349                             		.loc 1 253 7 is_stmt 1 view .LVU137
 253:../src/smc_gen/r_drw2d_rx/src/tes/dave_driver.c ****       handle->ctxoutline        = handle->ctxdef;
 350                             		.loc 1 253 33 is_stmt 0 view .LVU138
 351 003d A2 F1                   		mov.L	r1, 40[r7]
 254:../src/smc_gen/r_drw2d_rx/src/tes/dave_driver.c **** #ifdef D2_USEBLITBACKUPCONTEXT
 352                             		.loc 1 254 7 is_stmt 1 view .LVU139
 254:../src/smc_gen/r_drw2d_rx/src/tes/dave_driver.c **** #ifdef D2_USEBLITBACKUPCONTEXT
 353                             		.loc 1 254 33 is_stmt 0 view .LVU140
 354 003f A2 F9                   		mov.L	r1, 44[r7]
 258:../src/smc_gen/r_drw2d_rx/src/tes/dave_driver.c **** #endif
 355                             		.loc 1 258 7 is_stmt 1 view .LVU141
 258:../src/smc_gen/r_drw2d_rx/src/tes/dave_driver.c **** #endif
 356                             		.loc 1 258 35 is_stmt 0 view .LVU142
 357 0041 EF A2                   		mov.L	r10, r2
 358 0043 EF 71                   		mov.L	r7, r1
 359 0045 05 00 00 00             		bsr	_d2_newbackupcontext_intern
 360                             	.LVL39:
 258:../src/smc_gen/r_drw2d_rx/src/tes/dave_driver.c **** #endif
 361                             		.loc 1 258 33 view .LVU143
 362 0049 A3 71                   		mov.L	r1, 48[r7]
 260:../src/smc_gen/r_drw2d_rx/src/tes/dave_driver.c ****       handle->srcclut           = NULL;
 363                             		.loc 1 260 7 is_stmt 1 view .LVU144
 260:../src/smc_gen/r_drw2d_rx/src/tes/dave_driver.c ****       handle->srcclut           = NULL;
 364                             		.loc 1 260 33 is_stmt 0 view .LVU145
 365 004b 3E 7D 00                		mov.L	#0, 52[r7]
 261:../src/smc_gen/r_drw2d_rx/src/tes/dave_driver.c ****       handle->lasttextwasrle    = 0;
 366                             		.loc 1 261 7 is_stmt 1 view .LVU146
 261:../src/smc_gen/r_drw2d_rx/src/tes/dave_driver.c ****       handle->lasttextwasrle    = 0;
 367                             		.loc 1 261 33 is_stmt 0 view .LVU147
 368 004e 3E 7E 00                		mov.L	#0, 56[r7]
 262:../src/smc_gen/r_drw2d_rx/src/tes/dave_driver.c ****       /* default rendering parameters */
 369                             		.loc 1 262 7 is_stmt 1 view .LVU148
 262:../src/smc_gen/r_drw2d_rx/src/tes/dave_driver.c ****       /* default rendering parameters */
 370                             		.loc 1 262 33 is_stmt 0 view .LVU149
 371 0051 FA 74 C4 01 00          		mov.B	#0, 452[r7]
 264:../src/smc_gen/r_drw2d_rx/src/tes/dave_driver.c ****       handle->pitch             = 0;
 372                             		.loc 1 264 7 is_stmt 1 view .LVU150
 264:../src/smc_gen/r_drw2d_rx/src/tes/dave_driver.c ****       handle->pitch             = 0;
 373                             		.loc 1 264 33 is_stmt 0 view .LVU151
 374 0056 3E 7F 00                		mov.L	#0, 60[r7]
 265:../src/smc_gen/r_drw2d_rx/src/tes/dave_driver.c ****       handle->bpp               = 0;
 375                             		.loc 1 265 7 is_stmt 1 view .LVU152
 265:../src/smc_gen/r_drw2d_rx/src/tes/dave_driver.c ****       handle->bpp               = 0;
 376                             		.loc 1 265 33 is_stmt 0 view .LVU153
 377 0059 3E F0 00                		mov.L	#0, 64[r7]
 266:../src/smc_gen/r_drw2d_rx/src/tes/dave_driver.c ****       handle->rendermode        = d2_rm_solid;
 378                             		.loc 1 266 7 is_stmt 1 view .LVU154
 266:../src/smc_gen/r_drw2d_rx/src/tes/dave_driver.c ****       handle->rendermode        = d2_rm_solid;
 379                             		.loc 1 266 33 is_stmt 0 view .LVU155
 380 005c 3E F1 00                		mov.L	#0, 68[r7]
 267:../src/smc_gen/r_drw2d_rx/src/tes/dave_driver.c ****       handle->outlinewidth      = 0;
 381                             		.loc 1 267 7 is_stmt 1 view .LVU156
 267:../src/smc_gen/r_drw2d_rx/src/tes/dave_driver.c ****       handle->outlinewidth      = 0;
 382                             		.loc 1 267 33 is_stmt 0 view .LVU157
 383 005f 3E F9 01                		mov.L	#1, 100[r7]
 268:../src/smc_gen/r_drw2d_rx/src/tes/dave_driver.c ****       handle->soffx             = 0;
 384                             		.loc 1 268 7 is_stmt 1 view .LVU158
 268:../src/smc_gen/r_drw2d_rx/src/tes/dave_driver.c ****       handle->soffx             = 0;
 385                             		.loc 1 268 33 is_stmt 0 view .LVU159
 386 0062 F9 75 36 00             		mov.W	#0, 108[r7]
 269:../src/smc_gen/r_drw2d_rx/src/tes/dave_driver.c ****       handle->soffy             = 0;
 387                             		.loc 1 269 7 is_stmt 1 view .LVU160
 269:../src/smc_gen/r_drw2d_rx/src/tes/dave_driver.c ****       handle->soffy             = 0;
 388                             		.loc 1 269 33 is_stmt 0 view .LVU161
 389 0066 F9 75 37 00             		mov.W	#0, 110[r7]
 270:../src/smc_gen/r_drw2d_rx/src/tes/dave_driver.c ****       handle->clipxmin          = 0;
 390                             		.loc 1 270 7 is_stmt 1 view .LVU162
 270:../src/smc_gen/r_drw2d_rx/src/tes/dave_driver.c ****       handle->clipxmin          = 0;
 391                             		.loc 1 270 33 is_stmt 0 view .LVU163
 392 006a F9 75 38 00             		mov.W	#0, 112[r7]
 271:../src/smc_gen/r_drw2d_rx/src/tes/dave_driver.c ****       handle->clipymin          = 0;
 393                             		.loc 1 271 7 is_stmt 1 view .LVU164
 271:../src/smc_gen/r_drw2d_rx/src/tes/dave_driver.c ****       handle->clipymin          = 0;
 394                             		.loc 1 271 33 is_stmt 0 view .LVU165
 395 006e F9 75 39 00             		mov.W	#0, 114[r7]
 272:../src/smc_gen/r_drw2d_rx/src/tes/dave_driver.c ****       handle->clipxmax          = 0;
 396                             		.loc 1 272 7 is_stmt 1 view .LVU166
 272:../src/smc_gen/r_drw2d_rx/src/tes/dave_driver.c ****       handle->clipxmax          = 0;
 397                             		.loc 1 272 33 is_stmt 0 view .LVU167
 398 0072 F9 75 3A 00             		mov.W	#0, 116[r7]
 273:../src/smc_gen/r_drw2d_rx/src/tes/dave_driver.c ****       handle->clipymax          = 0;
 399                             		.loc 1 273 7 is_stmt 1 view .LVU168
 273:../src/smc_gen/r_drw2d_rx/src/tes/dave_driver.c ****       handle->clipymax          = 0;
 400                             		.loc 1 273 33 is_stmt 0 view .LVU169
 401 0076 F9 75 3B 00             		mov.W	#0, 118[r7]
 274:../src/smc_gen/r_drw2d_rx/src/tes/dave_driver.c ****       /* initialize default display lists */
 402                             		.loc 1 274 7 is_stmt 1 view .LVU170
 274:../src/smc_gen/r_drw2d_rx/src/tes/dave_driver.c ****       /* initialize default display lists */
 403                             		.loc 1 274 33 is_stmt 0 view .LVU171
 404 007a F9 75 3C 00             		mov.W	#0, 120[r7]
 276:../src/smc_gen/r_drw2d_rx/src/tes/dave_driver.c ****       handle->renderbuffer[1]   = NULL;
 405                             		.loc 1 276 7 is_stmt 1 view .LVU172
 276:../src/smc_gen/r_drw2d_rx/src/tes/dave_driver.c ****       handle->renderbuffer[1]   = NULL;
 406                             		.loc 1 276 33 is_stmt 0 view .LVU173
 407 007e 3E 74 00                		mov.L	#0, 16[r7]
 277:../src/smc_gen/r_drw2d_rx/src/tes/dave_driver.c ****       /* preselect list */
 408                             		.loc 1 277 7 is_stmt 1 view .LVU174
 277:../src/smc_gen/r_drw2d_rx/src/tes/dave_driver.c ****       /* preselect list */
 409                             		.loc 1 277 33 is_stmt 0 view .LVU175
 410 0081 3E 75 00                		mov.L	#0, 20[r7]
 279:../src/smc_gen/r_drw2d_rx/src/tes/dave_driver.c ****       handle->writelist        = NULL;
 411                             		.loc 1 279 7 is_stmt 1 view .LVU176
 279:../src/smc_gen/r_drw2d_rx/src/tes/dave_driver.c ****       handle->writelist        = NULL;
 412                             		.loc 1 279 32 is_stmt 0 view .LVU177
 413 0084 3E 73 00                		mov.L	#0, 12[r7]
 280:../src/smc_gen/r_drw2d_rx/src/tes/dave_driver.c ****       handle->readlist         = NULL;
 414                             		.loc 1 280 7 is_stmt 1 view .LVU178
 280:../src/smc_gen/r_drw2d_rx/src/tes/dave_driver.c ****       handle->readlist         = NULL;
 415                             		.loc 1 280 32 is_stmt 0 view .LVU179
 416 0087 3E 72 00                		mov.L	#0, 8[r7]
 281:../src/smc_gen/r_drw2d_rx/src/tes/dave_driver.c ****       handle->dlistblocksize   = D2_DLISTBLOCKSIZE;
 417                             		.loc 1 281 7 is_stmt 1 view .LVU180
 281:../src/smc_gen/r_drw2d_rx/src/tes/dave_driver.c ****       handle->dlistblocksize   = D2_DLISTBLOCKSIZE;
 418                             		.loc 1 281 32 is_stmt 0 view .LVU181
 419 008a 3E 71 00                		mov.L	#0, 4[r7]
 282:../src/smc_gen/r_drw2d_rx/src/tes/dave_driver.c **** 
 420                             		.loc 1 282 7 is_stmt 1 view .LVU182
 282:../src/smc_gen/r_drw2d_rx/src/tes/dave_driver.c **** 
 421                             		.loc 1 282 32 is_stmt 0 view .LVU183
 422 008d F9 7A 22 CC 00          		mov.L	#0xcc, 136[r7]
 285:../src/smc_gen/r_drw2d_rx/src/tes/dave_driver.c **** 
 423                             		.loc 1 285 7 is_stmt 1 view .LVU184
 285:../src/smc_gen/r_drw2d_rx/src/tes/dave_driver.c **** 
 424                             		.loc 1 285 32 is_stmt 0 view .LVU185
 425 0092 3E F7 05                		mov.L	#5, 92[r7]
 287:../src/smc_gen/r_drw2d_rx/src/tes/dave_driver.c ****       {
 426                             		.loc 1 287 7 is_stmt 1 view .LVU186
 287:../src/smc_gen/r_drw2d_rx/src/tes/dave_driver.c ****       {
 427                             		.loc 1 287 9 is_stmt 0 view .LVU187
 428 0095 FD 74 CA 04             		tst	#4, r10
 429 0099 14                      		beq	.L27
 289:../src/smc_gen/r_drw2d_rx/src/tes/dave_driver.c ****       }
 430                             		.loc 1 289 10 is_stmt 1 view .LVU188
 289:../src/smc_gen/r_drw2d_rx/src/tes/dave_driver.c ****       }
 431                             		.loc 1 289 31 is_stmt 0 view .LVU189
 432 009a 3E F7 04                		mov.L	#4, 92[r7]
 433                             	.L27:
 292:../src/smc_gen/r_drw2d_rx/src/tes/dave_driver.c ****       {
 434                             		.loc 1 292 7 is_stmt 1 view .LVU190
 292:../src/smc_gen/r_drw2d_rx/src/tes/dave_driver.c ****       {
 435                             		.loc 1 292 9 is_stmt 0 view .LVU191
 436 009d FD 74 CA 08             		tst	#8, r10
 437 00a1 11                      		beq	.L28
 294:../src/smc_gen/r_drw2d_rx/src/tes/dave_driver.c ****       }
 438                             		.loc 1 294 10 is_stmt 1 view .LVU192
 294:../src/smc_gen/r_drw2d_rx/src/tes/dave_driver.c ****       }
 439                             		.loc 1 294 31 is_stmt 0 view .LVU193
 440 00a2 ED 7A 17                		mov.L	92[r7], r10
 441                             	.LVL40:
 294:../src/smc_gen/r_drw2d_rx/src/tes/dave_driver.c ****       }
 442                             		.loc 1 294 31 view .LVU194
 443 00a5 7A 2A                   		bclr	#2, r10
 444 00a7 E7 7A 17                		mov.L	r10, 92[r7]
 445                             	.L28:
 297:../src/smc_gen/r_drw2d_rx/src/tes/dave_driver.c ****       handle->lowlocalmem_mode = NULL;
 446                             		.loc 1 297 7 is_stmt 1 view .LVU195
 297:../src/smc_gen/r_drw2d_rx/src/tes/dave_driver.c ****       handle->lowlocalmem_mode = NULL;
 447                             		.loc 1 297 32 is_stmt 0 view .LVU196
 448 00aa 3E F8 00                		mov.L	#0, 96[r7]
 298:../src/smc_gen/r_drw2d_rx/src/tes/dave_driver.c **** 
 449                             		.loc 1 298 7 is_stmt 1 view .LVU197
 298:../src/smc_gen/r_drw2d_rx/src/tes/dave_driver.c **** 
 450                             		.loc 1 298 32 is_stmt 0 view .LVU198
 451 00ad 3E FF 00                		mov.L	#0, 124[r7]
 302:../src/smc_gen/r_drw2d_rx/src/tes/dave_driver.c ****       {
 452                             		.loc 1 302 7 is_stmt 1 view .LVU199
 453                             	.LVL41:
 302:../src/smc_gen/r_drw2d_rx/src/tes/dave_driver.c ****       {
 454                             		.loc 1 302 12 is_stmt 0 view .LVU200
 455 00b0 66 05                   		mov.L	#0, r5
 456                             	.LVL42:
 457                             	.L29:
 302:../src/smc_gen/r_drw2d_rx/src/tes/dave_driver.c ****       {
 458                             		.loc 1 302 7 discriminator 1 view .LVU201
 459 00b2 75 55 3A                		cmp	#58, r5
 460 00b5 2A 16                   		bgt	.L32
 304:../src/smc_gen/r_drw2d_rx/src/tes/dave_driver.c ****          handle->cache.valid[i] = 0;
 461                             		.loc 1 304 10 is_stmt 1 discriminator 3 view .LVU202
 304:../src/smc_gen/r_drw2d_rx/src/tes/dave_driver.c ****          handle->cache.valid[i] = 0;
 462                             		.loc 1 304 33 is_stmt 0 discriminator 3 view .LVU203
 463 00b7 71 54 23                		add	#35, r5, r4
 464 00ba 66 0A                   		mov.L	#0, r10
 465 00bc FE 24 7A                		mov.L	r10, [r4,r7]
 305:../src/smc_gen/r_drw2d_rx/src/tes/dave_driver.c ****       }
 466                             		.loc 1 305 10 is_stmt 1 discriminator 3 view .LVU204
 305:../src/smc_gen/r_drw2d_rx/src/tes/dave_driver.c ****       }
 467                             		.loc 1 305 33 is_stmt 0 discriminator 3 view .LVU205
 468 00bf FF 24 57                		add	r5, r7, r4
 469 00c2 FA 44 78 01 00          		mov.B	#0, 376[r4]
 302:../src/smc_gen/r_drw2d_rx/src/tes/dave_driver.c ****       {
 470                             		.loc 1 302 32 discriminator 3 view .LVU206
 471 00c7 62 15                   		add	#1, r5
 472                             	.LVL43:
 302:../src/smc_gen/r_drw2d_rx/src/tes/dave_driver.c ****       {
 473                             		.loc 1 302 32 discriminator 3 view .LVU207
 474 00c9 2E E9                   		bra	.L29
 475                             	.L32:
 310:../src/smc_gen/r_drw2d_rx/src/tes/dave_driver.c ****       handle->hilimiterprecision_supported = 0;
 476                             		.loc 1 310 7 is_stmt 1 view .LVU208
 310:../src/smc_gen/r_drw2d_rx/src/tes/dave_driver.c ****       handle->hilimiterprecision_supported = 0;
 477                             		.loc 1 310 44 is_stmt 0 view .LVU209
 478 00cb F9 76 20 00             		mov.L	#0, 128[r7]
 311:../src/smc_gen/r_drw2d_rx/src/tes/dave_driver.c ****       handle->maxpatlen                    = 8;
 479                             		.loc 1 311 7 is_stmt 1 view .LVU210
 311:../src/smc_gen/r_drw2d_rx/src/tes/dave_driver.c ****       handle->maxpatlen                    = 8;
 480                             		.loc 1 311 44 is_stmt 0 view .LVU211
 481 00cf FA 74 C8 01 00          		mov.B	#0, 456[r7]
 312:../src/smc_gen/r_drw2d_rx/src/tes/dave_driver.c **** 
 482                             		.loc 1 312 7 is_stmt 1 view .LVU212
 312:../src/smc_gen/r_drw2d_rx/src/tes/dave_driver.c **** 
 483                             		.loc 1 312 44 is_stmt 0 view .LVU213
 484 00d4 FA 74 C5 01 08          		mov.B	#8, 453[r7]
 315:../src/smc_gen/r_drw2d_rx/src/tes/dave_driver.c ****       g_devicechain = handle;
 485                             		.loc 1 315 7 is_stmt 1 view .LVU214
 315:../src/smc_gen/r_drw2d_rx/src/tes/dave_driver.c ****       g_devicechain = handle;
 486                             		.loc 1 315 20 is_stmt 0 view .LVU215
 487 00d9 FB A2 00 00 00 00       		mov.L	#_g_devicechain, r10
 488 00df E0 A7                   		mov.L	[r10], [r7]
 316:../src/smc_gen/r_drw2d_rx/src/tes/dave_driver.c ****    }
 489                             		.loc 1 316 7 is_stmt 1 view .LVU216
 316:../src/smc_gen/r_drw2d_rx/src/tes/dave_driver.c ****    }
 490                             		.loc 1 316 21 is_stmt 0 view .LVU217
 491 00e1 E3 A7                   		mov.L	r7, [r10]
 319:../src/smc_gen/r_drw2d_rx/src/tes/dave_driver.c **** }
 492                             		.loc 1 319 4 is_stmt 1 view .LVU218
 493                             	.LVL44:
 494                             	.L25:
 320:../src/smc_gen/r_drw2d_rx/src/tes/dave_driver.c **** 
 495                             		.loc 1 320 1 is_stmt 0 view .LVU219
 496 00e3 EF 71                   		mov.L	r7, r1
 497 00e5 3F 7A 04                		rtsd	#16, r7-r10
 320:../src/smc_gen/r_drw2d_rx/src/tes/dave_driver.c **** 
 498                             		.loc 1 320 1 view .LVU220
 499                             	.LFE9:
 501                             		.section	.text.d2_geterror,"ax",@progbits
 502                             		.global	_d2_geterror
 504                             	_d2_geterror:
 505                             	.LVL45:
 506                             	.LFB11:
 407:../src/smc_gen/r_drw2d_rx/src/tes/dave_driver.c ****    d2_s32 errorCode;
 507                             		.loc 1 407 1 is_stmt 1 view -0
 407:../src/smc_gen/r_drw2d_rx/src/tes/dave_driver.c ****    d2_s32 errorCode;
 508                             		.loc 1 407 1 is_stmt 0 view .LVU222
 509 0000 EF 15                   		mov.L	r1, r5
 408:../src/smc_gen/r_drw2d_rx/src/tes/dave_driver.c **** 
 510                             		.loc 1 408 4 is_stmt 1 view .LVU223
 410:../src/smc_gen/r_drw2d_rx/src/tes/dave_driver.c ****    {
 511                             		.loc 1 410 4 view .LVU224
 410:../src/smc_gen/r_drw2d_rx/src/tes/dave_driver.c ****    {
 512                             		.loc 1 410 6 is_stmt 0 view .LVU225
 513 0002 61 01                   		cmp	#0, r1
 514 0004 20 0E                   		beq	.L35
 414:../src/smc_gen/r_drw2d_rx/src/tes/dave_driver.c **** 
 515                             		.loc 1 414 7 is_stmt 1 view .LVU226
 414:../src/smc_gen/r_drw2d_rx/src/tes/dave_driver.c **** 
 516                             		.loc 1 414 17 is_stmt 0 view .LVU227
 517 0006 CE 11 C6 01             		mov.B	454[r1], r1
 518                             	.LVL46:
 416:../src/smc_gen/r_drw2d_rx/src/tes/dave_driver.c ****       {
 519                             		.loc 1 416 7 is_stmt 1 view .LVU228
 416:../src/smc_gen/r_drw2d_rx/src/tes/dave_driver.c ****       {
 520                             		.loc 1 416 9 is_stmt 0 view .LVU229
 521 000a 61 01                   		cmp	#0, r1
 522 000c 18                      		bne	.L33
 418:../src/smc_gen/r_drw2d_rx/src/tes/dave_driver.c ****       }
 523                             		.loc 1 418 10 is_stmt 1 view .LVU230
 418:../src/smc_gen/r_drw2d_rx/src/tes/dave_driver.c ****       }
 524                             		.loc 1 418 20 is_stmt 0 view .LVU231
 525 000d CE 51 C7 01             		mov.B	455[r5], r1
 526                             	.LVL47:
 418:../src/smc_gen/r_drw2d_rx/src/tes/dave_driver.c ****       }
 527                             		.loc 1 418 20 view .LVU232
 528 0011 02                      		rts
 529                             	.LVL48:
 530                             	.L35:
 423:../src/smc_gen/r_drw2d_rx/src/tes/dave_driver.c ****    }
 531                             		.loc 1 423 17 view .LVU233
 532 0012 66 21                   		mov.L	#2, r1
 533                             	.LVL49:
 426:../src/smc_gen/r_drw2d_rx/src/tes/dave_driver.c **** }
 534                             		.loc 1 426 4 is_stmt 1 view .LVU234
 535                             	.L33:
 427:../src/smc_gen/r_drw2d_rx/src/tes/dave_driver.c **** 
 536                             		.loc 1 427 1 is_stmt 0 view .LVU235
 537 0014 02                      		rts
 538                             	.LFE11:
 540                             		.section	.text.d2_geterrorstring,"ax",@progbits
 541                             		.global	_d2_geterrorstring
 543                             	_d2_geterrorstring:
 544                             	.LVL50:
 545                             	.LFB12:
 442:../src/smc_gen/r_drw2d_rx/src/tes/dave_driver.c ****    D2_VALIDATEP( handle, D2_INVALIDDEVICE); /* PRQA S 4130, 3112 */ /* $Misra: #DEBUG_MACRO $*/
 546                             		.loc 1 442 1 is_stmt 1 view -0
 443:../src/smc_gen/r_drw2d_rx/src/tes/dave_driver.c ****    return d2_translateerror( d2_geterror( handle ) );
 547                             		.loc 1 443 4 view .LVU237
 444:../src/smc_gen/r_drw2d_rx/src/tes/dave_driver.c **** }
 548                             		.loc 1 444 4 view .LVU238
 444:../src/smc_gen/r_drw2d_rx/src/tes/dave_driver.c **** }
 549                             		.loc 1 444 11 is_stmt 0 view .LVU239
 550 0000 05 00 00 00             		bsr	_d2_geterror
 551                             	.LVL51:
 444:../src/smc_gen/r_drw2d_rx/src/tes/dave_driver.c **** }
 552                             		.loc 1 444 11 view .LVU240
 553 0004 05 00 00 00             		bsr	_d2_translateerror
 554                             	.LVL52:
 445:../src/smc_gen/r_drw2d_rx/src/tes/dave_driver.c **** 
 555                             		.loc 1 445 1 view .LVU241
 556 0008 02                      		rts
 557                             	.LFE12:
 559                             		.section	.text.d2_inithw,"ax",@progbits
 560                             		.global	_d2_inithw
 562                             	_d2_inithw:
 563                             	.LVL53:
 564                             	.LFB13:
 463:../src/smc_gen/r_drw2d_rx/src/tes/dave_driver.c **** #ifdef D2_USEREGCACHE
 565                             		.loc 1 463 1 is_stmt 1 view -0
 463:../src/smc_gen/r_drw2d_rx/src/tes/dave_driver.c **** #ifdef D2_USEREGCACHE
 566                             		.loc 1 463 1 is_stmt 0 view .LVU243
 567 0000 6E 6A                   		pushm	r6-r10
 568                             	.LCFI2:
 569 0002 EF 17                   		mov.L	r1, r7
 465:../src/smc_gen/r_drw2d_rx/src/tes/dave_driver.c **** #endif
 570                             		.loc 1 465 4 is_stmt 1 view .LVU244
 467:../src/smc_gen/r_drw2d_rx/src/tes/dave_driver.c **** 
 571                             		.loc 1 467 4 view .LVU245
 572                             	.LVL54:
 469:../src/smc_gen/r_drw2d_rx/src/tes/dave_driver.c ****    D2_CHECKERR( d2_dev->hwid == NULL, D2_DEVASSIGNED); /* PRQA S 4130, 3112 */ /* $Misra: #DEBUG_MA
 573                             		.loc 1 469 4 view .LVU246
 470:../src/smc_gen/r_drw2d_rx/src/tes/dave_driver.c **** 
 574                             		.loc 1 470 4 view .LVU247
 472:../src/smc_gen/r_drw2d_rx/src/tes/dave_driver.c ****    if(NULL == d2_dev->hwid)
 575                             		.loc 1 472 4 view .LVU248
 472:../src/smc_gen/r_drw2d_rx/src/tes/dave_driver.c ****    if(NULL == d2_dev->hwid)
 576                             		.loc 1 472 19 is_stmt 0 view .LVU249
 577 0004 05 00 00 00             		bsr	_d2hw_acquire
 578                             	.LVL55:
 472:../src/smc_gen/r_drw2d_rx/src/tes/dave_driver.c ****    if(NULL == d2_dev->hwid)
 579                             		.loc 1 472 17 view .LVU250
 580 0008 A1 F1                   		mov.L	r1, 24[r7]
 473:../src/smc_gen/r_drw2d_rx/src/tes/dave_driver.c ****    {
 581                             		.loc 1 473 4 is_stmt 1 view .LVU251
 473:../src/smc_gen/r_drw2d_rx/src/tes/dave_driver.c ****    {
 582                             		.loc 1 473 6 is_stmt 0 view .LVU252
 583 000a 61 01                   		cmp	#0, r1
 584 000c 20 15                   		beq	.L47
 480:../src/smc_gen/r_drw2d_rx/src/tes/dave_driver.c ****    {
 585                             		.loc 1 480 9 view .LVU253
 586 000e 66 05                   		mov.L	#0, r5
 587                             	.L38:
 588                             	.LVL56:
 480:../src/smc_gen/r_drw2d_rx/src/tes/dave_driver.c ****    {
 589                             		.loc 1 480 4 discriminator 1 view .LVU254
 590 0010 75 55 3A                		cmp	#58, r5
 591 0013 2A 18                   		bgt	.L48
 482:../src/smc_gen/r_drw2d_rx/src/tes/dave_driver.c ****    }
 592                             		.loc 1 482 7 is_stmt 1 discriminator 3 view .LVU255
 482:../src/smc_gen/r_drw2d_rx/src/tes/dave_driver.c ****    }
 593                             		.loc 1 482 30 is_stmt 0 discriminator 3 view .LVU256
 594 0015 FF 24 57                		add	r5, r7, r4
 595 0018 FA 44 78 01 00          		mov.B	#0, 376[r4]
 480:../src/smc_gen/r_drw2d_rx/src/tes/dave_driver.c ****    {
 596                             		.loc 1 480 29 discriminator 3 view .LVU257
 597 001d 62 15                   		add	#1, r5
 598                             	.LVL57:
 480:../src/smc_gen/r_drw2d_rx/src/tes/dave_driver.c ****    {
 599                             		.loc 1 480 29 discriminator 3 view .LVU258
 600 001f 2E F1                   		bra	.L38
 601                             	.LVL58:
 602                             	.L47:
 475:../src/smc_gen/r_drw2d_rx/src/tes/dave_driver.c ****    }
 603                             		.loc 1 475 7 is_stmt 1 view .LVU259
 604                             	.LBB38:
 605                             	.LBI38:
 239:../src/smc_gen/r_drw2d_rx/src/tes/dave_intern.h **** {
 606                             		.loc 2 239 25 view .LVU260
 607                             	.LBB39:
 241:../src/smc_gen/r_drw2d_rx/src/tes/dave_intern.h **** 
 608                             		.loc 2 241 4 view .LVU261
 241:../src/smc_gen/r_drw2d_rx/src/tes/dave_intern.h **** 
 609                             		.loc 2 241 30 is_stmt 0 view .LVU262
 610 0021 FA 74 C6 01 05          		mov.B	#5, 454[r7]
 611                             		.loc 2 243 4 is_stmt 1 view .LVU263
 612                             	.LVL59:
 613                             		.loc 2 243 4 is_stmt 0 view .LVU264
 614                             	.LBE39:
 615                             	.LBE38:
 475:../src/smc_gen/r_drw2d_rx/src/tes/dave_driver.c ****    }
 616                             		.loc 1 475 7 view .LVU265
 617 0026 66 51                   		mov.L	#5, r1
 618 0028 38 86 00                		bra	.L37
 619                             	.LVL60:
 620                             	.L48:
 487:../src/smc_gen/r_drw2d_rx/src/tes/dave_driver.c ****    {
 621                             		.loc 1 487 4 is_stmt 1 view .LVU266
 487:../src/smc_gen/r_drw2d_rx/src/tes/dave_driver.c ****    {
 622                             		.loc 1 487 18 is_stmt 0 view .LVU267
 623 002b ED 7A 1F                		mov.L	124[r7], r10
 487:../src/smc_gen/r_drw2d_rx/src/tes/dave_driver.c ****    {
 624                             		.loc 1 487 6 view .LVU268
 625 002e 61 0A                   		cmp	#0, r10
 626 0030 20 20                   		beq	.L41
 627                             	.LBB40:
 489:../src/smc_gen/r_drw2d_rx/src/tes/dave_driver.c **** 
 628                             		.loc 1 489 7 is_stmt 1 view .LVU269
 629                             	.LVL61:
 491:../src/smc_gen/r_drw2d_rx/src/tes/dave_driver.c ****       D2_CHECKERR( llm_mode->dlist_buffer, D2_NOMEMORY ); /* PRQA S 4130, 3112 */ /* $Misra: #DEBUG
 630                             		.loc 1 491 7 view .LVU270
 491:../src/smc_gen/r_drw2d_rx/src/tes/dave_driver.c ****       D2_CHECKERR( llm_mode->dlist_buffer, D2_NOMEMORY ); /* PRQA S 4130, 3112 */ /* $Misra: #DEBUG
 631                             		.loc 1 491 32 is_stmt 0 view .LVU271
 632 0032 ED 72 22                		mov.L	136[r7], r2
 633 0035 EF 71                   		mov.L	r7, r1
 634 0037 05 00 00 00             		bsr	_d2_alloc_dlistblock_intern
 635                             	.LVL62:
 491:../src/smc_gen/r_drw2d_rx/src/tes/dave_driver.c ****       D2_CHECKERR( llm_mode->dlist_buffer, D2_NOMEMORY ); /* PRQA S 4130, 3112 */ /* $Misra: #DEBUG
 636                             		.loc 1 491 32 view .LVU272
 637 003b EF 16                   		mov.L	r1, r6
 491:../src/smc_gen/r_drw2d_rx/src/tes/dave_driver.c ****       D2_CHECKERR( llm_mode->dlist_buffer, D2_NOMEMORY ); /* PRQA S 4130, 3112 */ /* $Misra: #DEBUG
 638                             		.loc 1 491 30 view .LVU273
 639 003d E3 A1                   		mov.L	r1, [r10]
 492:../src/smc_gen/r_drw2d_rx/src/tes/dave_driver.c ****       llm_mode->dlist_buffer->next = d2_alloc_dlistblock_intern(handle, d2_dev->dlistblocksize);
 640                             		.loc 1 492 7 is_stmt 1 view .LVU274
 493:../src/smc_gen/r_drw2d_rx/src/tes/dave_driver.c ****       D2_CHECKERR( llm_mode->dlist_buffer->next, D2_NOMEMORY ); /* PRQA S 4130, 3112 */ /* $Misra: 
 641                             		.loc 1 493 7 view .LVU275
 493:../src/smc_gen/r_drw2d_rx/src/tes/dave_driver.c ****       D2_CHECKERR( llm_mode->dlist_buffer->next, D2_NOMEMORY ); /* PRQA S 4130, 3112 */ /* $Misra: 
 642                             		.loc 1 493 38 is_stmt 0 view .LVU276
 643 003f ED 72 22                		mov.L	136[r7], r2
 644 0042 EF 71                   		mov.L	r7, r1
 645 0044 05 00 00 00             		bsr	_d2_alloc_dlistblock_intern
 646                             	.LVL63:
 493:../src/smc_gen/r_drw2d_rx/src/tes/dave_driver.c ****       D2_CHECKERR( llm_mode->dlist_buffer->next, D2_NOMEMORY ); /* PRQA S 4130, 3112 */ /* $Misra: 
 647                             		.loc 1 493 36 view .LVU277
 648 0048 E3 61                   		mov.L	r1, [r6]
 494:../src/smc_gen/r_drw2d_rx/src/tes/dave_driver.c ****       llm_mode->dlist_buffer->next->next = llm_mode->dlist_buffer;
 649                             		.loc 1 494 7 is_stmt 1 view .LVU278
 495:../src/smc_gen/r_drw2d_rx/src/tes/dave_driver.c ****    }
 650                             		.loc 1 495 7 view .LVU279
 495:../src/smc_gen/r_drw2d_rx/src/tes/dave_driver.c ****    }
 651                             		.loc 1 495 15 is_stmt 0 view .LVU280
 652 004a EC AA                   		mov.L	[r10], r10
 653                             	.LVL64:
 495:../src/smc_gen/r_drw2d_rx/src/tes/dave_driver.c ****    }
 654                             		.loc 1 495 29 view .LVU281
 655 004c EC A5                   		mov.L	[r10], r5
 495:../src/smc_gen/r_drw2d_rx/src/tes/dave_driver.c ****    }
 656                             		.loc 1 495 42 view .LVU282
 657 004e E3 5A                   		mov.L	r10, [r5]
 658                             	.L41:
 495:../src/smc_gen/r_drw2d_rx/src/tes/dave_driver.c ****    }
 659                             		.loc 1 495 42 view .LVU283
 660                             	.LBE40:
 500:../src/smc_gen/r_drw2d_rx/src/tes/dave_driver.c ****    d2_dev->renderbuffer[1] = (d2_rbuffer*) d2_newrenderbuffer( handle, d2_dev->dlistblocksize, d2_d
 661                             		.loc 1 500 4 is_stmt 1 view .LVU284
 500:../src/smc_gen/r_drw2d_rx/src/tes/dave_driver.c ****    d2_dev->renderbuffer[1] = (d2_rbuffer*) d2_newrenderbuffer( handle, d2_dev->dlistblocksize, d2_d
 662                             		.loc 1 500 44 is_stmt 0 view .LVU285
 663 0050 ED 73 22                		mov.L	136[r7], r3
 664 0053 EF 32                   		mov.L	r3, r2
 665 0055 EF 71                   		mov.L	r7, r1
 666 0057 05 00 00 00             		bsr	_d2_newrenderbuffer
 667                             	.LVL65:
 500:../src/smc_gen/r_drw2d_rx/src/tes/dave_driver.c ****    d2_dev->renderbuffer[1] = (d2_rbuffer*) d2_newrenderbuffer( handle, d2_dev->dlistblocksize, d2_d
 668                             		.loc 1 500 28 view .LVU286
 669 005b A1 71                   		mov.L	r1, 16[r7]
 501:../src/smc_gen/r_drw2d_rx/src/tes/dave_driver.c **** 
 670                             		.loc 1 501 4 is_stmt 1 view .LVU287
 501:../src/smc_gen/r_drw2d_rx/src/tes/dave_driver.c **** 
 671                             		.loc 1 501 44 is_stmt 0 view .LVU288
 672 005d ED 73 22                		mov.L	136[r7], r3
 673 0060 EF 32                   		mov.L	r3, r2
 674 0062 EF 71                   		mov.L	r7, r1
 675 0064 05 00 00 00             		bsr	_d2_newrenderbuffer
 676                             	.LVL66:
 501:../src/smc_gen/r_drw2d_rx/src/tes/dave_driver.c **** 
 677                             		.loc 1 501 28 view .LVU289
 678 0068 A1 79                   		mov.L	r1, 20[r7]
 503:../src/smc_gen/r_drw2d_rx/src/tes/dave_driver.c ****    {
 679                             		.loc 1 503 4 is_stmt 1 view .LVU290
 503:../src/smc_gen/r_drw2d_rx/src/tes/dave_driver.c ****    {
 680                             		.loc 1 503 37 is_stmt 0 view .LVU291
 681 006a A9 75                   		mov.L	16[r7], r5
 503:../src/smc_gen/r_drw2d_rx/src/tes/dave_driver.c ****    {
 682                             		.loc 1 503 6 view .LVU292
 683 006c 61 05                   		cmp	#0, r5
 684 006e 20 43                   		beq	.L42
 503:../src/smc_gen/r_drw2d_rx/src/tes/dave_driver.c ****    {
 685                             		.loc 1 503 42 discriminator 1 view .LVU293
 686 0070 61 01                   		cmp	#0, r1
 687 0072 20 3F                   		beq	.L42
 510:../src/smc_gen/r_drw2d_rx/src/tes/dave_driver.c ****    d2_dev->writelist      = &d2_dev->renderbuffer[0]->baselist;
 688                             		.loc 1 510 4 is_stmt 1 view .LVU294
 510:../src/smc_gen/r_drw2d_rx/src/tes/dave_driver.c ****    d2_dev->writelist      = &d2_dev->renderbuffer[0]->baselist;
 689                             		.loc 1 510 27 is_stmt 0 view .LVU295
 690 0074 A0 FD                   		mov.L	r5, 12[r7]
 511:../src/smc_gen/r_drw2d_rx/src/tes/dave_driver.c ****    d2_dev->readlist       = &d2_dev->renderbuffer[1]->baselist;
 691                             		.loc 1 511 4 is_stmt 1 view .LVU296
 511:../src/smc_gen/r_drw2d_rx/src/tes/dave_driver.c ****    d2_dev->readlist       = &d2_dev->renderbuffer[1]->baselist;
 692                             		.loc 1 511 27 is_stmt 0 view .LVU297
 693 0076 A0 F5                   		mov.L	r5, 8[r7]
 512:../src/smc_gen/r_drw2d_rx/src/tes/dave_driver.c ****    d2_dev->srccontext     = NULL;
 694                             		.loc 1 512 4 is_stmt 1 view .LVU298
 512:../src/smc_gen/r_drw2d_rx/src/tes/dave_driver.c ****    d2_dev->srccontext     = NULL;
 695                             		.loc 1 512 27 is_stmt 0 view .LVU299
 696 0078 A0 79                   		mov.L	r1, 4[r7]
 513:../src/smc_gen/r_drw2d_rx/src/tes/dave_driver.c **** 
 697                             		.loc 1 513 4 is_stmt 1 view .LVU300
 513:../src/smc_gen/r_drw2d_rx/src/tes/dave_driver.c **** 
 698                             		.loc 1 513 27 is_stmt 0 view .LVU301
 699 007a 3E 7D 00                		mov.L	#0, 52[r7]
 516:../src/smc_gen/r_drw2d_rx/src/tes/dave_driver.c ****    D2_CHECKERR( d2_dev->dlscratch_base, D2_NOMEMORY ); /* PRQA S 4130, 3112 */ /* $Misra: #DEBUG_MA
 700                             		.loc 1 516 4 is_stmt 1 view .LVU302
 516:../src/smc_gen/r_drw2d_rx/src/tes/dave_driver.c ****    D2_CHECKERR( d2_dev->dlscratch_base, D2_NOMEMORY ); /* PRQA S 4130, 3112 */ /* $Misra: #DEBUG_MA
 701                             		.loc 1 516 55 is_stmt 0 view .LVU303
 702 007d FB 1A 00 02             		mov.L	#0x200, r1
 703 0081 05 00 00 00             		bsr	_d2_getmem_p
 704                             	.LVL67:
 516:../src/smc_gen/r_drw2d_rx/src/tes/dave_driver.c ****    D2_CHECKERR( d2_dev->dlscratch_base, D2_NOMEMORY ); /* PRQA S 4130, 3112 */ /* $Misra: #DEBUG_MA
 705                             		.loc 1 516 27 view .LVU304
 706 0085 E7 71 6D                		mov.L	r1, 436[r7]
 517:../src/smc_gen/r_drw2d_rx/src/tes/dave_driver.c ****    d2_dev->dlscratch_pos  = d2_dev->dlscratch_base;
 707                             		.loc 1 517 4 is_stmt 1 view .LVU305
 518:../src/smc_gen/r_drw2d_rx/src/tes/dave_driver.c ****    d2_dev->dlscratch_cnt  = D2_DLISTSCRATCH;
 708                             		.loc 1 518 4 view .LVU306
 518:../src/smc_gen/r_drw2d_rx/src/tes/dave_driver.c ****    d2_dev->dlscratch_cnt  = D2_DLISTSCRATCH;
 709                             		.loc 1 518 27 is_stmt 0 view .LVU307
 710 0088 E7 71 6E                		mov.L	r1, 440[r7]
 519:../src/smc_gen/r_drw2d_rx/src/tes/dave_driver.c ****    d2_dev->dlscratch_hook = &d2_scratch2dlist_intern;
 711                             		.loc 1 519 4 is_stmt 1 view .LVU308
 519:../src/smc_gen/r_drw2d_rx/src/tes/dave_driver.c ****    d2_dev->dlscratch_hook = &d2_scratch2dlist_intern;
 712                             		.loc 1 519 27 is_stmt 0 view .LVU309
 713 008b F9 76 6F 40             		mov.L	#0x40, 444[r7]
 520:../src/smc_gen/r_drw2d_rx/src/tes/dave_driver.c **** 
 714                             		.loc 1 520 4 is_stmt 1 view .LVU310
 520:../src/smc_gen/r_drw2d_rx/src/tes/dave_driver.c **** 
 715                             		.loc 1 520 27 is_stmt 0 view .LVU311
 716 008f F9 72 70 00 00 00 00    		mov.L	#_d2_scratch2dlist_intern, 448[r7]
 523:../src/smc_gen/r_drw2d_rx/src/tes/dave_driver.c ****    if(0 != d1_devicesupported(d2_dev->hwid, D1_DLISTINDIRECT))
 717                             		.loc 1 523 4 is_stmt 1 view .LVU312
 523:../src/smc_gen/r_drw2d_rx/src/tes/dave_driver.c ****    if(0 != d1_devicesupported(d2_dev->hwid, D1_DLISTINDIRECT))
 718                             		.loc 1 523 37 is_stmt 0 view .LVU313
 719 0096 FA 74 C9 01 00          		mov.B	#0, 457[r7]
 524:../src/smc_gen/r_drw2d_rx/src/tes/dave_driver.c ****    {
 720                             		.loc 1 524 4 is_stmt 1 view .LVU314
 524:../src/smc_gen/r_drw2d_rx/src/tes/dave_driver.c ****    {
 721                             		.loc 1 524 12 is_stmt 0 view .LVU315
 722 009b 66 A2                   		mov.L	#10, r2
 723 009d A9 F1                   		mov.L	24[r7], r1
 724 009f 05 00 00 00             		bsr	_d1_devicesupported
 725                             	.LVL68:
 524:../src/smc_gen/r_drw2d_rx/src/tes/dave_driver.c ****    {
 726                             		.loc 1 524 6 view .LVU316
 727 00a3 61 01                   		cmp	#0, r1
 728 00a5 21 15                   		bne	.L49
 729                             	.L44:
 534:../src/smc_gen/r_drw2d_rx/src/tes/dave_driver.c **** }
 730                             		.loc 1 534 4 is_stmt 1 view .LVU317
 731                             	.LVL69:
 732                             	.LBB41:
 733                             	.LBI41:
 239:../src/smc_gen/r_drw2d_rx/src/tes/dave_intern.h **** {
 734                             		.loc 2 239 25 view .LVU318
 735                             	.LBB42:
 241:../src/smc_gen/r_drw2d_rx/src/tes/dave_intern.h **** 
 736                             		.loc 2 241 4 view .LVU319
 241:../src/smc_gen/r_drw2d_rx/src/tes/dave_intern.h **** 
 737                             		.loc 2 241 30 is_stmt 0 view .LVU320
 738 00a7 FA 74 C6 01 00          		mov.B	#0, 454[r7]
 739                             		.loc 2 243 4 is_stmt 1 view .LVU321
 740                             	.LVL70:
 741                             		.loc 2 243 4 is_stmt 0 view .LVU322
 742                             	.LBE42:
 743                             	.LBE41:
 534:../src/smc_gen/r_drw2d_rx/src/tes/dave_driver.c **** }
 744                             		.loc 1 534 4 view .LVU323
 745 00ac 66 01                   		mov.L	#0, r1
 746                             	.L37:
 535:../src/smc_gen/r_drw2d_rx/src/tes/dave_driver.c **** 
 747                             		.loc 1 535 1 view .LVU324
 748 00ae 3F 6A 05                		rtsd	#20, r6-r10
 749                             	.LVL71:
 750                             	.L42:
 505:../src/smc_gen/r_drw2d_rx/src/tes/dave_driver.c ****       return D2_NOMEMORY;
 751                             		.loc 1 505 7 is_stmt 1 view .LVU325
 752                             	.LBB43:
 753                             	.LBI43:
 239:../src/smc_gen/r_drw2d_rx/src/tes/dave_intern.h **** {
 754                             		.loc 2 239 25 view .LVU326
 755                             	.LBB44:
 241:../src/smc_gen/r_drw2d_rx/src/tes/dave_intern.h **** 
 756                             		.loc 2 241 4 view .LVU327
 241:../src/smc_gen/r_drw2d_rx/src/tes/dave_intern.h **** 
 757                             		.loc 2 241 30 is_stmt 0 view .LVU328
 758 00b1 FA 74 C6 01 01          		mov.B	#1, 454[r7]
 759                             		.loc 2 243 4 is_stmt 1 view .LVU329
 760                             	.LVL72:
 761                             		.loc 2 243 4 is_stmt 0 view .LVU330
 762                             	.LBE44:
 763                             	.LBE43:
 506:../src/smc_gen/r_drw2d_rx/src/tes/dave_driver.c ****    }
 764                             		.loc 1 506 7 is_stmt 1 view .LVU331
 506:../src/smc_gen/r_drw2d_rx/src/tes/dave_driver.c ****    }
 765                             		.loc 1 506 14 is_stmt 0 view .LVU332
 766 00b6 66 11                   		mov.L	#1, r1
 767 00b8 2E F6                   		bra	.L37
 768                             	.L49:
 527:../src/smc_gen/r_drw2d_rx/src/tes/dave_driver.c ****       if(0x000000ff == d1_getregister(d2_dev->hwid, D1_DLISTINDIRECT, 0))
 769                             		.loc 1 527 7 is_stmt 1 view .LVU333
 770 00ba 75 44 FF                		mov.L	#0xff, r4
 771 00bd 66 03                   		mov.L	#0, r3
 772 00bf 66 A2                   		mov.L	#10, r2
 773 00c1 A9 F1                   		mov.L	24[r7], r1
 774 00c3 05 00 00 00             		bsr	_d1_setregister
 775                             	.LVL73:
 528:../src/smc_gen/r_drw2d_rx/src/tes/dave_driver.c ****       {
 776                             		.loc 1 528 7 view .LVU334
 528:../src/smc_gen/r_drw2d_rx/src/tes/dave_driver.c ****       {
 777                             		.loc 1 528 24 is_stmt 0 view .LVU335
 778 00c7 66 03                   		mov.L	#0, r3
 779 00c9 66 A2                   		mov.L	#10, r2
 780 00cb A9 F1                   		mov.L	24[r7], r1
 781 00cd 05 00 00 00             		bsr	_d1_getregister
 782                             	.LVL74:
 528:../src/smc_gen/r_drw2d_rx/src/tes/dave_driver.c ****       {
 783                             		.loc 1 528 9 view .LVU336
 784 00d1 75 51 FF                		cmp	#0xff, r1
 785 00d4 21 D3                   		bne	.L44
 530:../src/smc_gen/r_drw2d_rx/src/tes/dave_driver.c ****       }
 786                             		.loc 1 530 10 is_stmt 1 view .LVU337
 530:../src/smc_gen/r_drw2d_rx/src/tes/dave_driver.c ****       }
 787                             		.loc 1 530 43 is_stmt 0 view .LVU338
 788 00d6 FA 74 C9 01 01          		mov.B	#1, 457[r7]
 789 00db 2E CC                   		bra	.L44
 790                             	.LFE13:
 792                             		.section	.text.d2_deinithw,"ax",@progbits
 793                             		.global	_d2_deinithw
 795                             	_d2_deinithw:
 796                             	.LVL75:
 797                             	.LFB14:
 550:../src/smc_gen/r_drw2d_rx/src/tes/dave_driver.c ****    D2_VALIDATE( handle, D2_INVALIDDEVICE); /* PRQA S 4130, 3112 */ /* $Misra: #DEBUG_MACRO $*/
 798                             		.loc 1 550 1 is_stmt 1 view -0
 550:../src/smc_gen/r_drw2d_rx/src/tes/dave_driver.c ****    D2_VALIDATE( handle, D2_INVALIDDEVICE); /* PRQA S 4130, 3112 */ /* $Misra: #DEBUG_MACRO $*/
 799                             		.loc 1 550 1 is_stmt 0 view .LVU340
 800 0000 6E 7A                   		pushm	r7-r10
 801                             	.LCFI3:
 551:../src/smc_gen/r_drw2d_rx/src/tes/dave_driver.c ****    /* error if no hw assigned ? */
 802                             		.loc 1 551 4 is_stmt 1 view .LVU341
 554:../src/smc_gen/r_drw2d_rx/src/tes/dave_driver.c ****    {
 803                             		.loc 1 554 4 view .LVU342
 554:../src/smc_gen/r_drw2d_rx/src/tes/dave_driver.c ****    {
 804                             		.loc 1 554 29 is_stmt 0 view .LVU343
 805 0002 A9 97                   		mov.L	24[r1], r7
 554:../src/smc_gen/r_drw2d_rx/src/tes/dave_driver.c ****    {
 806                             		.loc 1 554 6 view .LVU344
 807 0004 61 07                   		cmp	#0, r7
 808 0006 20 65                   		beq	.L51
 809 0008 EF 17                   		mov.L	r1, r7
 810                             	.LBB45:
 556:../src/smc_gen/r_drw2d_rx/src/tes/dave_driver.c ****       d2_rbuffer *rb1,*rb2;
 811                             		.loc 1 556 7 is_stmt 1 view .LVU345
 557:../src/smc_gen/r_drw2d_rx/src/tes/dave_driver.c **** 
 812                             		.loc 1 557 7 view .LVU346
 559:../src/smc_gen/r_drw2d_rx/src/tes/dave_driver.c ****       {
 813                             		.loc 1 559 7 view .LVU347
 559:../src/smc_gen/r_drw2d_rx/src/tes/dave_driver.c ****       {
 814                             		.loc 1 559 29 is_stmt 0 view .LVU348
 815 000a ED 1A 1F                		mov.L	124[r1], r10
 559:../src/smc_gen/r_drw2d_rx/src/tes/dave_driver.c ****       {
 816                             		.loc 1 559 9 view .LVU349
 817 000d 61 0A                   		cmp	#0, r10
 818 000f 20 12                   		beq	.L52
 562:../src/smc_gen/r_drw2d_rx/src/tes/dave_driver.c ****          d2_free_dlistblock_intern(handle, D2_DEV(handle)->lowlocalmem_mode->dlist_buffer);
 819                             		.loc 1 562 10 is_stmt 1 view .LVU350
 562:../src/smc_gen/r_drw2d_rx/src/tes/dave_driver.c ****          d2_free_dlistblock_intern(handle, D2_DEV(handle)->lowlocalmem_mode->dlist_buffer);
 820                             		.loc 1 562 42 is_stmt 0 view .LVU351
 821 0011 EC AA                   		mov.L	[r10], r10
 562:../src/smc_gen/r_drw2d_rx/src/tes/dave_driver.c ****          d2_free_dlistblock_intern(handle, D2_DEV(handle)->lowlocalmem_mode->dlist_buffer);
 822                             		.loc 1 562 56 view .LVU352
 823 0013 EC AA                   		mov.L	[r10], r10
 562:../src/smc_gen/r_drw2d_rx/src/tes/dave_driver.c ****          d2_free_dlistblock_intern(handle, D2_DEV(handle)->lowlocalmem_mode->dlist_buffer);
 824                             		.loc 1 562 69 view .LVU353
 825 0015 F8 A6 00                		mov.L	#0, [r10]
 563:../src/smc_gen/r_drw2d_rx/src/tes/dave_driver.c ****       }
 826                             		.loc 1 563 10 is_stmt 1 view .LVU354
 563:../src/smc_gen/r_drw2d_rx/src/tes/dave_driver.c ****       }
 827                             		.loc 1 563 58 is_stmt 0 view .LVU355
 828 0018 ED 1A 1F                		mov.L	124[r1], r10
 563:../src/smc_gen/r_drw2d_rx/src/tes/dave_driver.c ****       }
 829                             		.loc 1 563 10 view .LVU356
 830 001b EC A2                   		mov.L	[r10], r2
 831 001d 05 00 00 00             		bsr	_d2_free_dlistblock_intern
 832                             	.LVL76:
 833                             	.L52:
 567:../src/smc_gen/r_drw2d_rx/src/tes/dave_driver.c ****       rb2 = D2_DEV(handle)->renderbuffer[1];
 834                             		.loc 1 567 7 is_stmt 1 view .LVU357
 567:../src/smc_gen/r_drw2d_rx/src/tes/dave_driver.c ****       rb2 = D2_DEV(handle)->renderbuffer[1];
 835                             		.loc 1 567 11 is_stmt 0 view .LVU358
 836 0021 A9 72                   		mov.L	16[r7], r2
 837                             	.LVL77:
 568:../src/smc_gen/r_drw2d_rx/src/tes/dave_driver.c ****       D2_DEV(handle)->renderbuffer[0] = NULL; /* necessary in oder to free default buffer */
 838                             		.loc 1 568 7 is_stmt 1 view .LVU359
 568:../src/smc_gen/r_drw2d_rx/src/tes/dave_driver.c ****       D2_DEV(handle)->renderbuffer[0] = NULL; /* necessary in oder to free default buffer */
 839                             		.loc 1 568 11 is_stmt 0 view .LVU360
 840 0023 ED 7A 05                		mov.L	20[r7], r10
 841                             	.LVL78:
 569:../src/smc_gen/r_drw2d_rx/src/tes/dave_driver.c ****       D2_DEV(handle)->renderbuffer[1] = NULL;
 842                             		.loc 1 569 7 is_stmt 1 view .LVU361
 569:../src/smc_gen/r_drw2d_rx/src/tes/dave_driver.c ****       D2_DEV(handle)->renderbuffer[1] = NULL;
 843                             		.loc 1 569 39 is_stmt 0 view .LVU362
 844 0026 3E 74 00                		mov.L	#0, 16[r7]
 570:../src/smc_gen/r_drw2d_rx/src/tes/dave_driver.c ****       if(NULL != rb1)
 845                             		.loc 1 570 7 is_stmt 1 view .LVU363
 570:../src/smc_gen/r_drw2d_rx/src/tes/dave_driver.c ****       if(NULL != rb1)
 846                             		.loc 1 570 39 is_stmt 0 view .LVU364
 847 0029 3E 75 00                		mov.L	#0, 20[r7]
 571:../src/smc_gen/r_drw2d_rx/src/tes/dave_driver.c ****       {
 848                             		.loc 1 571 7 is_stmt 1 view .LVU365
 571:../src/smc_gen/r_drw2d_rx/src/tes/dave_driver.c ****       {
 849                             		.loc 1 571 9 is_stmt 0 view .LVU366
 850 002c 61 02                   		cmp	#0, r2
 851 002e 17                      		beq	.L53
 573:../src/smc_gen/r_drw2d_rx/src/tes/dave_driver.c ****       }
 852                             		.loc 1 573 10 is_stmt 1 view .LVU367
 573:../src/smc_gen/r_drw2d_rx/src/tes/dave_driver.c ****       }
 853                             		.loc 1 573 16 is_stmt 0 view .LVU368
 854 002f EF 71                   		mov.L	r7, r1
 855 0031 05 00 00 00             		bsr	_d2_freerenderbuffer
 856                             	.LVL79:
 857                             	.L53:
 575:../src/smc_gen/r_drw2d_rx/src/tes/dave_driver.c ****       {
 858                             		.loc 1 575 7 is_stmt 1 view .LVU369
 575:../src/smc_gen/r_drw2d_rx/src/tes/dave_driver.c ****       {
 859                             		.loc 1 575 9 is_stmt 0 view .LVU370
 860 0035 61 0A                   		cmp	#0, r10
 861 0037 11                      		beq	.L54
 577:../src/smc_gen/r_drw2d_rx/src/tes/dave_driver.c ****       }
 862                             		.loc 1 577 10 is_stmt 1 view .LVU371
 577:../src/smc_gen/r_drw2d_rx/src/tes/dave_driver.c ****       }
 863                             		.loc 1 577 16 is_stmt 0 view .LVU372
 864 0038 EF A2                   		mov.L	r10, r2
 865 003a EF 71                   		mov.L	r7, r1
 866 003c 05 00 00 00             		bsr	_d2_freerenderbuffer
 867                             	.LVL80:
 868                             	.L54:
 579:../src/smc_gen/r_drw2d_rx/src/tes/dave_driver.c ****       D2_DEV(handle)->writelist      = NULL;
 869                             		.loc 1 579 7 is_stmt 1 view .LVU373
 579:../src/smc_gen/r_drw2d_rx/src/tes/dave_driver.c ****       D2_DEV(handle)->writelist      = NULL;
 870                             		.loc 1 579 38 is_stmt 0 view .LVU374
 871 0040 3E 73 00                		mov.L	#0, 12[r7]
 580:../src/smc_gen/r_drw2d_rx/src/tes/dave_driver.c ****       D2_DEV(handle)->readlist       = NULL;
 872                             		.loc 1 580 7 is_stmt 1 view .LVU375
 580:../src/smc_gen/r_drw2d_rx/src/tes/dave_driver.c ****       D2_DEV(handle)->readlist       = NULL;
 873                             		.loc 1 580 38 is_stmt 0 view .LVU376
 874 0043 3E 72 00                		mov.L	#0, 8[r7]
 581:../src/smc_gen/r_drw2d_rx/src/tes/dave_driver.c ****       D2_DEV(handle)->srccontext     = NULL;
 875                             		.loc 1 581 7 is_stmt 1 view .LVU377
 581:../src/smc_gen/r_drw2d_rx/src/tes/dave_driver.c ****       D2_DEV(handle)->srccontext     = NULL;
 876                             		.loc 1 581 38 is_stmt 0 view .LVU378
 877 0046 3E 71 00                		mov.L	#0, 4[r7]
 582:../src/smc_gen/r_drw2d_rx/src/tes/dave_driver.c **** 
 878                             		.loc 1 582 7 is_stmt 1 view .LVU379
 582:../src/smc_gen/r_drw2d_rx/src/tes/dave_driver.c **** 
 879                             		.loc 1 582 38 is_stmt 0 view .LVU380
 880 0049 3E 7D 00                		mov.L	#0, 52[r7]
 585:../src/smc_gen/r_drw2d_rx/src/tes/dave_driver.c ****       D2_DEV(handle)->dlscratch_base = NULL;
 881                             		.loc 1 585 7 is_stmt 1 view .LVU381
 882 004c ED 71 6D                		mov.L	436[r7], r1
 883 004f 05 00 00 00             		bsr	_d2_freemem_p
 884                             	.LVL81:
 586:../src/smc_gen/r_drw2d_rx/src/tes/dave_driver.c ****       D2_DEV(handle)->dlscratch_pos  = NULL;
 885                             		.loc 1 586 7 view .LVU382
 586:../src/smc_gen/r_drw2d_rx/src/tes/dave_driver.c ****       D2_DEV(handle)->dlscratch_pos  = NULL;
 886                             		.loc 1 586 38 is_stmt 0 view .LVU383
 887 0053 F9 76 6D 00             		mov.L	#0, 436[r7]
 587:../src/smc_gen/r_drw2d_rx/src/tes/dave_driver.c **** 
 888                             		.loc 1 587 7 is_stmt 1 view .LVU384
 587:../src/smc_gen/r_drw2d_rx/src/tes/dave_driver.c **** 
 889                             		.loc 1 587 38 is_stmt 0 view .LVU385
 890 0057 F9 76 6E 00             		mov.L	#0, 440[r7]
 589:../src/smc_gen/r_drw2d_rx/src/tes/dave_driver.c ****       D2_DEV(handle)->hwid = NULL;
 891                             		.loc 1 589 7 is_stmt 1 view .LVU386
 589:../src/smc_gen/r_drw2d_rx/src/tes/dave_driver.c ****       D2_DEV(handle)->hwid = NULL;
 892                             		.loc 1 589 13 is_stmt 0 view .LVU387
 893 005b A9 F1                   		mov.L	24[r7], r1
 894 005d 05 00 00 00             		bsr	_d2hw_release
 895                             	.LVL82:
 590:../src/smc_gen/r_drw2d_rx/src/tes/dave_driver.c ****       D2_RETERR(handle, err);
 896                             		.loc 1 590 7 is_stmt 1 view .LVU388
 590:../src/smc_gen/r_drw2d_rx/src/tes/dave_driver.c ****       D2_RETERR(handle, err);
 897                             		.loc 1 590 28 is_stmt 0 view .LVU389
 898 0061 3E 76 00                		mov.L	#0, 24[r7]
 591:../src/smc_gen/r_drw2d_rx/src/tes/dave_driver.c ****    }
 899                             		.loc 1 591 7 is_stmt 1 view .LVU390
 900                             	.LVL83:
 901                             	.LBB46:
 902                             	.LBI46:
 239:../src/smc_gen/r_drw2d_rx/src/tes/dave_intern.h **** {
 903                             		.loc 2 239 25 view .LVU391
 904                             	.LBB47:
 241:../src/smc_gen/r_drw2d_rx/src/tes/dave_intern.h **** 
 905                             		.loc 2 241 4 view .LVU392
 241:../src/smc_gen/r_drw2d_rx/src/tes/dave_intern.h **** 
 906                             		.loc 2 241 30 is_stmt 0 view .LVU393
 907 0064 CB 71 C6 01             		mov.B	r1, 454[r7]
 908                             		.loc 2 243 4 is_stmt 1 view .LVU394
 909                             	.LVL84:
 910                             	.L50:
 911                             		.loc 2 243 4 is_stmt 0 view .LVU395
 912                             	.LBE47:
 913                             	.LBE46:
 914                             	.LBE45:
 595:../src/smc_gen/r_drw2d_rx/src/tes/dave_driver.c **** 
 915                             		.loc 1 595 1 view .LVU396
 916 0068 3F 7A 04                		rtsd	#16, r7-r10
 917                             	.LVL85:
 918                             	.L51:
 594:../src/smc_gen/r_drw2d_rx/src/tes/dave_driver.c **** }
 919                             		.loc 1 594 4 is_stmt 1 view .LVU397
 920                             	.LBB48:
 921                             	.LBI48:
 239:../src/smc_gen/r_drw2d_rx/src/tes/dave_intern.h **** {
 922                             		.loc 2 239 25 view .LVU398
 923                             	.LBB49:
 241:../src/smc_gen/r_drw2d_rx/src/tes/dave_intern.h **** 
 924                             		.loc 2 241 4 view .LVU399
 241:../src/smc_gen/r_drw2d_rx/src/tes/dave_intern.h **** 
 925                             		.loc 2 241 30 is_stmt 0 view .LVU400
 926 006b FA 14 C6 01 00          		mov.B	#0, 454[r1]
 927                             		.loc 2 243 4 is_stmt 1 view .LVU401
 928                             	.LVL86:
 929                             		.loc 2 243 4 is_stmt 0 view .LVU402
 930                             	.LBE49:
 931                             	.LBE48:
 594:../src/smc_gen/r_drw2d_rx/src/tes/dave_driver.c **** }
 932                             		.loc 1 594 4 view .LVU403
 933 0070 66 01                   		mov.L	#0, r1
 934                             	.LVL87:
 594:../src/smc_gen/r_drw2d_rx/src/tes/dave_driver.c **** }
 935                             		.loc 1 594 4 view .LVU404
 936 0072 2E F6                   		bra	.L50
 937                             	.LFE14:
 939                             		.section	.text.d2_closedevice,"ax",@progbits
 940                             		.global	_d2_closedevice
 942                             	_d2_closedevice:
 943                             	.LVL88:
 944                             	.LFB10:
 335:../src/smc_gen/r_drw2d_rx/src/tes/dave_driver.c ****    d2_s32 result;
 945                             		.loc 1 335 1 is_stmt 1 view -0
 335:../src/smc_gen/r_drw2d_rx/src/tes/dave_driver.c ****    d2_s32 result;
 946                             		.loc 1 335 1 is_stmt 0 view .LVU406
 947 0000 6E 7A                   		pushm	r7-r10
 948                             	.LCFI4:
 949 0002 EF 17                   		mov.L	r1, r7
 336:../src/smc_gen/r_drw2d_rx/src/tes/dave_driver.c ****    d2_devicedata **prev;
 950                             		.loc 1 336 4 is_stmt 1 view .LVU407
 337:../src/smc_gen/r_drw2d_rx/src/tes/dave_driver.c ****    D2_VALIDATE( handle, D2_INVALIDDEVICE); /* PRQA S 4130, 3112 */ /* $Misra: #DEBUG_MACRO $*/
 951                             		.loc 1 337 4 view .LVU408
 338:../src/smc_gen/r_drw2d_rx/src/tes/dave_driver.c **** 
 952                             		.loc 1 338 4 view .LVU409
 341:../src/smc_gen/r_drw2d_rx/src/tes/dave_driver.c ****    {
 953                             		.loc 1 341 4 view .LVU410
 341:../src/smc_gen/r_drw2d_rx/src/tes/dave_driver.c ****    {
 954                             		.loc 1 341 29 is_stmt 0 view .LVU411
 955 0004 ED 1A 06                		mov.L	24[r1], r10
 341:../src/smc_gen/r_drw2d_rx/src/tes/dave_driver.c ****    {
 956                             		.loc 1 341 6 view .LVU412
 957 0007 61 0A                   		cmp	#0, r10
 958 0009 20 0F                   		beq	.L66
 343:../src/smc_gen/r_drw2d_rx/src/tes/dave_driver.c ****    }
 959                             		.loc 1 343 7 is_stmt 1 view .LVU413
 343:../src/smc_gen/r_drw2d_rx/src/tes/dave_driver.c ****    }
 960                             		.loc 1 343 16 is_stmt 0 view .LVU414
 961 000b 05 00 00 00             		bsr	_d2_deinithw
 962                             	.LVL89:
 343:../src/smc_gen/r_drw2d_rx/src/tes/dave_driver.c ****    }
 963                             		.loc 1 343 16 view .LVU415
 964 000f EF 1A                   		mov.L	r1, r10
 965                             	.LVL90:
 966                             	.L58:
 351:../src/smc_gen/r_drw2d_rx/src/tes/dave_driver.c ****    while( (NULL != prev) && (*prev != handle))
 967                             		.loc 1 351 4 is_stmt 1 view .LVU416
 352:../src/smc_gen/r_drw2d_rx/src/tes/dave_driver.c ****    {
 968                             		.loc 1 352 4 view .LVU417
 351:../src/smc_gen/r_drw2d_rx/src/tes/dave_driver.c ****    while( (NULL != prev) && (*prev != handle))
 969                             		.loc 1 351 9 is_stmt 0 view .LVU418
 970 0011 FB 52 00 00 00 00       		mov.L	#_g_devicechain, r5
 352:../src/smc_gen/r_drw2d_rx/src/tes/dave_driver.c ****    {
 971                             		.loc 1 352 9 view .LVU419
 972 0017 0F                      		bra	.L60
 973                             	.LVL91:
 974                             	.L66:
 347:../src/smc_gen/r_drw2d_rx/src/tes/dave_driver.c ****    }
 975                             		.loc 1 347 14 view .LVU420
 976 0018 66 0A                   		mov.L	#0, r10
 977 001a 2E F7                   		bra	.L58
 978                             	.LVL92:
 979                             	.L67:
 354:../src/smc_gen/r_drw2d_rx/src/tes/dave_driver.c ****    }
 980                             		.loc 1 354 12 view .LVU421
 981 001c EF 45                   		mov.L	r4, r5
 982                             	.LVL93:
 983                             	.L60:
 352:../src/smc_gen/r_drw2d_rx/src/tes/dave_driver.c ****    {
 984                             		.loc 1 352 9 view .LVU422
 985 001e 61 05                   		cmp	#0, r5
 986 0020 17                      		beq	.L59
 352:../src/smc_gen/r_drw2d_rx/src/tes/dave_driver.c ****    {
 987                             		.loc 1 352 30 discriminator 1 view .LVU423
 988 0021 EC 54                   		mov.L	[r5], r4
 352:../src/smc_gen/r_drw2d_rx/src/tes/dave_driver.c ****    {
 989                             		.loc 1 352 26 discriminator 1 view .LVU424
 990 0023 47 74                   		cmp	r7, r4
 991 0025 21 F7                   		bne	.L67
 992                             	.L59:
 357:../src/smc_gen/r_drw2d_rx/src/tes/dave_driver.c ****    {
 993                             		.loc 1 357 4 is_stmt 1 view .LVU425
 357:../src/smc_gen/r_drw2d_rx/src/tes/dave_driver.c ****    {
 994                             		.loc 1 357 6 is_stmt 0 view .LVU426
 995 0027 61 05                   		cmp	#0, r5
 996 0029 20 34                   		beq	.L68
 363:../src/smc_gen/r_drw2d_rx/src/tes/dave_driver.c **** 
 997                             		.loc 1 363 4 is_stmt 1 view .LVU427
 363:../src/smc_gen/r_drw2d_rx/src/tes/dave_driver.c **** 
 998                             		.loc 1 363 10 is_stmt 0 view .LVU428
 999 002b E0 75                   		mov.L	[r7], [r5]
 366:../src/smc_gen/r_drw2d_rx/src/tes/dave_driver.c **** 
 1000                             		.loc 1 366 4 is_stmt 1 view .LVU429
 366:../src/smc_gen/r_drw2d_rx/src/tes/dave_driver.c **** 
 1001                             		.loc 1 366 27 is_stmt 0 view .LVU430
 1002 002d 3E 78 00                		mov.L	#0, 32[r7]
 368:../src/smc_gen/r_drw2d_rx/src/tes/dave_driver.c ****    {
 1003                             		.loc 1 368 4 is_stmt 1 view .LVU431
 368:../src/smc_gen/r_drw2d_rx/src/tes/dave_driver.c ****    {
 1004                             		.loc 1 368 9 is_stmt 0 view .LVU432
 1005 0030 0F                      		bra	.L62
 1006                             	.LVL94:
 1007                             	.L63:
 370:../src/smc_gen/r_drw2d_rx/src/tes/dave_driver.c ****    }
 1008                             		.loc 1 370 7 is_stmt 1 view .LVU433
 370:../src/smc_gen/r_drw2d_rx/src/tes/dave_driver.c ****    }
 1009                             		.loc 1 370 13 is_stmt 0 view .LVU434
 1010 0031 EF 71                   		mov.L	r7, r1
 1011 0033 05 00 00 00             		bsr	_d2_freecontext
 1012                             	.LVL95:
 1013                             	.L62:
 368:../src/smc_gen/r_drw2d_rx/src/tes/dave_driver.c ****    {
 1014                             		.loc 1 368 32 view .LVU435
 1015 0037 A9 FA                   		mov.L	28[r7], r2
 368:../src/smc_gen/r_drw2d_rx/src/tes/dave_driver.c ****    {
 1016                             		.loc 1 368 9 view .LVU436
 1017 0039 61 02                   		cmp	#0, r2
 1018 003b 21 F6                   		bne	.L63
 373:../src/smc_gen/r_drw2d_rx/src/tes/dave_driver.c ****    {
 1019                             		.loc 1 373 4 is_stmt 1 view .LVU437
 373:../src/smc_gen/r_drw2d_rx/src/tes/dave_driver.c ****    {
 1020                             		.loc 1 373 26 is_stmt 0 view .LVU438
 1021 003d AF F9                   		mov.L	124[r7], r1
 373:../src/smc_gen/r_drw2d_rx/src/tes/dave_driver.c ****    {
 1022                             		.loc 1 373 6 view .LVU439
 1023 003f 61 01                   		cmp	#0, r1
 1024 0041 15                      		beq	.L64
 375:../src/smc_gen/r_drw2d_rx/src/tes/dave_driver.c ****    }
 1025                             		.loc 1 375 7 is_stmt 1 view .LVU440
 1026 0042 05 00 00 00             		bsr	_d2_freemem_p
 1027                             	.LVL96:
 1028                             	.L64:
 381:../src/smc_gen/r_drw2d_rx/src/tes/dave_driver.c ****    {
 1029                             		.loc 1 381 4 view .LVU441
 381:../src/smc_gen/r_drw2d_rx/src/tes/dave_driver.c ****    {
 1030                             		.loc 1 381 29 is_stmt 0 view .LVU442
 1031 0046 AB 71                   		mov.L	48[r7], r1
 381:../src/smc_gen/r_drw2d_rx/src/tes/dave_driver.c ****    {
 1032                             		.loc 1 381 6 view .LVU443
 1033 0048 61 01                   		cmp	#0, r1
 1034 004a 15                      		beq	.L65
 383:../src/smc_gen/r_drw2d_rx/src/tes/dave_driver.c ****    }
 1035                             		.loc 1 383 7 is_stmt 1 view .LVU444
 1036 004b 05 00 00 00             		bsr	_d2_freemem_p
 1037                             	.LVL97:
 1038                             	.L65:
 385:../src/smc_gen/r_drw2d_rx/src/tes/dave_driver.c **** #endif
 1039                             		.loc 1 385 4 view .LVU445
 385:../src/smc_gen/r_drw2d_rx/src/tes/dave_driver.c **** #endif
 1040                             		.loc 1 385 34 is_stmt 0 view .LVU446
 1041 004f 3E 7C 00                		mov.L	#0, 48[r7]
 389:../src/smc_gen/r_drw2d_rx/src/tes/dave_driver.c **** 
 1042                             		.loc 1 389 4 is_stmt 1 view .LVU447
 1043 0052 EF 71                   		mov.L	r7, r1
 1044 0054 05 00 00 00             		bsr	_d2_freemem_p
 1045                             	.LVL98:
 391:../src/smc_gen/r_drw2d_rx/src/tes/dave_driver.c **** }
 1046                             		.loc 1 391 4 view .LVU448
 1047                             	.L57:
 392:../src/smc_gen/r_drw2d_rx/src/tes/dave_driver.c **** 
 1048                             		.loc 1 392 1 is_stmt 0 view .LVU449
 1049 0058 EF A1                   		mov.L	r10, r1
 1050 005a 3F 7A 04                		rtsd	#16, r7-r10
 1051                             	.LVL99:
 1052                             	.L68:
 359:../src/smc_gen/r_drw2d_rx/src/tes/dave_driver.c ****    }
 1053                             		.loc 1 359 14 view .LVU450
 1054 005d 66 2A                   		mov.L	#2, r10
 1055                             	.LVL100:
 359:../src/smc_gen/r_drw2d_rx/src/tes/dave_driver.c ****    }
 1056                             		.loc 1 359 14 view .LVU451
 1057 005f 2E F9                   		bra	.L57
 1058                             	.LFE10:
 1060                             		.section	.text.d2_level1interface,"ax",@progbits
 1061                             		.global	_d2_level1interface
 1063                             	_d2_level1interface:
 1064                             	.LVL101:
 1065                             	.LFB15:
 609:../src/smc_gen/r_drw2d_rx/src/tes/dave_driver.c ****    D2_VALIDATEP( handle, D2_INVALIDDEVICE); /* PRQA S 4130, 3112 */ /* $Misra: #DEBUG_MACRO $*/
 1066                             		.loc 1 609 1 is_stmt 1 view -0
 610:../src/smc_gen/r_drw2d_rx/src/tes/dave_driver.c **** 
 1067                             		.loc 1 610 4 view .LVU453
 612:../src/smc_gen/r_drw2d_rx/src/tes/dave_driver.c **** }
 1068                             		.loc 1 612 4 view .LVU454
 613:../src/smc_gen/r_drw2d_rx/src/tes/dave_driver.c **** 
 1069                             		.loc 1 613 1 is_stmt 0 view .LVU455
 1070 0000 A9 91                   		mov.L	24[r1], r1
 1071                             	.LVL102:
 613:../src/smc_gen/r_drw2d_rx/src/tes/dave_driver.c **** 
 1072                             		.loc 1 613 1 view .LVU456
 1073 0002 02                      		rts
 1074                             	.LFE15:
 1076                             		.section	.text.d2_getrevisionhw,"ax",@progbits
 1077                             		.global	_d2_getrevisionhw
 1079                             	_d2_getrevisionhw:
 1080                             	.LVL103:
 1081                             	.LFB16:
 654:../src/smc_gen/r_drw2d_rx/src/tes/dave_driver.c ****    D2_VALIDATE( handle, D2_INVALIDDEVICE ); /* PRQA S 4130, 3112 */ /* $Misra: #DEBUG_MACRO $*/
 1082                             		.loc 1 654 1 is_stmt 1 view -0
 655:../src/smc_gen/r_drw2d_rx/src/tes/dave_driver.c ****    return D2_DEV(handle)->hwrevision;
 1083                             		.loc 1 655 4 view .LVU458
 656:../src/smc_gen/r_drw2d_rx/src/tes/dave_driver.c **** }
 1084                             		.loc 1 656 4 view .LVU459
 657:../src/smc_gen/r_drw2d_rx/src/tes/dave_driver.c **** 
 1085                             		.loc 1 657 1 is_stmt 0 view .LVU460
 1086 0000 ED 11 20                		mov.L	128[r1], r1
 1087                             	.LVL104:
 657:../src/smc_gen/r_drw2d_rx/src/tes/dave_driver.c **** 
 1088                             		.loc 1 657 1 view .LVU461
 1089 0003 02                      		rts
 1090                             	.LFE16:
 1092                             		.section	.rodata.d2_getrevisionstringhw.str1.1,"aMS",@progbits,1
 1093                             	.LC1:
 1094 0000 2C 20 52 65 76 69 73 69 		.string	", Revision "
 1094      6F 6E 20 00 
 1095                             	.LC2:
 1096 000c 2E 00                   		.string	"."
 1097                             	.LC3:
 1098 000e 2C 20 46 65 61 74 75 72 		.string	", Features: "
 1098      65 73 3A 20 00 
 1099                             	.LC4:
 1100 001b 20 00                   		.string	" "
 1101                             		.section C,"a",@progbits
 1102                             		.p2align 2
 1103                             		.balign 4
 1104                             	.LC0:
 1105 0000 00 00 01 00             		.long	0x10000
 1106 0004 00 00 02 00             		.long	0x20000
 1107 0008 00 00 04 00             		.long	0x40000
 1108 000c 00 00 08 00             		.long	0x80000
 1109 0010 00 00 10 00             		.long	0x100000
 1110 0014 00 00 20 00             		.long	0x200000
 1111 0018 00 00 00 01             		.long	0x1000000
 1112 001c 00 00 80 00             		.long	0x800000
 1113 0020 00 00 00 02             		.long	0x2000000
 1114 0024 00 00 00 04             		.long	0x4000000
 1115 0028 00 00 00 08             		.long	0x8000000
 1116                             		.section	.text.d2_getrevisionstringhw,"ax",@progbits
 1117                             		.global	_d2_getrevisionstringhw
 1119                             	_d2_getrevisionstringhw:
 1120                             	.LVL105:
 1121                             	.LFB20:
 809:../src/smc_gen/r_drw2d_rx/src/tes/dave_driver.c **** 
 810:../src/smc_gen/r_drw2d_rx/src/tes/dave_driver.c **** /*--------------------------------------------------------------------------
 811:../src/smc_gen/r_drw2d_rx/src/tes/dave_driver.c ****  * function: d2_getrevisionstringhw
 812:../src/smc_gen/r_drw2d_rx/src/tes/dave_driver.c ****  * Query hw revisionID string.
 813:../src/smc_gen/r_drw2d_rx/src/tes/dave_driver.c ****  * This information is available after calling <d2_inithw>.
 814:../src/smc_gen/r_drw2d_rx/src/tes/dave_driver.c ****  *
 815:../src/smc_gen/r_drw2d_rx/src/tes/dave_driver.c ****  * parameters:
 816:../src/smc_gen/r_drw2d_rx/src/tes/dave_driver.c ****  *   handle - device pointer (see: <d2_opendevice>)
 817:../src/smc_gen/r_drw2d_rx/src/tes/dave_driver.c ****  *
 818:../src/smc_gen/r_drw2d_rx/src/tes/dave_driver.c ****  * returns:
 819:../src/smc_gen/r_drw2d_rx/src/tes/dave_driver.c ****  *  human readable hw revision string, or 0 if an error occurs
 820:../src/smc_gen/r_drw2d_rx/src/tes/dave_driver.c ****  *  (e.g. "D/AVE 2DT-S, Revision 1.05, Features: DLR FBCACHE").
 821:../src/smc_gen/r_drw2d_rx/src/tes/dave_driver.c ****  *
 822:../src/smc_gen/r_drw2d_rx/src/tes/dave_driver.c ****  * see also:
 823:../src/smc_gen/r_drw2d_rx/src/tes/dave_driver.c ****  *  <d2_getrevisionhw>
 824:../src/smc_gen/r_drw2d_rx/src/tes/dave_driver.c ****  * */
 825:../src/smc_gen/r_drw2d_rx/src/tes/dave_driver.c **** const d2_char * d2_getrevisionstringhw( const d2_device *handle)
 826:../src/smc_gen/r_drw2d_rx/src/tes/dave_driver.c **** {
 1122                             		.loc 1 826 1 is_stmt 1 view -0
 1123                             		.loc 1 826 1 is_stmt 0 view .LVU463
 1124 0000 6E 6A                   		pushm	r6-r10
 1125                             	.LCFI5:
 1126 0002 71 00 C8                		add	#-56, r0
 1127                             	.LCFI6:
 1128 0005 EF 17                   		mov.L	r1, r7
 827:../src/smc_gen/r_drw2d_rx/src/tes/dave_driver.c ****    static d2_char g_revisionstring[256];
 1129                             		.loc 1 827 4 is_stmt 1 view .LVU464
 828:../src/smc_gen/r_drw2d_rx/src/tes/dave_driver.c ****    static const d2_char g_hwrevision[3][16] = { {"D/AVE 2DT-S"},
 1130                             		.loc 1 828 4 view .LVU465
 829:../src/smc_gen/r_drw2d_rx/src/tes/dave_driver.c ****                                                 {"D/AVE 2DT-L"},
 830:../src/smc_gen/r_drw2d_rx/src/tes/dave_driver.c ****                                                 {"D/AVE UNKNOWN"}
 831:../src/smc_gen/r_drw2d_rx/src/tes/dave_driver.c ****    };
 832:../src/smc_gen/r_drw2d_rx/src/tes/dave_driver.c ****    static const d2_char g_hwfeatures[12][64] = { {"SWDAVE"},
 1131                             		.loc 1 832 4 view .LVU466
 833:../src/smc_gen/r_drw2d_rx/src/tes/dave_driver.c ****                                                  {"DLR"},
 834:../src/smc_gen/r_drw2d_rx/src/tes/dave_driver.c ****                                                  {"FBCACHE"},
 835:../src/smc_gen/r_drw2d_rx/src/tes/dave_driver.c ****                                                  {"TXCACHE"},
 836:../src/smc_gen/r_drw2d_rx/src/tes/dave_driver.c ****                                                  {"PERFCOUNT"},
 837:../src/smc_gen/r_drw2d_rx/src/tes/dave_driver.c ****                                                  {"TEXCLUT"},
 838:../src/smc_gen/r_drw2d_rx/src/tes/dave_driver.c ****                                                  {"TEXCLUT256"},
 839:../src/smc_gen/r_drw2d_rx/src/tes/dave_driver.c ****                                                  {"TEXRLE"},
 840:../src/smc_gen/r_drw2d_rx/src/tes/dave_driver.c ****                                                  {"TEXCOLORKEY"},
 841:../src/smc_gen/r_drw2d_rx/src/tes/dave_driver.c ****                                                  {"HILIMITERPRECISION"},
 842:../src/smc_gen/r_drw2d_rx/src/tes/dave_driver.c ****                                                  {"ALPHACHANNELBLENDING"},
 843:../src/smc_gen/r_drw2d_rx/src/tes/dave_driver.c ****                                                  {"???"}
 844:../src/smc_gen/r_drw2d_rx/src/tes/dave_driver.c ****    };
 845:../src/smc_gen/r_drw2d_rx/src/tes/dave_driver.c ****    d2_u32 hwrev;
 1132                             		.loc 1 845 4 view .LVU467
 846:../src/smc_gen/r_drw2d_rx/src/tes/dave_driver.c ****    d2_u32 nb;
 1133                             		.loc 1 846 4 view .LVU468
 847:../src/smc_gen/r_drw2d_rx/src/tes/dave_driver.c ****    d2_u32 type;
 1134                             		.loc 1 847 4 view .LVU469
 848:../src/smc_gen/r_drw2d_rx/src/tes/dave_driver.c ****    d2_char strnb[11];
 1135                             		.loc 1 848 4 view .LVU470
 849:../src/smc_gen/r_drw2d_rx/src/tes/dave_driver.c ****    const d2_u32 bits[] = { D2FB_SWDAVE, D2FB_DLR, D2FB_FBCACHE, D2FB_TXCACHE, D2FB_PERFCOUNT, D2FB_
 1136                             		.loc 1 849 4 view .LVU471
 1137                             		.loc 1 849 17 is_stmt 0 view .LVU472
 1138 0007 71 01 0C                		add	#12, r0, r1
 1139                             	.LVL106:
 1140                             		.loc 1 849 17 view .LVU473
 1141 000a FB 22 00 00 00 00       		mov.L	#.LC0, r2
 1142 0010 75 43 2C                		mov.L	#44, r3
 1143 0013 7F 8F                   		smovf
 850:../src/smc_gen/r_drw2d_rx/src/tes/dave_driver.c ****    d2_u32 i = 0;
 1144                             		.loc 1 850 4 is_stmt 1 view .LVU474
 1145                             	.LVL107:
 851:../src/smc_gen/r_drw2d_rx/src/tes/dave_driver.c **** 
 852:../src/smc_gen/r_drw2d_rx/src/tes/dave_driver.c ****    D2_VALIDATEP( handle, D2_INVALIDDEVICE ); /* PRQA S 4130, 3112 */ /* $Misra: #DEBUG_MACRO $*/
 1146                             		.loc 1 852 4 view .LVU475
 853:../src/smc_gen/r_drw2d_rx/src/tes/dave_driver.c **** 
 854:../src/smc_gen/r_drw2d_rx/src/tes/dave_driver.c ****    hwrev    = D2_DEV(handle)->hwrevision;
 1147                             		.loc 1 854 4 view .LVU476
 1148                             		.loc 1 854 13 is_stmt 0 view .LVU477
 1149 0015 ED 7A 20                		mov.L	128[r7], r10
 1150                             	.LVL108:
 855:../src/smc_gen/r_drw2d_rx/src/tes/dave_driver.c ****    nb       = hwrev & 4095u;
 1151                             		.loc 1 855 4 is_stmt 1 view .LVU478
 1152                             		.loc 1 855 13 is_stmt 0 view .LVU479
 1153 0018 FB 6A FF 0F             		mov.L	#0xfff, r6
 1154 001c 53 A6                   		and	r10, r6
 1155                             	.LVL109:
 856:../src/smc_gen/r_drw2d_rx/src/tes/dave_driver.c ****    type     = (hwrev >> 12) & 15u;
 1156                             		.loc 1 856 4 is_stmt 1 view .LVU480
 1157                             		.loc 1 856 22 is_stmt 0 view .LVU481
 1158 001e FD 8C A7                		shlr	#12, r10, r7
 1159                             	.LVL110:
 1160                             		.loc 1 856 13 view .LVU482
 1161 0021 66 F2                   		mov.L	#15, r2
 1162 0023 53 72                   		and	r7, r2
 1163                             	.LVL111:
 857:../src/smc_gen/r_drw2d_rx/src/tes/dave_driver.c **** 
 858:../src/smc_gen/r_drw2d_rx/src/tes/dave_driver.c ****    if(type > 1)
 1164                             		.loc 1 858 4 is_stmt 1 view .LVU483
 1165                             		.loc 1 858 6 is_stmt 0 view .LVU484
 1166 0025 FD 74 C7 0E             		tst	#14, r7
 1167 0029 13                      		beq	.L73
 859:../src/smc_gen/r_drw2d_rx/src/tes/dave_driver.c ****    {
 860:../src/smc_gen/r_drw2d_rx/src/tes/dave_driver.c ****       type = 2;
 1168                             		.loc 1 860 12 view .LVU485
 1169 002a 66 22                   		mov.L	#2, r2
 1170                             	.LVL112:
 1171                             	.L73:
 861:../src/smc_gen/r_drw2d_rx/src/tes/dave_driver.c ****    }
 862:../src/smc_gen/r_drw2d_rx/src/tes/dave_driver.c **** 
 863:../src/smc_gen/r_drw2d_rx/src/tes/dave_driver.c ****    d2_strcpy(g_revisionstring, g_hwrevision[type], sizeof(g_revisionstring) );
 1172                             		.loc 1 863 4 is_stmt 1 view .LVU486
 1173                             		.loc 1 863 44 is_stmt 0 view .LVU487
 1174 002c 6C 42                   		shll	#4, r2
 1175                             	.LVL113:
 1176                             		.loc 1 863 4 view .LVU488
 1177 002e FB 3A 00 01             		mov.L	#0x100, r3
 1178 0032 70 22 00 00 00 00       		add	#_g_hwrevision.2889, r2
 1179 0038 FB 12 00 00 00 00       		mov.L	#_g_revisionstring.2888, r1
 1180 003e 05 00 00 00             		bsr	_d2_strcpy
 1181                             	.LVL114:
 864:../src/smc_gen/r_drw2d_rx/src/tes/dave_driver.c ****    d2_strcat(g_revisionstring, ", Revision ", sizeof(g_revisionstring) );
 1182                             		.loc 1 864 4 is_stmt 1 view .LVU489
 1183 0042 FB 3A 00 01             		mov.L	#0x100, r3
 1184 0046 FB 22 00 00 00 00       		mov.L	#.LC1, r2
 1185 004c FB 12 00 00 00 00       		mov.L	#_g_revisionstring.2888, r1
 1186 0052 05 00 00 00             		bsr	_d2_strcat
 1187                             	.LVL115:
 865:../src/smc_gen/r_drw2d_rx/src/tes/dave_driver.c ****    d2_hextostr(strnb, (nb & 0xf00u) >> 8, sizeof(strnb) );
 1188                             		.loc 1 865 4 view .LVU490
 1189 0056 66 B3                   		mov.L	#11, r3
 1190 0058 FD 88 62                		shlr	#8, r6, r2
 1191 005b EF 01                   		mov.L	r0, r1
 1192 005d 05 00 00 00             		bsr	_d2_hextostr
 1193                             	.LVL116:
 866:../src/smc_gen/r_drw2d_rx/src/tes/dave_driver.c ****    d2_strcat(g_revisionstring, strnb, sizeof(g_revisionstring) );
 1194                             		.loc 1 866 4 view .LVU491
 1195 0061 FB 3A 00 01             		mov.L	#0x100, r3
 1196 0065 EF 02                   		mov.L	r0, r2
 1197 0067 FB 12 00 00 00 00       		mov.L	#_g_revisionstring.2888, r1
 1198 006d 05 00 00 00             		bsr	_d2_strcat
 1199                             	.LVL117:
 867:../src/smc_gen/r_drw2d_rx/src/tes/dave_driver.c ****    d2_strcat(g_revisionstring, ".", sizeof(g_revisionstring) );
 1200                             		.loc 1 867 4 view .LVU492
 1201 0071 FB 3A 00 01             		mov.L	#0x100, r3
 1202 0075 FB 22 0C 00 00 00       		mov.L	#.LC2, r2
 1203 007b FB 12 00 00 00 00       		mov.L	#_g_revisionstring.2888, r1
 1204 0081 05 00 00 00             		bsr	_d2_strcat
 1205                             	.LVL118:
 868:../src/smc_gen/r_drw2d_rx/src/tes/dave_driver.c ****    d2_hextostr(strnb, (nb & 0x0ffu) >> 0, sizeof(strnb) );
 1206                             		.loc 1 868 4 view .LVU493
 1207 0085 66 B3                   		mov.L	#11, r3
 1208 0087 5B A2                   		movu.B	r10, r2
 1209 0089 EF 01                   		mov.L	r0, r1
 1210 008b 05 00 00 00             		bsr	_d2_hextostr
 1211                             	.LVL119:
 869:../src/smc_gen/r_drw2d_rx/src/tes/dave_driver.c ****    d2_strcat(g_revisionstring, strnb, sizeof(g_revisionstring) );
 1212                             		.loc 1 869 4 view .LVU494
 1213 008f FB 3A 00 01             		mov.L	#0x100, r3
 1214 0093 EF 02                   		mov.L	r0, r2
 1215 0095 FB 12 00 00 00 00       		mov.L	#_g_revisionstring.2888, r1
 1216 009b 05 00 00 00             		bsr	_d2_strcat
 1217                             	.LVL120:
 870:../src/smc_gen/r_drw2d_rx/src/tes/dave_driver.c ****    d2_strcat(g_revisionstring, ", Features: ", sizeof(g_revisionstring) );
 1218                             		.loc 1 870 4 view .LVU495
 1219 009f FB 3A 00 01             		mov.L	#0x100, r3
 1220 00a3 FB 22 0E 00 00 00       		mov.L	#.LC3, r2
 1221 00a9 FB 12 00 00 00 00       		mov.L	#_g_revisionstring.2888, r1
 1222 00af 05 00 00 00             		bsr	_d2_strcat
 1223                             	.LVL121:
 871:../src/smc_gen/r_drw2d_rx/src/tes/dave_driver.c **** 
 872:../src/smc_gen/r_drw2d_rx/src/tes/dave_driver.c ****    for(i=0; i < (sizeof(bits) / sizeof(d2_s32)); ++i)
 1224                             		.loc 1 872 4 view .LVU496
 1225                             		.loc 1 872 9 is_stmt 0 view .LVU497
 1226 00b3 66 07                   		mov.L	#0, r7
 1227                             		.loc 1 872 4 view .LVU498
 1228 00b5 2E 2F                   		bra	.L74
 1229                             	.LVL122:
 1230                             	.L80:
 873:../src/smc_gen/r_drw2d_rx/src/tes/dave_driver.c ****    {
 874:../src/smc_gen/r_drw2d_rx/src/tes/dave_driver.c ****       if( (hwrev & bits[i]) != 0 )
 875:../src/smc_gen/r_drw2d_rx/src/tes/dave_driver.c ****       {
 876:../src/smc_gen/r_drw2d_rx/src/tes/dave_driver.c ****          d2_strcat(g_revisionstring, g_hwfeatures[i], sizeof(g_revisionstring) );
 1231                             		.loc 1 876 10 is_stmt 1 view .LVU499
 1232                             		.loc 1 876 50 is_stmt 0 view .LVU500
 1233 00b7 FD C6 72                		shll	#6, r7, r2
 1234                             		.loc 1 876 10 view .LVU501
 1235 00ba FB 3A 00 01             		mov.L	#0x100, r3
 1236 00be 70 22 00 00 00 00       		add	#_g_hwfeatures.2890, r2
 1237 00c4 FB 12 00 00 00 00       		mov.L	#_g_revisionstring.2888, r1
 1238 00ca 05 00 00 00             		bsr	_d2_strcat
 1239                             	.LVL123:
 877:../src/smc_gen/r_drw2d_rx/src/tes/dave_driver.c ****          d2_strcat(g_revisionstring, " ", sizeof(g_revisionstring) );
 1240                             		.loc 1 877 10 is_stmt 1 view .LVU502
 1241 00ce FB 3A 00 01             		mov.L	#0x100, r3
 1242 00d2 FB 22 1B 00 00 00       		mov.L	#.LC4, r2
 1243 00d8 FB 12 00 00 00 00       		mov.L	#_g_revisionstring.2888, r1
 1244 00de 05 00 00 00             		bsr	_d2_strcat
 1245                             	.LVL124:
 1246                             	.L75:
 872:../src/smc_gen/r_drw2d_rx/src/tes/dave_driver.c ****    {
 1247                             		.loc 1 872 50 is_stmt 0 discriminator 2 view .LVU503
 1248 00e2 62 17                   		add	#1, r7
 1249                             	.LVL125:
 1250                             	.L74:
 872:../src/smc_gen/r_drw2d_rx/src/tes/dave_driver.c ****    {
 1251                             		.loc 1 872 4 discriminator 1 view .LVU504
 1252 00e4 61 A7                   		cmp	#10, r7
 1253 00e6 24 10                   		bgtu	.L79
 874:../src/smc_gen/r_drw2d_rx/src/tes/dave_driver.c ****       {
 1254                             		.loc 1 874 7 is_stmt 1 view .LVU505
 874:../src/smc_gen/r_drw2d_rx/src/tes/dave_driver.c ****       {
 1255                             		.loc 1 874 24 is_stmt 0 view .LVU506
 1256 00e8 FD C2 75                		shll	#2, r7, r5
 1257 00eb 4B 05                   		add	r0, r5
 1258 00ed A8 DD                   		mov.L	12[r5], r5
 874:../src/smc_gen/r_drw2d_rx/src/tes/dave_driver.c ****       {
 1259                             		.loc 1 874 9 view .LVU507
 1260 00ef FC 33 A5                		tst	r10, r5
 1261 00f2 20 F0                   		beq	.L75
 1262 00f4 2E C3                   		bra	.L80
 1263                             	.L79:
 878:../src/smc_gen/r_drw2d_rx/src/tes/dave_driver.c ****       }
 879:../src/smc_gen/r_drw2d_rx/src/tes/dave_driver.c ****    }
 880:../src/smc_gen/r_drw2d_rx/src/tes/dave_driver.c **** 
 881:../src/smc_gen/r_drw2d_rx/src/tes/dave_driver.c ****    return g_revisionstring;
 1264                             		.loc 1 881 4 is_stmt 1 view .LVU508
 882:../src/smc_gen/r_drw2d_rx/src/tes/dave_driver.c **** }
 1265                             		.loc 1 882 1 is_stmt 0 view .LVU509
 1266 00f6 FB 12 00 00 00 00       		mov.L	#_g_revisionstring.2888, r1
 1267 00fc 3F 6A 13                		rtsd	#76, r6-r10
 1268                             		.loc 1 882 1 view .LVU510
 1269                             	.LFE20:
 1271                             		.section	.text.d2_lowlocalmemmode,"ax",@progbits
 1272                             		.global	_d2_lowlocalmemmode
 1274                             	_d2_lowlocalmemmode:
 1275                             	.LVL126:
 1276                             	.LFB21:
 883:../src/smc_gen/r_drw2d_rx/src/tes/dave_driver.c **** 
 884:../src/smc_gen/r_drw2d_rx/src/tes/dave_driver.c **** 
 885:../src/smc_gen/r_drw2d_rx/src/tes/dave_driver.c **** /*--------------------------------------------------------------------------
 886:../src/smc_gen/r_drw2d_rx/src/tes/dave_driver.c ****  * function: d2_lowlocalmemmode
 887:../src/smc_gen/r_drw2d_rx/src/tes/dave_driver.c ****  * Enable and configure the 'low localmem' mode.
 888:../src/smc_gen/r_drw2d_rx/src/tes/dave_driver.c ****  *
 889:../src/smc_gen/r_drw2d_rx/src/tes/dave_driver.c ****  * On systems with low local CPU memory, the display lists can not be completely
 890:../src/smc_gen/r_drw2d_rx/src/tes/dave_driver.c ****  * assembled in the local memory. A special mode is used in this case, which
 891:../src/smc_gen/r_drw2d_rx/src/tes/dave_driver.c ****  * assembles small display list blocks in the local memory and copies them to
 892:../src/smc_gen/r_drw2d_rx/src/tes/dave_driver.c ****  * the video memory, where they are concatenated to larger blocks.
 893:../src/smc_gen/r_drw2d_rx/src/tes/dave_driver.c ****  * In order to use this mode it is necessary to call d2_lowlocalmemmode directly
 894:../src/smc_gen/r_drw2d_rx/src/tes/dave_driver.c ****  * after <d2_opendevice> and before <d2_inithw>.
 895:../src/smc_gen/r_drw2d_rx/src/tes/dave_driver.c ****  *
 896:../src/smc_gen/r_drw2d_rx/src/tes/dave_driver.c ****  * Querying the number of effectively used display list blocks can be done using
 897:../src/smc_gen/r_drw2d_rx/src/tes/dave_driver.c ****  * <d2_getdlistblockcount>, which gives the number of display list blocks used so far
 898:../src/smc_gen/r_drw2d_rx/src/tes/dave_driver.c ****  * (in units of the local display list block size).
 899:../src/smc_gen/r_drw2d_rx/src/tes/dave_driver.c ****  * The application developer must take care that the maximum display list size configured
 900:../src/smc_gen/r_drw2d_rx/src/tes/dave_driver.c ****  * using <d2_lowlocalmemmode> is sufficient.
 901:../src/smc_gen/r_drw2d_rx/src/tes/dave_driver.c ****  *
 902:../src/smc_gen/r_drw2d_rx/src/tes/dave_driver.c ****  * parameters:
 903:../src/smc_gen/r_drw2d_rx/src/tes/dave_driver.c ****  *   handle - device pointer (see: <d2_opendevice>)
 904:../src/smc_gen/r_drw2d_rx/src/tes/dave_driver.c ****  *   dlistblockfactor - size of a dlist block in vidmem is this factor * local size (configurable u
 905:../src/smc_gen/r_drw2d_rx/src/tes/dave_driver.c ****  *   dlistblocks - maximum number of dlist blocks in vidmem
 906:../src/smc_gen/r_drw2d_rx/src/tes/dave_driver.c ****  *
 907:../src/smc_gen/r_drw2d_rx/src/tes/dave_driver.c ****  * returns:
 908:../src/smc_gen/r_drw2d_rx/src/tes/dave_driver.c ****  *   errorcode (D2_OK if successful) see list of <Errorcodes> for details
 909:../src/smc_gen/r_drw2d_rx/src/tes/dave_driver.c ****  *
 910:../src/smc_gen/r_drw2d_rx/src/tes/dave_driver.c ****  * see also:
 911:../src/smc_gen/r_drw2d_rx/src/tes/dave_driver.c ****  *   <d2_setdlistblocksize>
 912:../src/smc_gen/r_drw2d_rx/src/tes/dave_driver.c ****  * */
 913:../src/smc_gen/r_drw2d_rx/src/tes/dave_driver.c **** d2_s32 d2_lowlocalmemmode(d2_device *handle, d2_u32 dlistblockfactor, d2_u32 dlistblocks)
 914:../src/smc_gen/r_drw2d_rx/src/tes/dave_driver.c **** {
 1277                             		.loc 1 914 1 is_stmt 1 view -0
 1278                             		.loc 1 914 1 is_stmt 0 view .LVU512
 1279 0000 6E 6A                   		pushm	r6-r10
 1280                             	.LCFI7:
 915:../src/smc_gen/r_drw2d_rx/src/tes/dave_driver.c ****    D2_VALIDATE( handle, D2_INVALIDDEVICE); /* PRQA S 4130, 3112 */ /* $Misra: #DEBUG_MACRO $*/
 1281                             		.loc 1 915 4 is_stmt 1 view .LVU513
 916:../src/smc_gen/r_drw2d_rx/src/tes/dave_driver.c **** 
 917:../src/smc_gen/r_drw2d_rx/src/tes/dave_driver.c ****    D2_CHECKERR(dlistblockfactor >= 2, D2_VALUETOOSMALL); /* PRQA S 4130, 3112 */ /* $Misra: #DEBUG_
 1282                             		.loc 1 917 4 view .LVU514
 918:../src/smc_gen/r_drw2d_rx/src/tes/dave_driver.c ****    D2_CHECKERR(dlistblocks >= 1, D2_VALUETOOSMALL);      /* PRQA S 4130, 3112 */ /* $Misra: #DEBUG_
 1283                             		.loc 1 918 4 view .LVU515
 919:../src/smc_gen/r_drw2d_rx/src/tes/dave_driver.c **** 
 920:../src/smc_gen/r_drw2d_rx/src/tes/dave_driver.c ****    if(0 != (D2_DEV(handle)->flags & d2_df_no_dlist))
 1284                             		.loc 1 920 4 view .LVU516
 1285                             		.loc 1 920 27 is_stmt 0 view .LVU517
 1286 0002 AE 97                   		mov.L	104[r1], r7
 1287                             		.loc 1 920 6 view .LVU518
 1288 0004 FD 74 C7 01             		tst	#1, r7
 1289 0008 21 21                   		bne	.L86
 1290 000a EF 3A                   		mov.L	r3, r10
 1291 000c EF 26                   		mov.L	r2, r6
 1292 000e EF 17                   		mov.L	r1, r7
 921:../src/smc_gen/r_drw2d_rx/src/tes/dave_driver.c ****    {
 922:../src/smc_gen/r_drw2d_rx/src/tes/dave_driver.c ****       D2_RETERR( handle, D2_NO_DISPLAYLIST);
 923:../src/smc_gen/r_drw2d_rx/src/tes/dave_driver.c ****    }
 924:../src/smc_gen/r_drw2d_rx/src/tes/dave_driver.c **** 
 925:../src/smc_gen/r_drw2d_rx/src/tes/dave_driver.c ****    if(NULL == D2_DEV(handle)->lowlocalmem_mode)
 1293                             		.loc 1 925 4 is_stmt 1 view .LVU519
 1294                             		.loc 1 925 29 is_stmt 0 view .LVU520
 1295 0010 AF 9D                   		mov.L	124[r1], r5
 1296                             		.loc 1 925 6 view .LVU521
 1297 0012 61 05                   		cmp	#0, r5
 1298 0014 20 1F                   		beq	.L87
 1299                             	.LVL127:
 1300                             	.L84:
 926:../src/smc_gen/r_drw2d_rx/src/tes/dave_driver.c ****    {
 927:../src/smc_gen/r_drw2d_rx/src/tes/dave_driver.c ****       D2_DEV(handle)->lowlocalmem_mode = d2_getmem_p(sizeof(d2_lowlocalmem_mode));
 928:../src/smc_gen/r_drw2d_rx/src/tes/dave_driver.c ****       D2_CHECKERR(D2_DEV(handle)->lowlocalmem_mode, D2_NOMEMORY); /* PRQA S 4130, 3112 */ /* $Misra
 1301                             		.loc 1 928 7 is_stmt 1 view .LVU522
 929:../src/smc_gen/r_drw2d_rx/src/tes/dave_driver.c ****    }
 930:../src/smc_gen/r_drw2d_rx/src/tes/dave_driver.c **** 
 931:../src/smc_gen/r_drw2d_rx/src/tes/dave_driver.c ****    D2_DEV(handle)->lowlocalmem_mode->vidmemblocksizefactor = dlistblockfactor;
 1302                             		.loc 1 931 4 view .LVU523
 1303                             		.loc 1 931 18 is_stmt 0 view .LVU524
 1304 0016 AF FD                   		mov.L	124[r7], r5
 1305                             		.loc 1 931 60 view .LVU525
 1306 0018 A0 5E                   		mov.L	r6, 4[r5]
 932:../src/smc_gen/r_drw2d_rx/src/tes/dave_driver.c ****    D2_DEV(handle)->lowlocalmem_mode->vidmemblocks = dlistblocks;
 1307                             		.loc 1 932 4 is_stmt 1 view .LVU526
 1308                             		.loc 1 932 18 is_stmt 0 view .LVU527
 1309 001a AF FD                   		mov.L	124[r7], r5
 1310                             		.loc 1 932 51 view .LVU528
 1311 001c E7 5A 02                		mov.L	r10, 8[r5]
 933:../src/smc_gen/r_drw2d_rx/src/tes/dave_driver.c **** 
 934:../src/smc_gen/r_drw2d_rx/src/tes/dave_driver.c ****    D2_RETOK(handle);
 1312                             		.loc 1 934 4 is_stmt 1 view .LVU529
 1313                             	.LVL128:
 1314                             	.LBB50:
 1315                             	.LBI50:
 239:../src/smc_gen/r_drw2d_rx/src/tes/dave_intern.h **** {
 1316                             		.loc 2 239 25 view .LVU530
 1317                             	.LBB51:
 241:../src/smc_gen/r_drw2d_rx/src/tes/dave_intern.h **** 
 1318                             		.loc 2 241 4 view .LVU531
 241:../src/smc_gen/r_drw2d_rx/src/tes/dave_intern.h **** 
 1319                             		.loc 2 241 30 is_stmt 0 view .LVU532
 1320 001f FA 74 C6 01 00          		mov.B	#0, 454[r7]
 1321                             		.loc 2 243 4 is_stmt 1 view .LVU533
 1322                             	.LVL129:
 1323                             		.loc 2 243 4 is_stmt 0 view .LVU534
 1324                             	.LBE51:
 1325                             	.LBE50:
 1326                             		.loc 1 934 4 view .LVU535
 1327 0024 66 01                   		mov.L	#0, r1
 1328                             	.LVL130:
 1329                             	.L81:
 935:../src/smc_gen/r_drw2d_rx/src/tes/dave_driver.c **** }
 1330                             		.loc 1 935 1 view .LVU536
 1331 0026 3F 6A 05                		rtsd	#20, r6-r10
 1332                             	.LVL131:
 1333                             	.L86:
 922:../src/smc_gen/r_drw2d_rx/src/tes/dave_driver.c ****    }
 1334                             		.loc 1 922 7 is_stmt 1 view .LVU537
 1335                             	.LBB52:
 1336                             	.LBI52:
 239:../src/smc_gen/r_drw2d_rx/src/tes/dave_intern.h **** {
 1337                             		.loc 2 239 25 view .LVU538
 1338                             	.LBB53:
 241:../src/smc_gen/r_drw2d_rx/src/tes/dave_intern.h **** 
 1339                             		.loc 2 241 4 view .LVU539
 241:../src/smc_gen/r_drw2d_rx/src/tes/dave_intern.h **** 
 1340                             		.loc 2 241 30 is_stmt 0 view .LVU540
 1341 0029 FA 14 C6 01 14          		mov.B	#20, 454[r1]
 1342                             		.loc 2 243 4 is_stmt 1 view .LVU541
 1343                             	.LVL132:
 1344                             		.loc 2 243 4 is_stmt 0 view .LVU542
 1345                             	.LBE53:
 1346                             	.LBE52:
 922:../src/smc_gen/r_drw2d_rx/src/tes/dave_driver.c ****    }
 1347                             		.loc 1 922 7 view .LVU543
 1348 002e 75 41 14                		mov.L	#20, r1
 1349                             	.LVL133:
 922:../src/smc_gen/r_drw2d_rx/src/tes/dave_driver.c ****    }
 1350                             		.loc 1 922 7 view .LVU544
 1351 0031 2E F5                   		bra	.L81
 1352                             	.LVL134:
 1353                             	.L87:
 927:../src/smc_gen/r_drw2d_rx/src/tes/dave_driver.c ****       D2_CHECKERR(D2_DEV(handle)->lowlocalmem_mode, D2_NOMEMORY); /* PRQA S 4130, 3112 */ /* $Misra
 1354                             		.loc 1 927 7 is_stmt 1 view .LVU545
 927:../src/smc_gen/r_drw2d_rx/src/tes/dave_driver.c ****       D2_CHECKERR(D2_DEV(handle)->lowlocalmem_mode, D2_NOMEMORY); /* PRQA S 4130, 3112 */ /* $Misra
 1355                             		.loc 1 927 42 is_stmt 0 view .LVU546
 1356 0033 66 C1                   		mov.L	#12, r1
 1357                             	.LVL135:
 927:../src/smc_gen/r_drw2d_rx/src/tes/dave_driver.c ****       D2_CHECKERR(D2_DEV(handle)->lowlocalmem_mode, D2_NOMEMORY); /* PRQA S 4130, 3112 */ /* $Misra
 1358                             		.loc 1 927 42 view .LVU547
 1359 0035 05 00 00 00             		bsr	_d2_getmem_p
 1360                             	.LVL136:
 927:../src/smc_gen/r_drw2d_rx/src/tes/dave_driver.c ****       D2_CHECKERR(D2_DEV(handle)->lowlocalmem_mode, D2_NOMEMORY); /* PRQA S 4130, 3112 */ /* $Misra
 1361                             		.loc 1 927 40 view .LVU548
 1362 0039 A7 F9                   		mov.L	r1, 124[r7]
 1363 003b 2E DB                   		bra	.L84
 1364                             	.LFE21:
 1366                             		.section	.text.d2_getrendermode,"ax",@progbits
 1367                             		.global	_d2_getrendermode
 1369                             	_d2_getrendermode:
 1370                             	.LVL137:
 1371                             	.LFB23:
 936:../src/smc_gen/r_drw2d_rx/src/tes/dave_driver.c **** 
 937:../src/smc_gen/r_drw2d_rx/src/tes/dave_driver.c **** /*--------------------------------------------------------------------------
 938:../src/smc_gen/r_drw2d_rx/src/tes/dave_driver.c ****  * Group: Rendering Mode
 939:../src/smc_gen/r_drw2d_rx/src/tes/dave_driver.c ****  * */
 940:../src/smc_gen/r_drw2d_rx/src/tes/dave_driver.c **** 
 941:../src/smc_gen/r_drw2d_rx/src/tes/dave_driver.c **** /*--------------------------------------------------------------------------
 942:../src/smc_gen/r_drw2d_rx/src/tes/dave_driver.c ****  * function: d2_selectrendermode
 943:../src/smc_gen/r_drw2d_rx/src/tes/dave_driver.c ****  * Select a rendering mode.
 944:../src/smc_gen/r_drw2d_rx/src/tes/dave_driver.c ****  * Dave can automatically generate and render geometry outlines and shadows.
 945:../src/smc_gen/r_drw2d_rx/src/tes/dave_driver.c ****  * A different rendering context is used for interior (solid context) and addons
 946:../src/smc_gen/r_drw2d_rx/src/tes/dave_driver.c ****  * (outline context) so that both parts can have entirely different materials.
 947:../src/smc_gen/r_drw2d_rx/src/tes/dave_driver.c ****  *
 948:../src/smc_gen/r_drw2d_rx/src/tes/dave_driver.c ****  * Note that primitives which are issued while rendermode 'postprocess' is active
 949:../src/smc_gen/r_drw2d_rx/src/tes/dave_driver.c ****  * are buffered and put into the commandlist after all normal commands.
 950:../src/smc_gen/r_drw2d_rx/src/tes/dave_driver.c ****  * Combined rendermodes like 'solid_outlined' and 'solid_shadow' internally use
 951:../src/smc_gen/r_drw2d_rx/src/tes/dave_driver.c ****  * postprocessing to sort solid and outline parts.
 952:../src/smc_gen/r_drw2d_rx/src/tes/dave_driver.c ****  *
 953:../src/smc_gen/r_drw2d_rx/src/tes/dave_driver.c ****  * parameters:
 954:../src/smc_gen/r_drw2d_rx/src/tes/dave_driver.c ****  *   handle - device pointer (see: <d2_opendevice>)
 955:../src/smc_gen/r_drw2d_rx/src/tes/dave_driver.c ****  *   mode - rendering mode
 956:../src/smc_gen/r_drw2d_rx/src/tes/dave_driver.c ****  *
 957:../src/smc_gen/r_drw2d_rx/src/tes/dave_driver.c ****  * available rendering modes:
 958:../src/smc_gen/r_drw2d_rx/src/tes/dave_driver.c ****  *   d2_rm_solid - Direct rendering of primitives (default mode)
 959:../src/smc_gen/r_drw2d_rx/src/tes/dave_driver.c ****  *   d2_rm_outline - Only outlines are rendered
 960:../src/smc_gen/r_drw2d_rx/src/tes/dave_driver.c ****  *   d2_rm_solid_outlined - Interior and outlines are rendered
 961:../src/smc_gen/r_drw2d_rx/src/tes/dave_driver.c ****  *   d2_rm_shadow - Only shadows are rendered
 962:../src/smc_gen/r_drw2d_rx/src/tes/dave_driver.c ****  *   d2_rm_solid_shadow - Interior and shadows are rendered
 963:../src/smc_gen/r_drw2d_rx/src/tes/dave_driver.c ****  *  d2_rm_postprocess - Direct rendering of primitives as a postprocess
 964:../src/smc_gen/r_drw2d_rx/src/tes/dave_driver.c ****  *
 965:../src/smc_gen/r_drw2d_rx/src/tes/dave_driver.c ****  * returns:
 966:../src/smc_gen/r_drw2d_rx/src/tes/dave_driver.c ****  *   errorcode (D2_OK if successfull) see list of <Errorcodes> for details
 967:../src/smc_gen/r_drw2d_rx/src/tes/dave_driver.c ****  *
 968:../src/smc_gen/r_drw2d_rx/src/tes/dave_driver.c ****  * see also:
 969:../src/smc_gen/r_drw2d_rx/src/tes/dave_driver.c ****  *   <d2_outlinewidth>, <d2_shadowoffset>
 970:../src/smc_gen/r_drw2d_rx/src/tes/dave_driver.c ****  * */
 971:../src/smc_gen/r_drw2d_rx/src/tes/dave_driver.c **** d2_s32 d2_selectrendermode( d2_device *handle, d2_u32 mode )
 972:../src/smc_gen/r_drw2d_rx/src/tes/dave_driver.c **** {
 973:../src/smc_gen/r_drw2d_rx/src/tes/dave_driver.c ****    d2_u32 oldmode;
 974:../src/smc_gen/r_drw2d_rx/src/tes/dave_driver.c **** 
 975:../src/smc_gen/r_drw2d_rx/src/tes/dave_driver.c ****    if(NULL == handle)
 976:../src/smc_gen/r_drw2d_rx/src/tes/dave_driver.c ****    {
 977:../src/smc_gen/r_drw2d_rx/src/tes/dave_driver.c ****       return D2_INVALIDDEVICE;
 978:../src/smc_gen/r_drw2d_rx/src/tes/dave_driver.c ****    }
 979:../src/smc_gen/r_drw2d_rx/src/tes/dave_driver.c ****    /*D2_VALIDATE( handle, D2_INVALIDDEVICE );*/ /* PRQA S 4130, 3112 */ /* $Misra: #DEBUG_MACRO $*/
 980:../src/smc_gen/r_drw2d_rx/src/tes/dave_driver.c ****    D2_CHECKERR( ((mode & ( d2_rm_solid | d2_rm_outline | d2_rm_shadow | d2_rm_postprocess)) == mode
 981:../src/smc_gen/r_drw2d_rx/src/tes/dave_driver.c **** 
 982:../src/smc_gen/r_drw2d_rx/src/tes/dave_driver.c ****    oldmode = D2_DEV(handle)->rendermode;
 983:../src/smc_gen/r_drw2d_rx/src/tes/dave_driver.c ****    if(oldmode == mode)
 984:../src/smc_gen/r_drw2d_rx/src/tes/dave_driver.c ****    {
 985:../src/smc_gen/r_drw2d_rx/src/tes/dave_driver.c ****       D2_RETOK(handle);
 986:../src/smc_gen/r_drw2d_rx/src/tes/dave_driver.c ****    }
 987:../src/smc_gen/r_drw2d_rx/src/tes/dave_driver.c **** 
 988:../src/smc_gen/r_drw2d_rx/src/tes/dave_driver.c ****    if( (oldmode != mode) && (oldmode != d2_rm_postprocess) && (mode != d2_rm_postprocess) )
 989:../src/smc_gen/r_drw2d_rx/src/tes/dave_driver.c ****    {
 990:../src/smc_gen/r_drw2d_rx/src/tes/dave_driver.c ****       /* merge in layers if they contain data */
 991:../src/smc_gen/r_drw2d_rx/src/tes/dave_driver.c ****       (void)d2_layermerge( handle );
 992:../src/smc_gen/r_drw2d_rx/src/tes/dave_driver.c ****    }
 993:../src/smc_gen/r_drw2d_rx/src/tes/dave_driver.c **** 
 994:../src/smc_gen/r_drw2d_rx/src/tes/dave_driver.c ****    D2_DEV(handle)->rendermode = mode;
 995:../src/smc_gen/r_drw2d_rx/src/tes/dave_driver.c ****    D2_DEV(handle)->ctxselected->internaldirty |= d2_dirty_material;
 996:../src/smc_gen/r_drw2d_rx/src/tes/dave_driver.c **** 
 997:../src/smc_gen/r_drw2d_rx/src/tes/dave_driver.c ****    /* change target buffer if postprocess mode */
 998:../src/smc_gen/r_drw2d_rx/src/tes/dave_driver.c ****    if(d2_rm_postprocess == oldmode)
 999:../src/smc_gen/r_drw2d_rx/src/tes/dave_driver.c ****    {
1000:../src/smc_gen/r_drw2d_rx/src/tes/dave_driver.c ****       d2_rendertobase_intern( handle );
1001:../src/smc_gen/r_drw2d_rx/src/tes/dave_driver.c ****    }
1002:../src/smc_gen/r_drw2d_rx/src/tes/dave_driver.c **** 
1003:../src/smc_gen/r_drw2d_rx/src/tes/dave_driver.c ****    if(d2_rm_postprocess == mode)
1004:../src/smc_gen/r_drw2d_rx/src/tes/dave_driver.c ****    {
1005:../src/smc_gen/r_drw2d_rx/src/tes/dave_driver.c ****       d2_rendertolayer_intern( handle );
1006:../src/smc_gen/r_drw2d_rx/src/tes/dave_driver.c ****    }
1007:../src/smc_gen/r_drw2d_rx/src/tes/dave_driver.c **** 
1008:../src/smc_gen/r_drw2d_rx/src/tes/dave_driver.c ****    D2_RETOK(handle);
1009:../src/smc_gen/r_drw2d_rx/src/tes/dave_driver.c **** }
1010:../src/smc_gen/r_drw2d_rx/src/tes/dave_driver.c **** 
1011:../src/smc_gen/r_drw2d_rx/src/tes/dave_driver.c **** /*--------------------------------------------------------------------------
1012:../src/smc_gen/r_drw2d_rx/src/tes/dave_driver.c ****  * function: d2_getrendermode
1013:../src/smc_gen/r_drw2d_rx/src/tes/dave_driver.c ****  * Get the rendering mode.
1014:../src/smc_gen/r_drw2d_rx/src/tes/dave_driver.c ****  * This function can be used to get the rendering mode used for a 
1015:../src/smc_gen/r_drw2d_rx/src/tes/dave_driver.c ****  * specified d2_device.
1016:../src/smc_gen/r_drw2d_rx/src/tes/dave_driver.c ****  *
1017:../src/smc_gen/r_drw2d_rx/src/tes/dave_driver.c ****  * parameters:
1018:../src/smc_gen/r_drw2d_rx/src/tes/dave_driver.c ****  *   handle - device pointer (see: <d2_opendevice>)
1019:../src/smc_gen/r_drw2d_rx/src/tes/dave_driver.c ****  *
1020:../src/smc_gen/r_drw2d_rx/src/tes/dave_driver.c ****  * available rendering modes:
1021:../src/smc_gen/r_drw2d_rx/src/tes/dave_driver.c ****  *   d2_rm_solid - Direct rendering of primitives (default mode)
1022:../src/smc_gen/r_drw2d_rx/src/tes/dave_driver.c ****  *   d2_rm_outline - Only outlines are rendered
1023:../src/smc_gen/r_drw2d_rx/src/tes/dave_driver.c ****  *   d2_rm_solid_outlined - Interior and outlines are rendered
1024:../src/smc_gen/r_drw2d_rx/src/tes/dave_driver.c ****  *   d2_rm_shadow - Only shadows are rendered
1025:../src/smc_gen/r_drw2d_rx/src/tes/dave_driver.c ****  *   d2_rm_solid_shadow - Interior and shadows are rendered
1026:../src/smc_gen/r_drw2d_rx/src/tes/dave_driver.c ****  *   d2_rm_postprocess - Direct rendering of primitives as a postprocess
1027:../src/smc_gen/r_drw2d_rx/src/tes/dave_driver.c ****  *
1028:../src/smc_gen/r_drw2d_rx/src/tes/dave_driver.c ****  * returns:
1029:../src/smc_gen/r_drw2d_rx/src/tes/dave_driver.c ****  *   integer specifying the rendering mode, or 0 if an error occurs
1030:../src/smc_gen/r_drw2d_rx/src/tes/dave_driver.c ****  *
1031:../src/smc_gen/r_drw2d_rx/src/tes/dave_driver.c ****  * */
1032:../src/smc_gen/r_drw2d_rx/src/tes/dave_driver.c **** d2_u32 d2_getrendermode( const d2_device *handle )
1033:../src/smc_gen/r_drw2d_rx/src/tes/dave_driver.c **** {
 1372                             		.loc 1 1033 1 is_stmt 1 view -0
1034:../src/smc_gen/r_drw2d_rx/src/tes/dave_driver.c ****    if(NULL == handle)
 1373                             		.loc 1 1034 4 view .LVU550
 1374                             		.loc 1 1034 6 is_stmt 0 view .LVU551
 1375 0000 61 01                   		cmp	#0, r1
 1376 0002 14                      		beq	.L90
1035:../src/smc_gen/r_drw2d_rx/src/tes/dave_driver.c ****    {
1036:../src/smc_gen/r_drw2d_rx/src/tes/dave_driver.c ****       return 0;
1037:../src/smc_gen/r_drw2d_rx/src/tes/dave_driver.c ****    }
1038:../src/smc_gen/r_drw2d_rx/src/tes/dave_driver.c ****    else
1039:../src/smc_gen/r_drw2d_rx/src/tes/dave_driver.c ****    {
1040:../src/smc_gen/r_drw2d_rx/src/tes/dave_driver.c ****       return D2_DEV(handle)->rendermode;
 1377                             		.loc 1 1040 7 is_stmt 1 view .LVU552
 1378                             		.loc 1 1040 28 is_stmt 0 view .LVU553
 1379 0003 AE 19                   		mov.L	100[r1], r1
 1380                             	.LVL138:
 1381                             		.loc 1 1040 28 view .LVU554
 1382 0005 02                      		rts
 1383                             	.LVL139:
 1384                             	.L90:
1036:../src/smc_gen/r_drw2d_rx/src/tes/dave_driver.c ****    }
 1385                             		.loc 1 1036 14 view .LVU555
 1386 0006 66 01                   		mov.L	#0, r1
 1387                             	.LVL140:
1041:../src/smc_gen/r_drw2d_rx/src/tes/dave_driver.c ****    }
1042:../src/smc_gen/r_drw2d_rx/src/tes/dave_driver.c **** }
 1388                             		.loc 1 1042 1 view .LVU556
 1389 0008 02                      		rts
 1390                             	.LFE23:
 1392                             		.section	.text.d2_layermerge,"ax",@progbits
 1393                             		.global	_d2_layermerge
 1395                             	_d2_layermerge:
 1396                             	.LVL141:
 1397                             	.LFB24:
1043:../src/smc_gen/r_drw2d_rx/src/tes/dave_driver.c **** 
1044:../src/smc_gen/r_drw2d_rx/src/tes/dave_driver.c **** /*--------------------------------------------------------------------------
1045:../src/smc_gen/r_drw2d_rx/src/tes/dave_driver.c ****  * function: d2_layermerge
1046:../src/smc_gen/r_drw2d_rx/src/tes/dave_driver.c ****  * Join outline and solid parts of currently selected renderbuffer. When
1047:../src/smc_gen/r_drw2d_rx/src/tes/dave_driver.c ****  * using rendermode *d2_rm_postprocess* (see: <d2_selectrendermode>) the
1048:../src/smc_gen/r_drw2d_rx/src/tes/dave_driver.c ****  * postprocess buffer can be flushed using a call to d2_layermerge.
1049:../src/smc_gen/r_drw2d_rx/src/tes/dave_driver.c ****  *
1050:../src/smc_gen/r_drw2d_rx/src/tes/dave_driver.c ****  * parameters:
1051:../src/smc_gen/r_drw2d_rx/src/tes/dave_driver.c ****  *   handle - device pointer (see: <d2_opendevice>)
1052:../src/smc_gen/r_drw2d_rx/src/tes/dave_driver.c ****  *
1053:../src/smc_gen/r_drw2d_rx/src/tes/dave_driver.c ****  * returns:
1054:../src/smc_gen/r_drw2d_rx/src/tes/dave_driver.c ****  *   errorcode (D2_OK if successfull) see list of <Errorcodes> for details
1055:../src/smc_gen/r_drw2d_rx/src/tes/dave_driver.c ****  *
1056:../src/smc_gen/r_drw2d_rx/src/tes/dave_driver.c ****  * see also:
1057:../src/smc_gen/r_drw2d_rx/src/tes/dave_driver.c ****  *   <d2_selectrendermode>
1058:../src/smc_gen/r_drw2d_rx/src/tes/dave_driver.c ****  * */
1059:../src/smc_gen/r_drw2d_rx/src/tes/dave_driver.c **** d2_s32 d2_layermerge( d2_device *handle )
1060:../src/smc_gen/r_drw2d_rx/src/tes/dave_driver.c **** {
 1398                             		.loc 1 1060 1 is_stmt 1 view -0
 1399                             		.loc 1 1060 1 is_stmt 0 view .LVU558
 1400 0000 7E A7                   		push.l	r7
 1401                             	.LCFI8:
 1402 0002 EF 17                   		mov.L	r1, r7
1061:../src/smc_gen/r_drw2d_rx/src/tes/dave_driver.c ****    D2_VALIDATE( handle, D2_INVALIDDEVICE ); /* PRQA S 4130, 3112 */ /* $Misra: #DEBUG_MACRO $*/
 1403                             		.loc 1 1061 4 is_stmt 1 view .LVU559
1062:../src/smc_gen/r_drw2d_rx/src/tes/dave_driver.c **** 
1063:../src/smc_gen/r_drw2d_rx/src/tes/dave_driver.c ****    d2_layer2dlist_intern( handle );
 1404                             		.loc 1 1063 4 view .LVU560
 1405 0004 05 00 00 00             		bsr	_d2_layer2dlist_intern
 1406                             	.LVL142:
1064:../src/smc_gen/r_drw2d_rx/src/tes/dave_driver.c ****    D2_DEV(handle)->ctxselected->internaldirty |= d2_dirty_material;
 1407                             		.loc 1 1064 4 view .LVU561
 1408                             		.loc 1 1064 18 is_stmt 0 view .LVU562
 1409 0008 AA 7D                   		mov.L	36[r7], r5
 1410                             		.loc 1 1064 47 view .LVU563
 1411 000a F2 50 0E 01             		bset	#0, 270[r5].B
1065:../src/smc_gen/r_drw2d_rx/src/tes/dave_driver.c **** 
1066:../src/smc_gen/r_drw2d_rx/src/tes/dave_driver.c ****    D2_RETOK(handle);
 1412                             		.loc 1 1066 4 is_stmt 1 view .LVU564
 1413                             	.LVL143:
 1414                             	.LBB54:
 1415                             	.LBI54:
 239:../src/smc_gen/r_drw2d_rx/src/tes/dave_intern.h **** {
 1416                             		.loc 2 239 25 view .LVU565
 1417                             	.LBB55:
 241:../src/smc_gen/r_drw2d_rx/src/tes/dave_intern.h **** 
 1418                             		.loc 2 241 4 view .LVU566
 241:../src/smc_gen/r_drw2d_rx/src/tes/dave_intern.h **** 
 1419                             		.loc 2 241 30 is_stmt 0 view .LVU567
 1420 000e FA 74 C6 01 00          		mov.B	#0, 454[r7]
 1421                             		.loc 2 243 4 is_stmt 1 view .LVU568
 1422                             	.LVL144:
 1423                             		.loc 2 243 4 is_stmt 0 view .LVU569
 1424                             	.LBE55:
 1425                             	.LBE54:
1067:../src/smc_gen/r_drw2d_rx/src/tes/dave_driver.c **** }
 1426                             		.loc 1 1067 1 view .LVU570
 1427 0013 66 01                   		mov.L	#0, r1
 1428 0015 3F 77 01                		rtsd	#4, r7-r7
 1429                             		.loc 1 1067 1 view .LVU571
 1430                             	.LFE24:
 1432                             		.section	.text.d2_selectrendermode,"ax",@progbits
 1433                             		.global	_d2_selectrendermode
 1435                             	_d2_selectrendermode:
 1436                             	.LVL145:
 1437                             	.LFB22:
 972:../src/smc_gen/r_drw2d_rx/src/tes/dave_driver.c ****    d2_u32 oldmode;
 1438                             		.loc 1 972 1 is_stmt 1 view -0
 973:../src/smc_gen/r_drw2d_rx/src/tes/dave_driver.c **** 
 1439                             		.loc 1 973 4 view .LVU573
 975:../src/smc_gen/r_drw2d_rx/src/tes/dave_driver.c ****    {
 1440                             		.loc 1 975 4 view .LVU574
 975:../src/smc_gen/r_drw2d_rx/src/tes/dave_driver.c ****    {
 1441                             		.loc 1 975 6 is_stmt 0 view .LVU575
 1442 0000 61 01                   		cmp	#0, r1
 1443 0002 20 4F                   		beq	.L99
 972:../src/smc_gen/r_drw2d_rx/src/tes/dave_driver.c ****    d2_u32 oldmode;
 1444                             		.loc 1 972 1 view .LVU576
 1445 0004 6E 6A                   		pushm	r6-r10
 1446                             	.LCFI9:
 980:../src/smc_gen/r_drw2d_rx/src/tes/dave_driver.c **** 
 1447                             		.loc 1 980 4 is_stmt 1 view .LVU577
 982:../src/smc_gen/r_drw2d_rx/src/tes/dave_driver.c ****    if(oldmode == mode)
 1448                             		.loc 1 982 4 view .LVU578
 982:../src/smc_gen/r_drw2d_rx/src/tes/dave_driver.c ****    if(oldmode == mode)
 1449                             		.loc 1 982 12 is_stmt 0 view .LVU579
 1450 0006 AE 1E                   		mov.L	100[r1], r6
 1451                             	.LVL146:
 983:../src/smc_gen/r_drw2d_rx/src/tes/dave_driver.c ****    {
 1452                             		.loc 1 983 4 is_stmt 1 view .LVU580
 983:../src/smc_gen/r_drw2d_rx/src/tes/dave_driver.c ****    {
 1453                             		.loc 1 983 6 is_stmt 0 view .LVU581
 1454 0008 47 26                   		cmp	r2, r6
 1455 000a 20 28                   		beq	.L104
 1456 000c EF 2A                   		mov.L	r2, r10
 1457 000e EF 17                   		mov.L	r1, r7
 988:../src/smc_gen/r_drw2d_rx/src/tes/dave_driver.c ****    {
 1458                             		.loc 1 988 4 is_stmt 1 discriminator 1 view .LVU582
 988:../src/smc_gen/r_drw2d_rx/src/tes/dave_driver.c ****    {
 1459                             		.loc 1 988 26 is_stmt 0 discriminator 1 view .LVU583
 1460 0010 61 86                   		cmp	#8, r6
 1461 0012 15                      		beq	.L96
 988:../src/smc_gen/r_drw2d_rx/src/tes/dave_driver.c ****    {
 1462                             		.loc 1 988 60 discriminator 2 view .LVU584
 1463 0013 61 82                   		cmp	#8, r2
 1464 0015 21 26                   		bne	.L105
 1465                             	.LVL147:
 1466                             	.L96:
 994:../src/smc_gen/r_drw2d_rx/src/tes/dave_driver.c ****    D2_DEV(handle)->ctxselected->internaldirty |= d2_dirty_material;
 1467                             		.loc 1 994 4 is_stmt 1 view .LVU585
 994:../src/smc_gen/r_drw2d_rx/src/tes/dave_driver.c ****    D2_DEV(handle)->ctxselected->internaldirty |= d2_dirty_material;
 1468                             		.loc 1 994 31 is_stmt 0 view .LVU586
 1469 0017 E7 7A 19                		mov.L	r10, 100[r7]
 995:../src/smc_gen/r_drw2d_rx/src/tes/dave_driver.c **** 
 1470                             		.loc 1 995 4 is_stmt 1 view .LVU587
 995:../src/smc_gen/r_drw2d_rx/src/tes/dave_driver.c **** 
 1471                             		.loc 1 995 18 is_stmt 0 view .LVU588
 1472 001a AA 7D                   		mov.L	36[r7], r5
 995:../src/smc_gen/r_drw2d_rx/src/tes/dave_driver.c **** 
 1473                             		.loc 1 995 47 view .LVU589
 1474 001c F2 50 0E 01             		bset	#0, 270[r5].B
 998:../src/smc_gen/r_drw2d_rx/src/tes/dave_driver.c ****    {
 1475                             		.loc 1 998 4 is_stmt 1 view .LVU590
 998:../src/smc_gen/r_drw2d_rx/src/tes/dave_driver.c ****    {
 1476                             		.loc 1 998 6 is_stmt 0 view .LVU591
 1477 0020 61 86                   		cmp	#8, r6
 1478 0022 20 1F                   		beq	.L106
 1479                             	.L97:
1003:../src/smc_gen/r_drw2d_rx/src/tes/dave_driver.c ****    {
 1480                             		.loc 1 1003 4 is_stmt 1 view .LVU592
1003:../src/smc_gen/r_drw2d_rx/src/tes/dave_driver.c ****    {
 1481                             		.loc 1 1003 6 is_stmt 0 view .LVU593
 1482 0024 61 8A                   		cmp	#8, r10
 1483 0026 20 23                   		beq	.L107
 1484                             	.L98:
1008:../src/smc_gen/r_drw2d_rx/src/tes/dave_driver.c **** }
 1485                             		.loc 1 1008 4 is_stmt 1 view .LVU594
 1486                             	.LVL148:
 1487                             	.LBB56:
 1488                             	.LBI56:
 239:../src/smc_gen/r_drw2d_rx/src/tes/dave_intern.h **** {
 1489                             		.loc 2 239 25 view .LVU595
 1490                             	.LBB57:
 241:../src/smc_gen/r_drw2d_rx/src/tes/dave_intern.h **** 
 1491                             		.loc 2 241 4 view .LVU596
 241:../src/smc_gen/r_drw2d_rx/src/tes/dave_intern.h **** 
 1492                             		.loc 2 241 30 is_stmt 0 view .LVU597
 1493 0028 FA 74 C6 01 00          		mov.B	#0, 454[r7]
 1494                             		.loc 2 243 4 is_stmt 1 view .LVU598
 1495                             	.LVL149:
 1496                             		.loc 2 243 4 is_stmt 0 view .LVU599
 1497                             	.LBE57:
 1498                             	.LBE56:
1008:../src/smc_gen/r_drw2d_rx/src/tes/dave_driver.c **** }
 1499                             		.loc 1 1008 4 view .LVU600
 1500 002d 66 01                   		mov.L	#0, r1
 1501                             	.LVL150:
 1502                             	.L93:
1009:../src/smc_gen/r_drw2d_rx/src/tes/dave_driver.c **** 
 1503                             		.loc 1 1009 1 view .LVU601
 1504 002f 3F 6A 05                		rtsd	#20, r6-r10
 1505                             	.LVL151:
 1506                             	.L104:
 985:../src/smc_gen/r_drw2d_rx/src/tes/dave_driver.c ****    }
 1507                             		.loc 1 985 7 is_stmt 1 view .LVU602
 1508                             	.LBB58:
 1509                             	.LBI58:
 239:../src/smc_gen/r_drw2d_rx/src/tes/dave_intern.h **** {
 1510                             		.loc 2 239 25 view .LVU603
 1511                             	.LBB59:
 241:../src/smc_gen/r_drw2d_rx/src/tes/dave_intern.h **** 
 1512                             		.loc 2 241 4 view .LVU604
 241:../src/smc_gen/r_drw2d_rx/src/tes/dave_intern.h **** 
 1513                             		.loc 2 241 30 is_stmt 0 view .LVU605
 1514 0032 FA 14 C6 01 00          		mov.B	#0, 454[r1]
 1515                             		.loc 2 243 4 is_stmt 1 view .LVU606
 1516                             	.LVL152:
 1517                             		.loc 2 243 4 is_stmt 0 view .LVU607
 1518                             	.LBE59:
 1519                             	.LBE58:
 985:../src/smc_gen/r_drw2d_rx/src/tes/dave_driver.c ****    }
 1520                             		.loc 1 985 7 view .LVU608
 1521 0037 66 01                   		mov.L	#0, r1
 1522                             	.LVL153:
 985:../src/smc_gen/r_drw2d_rx/src/tes/dave_driver.c ****    }
 1523                             		.loc 1 985 7 view .LVU609
 1524 0039 2E F6                   		bra	.L93
 1525                             	.LVL154:
 1526                             	.L105:
 991:../src/smc_gen/r_drw2d_rx/src/tes/dave_driver.c ****    }
 1527                             		.loc 1 991 7 is_stmt 1 view .LVU610
 991:../src/smc_gen/r_drw2d_rx/src/tes/dave_driver.c ****    }
 1528                             		.loc 1 991 13 is_stmt 0 view .LVU611
 1529 003b 05 00 00 00             		bsr	_d2_layermerge
 1530                             	.LVL155:
 991:../src/smc_gen/r_drw2d_rx/src/tes/dave_driver.c ****    }
 1531                             		.loc 1 991 13 view .LVU612
 1532 003f 2E D8                   		bra	.L96
 1533                             	.L106:
1000:../src/smc_gen/r_drw2d_rx/src/tes/dave_driver.c ****    }
 1534                             		.loc 1 1000 7 is_stmt 1 view .LVU613
 1535 0041 EF 71                   		mov.L	r7, r1
 1536 0043 05 00 00 00             		bsr	_d2_rendertobase_intern
 1537                             	.LVL156:
 1538 0047 2E DD                   		bra	.L97
 1539                             	.L107:
1005:../src/smc_gen/r_drw2d_rx/src/tes/dave_driver.c ****    }
 1540                             		.loc 1 1005 7 view .LVU614
 1541 0049 EF 71                   		mov.L	r7, r1
 1542 004b 05 00 00 00             		bsr	_d2_rendertolayer_intern
 1543                             	.LVL157:
 1544 004f 2E D9                   		bra	.L98
 1545                             	.LVL158:
 1546                             	.L99:
 1547                             	.LCFI10:
 977:../src/smc_gen/r_drw2d_rx/src/tes/dave_driver.c ****    }
 1548                             		.loc 1 977 14 is_stmt 0 view .LVU615
 1549 0051 66 21                   		mov.L	#2, r1
 1550                             	.LVL159:
1009:../src/smc_gen/r_drw2d_rx/src/tes/dave_driver.c **** 
 1551                             		.loc 1 1009 1 view .LVU616
 1552 0053 02                      		rts
 1553                             	.LFE22:
 1555                             		.section	.text.d2_outlinewidth,"ax",@progbits
 1556                             		.global	_d2_outlinewidth
 1558                             	_d2_outlinewidth:
 1559                             	.LVL160:
 1560                             	.LFB25:
1068:../src/smc_gen/r_drw2d_rx/src/tes/dave_driver.c **** 
1069:../src/smc_gen/r_drw2d_rx/src/tes/dave_driver.c **** 
1070:../src/smc_gen/r_drw2d_rx/src/tes/dave_driver.c **** /*--------------------------------------------------------------------------
1071:../src/smc_gen/r_drw2d_rx/src/tes/dave_driver.c ****  * function: d2_outlinewidth
1072:../src/smc_gen/r_drw2d_rx/src/tes/dave_driver.c ****  * Define the width of geometry outlines. Used only when using outline or
1073:../src/smc_gen/r_drw2d_rx/src/tes/dave_driver.c ****  * solid_outlined rendering modes.
1074:../src/smc_gen/r_drw2d_rx/src/tes/dave_driver.c ****  *
1075:../src/smc_gen/r_drw2d_rx/src/tes/dave_driver.c ****  * parameters:
1076:../src/smc_gen/r_drw2d_rx/src/tes/dave_driver.c ****  *   handle - device pointer (see: <d2_opendevice>)
1077:../src/smc_gen/r_drw2d_rx/src/tes/dave_driver.c ****  *   width - outline width in pixels (fixedpoint)
1078:../src/smc_gen/r_drw2d_rx/src/tes/dave_driver.c ****  *
1079:../src/smc_gen/r_drw2d_rx/src/tes/dave_driver.c ****  * returns:
1080:../src/smc_gen/r_drw2d_rx/src/tes/dave_driver.c ****  *   errorcode (D2_OK if successfull) see list of <Errorcodes> for details
1081:../src/smc_gen/r_drw2d_rx/src/tes/dave_driver.c ****  *
1082:../src/smc_gen/r_drw2d_rx/src/tes/dave_driver.c ****  * see also:
1083:../src/smc_gen/r_drw2d_rx/src/tes/dave_driver.c ****  *   <d2_selectrendermode>, <d2_shadowoffset>
1084:../src/smc_gen/r_drw2d_rx/src/tes/dave_driver.c ****  * */
1085:../src/smc_gen/r_drw2d_rx/src/tes/dave_driver.c **** d2_s32 d2_outlinewidth( d2_device *handle, d2_width width )
1086:../src/smc_gen/r_drw2d_rx/src/tes/dave_driver.c **** {
 1561                             		.loc 1 1086 1 is_stmt 1 view -0
1087:../src/smc_gen/r_drw2d_rx/src/tes/dave_driver.c ****    D2_VALIDATE( handle, D2_INVALIDDEVICE );    /* PRQA S 4130, 3112 */ /* $Misra: #DEBUG_MACRO $*/
 1562                             		.loc 1 1087 4 view .LVU618
1088:../src/smc_gen/r_drw2d_rx/src/tes/dave_driver.c ****    D2_CHECKERR( width >= 0, D2_INVALIDWIDTH ); /* PRQA S 4130, 3112 */ /* $Misra: #DEBUG_MACRO $*/
 1563                             		.loc 1 1088 4 view .LVU619
1089:../src/smc_gen/r_drw2d_rx/src/tes/dave_driver.c **** 
1090:../src/smc_gen/r_drw2d_rx/src/tes/dave_driver.c ****    D2_DEV(handle)->outlinewidth = width;
 1564                             		.loc 1 1090 4 view .LVU620
 1565                             		.loc 1 1090 33 is_stmt 0 view .LVU621
 1566 0000 D7 12 36                		mov.W	r2, 108[r1]
1091:../src/smc_gen/r_drw2d_rx/src/tes/dave_driver.c **** 
1092:../src/smc_gen/r_drw2d_rx/src/tes/dave_driver.c ****    D2_RETOK(handle);
 1567                             		.loc 1 1092 4 is_stmt 1 view .LVU622
 1568                             	.LVL161:
 1569                             	.LBB60:
 1570                             	.LBI60:
 239:../src/smc_gen/r_drw2d_rx/src/tes/dave_intern.h **** {
 1571                             		.loc 2 239 25 view .LVU623
 1572                             	.LBB61:
 241:../src/smc_gen/r_drw2d_rx/src/tes/dave_intern.h **** 
 1573                             		.loc 2 241 4 view .LVU624
 241:../src/smc_gen/r_drw2d_rx/src/tes/dave_intern.h **** 
 1574                             		.loc 2 241 30 is_stmt 0 view .LVU625
 1575 0003 FA 14 C6 01 00          		mov.B	#0, 454[r1]
 1576                             		.loc 2 243 4 is_stmt 1 view .LVU626
 1577                             	.LVL162:
 1578                             		.loc 2 243 4 is_stmt 0 view .LVU627
 1579                             	.LBE61:
 1580                             	.LBE60:
1093:../src/smc_gen/r_drw2d_rx/src/tes/dave_driver.c **** }
 1581                             		.loc 1 1093 1 view .LVU628
 1582 0008 66 01                   		mov.L	#0, r1
 1583                             	.LVL163:
 1584                             		.loc 1 1093 1 view .LVU629
 1585 000a 02                      		rts
 1586                             	.LFE25:
 1588                             		.section	.text.d2_shadowoffset,"ax",@progbits
 1589                             		.global	_d2_shadowoffset
 1591                             	_d2_shadowoffset:
 1592                             	.LVL164:
 1593                             	.LFB26:
1094:../src/smc_gen/r_drw2d_rx/src/tes/dave_driver.c **** 
1095:../src/smc_gen/r_drw2d_rx/src/tes/dave_driver.c **** /*--------------------------------------------------------------------------
1096:../src/smc_gen/r_drw2d_rx/src/tes/dave_driver.c ****  * function: d2_shadowoffset
1097:../src/smc_gen/r_drw2d_rx/src/tes/dave_driver.c ****  * Define the offset of geometry shadows. Used only when using shadow or
1098:../src/smc_gen/r_drw2d_rx/src/tes/dave_driver.c ****  * solid_shadow rendering modes.
1099:../src/smc_gen/r_drw2d_rx/src/tes/dave_driver.c ****  *
1100:../src/smc_gen/r_drw2d_rx/src/tes/dave_driver.c ****  * parameters:
1101:../src/smc_gen/r_drw2d_rx/src/tes/dave_driver.c ****  *   handle - device pointer (see: <d2_opendevice>)
1102:../src/smc_gen/r_drw2d_rx/src/tes/dave_driver.c ****  *   x - x axis offset in pixels (fixedpoint)
1103:../src/smc_gen/r_drw2d_rx/src/tes/dave_driver.c ****  *   y - y axis offset in pixels (fixedpoint)
1104:../src/smc_gen/r_drw2d_rx/src/tes/dave_driver.c ****  *
1105:../src/smc_gen/r_drw2d_rx/src/tes/dave_driver.c ****  * returns:
1106:../src/smc_gen/r_drw2d_rx/src/tes/dave_driver.c ****  *   errorcode (D2_OK if successfull) see list of <Errorcodes> for details
1107:../src/smc_gen/r_drw2d_rx/src/tes/dave_driver.c ****  *
1108:../src/smc_gen/r_drw2d_rx/src/tes/dave_driver.c ****  * see also:
1109:../src/smc_gen/r_drw2d_rx/src/tes/dave_driver.c ****  *   <d2_selectrendermode>, <d2_outlinewidth>
1110:../src/smc_gen/r_drw2d_rx/src/tes/dave_driver.c ****  * */
1111:../src/smc_gen/r_drw2d_rx/src/tes/dave_driver.c **** d2_s32 d2_shadowoffset( d2_device *handle, d2_point x, d2_point y )
1112:../src/smc_gen/r_drw2d_rx/src/tes/dave_driver.c **** {
 1594                             		.loc 1 1112 1 is_stmt 1 view -0
1113:../src/smc_gen/r_drw2d_rx/src/tes/dave_driver.c ****    D2_VALIDATE( handle, D2_INVALIDDEVICE ); /* PRQA S 4130, 3112 */ /* $Misra: #DEBUG_MACRO $*/
 1595                             		.loc 1 1113 4 view .LVU631
1114:../src/smc_gen/r_drw2d_rx/src/tes/dave_driver.c **** 
1115:../src/smc_gen/r_drw2d_rx/src/tes/dave_driver.c ****    D2_DEV(handle)->soffx = x;
 1596                             		.loc 1 1115 4 view .LVU632
 1597                             		.loc 1 1115 26 is_stmt 0 view .LVU633
 1598 0000 D7 12 37                		mov.W	r2, 110[r1]
1116:../src/smc_gen/r_drw2d_rx/src/tes/dave_driver.c ****    D2_DEV(handle)->soffy = y;
 1599                             		.loc 1 1116 4 is_stmt 1 view .LVU634
 1600                             		.loc 1 1116 26 is_stmt 0 view .LVU635
 1601 0003 D7 13 38                		mov.W	r3, 112[r1]
1117:../src/smc_gen/r_drw2d_rx/src/tes/dave_driver.c **** 
1118:../src/smc_gen/r_drw2d_rx/src/tes/dave_driver.c ****    D2_RETOK(handle);
 1602                             		.loc 1 1118 4 is_stmt 1 view .LVU636
 1603                             	.LVL165:
 1604                             	.LBB62:
 1605                             	.LBI62:
 239:../src/smc_gen/r_drw2d_rx/src/tes/dave_intern.h **** {
 1606                             		.loc 2 239 25 view .LVU637
 1607                             	.LBB63:
 241:../src/smc_gen/r_drw2d_rx/src/tes/dave_intern.h **** 
 1608                             		.loc 2 241 4 view .LVU638
 241:../src/smc_gen/r_drw2d_rx/src/tes/dave_intern.h **** 
 1609                             		.loc 2 241 30 is_stmt 0 view .LVU639
 1610 0006 FA 14 C6 01 00          		mov.B	#0, 454[r1]
 1611                             		.loc 2 243 4 is_stmt 1 view .LVU640
 1612                             	.LVL166:
 1613                             		.loc 2 243 4 is_stmt 0 view .LVU641
 1614                             	.LBE63:
 1615                             	.LBE62:
1119:../src/smc_gen/r_drw2d_rx/src/tes/dave_driver.c **** }
 1616                             		.loc 1 1119 1 view .LVU642
 1617 000b 66 01                   		mov.L	#0, r1
 1618                             	.LVL167:
 1619                             		.loc 1 1119 1 view .LVU643
 1620 000d 02                      		rts
 1621                             	.LFE26:
 1623                             		.section	.text.d2_flushframe,"ax",@progbits
 1624                             		.global	_d2_flushframe
 1626                             	_d2_flushframe:
 1627                             	.LVL168:
 1628                             	.LFB27:
1120:../src/smc_gen/r_drw2d_rx/src/tes/dave_driver.c **** 
1121:../src/smc_gen/r_drw2d_rx/src/tes/dave_driver.c **** /*--------------------------------------------------------------------------
1122:../src/smc_gen/r_drw2d_rx/src/tes/dave_driver.c ****  * Group: Utility Functions
1123:../src/smc_gen/r_drw2d_rx/src/tes/dave_driver.c ****  * */
1124:../src/smc_gen/r_drw2d_rx/src/tes/dave_driver.c **** 
1125:../src/smc_gen/r_drw2d_rx/src/tes/dave_driver.c **** 
1126:../src/smc_gen/r_drw2d_rx/src/tes/dave_driver.c **** /*--------------------------------------------------------------------------
1127:../src/smc_gen/r_drw2d_rx/src/tes/dave_driver.c ****  * function: d2_flushframe
1128:../src/smc_gen/r_drw2d_rx/src/tes/dave_driver.c ****  * Wait for current rendering to end.
1129:../src/smc_gen/r_drw2d_rx/src/tes/dave_driver.c ****  *
1130:../src/smc_gen/r_drw2d_rx/src/tes/dave_driver.c ****  * Function will not return until the hardware has finished executing all
1131:../src/smc_gen/r_drw2d_rx/src/tes/dave_driver.c ****  * currently active rendering operations. Note that no rendering operations
1132:../src/smc_gen/r_drw2d_rx/src/tes/dave_driver.c ****  * are started until a renderbuffer is executed. (See <Render Buffers>)
1133:../src/smc_gen/r_drw2d_rx/src/tes/dave_driver.c ****  *
1134:../src/smc_gen/r_drw2d_rx/src/tes/dave_driver.c ****  * parameters:
1135:../src/smc_gen/r_drw2d_rx/src/tes/dave_driver.c ****  *   handle - device pointer (see: <d2_opendevice>)
1136:../src/smc_gen/r_drw2d_rx/src/tes/dave_driver.c ****  *
1137:../src/smc_gen/r_drw2d_rx/src/tes/dave_driver.c ****  * returns:
1138:../src/smc_gen/r_drw2d_rx/src/tes/dave_driver.c ****  *   errorcode (D2_OK if successfull) see list of <Errorcodes> for details
1139:../src/smc_gen/r_drw2d_rx/src/tes/dave_driver.c ****  * */
1140:../src/smc_gen/r_drw2d_rx/src/tes/dave_driver.c **** d2_s32 d2_flushframe( d2_device *handle )
1141:../src/smc_gen/r_drw2d_rx/src/tes/dave_driver.c **** {
 1629                             		.loc 1 1141 1 is_stmt 1 view -0
1142:../src/smc_gen/r_drw2d_rx/src/tes/dave_driver.c ****    if(NULL != handle)
 1630                             		.loc 1 1142 4 view .LVU645
 1631                             		.loc 1 1142 6 is_stmt 0 view .LVU646
 1632 0000 61 01                   		cmp	#0, r1
 1633 0002 20 14                   		beq	.L112
1141:../src/smc_gen/r_drw2d_rx/src/tes/dave_driver.c ****    if(NULL != handle)
 1634                             		.loc 1 1141 1 view .LVU647
 1635 0004 7E A7                   		push.l	r7
 1636                             	.LCFI11:
 1637 0006 EF 17                   		mov.L	r1, r7
1143:../src/smc_gen/r_drw2d_rx/src/tes/dave_driver.c ****    {
1144:../src/smc_gen/r_drw2d_rx/src/tes/dave_driver.c ****       /*D2_VALIDATE( handle, D2_INVALIDDEVICE );*/ /* PRQA S 4130, 3112 */ /* $Misra: #DEBUG_MACRO 
1145:../src/smc_gen/r_drw2d_rx/src/tes/dave_driver.c **** 
1146:../src/smc_gen/r_drw2d_rx/src/tes/dave_driver.c ****       /* wait for current frame rendering to end */
1147:../src/smc_gen/r_drw2d_rx/src/tes/dave_driver.c ****       d2hw_finish( handle );
 1638                             		.loc 1 1147 7 is_stmt 1 view .LVU648
 1639 0008 05 00 00 00             		bsr	_d2hw_finish
 1640                             	.LVL169:
1148:../src/smc_gen/r_drw2d_rx/src/tes/dave_driver.c **** 
1149:../src/smc_gen/r_drw2d_rx/src/tes/dave_driver.c ****       D2_RETOK(handle);
 1641                             		.loc 1 1149 7 view .LVU649
 1642                             	.LBB64:
 1643                             	.LBI64:
 239:../src/smc_gen/r_drw2d_rx/src/tes/dave_intern.h **** {
 1644                             		.loc 2 239 25 view .LVU650
 1645                             	.LBB65:
 241:../src/smc_gen/r_drw2d_rx/src/tes/dave_intern.h **** 
 1646                             		.loc 2 241 4 view .LVU651
 241:../src/smc_gen/r_drw2d_rx/src/tes/dave_intern.h **** 
 1647                             		.loc 2 241 30 is_stmt 0 view .LVU652
 1648 000c FA 74 C6 01 00          		mov.B	#0, 454[r7]
 1649                             		.loc 2 243 4 is_stmt 1 view .LVU653
 1650                             	.LVL170:
 1651                             		.loc 2 243 4 is_stmt 0 view .LVU654
 1652                             	.LBE65:
 1653                             	.LBE64:
 1654                             		.loc 1 1149 7 view .LVU655
 1655 0011 66 01                   		mov.L	#0, r1
1150:../src/smc_gen/r_drw2d_rx/src/tes/dave_driver.c ****    }
1151:../src/smc_gen/r_drw2d_rx/src/tes/dave_driver.c ****    else
1152:../src/smc_gen/r_drw2d_rx/src/tes/dave_driver.c ****    {
1153:../src/smc_gen/r_drw2d_rx/src/tes/dave_driver.c ****       return D2_INVALIDDEVICE;
1154:../src/smc_gen/r_drw2d_rx/src/tes/dave_driver.c ****    }
1155:../src/smc_gen/r_drw2d_rx/src/tes/dave_driver.c **** }
 1656                             		.loc 1 1155 1 view .LVU656
 1657 0013 3F 77 01                		rtsd	#4, r7-r7
 1658                             	.LVL171:
 1659                             	.L112:
 1660                             	.LCFI12:
1153:../src/smc_gen/r_drw2d_rx/src/tes/dave_driver.c ****    }
 1661                             		.loc 1 1153 14 view .LVU657
 1662 0016 66 21                   		mov.L	#2, r1
 1663                             	.LVL172:
 1664                             		.loc 1 1155 1 view .LVU658
 1665 0018 02                      		rts
 1666                             	.LFE27:
 1668                             		.section	.text.d2_setdlistblocksize,"ax",@progbits
 1669                             		.global	_d2_setdlistblocksize
 1671                             	_d2_setdlistblocksize:
 1672                             	.LVL173:
 1673                             	.LFB28:
1156:../src/smc_gen/r_drw2d_rx/src/tes/dave_driver.c **** 
1157:../src/smc_gen/r_drw2d_rx/src/tes/dave_driver.c **** /*--------------------------------------------------------------------------
1158:../src/smc_gen/r_drw2d_rx/src/tes/dave_driver.c ****  * function: d2_setdlistblocksize
1159:../src/smc_gen/r_drw2d_rx/src/tes/dave_driver.c ****  * Set blocksize for default displaylists.
1160:../src/smc_gen/r_drw2d_rx/src/tes/dave_driver.c ****  *
1161:../src/smc_gen/r_drw2d_rx/src/tes/dave_driver.c ****  * Sets the number of displaylist entries per block (aka page).
1162:../src/smc_gen/r_drw2d_rx/src/tes/dave_driver.c ****  * The value given is effectively used for internal calls to <d2_newrenderbuffer>
1163:../src/smc_gen/r_drw2d_rx/src/tes/dave_driver.c ****  * as both 'initialsize' and 'stepsize'.
1164:../src/smc_gen/r_drw2d_rx/src/tes/dave_driver.c ****  * For hints on how to optimize this size see documentation of <d2_newrenderbuffer>.
1165:../src/smc_gen/r_drw2d_rx/src/tes/dave_driver.c ****  *
1166:../src/smc_gen/r_drw2d_rx/src/tes/dave_driver.c ****  * The default blocksize is: 204
1167:../src/smc_gen/r_drw2d_rx/src/tes/dave_driver.c ****  *
1168:../src/smc_gen/r_drw2d_rx/src/tes/dave_driver.c ****  * parameters:
1169:../src/smc_gen/r_drw2d_rx/src/tes/dave_driver.c ****  *   handle - device pointer (see: <d2_opendevice>)
1170:../src/smc_gen/r_drw2d_rx/src/tes/dave_driver.c ****  *   size   - number of displaylist entries per block (minimum is 3)
1171:../src/smc_gen/r_drw2d_rx/src/tes/dave_driver.c ****  *
1172:../src/smc_gen/r_drw2d_rx/src/tes/dave_driver.c ****  * returns:
1173:../src/smc_gen/r_drw2d_rx/src/tes/dave_driver.c ****  *   errorcode (D2_OK if successful) see list of <Errorcodes> for details
1174:../src/smc_gen/r_drw2d_rx/src/tes/dave_driver.c ****  *
1175:../src/smc_gen/r_drw2d_rx/src/tes/dave_driver.c ****  * note:
1176:../src/smc_gen/r_drw2d_rx/src/tes/dave_driver.c ****  *   The minimum number of displaylist entries per block is 3. This 
1177:../src/smc_gen/r_drw2d_rx/src/tes/dave_driver.c ****  *   limitation is required to terminate a list correctly, there must be
1178:../src/smc_gen/r_drw2d_rx/src/tes/dave_driver.c ****  *   enough space to insert a dlist jump and a special termination entry.
1179:../src/smc_gen/r_drw2d_rx/src/tes/dave_driver.c ****  *
1180:../src/smc_gen/r_drw2d_rx/src/tes/dave_driver.c ****  * see also:
1181:../src/smc_gen/r_drw2d_rx/src/tes/dave_driver.c ****  *   <d2_getdlistblocksize>, <d2_newrenderbuffer>
1182:../src/smc_gen/r_drw2d_rx/src/tes/dave_driver.c ****  * */
1183:../src/smc_gen/r_drw2d_rx/src/tes/dave_driver.c **** d2_s32 d2_setdlistblocksize(d2_device *handle, d2_u32 size)
1184:../src/smc_gen/r_drw2d_rx/src/tes/dave_driver.c **** {
 1674                             		.loc 1 1184 1 is_stmt 1 view -0
1185:../src/smc_gen/r_drw2d_rx/src/tes/dave_driver.c ****    if(NULL != handle)
 1675                             		.loc 1 1185 4 view .LVU660
 1676                             		.loc 1 1185 6 is_stmt 0 view .LVU661
 1677 0000 61 01                   		cmp	#0, r1
 1678 0002 20 0D                   		beq	.L119
1186:../src/smc_gen/r_drw2d_rx/src/tes/dave_driver.c ****    {
1187:../src/smc_gen/r_drw2d_rx/src/tes/dave_driver.c ****       /*D2_VALIDATE( handle, D2_INVALIDDEVICE );*/ /* PRQA S 4130, 3112 */ /* $Misra: #DEBUG_MACRO 
1188:../src/smc_gen/r_drw2d_rx/src/tes/dave_driver.c **** 
1189:../src/smc_gen/r_drw2d_rx/src/tes/dave_driver.c ****       D2_CHECKERR(size > 2, D2_VALUETOOSMALL); /* PRQA S 4130, 3112 */ /* $Misra: #DEBUG_MACRO $*/
 1679                             		.loc 1 1189 7 is_stmt 1 view .LVU662
1190:../src/smc_gen/r_drw2d_rx/src/tes/dave_driver.c **** 
1191:../src/smc_gen/r_drw2d_rx/src/tes/dave_driver.c ****       D2_DEV(handle)->dlistblocksize = size;
 1680                             		.loc 1 1191 7 view .LVU663
 1681                             		.loc 1 1191 38 is_stmt 0 view .LVU664
 1682 0004 E7 12 22                		mov.L	r2, 136[r1]
1192:../src/smc_gen/r_drw2d_rx/src/tes/dave_driver.c **** 
1193:../src/smc_gen/r_drw2d_rx/src/tes/dave_driver.c ****       D2_RETOK(handle);
 1683                             		.loc 1 1193 7 is_stmt 1 view .LVU665
 1684                             	.LVL174:
 1685                             	.LBB66:
 1686                             	.LBI66:
 239:../src/smc_gen/r_drw2d_rx/src/tes/dave_intern.h **** {
 1687                             		.loc 2 239 25 view .LVU666
 1688                             	.LBB67:
 241:../src/smc_gen/r_drw2d_rx/src/tes/dave_intern.h **** 
 1689                             		.loc 2 241 4 view .LVU667
 241:../src/smc_gen/r_drw2d_rx/src/tes/dave_intern.h **** 
 1690                             		.loc 2 241 30 is_stmt 0 view .LVU668
 1691 0007 FA 14 C6 01 00          		mov.B	#0, 454[r1]
 1692                             		.loc 2 243 4 is_stmt 1 view .LVU669
 1693                             	.LVL175:
 1694                             		.loc 2 243 4 is_stmt 0 view .LVU670
 1695                             	.LBE67:
 1696                             	.LBE66:
 1697                             		.loc 1 1193 7 view .LVU671
 1698 000c 66 01                   		mov.L	#0, r1
 1699                             	.LVL176:
 1700                             		.loc 1 1193 7 view .LVU672
 1701 000e 02                      		rts
 1702                             	.LVL177:
 1703                             	.L119:
1194:../src/smc_gen/r_drw2d_rx/src/tes/dave_driver.c ****    }
1195:../src/smc_gen/r_drw2d_rx/src/tes/dave_driver.c ****    else
1196:../src/smc_gen/r_drw2d_rx/src/tes/dave_driver.c ****    {
1197:../src/smc_gen/r_drw2d_rx/src/tes/dave_driver.c ****       return D2_INVALIDDEVICE;
 1704                             		.loc 1 1197 14 view .LVU673
 1705 000f 66 21                   		mov.L	#2, r1
 1706                             	.LVL178:
1198:../src/smc_gen/r_drw2d_rx/src/tes/dave_driver.c ****    }
1199:../src/smc_gen/r_drw2d_rx/src/tes/dave_driver.c **** }
 1707                             		.loc 1 1199 1 view .LVU674
 1708 0011 02                      		rts
 1709                             	.LFE28:
 1711                             		.section	.text.d2_getdlistblocksize,"ax",@progbits
 1712                             		.global	_d2_getdlistblocksize
 1714                             	_d2_getdlistblocksize:
 1715                             	.LVL179:
 1716                             	.LFB29:
1200:../src/smc_gen/r_drw2d_rx/src/tes/dave_driver.c **** 
1201:../src/smc_gen/r_drw2d_rx/src/tes/dave_driver.c **** /*--------------------------------------------------------------------------
1202:../src/smc_gen/r_drw2d_rx/src/tes/dave_driver.c ****  * function: d2_getdlistblocksize
1203:../src/smc_gen/r_drw2d_rx/src/tes/dave_driver.c ****  * Get blocksize of default displaylist.
1204:../src/smc_gen/r_drw2d_rx/src/tes/dave_driver.c ****  *
1205:../src/smc_gen/r_drw2d_rx/src/tes/dave_driver.c ****  * Function will return the number of displaylist entries per block
1206:../src/smc_gen/r_drw2d_rx/src/tes/dave_driver.c ****  *
1207:../src/smc_gen/r_drw2d_rx/src/tes/dave_driver.c ****  * parameters:
1208:../src/smc_gen/r_drw2d_rx/src/tes/dave_driver.c ****  *   handle - device pointer (see: <d2_opendevice>)
1209:../src/smc_gen/r_drw2d_rx/src/tes/dave_driver.c ****  *
1210:../src/smc_gen/r_drw2d_rx/src/tes/dave_driver.c ****  * returns:
1211:../src/smc_gen/r_drw2d_rx/src/tes/dave_driver.c ****  *   number of displaylist entries per block, or 0 if an error occurs
1212:../src/smc_gen/r_drw2d_rx/src/tes/dave_driver.c ****  *
1213:../src/smc_gen/r_drw2d_rx/src/tes/dave_driver.c ****  * see also:
1214:../src/smc_gen/r_drw2d_rx/src/tes/dave_driver.c ****  *   <d2_setdlistblocksize>, <d2_newrenderbuffer>
1215:../src/smc_gen/r_drw2d_rx/src/tes/dave_driver.c ****  * */
1216:../src/smc_gen/r_drw2d_rx/src/tes/dave_driver.c **** d2_u32 d2_getdlistblocksize(const d2_device *handle)
1217:../src/smc_gen/r_drw2d_rx/src/tes/dave_driver.c **** {
 1717                             		.loc 1 1217 1 is_stmt 1 view -0
1218:../src/smc_gen/r_drw2d_rx/src/tes/dave_driver.c ****    D2_VALIDATEP( handle, D2_INVALIDDEVICE ); /* PRQA S 4130, 3112 */ /* $Misra: #DEBUG_MACRO $*/
 1718                             		.loc 1 1218 4 view .LVU676
1219:../src/smc_gen/r_drw2d_rx/src/tes/dave_driver.c **** 
1220:../src/smc_gen/r_drw2d_rx/src/tes/dave_driver.c ****    return D2_DEV(handle)->dlistblocksize;
 1719                             		.loc 1 1220 4 view .LVU677
1221:../src/smc_gen/r_drw2d_rx/src/tes/dave_driver.c **** }
 1720                             		.loc 1 1221 1 is_stmt 0 view .LVU678
 1721 0000 ED 11 22                		mov.L	136[r1], r1
 1722                             	.LVL180:
 1723                             		.loc 1 1221 1 view .LVU679
 1724 0003 02                      		rts
 1725                             	.LFE29:
 1727                             		.section	.text.d2_getdlistblockcount,"ax",@progbits
 1728                             		.global	_d2_getdlistblockcount
 1730                             	_d2_getdlistblockcount:
 1731                             	.LVL181:
 1732                             	.LFB30:
1222:../src/smc_gen/r_drw2d_rx/src/tes/dave_driver.c **** 
1223:../src/smc_gen/r_drw2d_rx/src/tes/dave_driver.c **** /*--------------------------------------------------------------------------
1224:../src/smc_gen/r_drw2d_rx/src/tes/dave_driver.c ****  * function: d2_getdlistblockcount
1225:../src/smc_gen/r_drw2d_rx/src/tes/dave_driver.c ****  * Get number of blocks of default displaylist (writelist).
1226:../src/smc_gen/r_drw2d_rx/src/tes/dave_driver.c ****  *
1227:../src/smc_gen/r_drw2d_rx/src/tes/dave_driver.c ****  * Function will return the number of used blocks for current displaylist
1228:../src/smc_gen/r_drw2d_rx/src/tes/dave_driver.c ****  *
1229:../src/smc_gen/r_drw2d_rx/src/tes/dave_driver.c ****  * parameters:
1230:../src/smc_gen/r_drw2d_rx/src/tes/dave_driver.c ****  *   handle - device pointer (see: <d2_opendevice>)
1231:../src/smc_gen/r_drw2d_rx/src/tes/dave_driver.c ****  *
1232:../src/smc_gen/r_drw2d_rx/src/tes/dave_driver.c ****  * returns:
1233:../src/smc_gen/r_drw2d_rx/src/tes/dave_driver.c ****  *   number of used blocks
1234:../src/smc_gen/r_drw2d_rx/src/tes/dave_driver.c ****  *
1235:../src/smc_gen/r_drw2d_rx/src/tes/dave_driver.c ****  * see also:
1236:../src/smc_gen/r_drw2d_rx/src/tes/dave_driver.c ****  *   <d2_setdlistblocksize>, <d2_newrenderbuffer>
1237:../src/smc_gen/r_drw2d_rx/src/tes/dave_driver.c ****  * */
1238:../src/smc_gen/r_drw2d_rx/src/tes/dave_driver.c **** d2_u32 d2_getdlistblockcount(d2_device *handle)
1239:../src/smc_gen/r_drw2d_rx/src/tes/dave_driver.c **** {
 1733                             		.loc 1 1239 1 is_stmt 1 view -0
 1734                             		.loc 1 1239 1 is_stmt 0 view .LVU681
 1735 0000 6E 7A                   		pushm	r7-r10
 1736                             	.LCFI13:
1240:../src/smc_gen/r_drw2d_rx/src/tes/dave_driver.c ****    d2_dlist          *dlist;
 1737                             		.loc 1 1240 4 is_stmt 1 view .LVU682
1241:../src/smc_gen/r_drw2d_rx/src/tes/dave_driver.c ****    d2_dlist_block    *cblock;
 1738                             		.loc 1 1241 4 view .LVU683
1242:../src/smc_gen/r_drw2d_rx/src/tes/dave_driver.c ****    d2_u32             num = 1;
 1739                             		.loc 1 1242 4 view .LVU684
 1740                             	.LVL182:
1243:../src/smc_gen/r_drw2d_rx/src/tes/dave_driver.c **** 
1244:../src/smc_gen/r_drw2d_rx/src/tes/dave_driver.c ****    D2_VALIDATE( handle, D2_INVALIDDEVICE ); /* PRQA S 4130, 3112 */ /* $Misra: #DEBUG_MACRO $*/
 1741                             		.loc 1 1244 4 view .LVU685
1245:../src/smc_gen/r_drw2d_rx/src/tes/dave_driver.c ****    dlist = &D2_DEV(handle)->selectedbuffer->baselist;
 1742                             		.loc 1 1245 4 view .LVU686
 1743                             		.loc 1 1245 27 is_stmt 0 view .LVU687
 1744 0002 ED 1A 03                		mov.L	12[r1], r10
 1745                             	.LVL183:
1246:../src/smc_gen/r_drw2d_rx/src/tes/dave_driver.c ****    cblock = dlist->firstblock;
 1746                             		.loc 1 1246 4 is_stmt 1 view .LVU688
 1747                             		.loc 1 1246 11 is_stmt 0 view .LVU689
 1748 0005 ED A7 01                		mov.L	4[r10], r7
 1749                             	.LVL184:
1247:../src/smc_gen/r_drw2d_rx/src/tes/dave_driver.c **** 
1248:../src/smc_gen/r_drw2d_rx/src/tes/dave_driver.c ****    /* clear scratch before counting */
1249:../src/smc_gen/r_drw2d_rx/src/tes/dave_driver.c ****    d2_scratch2dlist_intern(handle);
 1750                             		.loc 1 1249 4 is_stmt 1 view .LVU690
 1751 0008 05 00 00 00             		bsr	_d2_scratch2dlist_intern
 1752                             	.LVL185:
1250:../src/smc_gen/r_drw2d_rx/src/tes/dave_driver.c **** 
1251:../src/smc_gen/r_drw2d_rx/src/tes/dave_driver.c ****    if(NULL != dlist->vidmem_blocks)
 1753                             		.loc 1 1251 4 view .LVU691
 1754                             		.loc 1 1251 20 is_stmt 0 view .LVU692
 1755 000c ED A4 05                		mov.L	20[r10], r4
 1756                             		.loc 1 1251 6 view .LVU693
 1757 000f 61 04                   		cmp	#0, r4
 1758 0011 20 1B                   		beq	.L125
1252:../src/smc_gen/r_drw2d_rx/src/tes/dave_driver.c ****    {
1253:../src/smc_gen/r_drw2d_rx/src/tes/dave_driver.c ****       num += ((d2_u32)(dlist->vidmem_blocks->currentblock - dlist->vidmem_blocks->blocks)) * dlist-
 1759                             		.loc 1 1253 7 is_stmt 1 view .LVU694
 1760                             		.loc 1 1253 44 is_stmt 0 view .LVU695
 1761 0013 A8 C9                   		mov.L	12[r4], r1
 1762                             		.loc 1 1253 81 view .LVU696
 1763 0015 EC 47                   		mov.L	[r4], r7
 1764                             	.LVL186:
 1765                             		.loc 1 1253 59 view .LVU697
 1766 0017 43 71                   		sub	r7, r1
 1767 0019 6A 21                   		shar	#2, r1
 1768                             		.loc 1 1253 114 view .LVU698
 1769 001b A9 4D                   		mov.L	20[r4], r5
 1770                             		.loc 1 1253 92 view .LVU699
 1771 001d 4F 51                   		mul	r5, r1
 1772                             		.loc 1 1253 11 view .LVU700
 1773 001f 71 17 01                		add	#1, r1, r7
 1774                             	.LVL187:
1254:../src/smc_gen/r_drw2d_rx/src/tes/dave_driver.c ****       num += dlist->vidmem_blocks->num_slices - dlist->vidmem_blocks->slicesleft;
 1775                             		.loc 1 1254 7 is_stmt 1 view .LVU701
 1776                             		.loc 1 1254 69 is_stmt 0 view .LVU702
 1777 0022 A9 C1                   		mov.L	24[r4], r1
 1778                             		.loc 1 1254 47 view .LVU703
 1779 0024 FF 01 15                		sub	r1, r5, r1
 1780                             		.loc 1 1254 11 view .LVU704
 1781 0027 4B 71                   		add	r7, r1
 1782                             	.LVL188:
 1783                             	.L121:
1255:../src/smc_gen/r_drw2d_rx/src/tes/dave_driver.c ****    }
1256:../src/smc_gen/r_drw2d_rx/src/tes/dave_driver.c ****    else
1257:../src/smc_gen/r_drw2d_rx/src/tes/dave_driver.c ****    {
1258:../src/smc_gen/r_drw2d_rx/src/tes/dave_driver.c ****       while(cblock != dlist->currentblock)
1259:../src/smc_gen/r_drw2d_rx/src/tes/dave_driver.c ****       {
1260:../src/smc_gen/r_drw2d_rx/src/tes/dave_driver.c ****          cblock = cblock->next;
1261:../src/smc_gen/r_drw2d_rx/src/tes/dave_driver.c ****          ++num;
1262:../src/smc_gen/r_drw2d_rx/src/tes/dave_driver.c ****       }
1263:../src/smc_gen/r_drw2d_rx/src/tes/dave_driver.c ****    }
1264:../src/smc_gen/r_drw2d_rx/src/tes/dave_driver.c **** 
1265:../src/smc_gen/r_drw2d_rx/src/tes/dave_driver.c ****    return num;
1266:../src/smc_gen/r_drw2d_rx/src/tes/dave_driver.c **** }
 1784                             		.loc 1 1266 1 view .LVU705
 1785 0029 3F 7A 04                		rtsd	#16, r7-r10
 1786                             	.LVL189:
 1787                             	.L125:
1242:../src/smc_gen/r_drw2d_rx/src/tes/dave_driver.c **** 
 1788                             		.loc 1 1242 23 view .LVU706
 1789 002c 66 11                   		mov.L	#1, r1
 1790                             	.LVL190:
 1791                             	.L122:
1258:../src/smc_gen/r_drw2d_rx/src/tes/dave_driver.c ****       {
 1792                             		.loc 1 1258 28 view .LVU707
 1793 002e ED A5 02                		mov.L	8[r10], r5
1258:../src/smc_gen/r_drw2d_rx/src/tes/dave_driver.c ****       {
 1794                             		.loc 1 1258 12 view .LVU708
 1795 0031 47 75                   		cmp	r7, r5
 1796 0033 20 F6                   		beq	.L121
1260:../src/smc_gen/r_drw2d_rx/src/tes/dave_driver.c ****          ++num;
 1797                             		.loc 1 1260 10 is_stmt 1 view .LVU709
1260:../src/smc_gen/r_drw2d_rx/src/tes/dave_driver.c ****          ++num;
 1798                             		.loc 1 1260 17 is_stmt 0 view .LVU710
 1799 0035 EC 77                   		mov.L	[r7], r7
 1800                             	.LVL191:
1261:../src/smc_gen/r_drw2d_rx/src/tes/dave_driver.c ****       }
 1801                             		.loc 1 1261 10 is_stmt 1 view .LVU711
 1802 0037 62 11                   		add	#1, r1
 1803                             	.LVL192:
1261:../src/smc_gen/r_drw2d_rx/src/tes/dave_driver.c ****       }
 1804                             		.loc 1 1261 10 is_stmt 0 view .LVU712
 1805 0039 2E F5                   		bra	.L122
 1806                             	.LFE30:
 1808                             		.section	.text.d2_commandspending,"ax",@progbits
 1809                             		.global	_d2_commandspending
 1811                             	_d2_commandspending:
 1812                             	.LVL193:
 1813                             	.LFB31:
1267:../src/smc_gen/r_drw2d_rx/src/tes/dave_driver.c **** 
1268:../src/smc_gen/r_drw2d_rx/src/tes/dave_driver.c **** /*--------------------------------------------------------------------------
1269:../src/smc_gen/r_drw2d_rx/src/tes/dave_driver.c ****  * function: d2_commandspending
1270:../src/smc_gen/r_drw2d_rx/src/tes/dave_driver.c ****  * Check if there are pending commands in the current displaylist.
1271:../src/smc_gen/r_drw2d_rx/src/tes/dave_driver.c ****  *
1272:../src/smc_gen/r_drw2d_rx/src/tes/dave_driver.c ****  * parameters:
1273:../src/smc_gen/r_drw2d_rx/src/tes/dave_driver.c ****  *   handle - device pointer (see: <d2_opendevice>)
1274:../src/smc_gen/r_drw2d_rx/src/tes/dave_driver.c ****  *
1275:../src/smc_gen/r_drw2d_rx/src/tes/dave_driver.c ****  * returns:
1276:../src/smc_gen/r_drw2d_rx/src/tes/dave_driver.c ****  *   boolean value: true when there are commands pending, also 0 if an error occurs
1277:../src/smc_gen/r_drw2d_rx/src/tes/dave_driver.c ****  *
1278:../src/smc_gen/r_drw2d_rx/src/tes/dave_driver.c ****  * see also:
1279:../src/smc_gen/r_drw2d_rx/src/tes/dave_driver.c ****  *   <d2_getdlistblockcount>
1280:../src/smc_gen/r_drw2d_rx/src/tes/dave_driver.c ****  * */
1281:../src/smc_gen/r_drw2d_rx/src/tes/dave_driver.c **** d2_s32 d2_commandspending(d2_device *handle)
1282:../src/smc_gen/r_drw2d_rx/src/tes/dave_driver.c **** {
 1814                             		.loc 1 1282 1 is_stmt 1 view -0
 1815                             		.loc 1 1282 1 is_stmt 0 view .LVU714
 1816 0000 7E A7                   		push.l	r7
 1817                             	.LCFI14:
1283:../src/smc_gen/r_drw2d_rx/src/tes/dave_driver.c ****    d2_dlist *dlist;
 1818                             		.loc 1 1283 4 is_stmt 1 view .LVU715
1284:../src/smc_gen/r_drw2d_rx/src/tes/dave_driver.c **** 
1285:../src/smc_gen/r_drw2d_rx/src/tes/dave_driver.c ****    D2_VALIDATEP( handle, D2_INVALIDDEVICE ); /* PRQA S 4130, 3112 */ /* $Misra: #DEBUG_MACRO $*/
 1819                             		.loc 1 1285 4 view .LVU716
1286:../src/smc_gen/r_drw2d_rx/src/tes/dave_driver.c ****    dlist = &D2_DEV(handle)->selectedbuffer->baselist;
 1820                             		.loc 1 1286 4 view .LVU717
 1821                             		.loc 1 1286 27 is_stmt 0 view .LVU718
 1822 0002 A8 9F                   		mov.L	12[r1], r7
 1823                             	.LVL194:
1287:../src/smc_gen/r_drw2d_rx/src/tes/dave_driver.c **** 
1288:../src/smc_gen/r_drw2d_rx/src/tes/dave_driver.c ****    /* clear scratch before check */
1289:../src/smc_gen/r_drw2d_rx/src/tes/dave_driver.c ****    d2_scratch2dlist_intern(handle);
 1824                             		.loc 1 1289 4 is_stmt 1 view .LVU719
 1825 0004 05 00 00 00             		bsr	_d2_scratch2dlist_intern
 1826                             	.LVL195:
1290:../src/smc_gen/r_drw2d_rx/src/tes/dave_driver.c **** 
1291:../src/smc_gen/r_drw2d_rx/src/tes/dave_driver.c ****    if(dlist->position != dlist->firstblock->block)
 1827                             		.loc 1 1291 4 view .LVU720
 1828                             		.loc 1 1291 12 is_stmt 0 view .LVU721
 1829 0008 A9 74                   		mov.L	16[r7], r4
 1830                             		.loc 1 1291 31 view .LVU722
 1831 000a A8 7D                   		mov.L	4[r7], r5
 1832                             		.loc 1 1291 6 view .LVU723
 1833 000c 06 85 54 01             		cmp	4[r5].L, r4
 1834 0010 16                      		beq	.L133
1292:../src/smc_gen/r_drw2d_rx/src/tes/dave_driver.c ****    {
1293:../src/smc_gen/r_drw2d_rx/src/tes/dave_driver.c ****       return 1; /* this means commands pending in any case */
 1835                             		.loc 1 1293 14 view .LVU724
 1836 0011 66 11                   		mov.L	#1, r1
 1837                             	.LVL196:
 1838                             		.balign 8,3,2
 1839                             	.L127:
1294:../src/smc_gen/r_drw2d_rx/src/tes/dave_driver.c ****    }
1295:../src/smc_gen/r_drw2d_rx/src/tes/dave_driver.c **** 
1296:../src/smc_gen/r_drw2d_rx/src/tes/dave_driver.c ****    /* in lowlocalmem mode, we might be at the beginning of the first block, but in
1297:../src/smc_gen/r_drw2d_rx/src/tes/dave_driver.c ****     * another vidmem block */
1298:../src/smc_gen/r_drw2d_rx/src/tes/dave_driver.c ****    if( (NULL != dlist->vidmem_blocks) && (dlist->vidmem_blocks->currentaddress == dlist->vidmem_blo
1299:../src/smc_gen/r_drw2d_rx/src/tes/dave_driver.c ****    {
1300:../src/smc_gen/r_drw2d_rx/src/tes/dave_driver.c ****       return 1;
1301:../src/smc_gen/r_drw2d_rx/src/tes/dave_driver.c ****    }
1302:../src/smc_gen/r_drw2d_rx/src/tes/dave_driver.c ****    else
1303:../src/smc_gen/r_drw2d_rx/src/tes/dave_driver.c ****    {
1304:../src/smc_gen/r_drw2d_rx/src/tes/dave_driver.c ****       return 0;
1305:../src/smc_gen/r_drw2d_rx/src/tes/dave_driver.c ****    }
1306:../src/smc_gen/r_drw2d_rx/src/tes/dave_driver.c **** }
 1840                             		.loc 1 1306 1 view .LVU725
 1841 0013 3F 77 01                		rtsd	#4, r7-r7
 1842                             	.LVL197:
 1843                             	.L133:
1298:../src/smc_gen/r_drw2d_rx/src/tes/dave_driver.c ****    {
 1844                             		.loc 1 1298 4 is_stmt 1 view .LVU726
1298:../src/smc_gen/r_drw2d_rx/src/tes/dave_driver.c ****    {
 1845                             		.loc 1 1298 22 is_stmt 0 view .LVU727
 1846 0016 A9 7F                   		mov.L	20[r7], r7
 1847                             	.LVL198:
1298:../src/smc_gen/r_drw2d_rx/src/tes/dave_driver.c ****    {
 1848                             		.loc 1 1298 6 view .LVU728
 1849 0018 61 07                   		cmp	#0, r7
 1850 001a 20 0E                   		beq	.L130
1298:../src/smc_gen/r_drw2d_rx/src/tes/dave_driver.c ****    {
 1851                             		.loc 1 1298 63 discriminator 1 view .LVU729
 1852 001c A9 75                   		mov.L	16[r7], r5
1298:../src/smc_gen/r_drw2d_rx/src/tes/dave_driver.c ****    {
 1853                             		.loc 1 1298 103 discriminator 1 view .LVU730
 1854 001e EC 77                   		mov.L	[r7], r7
1298:../src/smc_gen/r_drw2d_rx/src/tes/dave_driver.c ****    {
 1855                             		.loc 1 1298 39 discriminator 1 view .LVU731
 1856 0020 06 84 75                		cmp	[r7].L, r5
 1857 0023 11                      		beq	.L131
1304:../src/smc_gen/r_drw2d_rx/src/tes/dave_driver.c ****    }
 1858                             		.loc 1 1304 14 view .LVU732
 1859 0024 66 01                   		mov.L	#0, r1
 1860 0026 2E ED                   		bra	.L127
 1861                             	.L130:
 1862 0028 66 01                   		mov.L	#0, r1
 1863 002a 2E E9                   		bra	.L127
 1864                             	.L131:
1300:../src/smc_gen/r_drw2d_rx/src/tes/dave_driver.c ****    }
 1865                             		.loc 1 1300 14 view .LVU733
 1866 002c 66 11                   		mov.L	#1, r1
 1867 002e 2E E5                   		bra	.L127
 1868                             	.LFE31:
 1870                             		.section	.rodata.g_hwfeatures.2890,"a"
 1873                             	_g_hwfeatures.2890:
 1874 0000 53 57 44 41 56 45 00    		.string	"SWDAVE"
 1875 0007 00 00 00 00 00 00 00 00 		.zero	57
 1875      00 00 00 00 00 00 00 00 
 1875      00 00 00 00 00 00 00 00 
 1875      00 00 00 00 00 00 00 00 
 1875      00 00 00 00 00 00 00 00 
 1876 0040 44 4C 52 00             		.string	"DLR"
 1877 0044 00 00 00 00 00 00 00 00 		.zero	60
 1877      00 00 00 00 00 00 00 00 
 1877      00 00 00 00 00 00 00 00 
 1877      00 00 00 00 00 00 00 00 
 1877      00 00 00 00 00 00 00 00 
 1878 0080 46 42 43 41 43 48 45 00 		.string	"FBCACHE"
 1879 0088 00 00 00 00 00 00 00 00 		.zero	56
 1879      00 00 00 00 00 00 00 00 
 1879      00 00 00 00 00 00 00 00 
 1879      00 00 00 00 00 00 00 00 
 1879      00 00 00 00 00 00 00 00 
 1880 00c0 54 58 43 41 43 48 45 00 		.string	"TXCACHE"
 1881 00c8 00 00 00 00 00 00 00 00 		.zero	56
 1881      00 00 00 00 00 00 00 00 
 1881      00 00 00 00 00 00 00 00 
 1881      00 00 00 00 00 00 00 00 
 1881      00 00 00 00 00 00 00 00 
 1882 0100 50 45 52 46 43 4F 55 4E 		.string	"PERFCOUNT"
 1882      54 00 
 1883 010a 00 00 00 00 00 00 00 00 		.zero	54
 1883      00 00 00 00 00 00 00 00 
 1883      00 00 00 00 00 00 00 00 
 1883      00 00 00 00 00 00 00 00 
 1883      00 00 00 00 00 00 00 00 
 1884 0140 54 45 58 43 4C 55 54 00 		.string	"TEXCLUT"
 1885 0148 00 00 00 00 00 00 00 00 		.zero	56
 1885      00 00 00 00 00 00 00 00 
 1885      00 00 00 00 00 00 00 00 
 1885      00 00 00 00 00 00 00 00 
 1885      00 00 00 00 00 00 00 00 
 1886 0180 54 45 58 43 4C 55 54 32 		.string	"TEXCLUT256"
 1886      35 36 00 
 1887 018b 00 00 00 00 00 00 00 00 		.zero	53
 1887      00 00 00 00 00 00 00 00 
 1887      00 00 00 00 00 00 00 00 
 1887      00 00 00 00 00 00 00 00 
 1887      00 00 00 00 00 00 00 00 
 1888 01c0 54 45 58 52 4C 45 00    		.string	"TEXRLE"
 1889 01c7 00 00 00 00 00 00 00 00 		.zero	57
 1889      00 00 00 00 00 00 00 00 
 1889      00 00 00 00 00 00 00 00 
 1889      00 00 00 00 00 00 00 00 
 1889      00 00 00 00 00 00 00 00 
 1890 0200 54 45 58 43 4F 4C 4F 52 		.string	"TEXCOLORKEY"
 1890      4B 45 59 00 
 1891 020c 00 00 00 00 00 00 00 00 		.zero	52
 1891      00 00 00 00 00 00 00 00 
 1891      00 00 00 00 00 00 00 00 
 1891      00 00 00 00 00 00 00 00 
 1891      00 00 00 00 00 00 00 00 
 1892 0240 48 49 4C 49 4D 49 54 45 		.string	"HILIMITERPRECISION"
 1892      52 50 52 45 43 49 53 49 
 1892      4F 4E 00 
 1893 0253 00 00 00 00 00 00 00 00 		.zero	45
 1893      00 00 00 00 00 00 00 00 
 1893      00 00 00 00 00 00 00 00 
 1893      00 00 00 00 00 00 00 00 
 1893      00 00 00 00 00 00 00 00 
 1894 0280 41 4C 50 48 41 43 48 41 		.string	"ALPHACHANNELBLENDING"
 1894      4E 4E 45 4C 42 4C 45 4E 
 1894      44 49 4E 47 00 
 1895 0295 00 00 00 00 00 00 00 00 		.zero	43
 1895      00 00 00 00 00 00 00 00 
 1895      00 00 00 00 00 00 00 00 
 1895      00 00 00 00 00 00 00 00 
 1895      00 00 00 00 00 00 00 00 
 1896 02c0 3F 3F 3F 00             		.string	"???"
 1897 02c4 00 00 00 00 00 00 00 00 		.zero	60
 1897      00 00 00 00 00 00 00 00 
 1897      00 00 00 00 00 00 00 00 
 1897      00 00 00 00 00 00 00 00 
 1897      00 00 00 00 00 00 00 00 
 1898                             		.section	.bss.g_revisionstring.2888,"aw",@nobits
 1901                             	_g_revisionstring.2888:
 1902 0000 00 00 00 00 00 00 00 00 		.zero	256
 1902      00 00 00 00 00 00 00 00 
 1902      00 00 00 00 00 00 00 00 
 1902      00 00 00 00 00 00 00 00 
 1902      00 00 00 00 00 00 00 00 
 1903                             		.section	.rodata.g_hwrevision.2889,"a"
 1906                             	_g_hwrevision.2889:
 1907 0000 44 2F 41 56 45 20 32 44 		.string	"D/AVE 2DT-S"
 1907      54 2D 53 00 
 1908 000c 00 00 00 00             		.zero	4
 1909 0010 44 2F 41 56 45 20 32 44 		.string	"D/AVE 2DT-L"
 1909      54 2D 4C 00 
 1910 001c 00 00 00 00             		.zero	4
 1911 0020 44 2F 41 56 45 20 55 4E 		.string	"D/AVE UNKNOWN"
 1911      4B 4E 4F 57 4E 00 
 1912 002e 00 00                   		.zero	2
 1913                             		.section	.rodata.g_versionid.2798,"a"
 1916                             	_g_versionid.2798:
 1917 0000 40 28 23 29 44 41 56 45 		.string	"@(#)DAVE driver  V3.17 -  - Mar 12 2025 21:22:10"
 1917      20 64 72 69 76 65 72 20 
 1917      20 56 33 2E 31 37 20 2D 
 1917      20 20 2D 20 4D 61 72 20 
 1917      31 32 20 32 30 32 35 20 
 1918                             		.global	_d2_cacheableregs
 1919                             		.section	.rodata.d2_cacheableregs,"a"
 1922                             	_d2_cacheableregs:
 1923 0000 00                      		.byte	0
 1924 0001 01                      		.byte	1
 1925 0002 00                      		.byte	0
 1926 0003 00                      		.byte	0
 1927 0004 00                      		.byte	0
 1928 0005 00                      		.byte	0
 1929 0006 00                      		.byte	0
 1930 0007 00                      		.byte	0
 1931 0008 00                      		.byte	0
 1932 0009 00                      		.byte	0
 1933 000a 01                      		.byte	1
 1934 000b 01                      		.byte	1
 1935 000c 01                      		.byte	1
 1936 000d 01                      		.byte	1
 1937 000e 01                      		.byte	1
 1938 000f 01                      		.byte	1
 1939 0010 00                      		.byte	0
 1940 0011 01                      		.byte	1
 1941 0012 00                      		.byte	0
 1942 0013 01                      		.byte	1
 1943 0014 00                      		.byte	0
 1944 0015 01                      		.byte	1
 1945 0016 01                      		.byte	1
 1946 0017 01                      		.byte	1
 1947 0018 00                      		.byte	0
 1948 0019 01                      		.byte	1
 1949 001a 01                      		.byte	1
 1950 001b 00                      		.byte	0
 1951 001c 00                      		.byte	0
 1952 001d 01                      		.byte	1
 1953 001e 01                      		.byte	1
 1954 001f 01                      		.byte	1
 1955 0020 00                      		.byte	0
 1956 0021 00                      		.byte	0
 1957 0022 00                      		.byte	0
 1958 0023 00                      		.byte	0
 1959 0024 00                      		.byte	0
 1960 0025 01                      		.byte	1
 1961 0026 01                      		.byte	1
 1962 0027 00                      		.byte	0
 1963 0028 00                      		.byte	0
 1964 0029 01                      		.byte	1
 1965 002a 01                      		.byte	1
 1966 002b 01                      		.byte	1
 1967 002c 00                      		.byte	0
 1968 002d 01                      		.byte	1
 1969 002e 01                      		.byte	1
 1970 002f 01                      		.byte	1
 1971 0030 00                      		.byte	0
 1972 0031 00                      		.byte	0
 1973 0032 00                      		.byte	0
 1974 0033 00                      		.byte	0
 1975 0034 00                      		.byte	0
 1976 0035 00                      		.byte	0
 1977 0036 00                      		.byte	0
 1978 0037 00                      		.byte	0
 1979 0038 00                      		.byte	0
 1980 0039 01                      		.byte	1
 1981 003a 01                      		.byte	1
 1982                             		.section	.bss.g_devicechain,"aw",@nobits
 1983                             		.balign 4
 1986                             	_g_devicechain:
 1987 0000 00 00 00 00             		.zero	4
 2360                             	.Letext0:
 2361                             		.file 3 "D:\\e2_studio\\workspace\\FULLMONI_WIDE\\Firmware\\src\\smc_gen\\r_drw2d_rx\\inc\\tes/dav
 2362                             		.file 4 "D:\\e2_studio\\workspace\\FULLMONI_WIDE\\Firmware\\src\\smc_gen\\r_drw2d_rx\\inc\\tes/dav
 2363                             		.file 5 "../src/smc_gen/r_drw2d_rx/src/tes/dave_dlist.h"
 2364                             		.file 6 "../src/smc_gen/r_drw2d_rx/src/tes/dave_rbuffer.h"
 2365                             		.file 7 "../src/smc_gen/r_drw2d_rx/src/tes/dave_gradient.h"
 2366                             		.file 8 "../src/smc_gen/r_drw2d_rx/src/tes/dave_context.h"
 2367                             		.file 9 "../src/smc_gen/r_drw2d_rx/src/tes/dave_hardware.h"
 2368                             		.file 10 "../src/smc_gen/r_drw2d_rx/src/tes/dave_memory.h"
 2369                             		.file 11 "D:\\e2_studio\\workspace\\FULLMONI_WIDE\\Firmware\\src\\smc_gen\\r_drw2d_rx\\inc\\tes/da
