   1                             		.file	"dave_dlist.c"
   2                             		.section P,"ax"
   3                             	.Ltext0:
   4                             		.section	.text.d2_alloc_dlistblock_intern,"ax",@progbits
   5                             		.global	_d2_alloc_dlistblock_intern
   7                             	_d2_alloc_dlistblock_intern:
   8                             	.LVL0:
   9                             	.LFB6:
  10                             		.file 1 "../src/smc_gen/r_drw2d_rx/src/tes/dave_dlist.c"
   1:../src/smc_gen/r_drw2d_rx/src/tes/dave_dlist.c **** /*--------------------------------------------------------------------------
   2:../src/smc_gen/r_drw2d_rx/src/tes/dave_dlist.c ****  * Project: D/AVE
   3:../src/smc_gen/r_drw2d_rx/src/tes/dave_dlist.c ****  * File:    dave_dlist.c (%version: 32 %)
   4:../src/smc_gen/r_drw2d_rx/src/tes/dave_dlist.c ****  *          created Thu Feb 17 21:45:11 2005 by hh04027
   5:../src/smc_gen/r_drw2d_rx/src/tes/dave_dlist.c ****  *
   6:../src/smc_gen/r_drw2d_rx/src/tes/dave_dlist.c ****  * Description:
   7:../src/smc_gen/r_drw2d_rx/src/tes/dave_dlist.c ****  *  %date_modified: Thu Mar 08 15:05:30 2007 %  (%derived_by:  hh74026 %)
   8:../src/smc_gen/r_drw2d_rx/src/tes/dave_dlist.c ****  *
   9:../src/smc_gen/r_drw2d_rx/src/tes/dave_dlist.c ****  * Changes:
  10:../src/smc_gen/r_drw2d_rx/src/tes/dave_dlist.c ****  * 2005-12-22 CSe  - fix nextdlistblock(): jump was inserted after end of block
  11:../src/smc_gen/r_drw2d_rx/src/tes/dave_dlist.c ****  *                 - added d2_copydlist_vidmem_intern()
  12:../src/smc_gen/r_drw2d_rx/src/tes/dave_dlist.c ****  *                 - renamed block->vram to block->vidmem for consistency
  13:../src/smc_gen/r_drw2d_rx/src/tes/dave_dlist.c ****  * 2006-01-05 CSe  - free vidmem when dlist is free'd
  14:../src/smc_gen/r_drw2d_rx/src/tes/dave_dlist.c ****  * 2006-02-28 CSe  - adapted to changes in memory allocation of dlist mem
  15:../src/smc_gen/r_drw2d_rx/src/tes/dave_dlist.c ****  *                 - added d2_cacheflushdlist_intern()
  16:../src/smc_gen/r_drw2d_rx/src/tes/dave_dlist.c ****  * 2006-05-10 CSe  - changes for systems with statically mapped vidmem
  17:../src/smc_gen/r_drw2d_rx/src/tes/dave_dlist.c ****  * 2006-10-30 CSe  - removed counting of dlist used slots
  18:../src/smc_gen/r_drw2d_rx/src/tes/dave_dlist.c ****  * 2006-11-07 CSe  - changes for new 'd2_df_low_localmem' mode
  19:../src/smc_gen/r_drw2d_rx/src/tes/dave_dlist.c ****  * 2006-11-30 CSe  - fixed insertion of dlist special commands
  20:../src/smc_gen/r_drw2d_rx/src/tes/dave_dlist.c ****  * 2007-03-08 CSe  - optimized dlist copying and flushing
  21:../src/smc_gen/r_drw2d_rx/src/tes/dave_dlist.c ****  * 2007-05-23 MGe  - insert null pointer checks to d2_init_dlist_intern, d2_growdlist_inter,
  22:../src/smc_gen/r_drw2d_rx/src/tes/dave_dlist.c ****  *                   d2_nextdlistblock_intern
  23:../src/smc_gen/r_drw2d_rx/src/tes/dave_dlist.c ****  * 2007-10-23 CSe  - added dynamic shrinking of display list
  24:../src/smc_gen/r_drw2d_rx/src/tes/dave_dlist.c ****  * 2008-01-14 ASc  - changed comments from C++ to C, removed tabs
  25:../src/smc_gen/r_drw2d_rx/src/tes/dave_dlist.c ****  * 2008-08-21 MRe  - fixed dynamic shrinking for low_localmem
  26:../src/smc_gen/r_drw2d_rx/src/tes/dave_dlist.c ****  * 2010-07-08 MRe  - fixed support for register caching defined by D2_USEREGCACHE 
  27:../src/smc_gen/r_drw2d_rx/src/tes/dave_dlist.c ****  *                    new device flag d2_df_no_registercaching
  28:../src/smc_gen/r_drw2d_rx/src/tes/dave_dlist.c ****  * 2011-02-07 SSt  - ensure a flush for all dlist ends (needed for multithreading)
  29:../src/smc_gen/r_drw2d_rx/src/tes/dave_dlist.c ****  * 2011-02-28 SSt  - fixed while loop
  30:../src/smc_gen/r_drw2d_rx/src/tes/dave_dlist.c ****  * 2011-03-10 MRe  - invalidate register chaches with every dlist reset
  31:../src/smc_gen/r_drw2d_rx/src/tes/dave_dlist.c ****  * 2011-03-11 MRe  - fixed crash under WIN32 at freemem
  32:../src/smc_gen/r_drw2d_rx/src/tes/dave_dlist.c ****  * 2012-07-18 MRe  - added dlist functions d2_executedlist, d2_adddlist
  33:../src/smc_gen/r_drw2d_rx/src/tes/dave_dlist.c ****  * 2012-09-25 BSp  - MISRA cleanup
  34:../src/smc_gen/r_drw2d_rx/src/tes/dave_dlist.c ****  * 2012-10-16 MRe  - fixed freemem for d2_df_no_dlist
  35:../src/smc_gen/r_drw2d_rx/src/tes/dave_dlist.c ****  * 2017-07-27 HFu  - clearly commented and renamed d2_insertwait...dlist_intern functions
  36:../src/smc_gen/r_drw2d_rx/src/tes/dave_dlist.c ****  *-------------------------------------------------------------------------- */
  37:../src/smc_gen/r_drw2d_rx/src/tes/dave_dlist.c **** 
  38:../src/smc_gen/r_drw2d_rx/src/tes/dave_dlist.c **** /*--------------------------------------------------------------------------
  39:../src/smc_gen/r_drw2d_rx/src/tes/dave_dlist.c ****  *
  40:../src/smc_gen/r_drw2d_rx/src/tes/dave_dlist.c ****  * Title: Dlist Functions
  41:../src/smc_gen/r_drw2d_rx/src/tes/dave_dlist.c ****  *
  42:../src/smc_gen/r_drw2d_rx/src/tes/dave_dlist.c ****  *
  43:../src/smc_gen/r_drw2d_rx/src/tes/dave_dlist.c ****  *-------------------------------------------------------------------------- */
  44:../src/smc_gen/r_drw2d_rx/src/tes/dave_dlist.c **** 
  45:../src/smc_gen/r_drw2d_rx/src/tes/dave_dlist.c **** 
  46:../src/smc_gen/r_drw2d_rx/src/tes/dave_dlist.c **** #include "dave_driver.h"
  47:../src/smc_gen/r_drw2d_rx/src/tes/dave_dlist.c **** #include "dave_intern.h"
  48:../src/smc_gen/r_drw2d_rx/src/tes/dave_dlist.c **** #include "dave_dlist.h"
  49:../src/smc_gen/r_drw2d_rx/src/tes/dave_dlist.c **** #include "dave_memory.h"
  50:../src/smc_gen/r_drw2d_rx/src/tes/dave_dlist.c **** 
  51:../src/smc_gen/r_drw2d_rx/src/tes/dave_dlist.c **** 
  52:../src/smc_gen/r_drw2d_rx/src/tes/dave_dlist.c **** #define D2_EXECUTE_DLIST_NEEDWAIT defined
  53:../src/smc_gen/r_drw2d_rx/src/tes/dave_dlist.c **** 
  54:../src/smc_gen/r_drw2d_rx/src/tes/dave_dlist.c **** /*--------------------------------------------------------------------------*/
  55:../src/smc_gen/r_drw2d_rx/src/tes/dave_dlist.c **** 
  56:../src/smc_gen/r_drw2d_rx/src/tes/dave_dlist.c **** static d2_s32 d2_dlist2dlist_intern( d2_device *handle, d2_dlist *dlist, void *address, d2_s32 size
  57:../src/smc_gen/r_drw2d_rx/src/tes/dave_dlist.c **** 
  58:../src/smc_gen/r_drw2d_rx/src/tes/dave_dlist.c **** /*--------------------------------------------------------------------------
  59:../src/smc_gen/r_drw2d_rx/src/tes/dave_dlist.c ****  * create a display list block (displaylist memory can be fetched from a
  60:../src/smc_gen/r_drw2d_rx/src/tes/dave_dlist.c ****  * different heap, see dave_memory.h for detials)
  61:../src/smc_gen/r_drw2d_rx/src/tes/dave_dlist.c ****  * size specifies the number of dlist entries (4 register slots per entry)
  62:../src/smc_gen/r_drw2d_rx/src/tes/dave_dlist.c ****  * */
  63:../src/smc_gen/r_drw2d_rx/src/tes/dave_dlist.c **** d2_dlist_block * d2_alloc_dlistblock_intern( const d2_device *handle, d2_u32 size )
  64:../src/smc_gen/r_drw2d_rx/src/tes/dave_dlist.c **** {
  11                             		.loc 1 64 1 view -0
  12                             		.loc 1 64 1 is_stmt 0 view .LVU1
  13 0000 6E 6B                   		pushm	r6-r11
  14                             	.LCFI0:
  15 0002 EF 1A                   		mov.L	r1, r10
  16 0004 EF 26                   		mov.L	r2, r6
  65:../src/smc_gen/r_drw2d_rx/src/tes/dave_dlist.c ****    d2_dlist_block *dlb;
  17                             		.loc 1 65 4 is_stmt 1 view .LVU2
  66:../src/smc_gen/r_drw2d_rx/src/tes/dave_dlist.c ****    d1_device      *id = D2_DEV(handle)->hwid;
  18                             		.loc 1 66 4 view .LVU3
  19                             		.loc 1 66 20 is_stmt 0 view .LVU4
  20 0006 ED 1B 06                		mov.L	24[r1], r11
  21                             	.LVL1:
  67:../src/smc_gen/r_drw2d_rx/src/tes/dave_dlist.c **** 
  68:../src/smc_gen/r_drw2d_rx/src/tes/dave_dlist.c ****    /* get controlling block structure */
  69:../src/smc_gen/r_drw2d_rx/src/tes/dave_dlist.c ****    dlb = (d2_dlist_block*) d2_getmem_p( sizeof(d2_dlist_block) );
  22                             		.loc 1 69 4 is_stmt 1 view .LVU5
  23                             		.loc 1 69 28 is_stmt 0 view .LVU6
  24 0009 75 41 14                		mov.L	#20, r1
  25                             	.LVL2:
  26                             		.loc 1 69 28 view .LVU7
  27 000c 05 00 00 00             		bsr	_d2_getmem_p
  28                             	.LVL3:
  29                             		.loc 1 69 28 view .LVU8
  30 0010 EF 17                   		mov.L	r1, r7
  31                             	.LVL4:
  70:../src/smc_gen/r_drw2d_rx/src/tes/dave_dlist.c **** 
  71:../src/smc_gen/r_drw2d_rx/src/tes/dave_dlist.c ****    if(NULL == dlb) 
  32                             		.loc 1 71 4 is_stmt 1 view .LVU9
  33                             		.loc 1 71 6 is_stmt 0 view .LVU10
  34 0012 61 01                   		cmp	#0, r1
  35 0014 20 41                   		beq	.L1
  72:../src/smc_gen/r_drw2d_rx/src/tes/dave_dlist.c ****    {
  73:../src/smc_gen/r_drw2d_rx/src/tes/dave_dlist.c ****       return NULL;
  74:../src/smc_gen/r_drw2d_rx/src/tes/dave_dlist.c ****    }
  75:../src/smc_gen/r_drw2d_rx/src/tes/dave_dlist.c **** 
  76:../src/smc_gen/r_drw2d_rx/src/tes/dave_dlist.c ****    /* fill block */
  77:../src/smc_gen/r_drw2d_rx/src/tes/dave_dlist.c ****    dlb->quantity = size;
  36                             		.loc 1 77 4 is_stmt 1 view .LVU11
  37                             		.loc 1 77 18 is_stmt 0 view .LVU12
  38 0016 A0 96                   		mov.L	r6, 8[r1]
  78:../src/smc_gen/r_drw2d_rx/src/tes/dave_dlist.c ****    dlb->jump   = NULL;
  39                             		.loc 1 78 4 is_stmt 1 view .LVU13
  40                             		.loc 1 78 16 is_stmt 0 view .LVU14
  41 0018 3E 13 00                		mov.L	#0, 12[r1]
  79:../src/smc_gen/r_drw2d_rx/src/tes/dave_dlist.c **** 
  80:../src/smc_gen/r_drw2d_rx/src/tes/dave_dlist.c ****    /* get block data */
  81:../src/smc_gen/r_drw2d_rx/src/tes/dave_dlist.c ****    if(0 == (D2_DEV(handle)->flags & d2_df_no_dlist)) 
  42                             		.loc 1 81 4 is_stmt 1 view .LVU15
  43                             		.loc 1 81 27 is_stmt 0 view .LVU16
  44 001b ED A5 1A                		mov.L	104[r10], r5
  45                             		.loc 1 81 6 view .LVU17
  46 001e FD 74 C5 01             		tst	#1, r5
  47 0022 21 38                   		bne	.L3
  82:../src/smc_gen/r_drw2d_rx/src/tes/dave_dlist.c ****    {
  83:../src/smc_gen/r_drw2d_rx/src/tes/dave_dlist.c ****       dlb->block = (d2_dlist_entry*) d2_getmem_d( handle, sizeof(d2_dlist_entry) * size );
  48                             		.loc 1 83 7 is_stmt 1 view .LVU18
  49                             		.loc 1 83 38 is_stmt 0 view .LVU19
  50 0024 75 42 14                		mov.L	#20, r2
  51 0027 4F 62                   		mul	r6, r2
  52 0029 EF A1                   		mov.L	r10, r1
  53                             	.LVL5:
  54                             		.loc 1 83 38 view .LVU20
  55 002b 05 00 00 00             		bsr	_d2_getmem_d
  56                             	.LVL6:
  57                             		.loc 1 83 18 view .LVU21
  58 002f A0 79                   		mov.L	r1, 4[r7]
  59                             	.L4:
  84:../src/smc_gen/r_drw2d_rx/src/tes/dave_dlist.c ****    } 
  85:../src/smc_gen/r_drw2d_rx/src/tes/dave_dlist.c ****    else
  86:../src/smc_gen/r_drw2d_rx/src/tes/dave_dlist.c ****    {
  87:../src/smc_gen/r_drw2d_rx/src/tes/dave_dlist.c ****       dlb->block = (d2_dlist_entry*) d2_getmem_p( sizeof(d2_dlist_entry) * size );
  88:../src/smc_gen/r_drw2d_rx/src/tes/dave_dlist.c ****    }
  89:../src/smc_gen/r_drw2d_rx/src/tes/dave_dlist.c **** 
  90:../src/smc_gen/r_drw2d_rx/src/tes/dave_dlist.c ****    if(NULL == dlb->block)
  60                             		.loc 1 90 4 is_stmt 1 view .LVU22
  61                             		.loc 1 90 18 is_stmt 0 view .LVU23
  62 0031 A8 7E                   		mov.L	4[r7], r6
  63                             	.LVL7:
  64                             		.loc 1 90 6 view .LVU24
  65 0033 61 06                   		cmp	#0, r6
  66 0035 20 32                   		beq	.L9
  91:../src/smc_gen/r_drw2d_rx/src/tes/dave_dlist.c ****    {
  92:../src/smc_gen/r_drw2d_rx/src/tes/dave_dlist.c ****       /* failed to get display list memory */
  93:../src/smc_gen/r_drw2d_rx/src/tes/dave_dlist.c ****       d2_freemem_p( dlb );
  94:../src/smc_gen/r_drw2d_rx/src/tes/dave_dlist.c ****       return NULL;
  95:../src/smc_gen/r_drw2d_rx/src/tes/dave_dlist.c ****    }
  96:../src/smc_gen/r_drw2d_rx/src/tes/dave_dlist.c **** 
  97:../src/smc_gen/r_drw2d_rx/src/tes/dave_dlist.c ****    dlb->vidmem = NULL;
  67                             		.loc 1 97 4 is_stmt 1 view .LVU25
  68                             		.loc 1 97 16 is_stmt 0 view .LVU26
  69 0037 3E 74 00                		mov.L	#0, 16[r7]
  98:../src/smc_gen/r_drw2d_rx/src/tes/dave_dlist.c ****    if(0 == (D2_DEV(handle)->flags & d2_df_no_dlist) ) 
  70                             		.loc 1 98 4 is_stmt 1 view .LVU27
  71                             		.loc 1 98 27 is_stmt 0 view .LVU28
  72 003a ED A5 1A                		mov.L	104[r10], r5
  73                             		.loc 1 98 6 view .LVU29
  74 003d FD 74 C5 01             		tst	#1, r5
  75 0041 21 11                   		bne	.L6
  99:../src/smc_gen/r_drw2d_rx/src/tes/dave_dlist.c ****    {
 100:../src/smc_gen/r_drw2d_rx/src/tes/dave_dlist.c ****       if(0 != (D2_DEV(handle)->hwmemarchitecture & d1_ma_mapped))
  76                             		.loc 1 100 7 is_stmt 1 view .LVU30
  77                             		.loc 1 100 30 is_stmt 0 view .LVU31
  78 0043 ED AA 21                		mov.L	132[r10], r10
  79                             	.LVL8:
  80                             		.loc 1 100 9 view .LVU32
  81 0046 FD 74 CA 10             		tst	#16, r10
  82 004a 21 27                   		bne	.L10
 101:../src/smc_gen/r_drw2d_rx/src/tes/dave_dlist.c ****       {
 102:../src/smc_gen/r_drw2d_rx/src/tes/dave_dlist.c ****          dlb->vidmem = d1_maptovidmem(id, dlb->block);
 103:../src/smc_gen/r_drw2d_rx/src/tes/dave_dlist.c ****       }
 104:../src/smc_gen/r_drw2d_rx/src/tes/dave_dlist.c ****       else if (0 != (D2_DEV(handle)->hwmemarchitecture & d1_ma_separated))
  83                             		.loc 1 104 12 is_stmt 1 view .LVU33
  84                             		.loc 1 104 15 is_stmt 0 view .LVU34
  85 004c FD 74 CA 02             		tst	#2, r10
  86 0050 21 2D                   		bne	.L11
  87                             		.balign 8,3,4
  88                             	.L6:
 105:../src/smc_gen/r_drw2d_rx/src/tes/dave_dlist.c ****       {
 106:../src/smc_gen/r_drw2d_rx/src/tes/dave_dlist.c ****          dlb->vidmem = d1_allocvidmem( id, d1_mem_dlist, sizeof(d2_dlist_entry) * dlb->quantity );
 107:../src/smc_gen/r_drw2d_rx/src/tes/dave_dlist.c ****       }
 108:../src/smc_gen/r_drw2d_rx/src/tes/dave_dlist.c ****       else
 109:../src/smc_gen/r_drw2d_rx/src/tes/dave_dlist.c ****       {
 110:../src/smc_gen/r_drw2d_rx/src/tes/dave_dlist.c ****          /* empty else block to satisfy MISRA rule 14.10/2004 */
 111:../src/smc_gen/r_drw2d_rx/src/tes/dave_dlist.c ****       }
  89                             		.loc 1 111 7 is_stmt 1 view .LVU35
 112:../src/smc_gen/r_drw2d_rx/src/tes/dave_dlist.c ****    }
 113:../src/smc_gen/r_drw2d_rx/src/tes/dave_dlist.c **** 
 114:../src/smc_gen/r_drw2d_rx/src/tes/dave_dlist.c ****    dlb->next = NULL;
  90                             		.loc 1 114 4 view .LVU36
  91                             		.loc 1 114 14 is_stmt 0 view .LVU37
  92 0052 F8 76 00                		mov.L	#0, [r7]
 115:../src/smc_gen/r_drw2d_rx/src/tes/dave_dlist.c **** 
 116:../src/smc_gen/r_drw2d_rx/src/tes/dave_dlist.c ****    return dlb;
  93                             		.loc 1 116 4 is_stmt 1 view .LVU38
  94                             	.LVL9:
  95                             	.L1:
 117:../src/smc_gen/r_drw2d_rx/src/tes/dave_dlist.c **** }
  96                             		.loc 1 117 1 is_stmt 0 view .LVU39
  97 0055 EF 71                   		mov.L	r7, r1
  98 0057 3F 6B 06                		rtsd	#24, r6-r11
  99                             	.LVL10:
 100                             	.L3:
  87:../src/smc_gen/r_drw2d_rx/src/tes/dave_dlist.c ****    }
 101                             		.loc 1 87 7 is_stmt 1 view .LVU40
  87:../src/smc_gen/r_drw2d_rx/src/tes/dave_dlist.c ****    }
 102                             		.loc 1 87 38 is_stmt 0 view .LVU41
 103 005a 75 41 14                		mov.L	#20, r1
 104                             	.LVL11:
  87:../src/smc_gen/r_drw2d_rx/src/tes/dave_dlist.c ****    }
 105                             		.loc 1 87 38 view .LVU42
 106 005d 4F 61                   		mul	r6, r1
 107 005f 05 00 00 00             		bsr	_d2_getmem_p
 108                             	.LVL12:
  87:../src/smc_gen/r_drw2d_rx/src/tes/dave_dlist.c ****    }
 109                             		.loc 1 87 18 view .LVU43
 110 0063 A0 79                   		mov.L	r1, 4[r7]
 111 0065 2E CC                   		bra	.L4
 112                             	.LVL13:
 113                             	.L9:
  93:../src/smc_gen/r_drw2d_rx/src/tes/dave_dlist.c ****       return NULL;
 114                             		.loc 1 93 7 is_stmt 1 view .LVU44
 115 0067 EF 71                   		mov.L	r7, r1
 116 0069 05 00 00 00             		bsr	_d2_freemem_p
 117                             	.LVL14:
  94:../src/smc_gen/r_drw2d_rx/src/tes/dave_dlist.c ****    }
 118                             		.loc 1 94 7 view .LVU45
  94:../src/smc_gen/r_drw2d_rx/src/tes/dave_dlist.c ****    }
 119                             		.loc 1 94 14 is_stmt 0 view .LVU46
 120 006d EF 67                   		mov.L	r6, r7
 121                             	.LVL15:
  94:../src/smc_gen/r_drw2d_rx/src/tes/dave_dlist.c ****    }
 122                             		.loc 1 94 14 view .LVU47
 123 006f 2E E6                   		bra	.L1
 124                             	.LVL16:
 125                             	.L10:
 102:../src/smc_gen/r_drw2d_rx/src/tes/dave_dlist.c ****       }
 126                             		.loc 1 102 10 is_stmt 1 view .LVU48
 102:../src/smc_gen/r_drw2d_rx/src/tes/dave_dlist.c ****       }
 127                             		.loc 1 102 24 is_stmt 0 view .LVU49
 128 0071 EF 62                   		mov.L	r6, r2
 129 0073 EF B1                   		mov.L	r11, r1
 130 0075 05 00 00 00             		bsr	_d1_maptovidmem
 131                             	.LVL17:
 102:../src/smc_gen/r_drw2d_rx/src/tes/dave_dlist.c ****       }
 132                             		.loc 1 102 22 view .LVU50
 133 0079 A1 71                   		mov.L	r1, 16[r7]
 134 007b 2E D7                   		bra	.L6
 135                             	.L11:
 106:../src/smc_gen/r_drw2d_rx/src/tes/dave_dlist.c ****       }
 136                             		.loc 1 106 10 is_stmt 1 view .LVU51
 106:../src/smc_gen/r_drw2d_rx/src/tes/dave_dlist.c ****       }
 137                             		.loc 1 106 86 is_stmt 0 view .LVU52
 138 007d A8 F3                   		mov.L	8[r7], r3
 106:../src/smc_gen/r_drw2d_rx/src/tes/dave_dlist.c ****       }
 139                             		.loc 1 106 24 view .LVU53
 140 007f 75 13 14                		mul	#20, r3
 141 0082 66 42                   		mov.L	#4, r2
 142 0084 EF B1                   		mov.L	r11, r1
 143 0086 05 00 00 00             		bsr	_d1_allocvidmem
 144                             	.LVL18:
 106:../src/smc_gen/r_drw2d_rx/src/tes/dave_dlist.c ****       }
 145                             		.loc 1 106 22 view .LVU54
 146 008a A1 71                   		mov.L	r1, 16[r7]
 147 008c 2E C6                   		bra	.L6
 148                             	.LFE6:
 150 008e EF 00                   		.section	.text.d2_free_dlistblock_intern,"ax",@progbits
 151                             		.global	_d2_free_dlistblock_intern
 153                             	_d2_free_dlistblock_intern:
 154                             	.LVL19:
 155                             	.LFB7:
 118:../src/smc_gen/r_drw2d_rx/src/tes/dave_dlist.c **** 
 119:../src/smc_gen/r_drw2d_rx/src/tes/dave_dlist.c **** /*--------------------------------------------------------------------------
 120:../src/smc_gen/r_drw2d_rx/src/tes/dave_dlist.c ****  * free display list block.
 121:../src/smc_gen/r_drw2d_rx/src/tes/dave_dlist.c ****  * free the specified display list block and all childs in its chain
 122:../src/smc_gen/r_drw2d_rx/src/tes/dave_dlist.c ****  * */
 123:../src/smc_gen/r_drw2d_rx/src/tes/dave_dlist.c **** void d2_free_dlistblock_intern( const d2_device *handle, d2_dlist_block *data )
 124:../src/smc_gen/r_drw2d_rx/src/tes/dave_dlist.c **** {
 156                             		.loc 1 124 1 is_stmt 1 view -0
 157                             		.loc 1 124 1 is_stmt 0 view .LVU56
 158 0000 6E 6B                   		pushm	r6-r11
 159                             	.LCFI1:
 160 0002 EF 1A                   		mov.L	r1, r10
 161 0004 EF 27                   		mov.L	r2, r7
 125:../src/smc_gen/r_drw2d_rx/src/tes/dave_dlist.c ****    d2_dlist_block *n;
 162                             		.loc 1 125 4 is_stmt 1 view .LVU57
 126:../src/smc_gen/r_drw2d_rx/src/tes/dave_dlist.c ****    d1_device      *id = D2_DEV(handle)->hwid;
 163                             		.loc 1 126 4 view .LVU58
 164                             		.loc 1 126 20 is_stmt 0 view .LVU59
 165 0006 ED 1B 06                		mov.L	24[r1], r11
 166                             	.LVL20:
 127:../src/smc_gen/r_drw2d_rx/src/tes/dave_dlist.c **** 
 128:../src/smc_gen/r_drw2d_rx/src/tes/dave_dlist.c ****    /* free chain */
 129:../src/smc_gen/r_drw2d_rx/src/tes/dave_dlist.c ****    while(NULL != data)
 167                             		.loc 1 129 4 is_stmt 1 view .LVU60
 168                             		.loc 1 129 9 is_stmt 0 view .LVU61
 169 0009 2E 1A                   		bra	.L13
 170                             	.LVL21:
 171                             	.L14:
 130:../src/smc_gen/r_drw2d_rx/src/tes/dave_dlist.c ****    {
 131:../src/smc_gen/r_drw2d_rx/src/tes/dave_dlist.c ****       n = data->next;
 132:../src/smc_gen/r_drw2d_rx/src/tes/dave_dlist.c ****       if(0 == (D2_DEV(handle)->flags & d2_df_no_dlist)) 
 133:../src/smc_gen/r_drw2d_rx/src/tes/dave_dlist.c ****       {
 134:../src/smc_gen/r_drw2d_rx/src/tes/dave_dlist.c ****           d2_freemem_d( handle, data->block );
 135:../src/smc_gen/r_drw2d_rx/src/tes/dave_dlist.c ****       }
 136:../src/smc_gen/r_drw2d_rx/src/tes/dave_dlist.c ****       else
 137:../src/smc_gen/r_drw2d_rx/src/tes/dave_dlist.c ****       {
 138:../src/smc_gen/r_drw2d_rx/src/tes/dave_dlist.c ****           d2_freemem_p( data->block );
 172                             		.loc 1 138 11 is_stmt 1 view .LVU62
 173 000b A8 79                   		mov.L	4[r7], r1
 174 000d 05 00 00 00             		bsr	_d2_freemem_p
 175                             	.LVL22:
 176 0011 2E 29                   		bra	.L15
 177                             	.L20:
 139:../src/smc_gen/r_drw2d_rx/src/tes/dave_dlist.c ****       }
 140:../src/smc_gen/r_drw2d_rx/src/tes/dave_dlist.c ****       if( (NULL != data->vidmem) && (0 != ((D2_DEV(handle)->hwmemarchitecture) & d1_ma_separated)) 
 141:../src/smc_gen/r_drw2d_rx/src/tes/dave_dlist.c ****       {
 142:../src/smc_gen/r_drw2d_rx/src/tes/dave_dlist.c ****          d1_freevidmem( id, d1_mem_dlist, data->vidmem );
 178                             		.loc 1 142 10 view .LVU63
 179 0013 66 42                   		mov.L	#4, r2
 180 0015 EF B1                   		mov.L	r11, r1
 181 0017 05 00 00 00             		bsr	_d1_freevidmem
 182                             	.LVL23:
 183                             	.L16:
 143:../src/smc_gen/r_drw2d_rx/src/tes/dave_dlist.c ****       }
 144:../src/smc_gen/r_drw2d_rx/src/tes/dave_dlist.c ****       d2_freemem_p( data );
 184                             		.loc 1 144 7 view .LVU64
 185 001b EF 71                   		mov.L	r7, r1
 186 001d 05 00 00 00             		bsr	_d2_freemem_p
 187                             	.LVL24:
 145:../src/smc_gen/r_drw2d_rx/src/tes/dave_dlist.c ****       data = n;
 188                             		.loc 1 145 7 view .LVU65
 189                             		.loc 1 145 12 is_stmt 0 view .LVU66
 190 0021 EF 67                   		mov.L	r6, r7
 191                             	.LVL25:
 192                             	.L13:
 129:../src/smc_gen/r_drw2d_rx/src/tes/dave_dlist.c ****    {
 193                             		.loc 1 129 9 view .LVU67
 194 0023 61 07                   		cmp	#0, r7
 195 0025 20 26                   		beq	.L19
 131:../src/smc_gen/r_drw2d_rx/src/tes/dave_dlist.c ****       if(0 == (D2_DEV(handle)->flags & d2_df_no_dlist)) 
 196                             		.loc 1 131 7 is_stmt 1 view .LVU68
 131:../src/smc_gen/r_drw2d_rx/src/tes/dave_dlist.c ****       if(0 == (D2_DEV(handle)->flags & d2_df_no_dlist)) 
 197                             		.loc 1 131 9 is_stmt 0 view .LVU69
 198 0027 EC 76                   		mov.L	[r7], r6
 199                             	.LVL26:
 132:../src/smc_gen/r_drw2d_rx/src/tes/dave_dlist.c ****       {
 200                             		.loc 1 132 7 is_stmt 1 view .LVU70
 132:../src/smc_gen/r_drw2d_rx/src/tes/dave_dlist.c ****       {
 201                             		.loc 1 132 30 is_stmt 0 view .LVU71
 202 0029 ED A5 1A                		mov.L	104[r10], r5
 132:../src/smc_gen/r_drw2d_rx/src/tes/dave_dlist.c ****       {
 203                             		.loc 1 132 9 view .LVU72
 204 002c FD 74 C5 01             		tst	#1, r5
 205 0030 21 DB                   		bne	.L14
 134:../src/smc_gen/r_drw2d_rx/src/tes/dave_dlist.c ****       }
 206                             		.loc 1 134 11 is_stmt 1 view .LVU73
 207 0032 A8 7A                   		mov.L	4[r7], r2
 208 0034 EF A1                   		mov.L	r10, r1
 209 0036 05 00 00 00             		bsr	_d2_freemem_d
 210                             	.LVL27:
 211                             	.L15:
 140:../src/smc_gen/r_drw2d_rx/src/tes/dave_dlist.c ****       {
 212                             		.loc 1 140 7 view .LVU74
 140:../src/smc_gen/r_drw2d_rx/src/tes/dave_dlist.c ****       {
 213                             		.loc 1 140 24 is_stmt 0 view .LVU75
 214 003a A9 73                   		mov.L	16[r7], r3
 140:../src/smc_gen/r_drw2d_rx/src/tes/dave_dlist.c ****       {
 215                             		.loc 1 140 9 view .LVU76
 216 003c 61 03                   		cmp	#0, r3
 217 003e 20 DD                   		beq	.L16
 140:../src/smc_gen/r_drw2d_rx/src/tes/dave_dlist.c ****       {
 218                             		.loc 1 140 59 discriminator 1 view .LVU77
 219 0040 ED A5 21                		mov.L	132[r10], r5
 140:../src/smc_gen/r_drw2d_rx/src/tes/dave_dlist.c ****       {
 220                             		.loc 1 140 34 discriminator 1 view .LVU78
 221 0043 FD 74 C5 02             		tst	#2, r5
 222 0047 20 D4                   		beq	.L16
 223 0049 2E CA                   		bra	.L20
 224                             	.LVL28:
 225                             	.L19:
 146:../src/smc_gen/r_drw2d_rx/src/tes/dave_dlist.c ****    }
 147:../src/smc_gen/r_drw2d_rx/src/tes/dave_dlist.c **** }
 226                             		.loc 1 147 1 view .LVU79
 227 004b 3F 6B 06                		rtsd	#24, r6-r11
 228                             		.loc 1 147 1 view .LVU80
 229                             	.LFE7:
 231                             		.section	.text.d2_growdlist_intern,"ax",@progbits
 232                             		.global	_d2_growdlist_intern
 234                             	_d2_growdlist_intern:
 235                             	.LVL29:
 236                             	.LFB8:
 148:../src/smc_gen/r_drw2d_rx/src/tes/dave_dlist.c **** 
 149:../src/smc_gen/r_drw2d_rx/src/tes/dave_dlist.c **** /*--------------------------------------------------------------------------
 150:../src/smc_gen/r_drw2d_rx/src/tes/dave_dlist.c ****  * grow display list.
 151:../src/smc_gen/r_drw2d_rx/src/tes/dave_dlist.c ****  * allocate a new display block and chain it into the list. new block becomes
 152:../src/smc_gen/r_drw2d_rx/src/tes/dave_dlist.c ****  * current block automatically.
 153:../src/smc_gen/r_drw2d_rx/src/tes/dave_dlist.c ****  * */
 154:../src/smc_gen/r_drw2d_rx/src/tes/dave_dlist.c **** void d2_growdlist_intern( d2_dlist *dlist )
 155:../src/smc_gen/r_drw2d_rx/src/tes/dave_dlist.c **** {
 237                             		.loc 1 155 1 is_stmt 1 view -0
 238                             		.loc 1 155 1 is_stmt 0 view .LVU82
 239 0000 7E A7                   		push.l	r7
 240                             	.LCFI2:
 241 0002 EF 17                   		mov.L	r1, r7
 156:../src/smc_gen/r_drw2d_rx/src/tes/dave_dlist.c ****    d2_dlist_block *n;
 242                             		.loc 1 156 4 is_stmt 1 view .LVU83
 157:../src/smc_gen/r_drw2d_rx/src/tes/dave_dlist.c **** 
 158:../src/smc_gen/r_drw2d_rx/src/tes/dave_dlist.c ****    n = dlist->currentblock->next;
 243                             		.loc 1 158 4 view .LVU84
 244                             		.loc 1 158 13 is_stmt 0 view .LVU85
 245 0004 A8 95                   		mov.L	8[r1], r5
 246                             		.loc 1 158 6 view .LVU86
 247 0006 EC 51                   		mov.L	[r5], r1
 248                             	.LVL30:
 159:../src/smc_gen/r_drw2d_rx/src/tes/dave_dlist.c ****    if(NULL == n)
 249                             		.loc 1 159 4 is_stmt 1 view .LVU87
 250                             		.loc 1 159 6 is_stmt 0 view .LVU88
 251 0008 61 01                   		cmp	#0, r1
 252 000a 20 12                   		beq	.L26
 253                             	.L22:
 160:../src/smc_gen/r_drw2d_rx/src/tes/dave_dlist.c ****    {
 161:../src/smc_gen/r_drw2d_rx/src/tes/dave_dlist.c ****       /* need a new block */
 162:../src/smc_gen/r_drw2d_rx/src/tes/dave_dlist.c ****       n = d2_alloc_dlistblock_intern( dlist->device, dlist->stepsize );
 163:../src/smc_gen/r_drw2d_rx/src/tes/dave_dlist.c ****       if(NULL == n)
 164:../src/smc_gen/r_drw2d_rx/src/tes/dave_dlist.c ****       {
 165:../src/smc_gen/r_drw2d_rx/src/tes/dave_dlist.c ****          D2_DEV(dlist->device)->delayed_errorcode = D2_NOT_ENOUGH_DLISTBLOCKS;
 166:../src/smc_gen/r_drw2d_rx/src/tes/dave_dlist.c ****          return;
 167:../src/smc_gen/r_drw2d_rx/src/tes/dave_dlist.c ****       }
 168:../src/smc_gen/r_drw2d_rx/src/tes/dave_dlist.c ****       /* chain blocks */
 169:../src/smc_gen/r_drw2d_rx/src/tes/dave_dlist.c ****       dlist->currentblock->next = n;
 170:../src/smc_gen/r_drw2d_rx/src/tes/dave_dlist.c ****    }
 171:../src/smc_gen/r_drw2d_rx/src/tes/dave_dlist.c **** 
 172:../src/smc_gen/r_drw2d_rx/src/tes/dave_dlist.c ****    /* reset patch address */
 173:../src/smc_gen/r_drw2d_rx/src/tes/dave_dlist.c ****    n->jump = NULL;
 254                             		.loc 1 173 4 is_stmt 1 view .LVU89
 255                             		.loc 1 173 12 is_stmt 0 view .LVU90
 256 000c 3E 13 00                		mov.L	#0, 12[r1]
 174:../src/smc_gen/r_drw2d_rx/src/tes/dave_dlist.c **** 
 175:../src/smc_gen/r_drw2d_rx/src/tes/dave_dlist.c ****    /* switch to next block */
 176:../src/smc_gen/r_drw2d_rx/src/tes/dave_dlist.c ****    dlist->position     = n->block;
 257                             		.loc 1 176 4 is_stmt 1 view .LVU91
 258                             		.loc 1 176 24 is_stmt 0 view .LVU92
 259 000f E5 17 01 04             		mov.L	4[r1], 16[r7]
 177:../src/smc_gen/r_drw2d_rx/src/tes/dave_dlist.c ****    dlist->blocksize    = n->quantity;
 260                             		.loc 1 177 4 is_stmt 1 view .LVU93
 261                             		.loc 1 177 24 is_stmt 0 view .LVU94
 262 0013 E5 17 02 07             		mov.L	8[r1], 28[r7]
 178:../src/smc_gen/r_drw2d_rx/src/tes/dave_dlist.c ****    dlist->currentblock = n;
 263                             		.loc 1 178 4 is_stmt 1 view .LVU95
 264                             		.loc 1 178 24 is_stmt 0 view .LVU96
 265 0017 A0 F1                   		mov.L	r1, 8[r7]
 266                             	.LVL31:
 267                             	.L21:
 179:../src/smc_gen/r_drw2d_rx/src/tes/dave_dlist.c **** 
 180:../src/smc_gen/r_drw2d_rx/src/tes/dave_dlist.c ****    /* tagindex is reset outside */
 181:../src/smc_gen/r_drw2d_rx/src/tes/dave_dlist.c **** }
 268                             		.loc 1 181 1 view .LVU97
 269 0019 3F 77 01                		rtsd	#4, r7-r7
 270                             	.LVL32:
 271                             	.L26:
 162:../src/smc_gen/r_drw2d_rx/src/tes/dave_dlist.c ****       if(NULL == n)
 272                             		.loc 1 162 7 is_stmt 1 view .LVU98
 162:../src/smc_gen/r_drw2d_rx/src/tes/dave_dlist.c ****       if(NULL == n)
 273                             		.loc 1 162 11 is_stmt 0 view .LVU99
 274 001c AA 72                   		mov.L	32[r7], r2
 275 001e EC 71                   		mov.L	[r7], r1
 276                             	.LVL33:
 162:../src/smc_gen/r_drw2d_rx/src/tes/dave_dlist.c ****       if(NULL == n)
 277                             		.loc 1 162 11 view .LVU100
 278 0020 05 00 00 00             		bsr	_d2_alloc_dlistblock_intern
 279                             	.LVL34:
 163:../src/smc_gen/r_drw2d_rx/src/tes/dave_dlist.c ****       {
 280                             		.loc 1 163 7 is_stmt 1 view .LVU101
 163:../src/smc_gen/r_drw2d_rx/src/tes/dave_dlist.c ****       {
 281                             		.loc 1 163 9 is_stmt 0 view .LVU102
 282 0024 61 01                   		cmp	#0, r1
 283 0026 17                      		beq	.L27
 169:../src/smc_gen/r_drw2d_rx/src/tes/dave_dlist.c ****    }
 284                             		.loc 1 169 7 is_stmt 1 view .LVU103
 169:../src/smc_gen/r_drw2d_rx/src/tes/dave_dlist.c ****    }
 285                             		.loc 1 169 12 is_stmt 0 view .LVU104
 286 0027 A8 F5                   		mov.L	8[r7], r5
 169:../src/smc_gen/r_drw2d_rx/src/tes/dave_dlist.c ****    }
 287                             		.loc 1 169 33 view .LVU105
 288 0029 E3 51                   		mov.L	r1, [r5]
 289 002b 2E E1                   		bra	.L22
 290                             	.L27:
 165:../src/smc_gen/r_drw2d_rx/src/tes/dave_dlist.c ****          return;
 291                             		.loc 1 165 10 is_stmt 1 view .LVU106
 292 002d EC 77                   		mov.L	[r7], r7
 293                             	.LVL35:
 165:../src/smc_gen/r_drw2d_rx/src/tes/dave_dlist.c ****          return;
 294                             		.loc 1 165 51 is_stmt 0 view .LVU107
 295 002f FA 74 C7 01 15          		mov.B	#21, 455[r7]
 166:../src/smc_gen/r_drw2d_rx/src/tes/dave_dlist.c ****       }
 296                             		.loc 1 166 10 is_stmt 1 view .LVU108
 297 0034 2E E5                   		bra	.L21
 298                             	.LFE8:
 300                             		.section	.text.d2_deinitdlist_intern,"ax",@progbits
 301                             		.global	_d2_deinitdlist_intern
 303                             	_d2_deinitdlist_intern:
 304                             	.LVL36:
 305                             	.LFB10:
 182:../src/smc_gen/r_drw2d_rx/src/tes/dave_dlist.c **** 
 183:../src/smc_gen/r_drw2d_rx/src/tes/dave_dlist.c **** /*--------------------------------------------------------------------------
 184:../src/smc_gen/r_drw2d_rx/src/tes/dave_dlist.c ****  * init display list.
 185:../src/smc_gen/r_drw2d_rx/src/tes/dave_dlist.c ****  * prepare a display list structure for usage. creates an initial block.
 186:../src/smc_gen/r_drw2d_rx/src/tes/dave_dlist.c ****  * returns boolean success.
 187:../src/smc_gen/r_drw2d_rx/src/tes/dave_dlist.c ****  * */
 188:../src/smc_gen/r_drw2d_rx/src/tes/dave_dlist.c **** d2_s32 d2_initdlist_intern( d2_device *handle, d2_dlist *dlist, d2_u32 initialsize )
 189:../src/smc_gen/r_drw2d_rx/src/tes/dave_dlist.c **** {
 190:../src/smc_gen/r_drw2d_rx/src/tes/dave_dlist.c ****    void *current_dlist_start;
 191:../src/smc_gen/r_drw2d_rx/src/tes/dave_dlist.c ****    dlist->device = handle;
 192:../src/smc_gen/r_drw2d_rx/src/tes/dave_dlist.c ****    dlist->vidmem_blocks = NULL;
 193:../src/smc_gen/r_drw2d_rx/src/tes/dave_dlist.c **** 
 194:../src/smc_gen/r_drw2d_rx/src/tes/dave_dlist.c ****    if(0 != D2_DEV(handle)->lowlocalmem_mode)
 195:../src/smc_gen/r_drw2d_rx/src/tes/dave_dlist.c ****    {
 196:../src/smc_gen/r_drw2d_rx/src/tes/dave_dlist.c ****       d2_lowlocalmem_mode* llm_mode = D2_DEV(handle)->lowlocalmem_mode;
 197:../src/smc_gen/r_drw2d_rx/src/tes/dave_dlist.c ****       dlist->firstblock = llm_mode->dlist_buffer;
 198:../src/smc_gen/r_drw2d_rx/src/tes/dave_dlist.c **** 
 199:../src/smc_gen/r_drw2d_rx/src/tes/dave_dlist.c ****       dlist->vidmem_blocks = d2_getmem_p(sizeof(d2_dlist_vidmem_blocks));
 200:../src/smc_gen/r_drw2d_rx/src/tes/dave_dlist.c **** 
 201:../src/smc_gen/r_drw2d_rx/src/tes/dave_dlist.c ****       if(NULL == dlist->vidmem_blocks) 
 202:../src/smc_gen/r_drw2d_rx/src/tes/dave_dlist.c ****       {
 203:../src/smc_gen/r_drw2d_rx/src/tes/dave_dlist.c ****          return 0;
 204:../src/smc_gen/r_drw2d_rx/src/tes/dave_dlist.c ****       }
 205:../src/smc_gen/r_drw2d_rx/src/tes/dave_dlist.c **** 
 206:../src/smc_gen/r_drw2d_rx/src/tes/dave_dlist.c ****       {
 207:../src/smc_gen/r_drw2d_rx/src/tes/dave_dlist.c ****          d2_dlist_vidmem_blocks *vmem_blocks = dlist->vidmem_blocks;
 208:../src/smc_gen/r_drw2d_rx/src/tes/dave_dlist.c ****          d2_u32 i;
 209:../src/smc_gen/r_drw2d_rx/src/tes/dave_dlist.c ****          vmem_blocks->blocks = d2_getmem_p(llm_mode->vidmemblocks * sizeof(void*));
 210:../src/smc_gen/r_drw2d_rx/src/tes/dave_dlist.c ****          if(NULL == vmem_blocks->blocks)
 211:../src/smc_gen/r_drw2d_rx/src/tes/dave_dlist.c ****          {
 212:../src/smc_gen/r_drw2d_rx/src/tes/dave_dlist.c ****             return 0;
 213:../src/smc_gen/r_drw2d_rx/src/tes/dave_dlist.c ****          }
 214:../src/smc_gen/r_drw2d_rx/src/tes/dave_dlist.c ****          vmem_blocks->num_blocks = llm_mode->vidmemblocks;
 215:../src/smc_gen/r_drw2d_rx/src/tes/dave_dlist.c ****          vmem_blocks->block_size = llm_mode->vidmemblocksizefactor * D2_DEV(handle)->dlistblocksize
 216:../src/smc_gen/r_drw2d_rx/src/tes/dave_dlist.c ****          vmem_blocks->num_slices = llm_mode->vidmemblocksizefactor;
 217:../src/smc_gen/r_drw2d_rx/src/tes/dave_dlist.c **** 
 218:../src/smc_gen/r_drw2d_rx/src/tes/dave_dlist.c ****          for (i=0; i<vmem_blocks->num_blocks; ++i)
 219:../src/smc_gen/r_drw2d_rx/src/tes/dave_dlist.c ****          {
 220:../src/smc_gen/r_drw2d_rx/src/tes/dave_dlist.c ****             vmem_blocks->blocks[i] = NULL;
 221:../src/smc_gen/r_drw2d_rx/src/tes/dave_dlist.c ****          }
 222:../src/smc_gen/r_drw2d_rx/src/tes/dave_dlist.c ****          vmem_blocks->currentblock = vmem_blocks->blocks;
 223:../src/smc_gen/r_drw2d_rx/src/tes/dave_dlist.c ****          /* allocate first block in vidmem */
 224:../src/smc_gen/r_drw2d_rx/src/tes/dave_dlist.c ****          vmem_blocks->blocks[0] = d1_allocvidmem(D2_DEV(handle)->hwid, d1_mem_dlist, sizeof(d2_dlis
 225:../src/smc_gen/r_drw2d_rx/src/tes/dave_dlist.c ****          if(NULL == vmem_blocks->blocks[0]) 
 226:../src/smc_gen/r_drw2d_rx/src/tes/dave_dlist.c ****          {
 227:../src/smc_gen/r_drw2d_rx/src/tes/dave_dlist.c ****             return 0;
 228:../src/smc_gen/r_drw2d_rx/src/tes/dave_dlist.c ****          }
 229:../src/smc_gen/r_drw2d_rx/src/tes/dave_dlist.c ****          vmem_blocks->currentaddress = vmem_blocks->blocks[0];
 230:../src/smc_gen/r_drw2d_rx/src/tes/dave_dlist.c ****          vmem_blocks->blocksleft = vmem_blocks->num_blocks;
 231:../src/smc_gen/r_drw2d_rx/src/tes/dave_dlist.c ****          vmem_blocks->slicesleft = vmem_blocks->num_slices;
 232:../src/smc_gen/r_drw2d_rx/src/tes/dave_dlist.c ****       }
 233:../src/smc_gen/r_drw2d_rx/src/tes/dave_dlist.c ****    }
 234:../src/smc_gen/r_drw2d_rx/src/tes/dave_dlist.c ****    else
 235:../src/smc_gen/r_drw2d_rx/src/tes/dave_dlist.c ****    {
 236:../src/smc_gen/r_drw2d_rx/src/tes/dave_dlist.c ****       dlist->firstblock = d2_alloc_dlistblock_intern( handle, initialsize );
 237:../src/smc_gen/r_drw2d_rx/src/tes/dave_dlist.c ****    }
 238:../src/smc_gen/r_drw2d_rx/src/tes/dave_dlist.c ****    dlist->resumeblock = dlist->firstblock;
 239:../src/smc_gen/r_drw2d_rx/src/tes/dave_dlist.c **** 
 240:../src/smc_gen/r_drw2d_rx/src/tes/dave_dlist.c ****    if(NULL == dlist->firstblock) 
 241:../src/smc_gen/r_drw2d_rx/src/tes/dave_dlist.c ****    {
 242:../src/smc_gen/r_drw2d_rx/src/tes/dave_dlist.c ****       return 0;
 243:../src/smc_gen/r_drw2d_rx/src/tes/dave_dlist.c ****    }
 244:../src/smc_gen/r_drw2d_rx/src/tes/dave_dlist.c **** 
 245:../src/smc_gen/r_drw2d_rx/src/tes/dave_dlist.c ****    dlist->currentblock = dlist->firstblock;
 246:../src/smc_gen/r_drw2d_rx/src/tes/dave_dlist.c ****    dlist->position = dlist->firstblock->block;
 247:../src/smc_gen/r_drw2d_rx/src/tes/dave_dlist.c ****    dlist->blocksize = dlist->firstblock->quantity;
 248:../src/smc_gen/r_drw2d_rx/src/tes/dave_dlist.c ****    dlist->tagindex = 0;
 249:../src/smc_gen/r_drw2d_rx/src/tes/dave_dlist.c ****    dlist->shrinkcount = 0;
 250:../src/smc_gen/r_drw2d_rx/src/tes/dave_dlist.c ****    dlist->count = 0;
 251:../src/smc_gen/r_drw2d_rx/src/tes/dave_dlist.c **** 
 252:../src/smc_gen/r_drw2d_rx/src/tes/dave_dlist.c ****    dlist->dlist_addresses_max = DLIST_ADRESSES_NUMBER;
 253:../src/smc_gen/r_drw2d_rx/src/tes/dave_dlist.c ****    dlist->dlist_addresses     = d2_getmem_p(DLIST_ADRESSES_NUMBER*sizeof(d2_s32*));
 254:../src/smc_gen/r_drw2d_rx/src/tes/dave_dlist.c ****    if(NULL == dlist->dlist_addresses) 
 255:../src/smc_gen/r_drw2d_rx/src/tes/dave_dlist.c ****    {
 256:../src/smc_gen/r_drw2d_rx/src/tes/dave_dlist.c ****       return 0;
 257:../src/smc_gen/r_drw2d_rx/src/tes/dave_dlist.c ****    }
 258:../src/smc_gen/r_drw2d_rx/src/tes/dave_dlist.c **** 
 259:../src/smc_gen/r_drw2d_rx/src/tes/dave_dlist.c ****    if(NULL != dlist->vidmem_blocks)
 260:../src/smc_gen/r_drw2d_rx/src/tes/dave_dlist.c ****    {
 261:../src/smc_gen/r_drw2d_rx/src/tes/dave_dlist.c ****       /* low localmem mode: vidmem is already filled */
 262:../src/smc_gen/r_drw2d_rx/src/tes/dave_dlist.c ****       current_dlist_start = dlist->vidmem_blocks->blocks[0];
 263:../src/smc_gen/r_drw2d_rx/src/tes/dave_dlist.c ****    }
 264:../src/smc_gen/r_drw2d_rx/src/tes/dave_dlist.c ****    else if( (0 != ((D2_DEV(handle)->hwmemarchitecture) & (d1_ma_separated | d1_ma_mapped))) && (NUL
 265:../src/smc_gen/r_drw2d_rx/src/tes/dave_dlist.c ****    {
 266:../src/smc_gen/r_drw2d_rx/src/tes/dave_dlist.c ****       current_dlist_start = dlist->firstblock->vidmem;
 267:../src/smc_gen/r_drw2d_rx/src/tes/dave_dlist.c ****    }
 268:../src/smc_gen/r_drw2d_rx/src/tes/dave_dlist.c ****    else
 269:../src/smc_gen/r_drw2d_rx/src/tes/dave_dlist.c ****    {
 270:../src/smc_gen/r_drw2d_rx/src/tes/dave_dlist.c ****       current_dlist_start = dlist->firstblock->block;
 271:../src/smc_gen/r_drw2d_rx/src/tes/dave_dlist.c ****    }
 272:../src/smc_gen/r_drw2d_rx/src/tes/dave_dlist.c ****    /* reset list of dlist start addresses */
 273:../src/smc_gen/r_drw2d_rx/src/tes/dave_dlist.c ****    d2_clear_dlistlist_intern(handle, dlist);
 274:../src/smc_gen/r_drw2d_rx/src/tes/dave_dlist.c ****    (void)d2_add_dlistlist_intern(handle, dlist, current_dlist_start);
 275:../src/smc_gen/r_drw2d_rx/src/tes/dave_dlist.c **** 
 276:../src/smc_gen/r_drw2d_rx/src/tes/dave_dlist.c ****    return 1;
 277:../src/smc_gen/r_drw2d_rx/src/tes/dave_dlist.c **** }
 278:../src/smc_gen/r_drw2d_rx/src/tes/dave_dlist.c **** 
 279:../src/smc_gen/r_drw2d_rx/src/tes/dave_dlist.c **** 
 280:../src/smc_gen/r_drw2d_rx/src/tes/dave_dlist.c **** /*--------------------------------------------------------------------------
 281:../src/smc_gen/r_drw2d_rx/src/tes/dave_dlist.c ****  * de-initialize display list.
 282:../src/smc_gen/r_drw2d_rx/src/tes/dave_dlist.c ****  * free all allocated memory areas
 283:../src/smc_gen/r_drw2d_rx/src/tes/dave_dlist.c ****  * */
 284:../src/smc_gen/r_drw2d_rx/src/tes/dave_dlist.c **** void d2_deinitdlist_intern(const d2_dlist *dlist)
 285:../src/smc_gen/r_drw2d_rx/src/tes/dave_dlist.c **** {
 306                             		.loc 1 285 1 view -0
 307                             		.loc 1 285 1 is_stmt 0 view .LVU110
 308 0000 6E 6A                   		pushm	r6-r10
 309                             	.LCFI3:
 310 0002 EF 1A                   		mov.L	r1, r10
 286:../src/smc_gen/r_drw2d_rx/src/tes/dave_dlist.c ****    if(NULL != dlist->vidmem_blocks)
 311                             		.loc 1 286 4 is_stmt 1 view .LVU111
 312                             		.loc 1 286 20 is_stmt 0 view .LVU112
 313 0004 A9 1F                   		mov.L	20[r1], r7
 314                             		.loc 1 286 6 view .LVU113
 315 0006 61 07                   		cmp	#0, r7
 316 0008 20 42                   		beq	.L29
 317                             	.LBB18:
 287:../src/smc_gen/r_drw2d_rx/src/tes/dave_dlist.c ****    {
 288:../src/smc_gen/r_drw2d_rx/src/tes/dave_dlist.c ****       d2_u32 i;
 318                             		.loc 1 288 7 is_stmt 1 view .LVU114
 289:../src/smc_gen/r_drw2d_rx/src/tes/dave_dlist.c ****       d1_device *id = D2_DEV(dlist->device)->hwid;
 319                             		.loc 1 289 7 view .LVU115
 320                             		.loc 1 289 23 is_stmt 0 view .LVU116
 321 000a EC 17                   		mov.L	[r1], r7
 322                             		.loc 1 289 18 view .LVU117
 323 000c A9 F6                   		mov.L	24[r7], r6
 324                             	.LVL37:
 290:../src/smc_gen/r_drw2d_rx/src/tes/dave_dlist.c ****       for (i=0; i<dlist->vidmem_blocks->num_blocks; ++i)
 325                             		.loc 1 290 7 is_stmt 1 view .LVU118
 326                             		.loc 1 290 13 is_stmt 0 view .LVU119
 327 000e 66 07                   		mov.L	#0, r7
 328                             		.loc 1 290 7 view .LVU120
 329 0010 2E 0C                   		bra	.L30
 330                             	.LVL38:
 331                             	.L37:
 291:../src/smc_gen/r_drw2d_rx/src/tes/dave_dlist.c ****       {
 292:../src/smc_gen/r_drw2d_rx/src/tes/dave_dlist.c ****          if(NULL != dlist->vidmem_blocks->blocks[i])
 293:../src/smc_gen/r_drw2d_rx/src/tes/dave_dlist.c ****          {
 294:../src/smc_gen/r_drw2d_rx/src/tes/dave_dlist.c ****             d1_freevidmem(id, d1_mem_dlist, dlist->vidmem_blocks->blocks[i]);
 332                             		.loc 1 294 13 is_stmt 1 view .LVU121
 333 0012 66 42                   		mov.L	#4, r2
 334 0014 EF 61                   		mov.L	r6, r1
 335 0016 05 00 00 00             		bsr	_d1_freevidmem
 336                             	.LVL39:
 337                             	.L31:
 290:../src/smc_gen/r_drw2d_rx/src/tes/dave_dlist.c ****       for (i=0; i<dlist->vidmem_blocks->num_blocks; ++i)
 338                             		.loc 1 290 53 is_stmt 0 discriminator 2 view .LVU122
 339 001a 62 17                   		add	#1, r7
 340                             	.LVL40:
 341                             	.L30:
 290:../src/smc_gen/r_drw2d_rx/src/tes/dave_dlist.c ****       for (i=0; i<dlist->vidmem_blocks->num_blocks; ++i)
 342                             		.loc 1 290 24 discriminator 1 view .LVU123
 343 001c ED A5 05                		mov.L	20[r10], r5
 290:../src/smc_gen/r_drw2d_rx/src/tes/dave_dlist.c ****       for (i=0; i<dlist->vidmem_blocks->num_blocks; ++i)
 344                             		.loc 1 290 39 discriminator 1 view .LVU124
 345 001f A8 5C                   		mov.L	4[r5], r4
 290:../src/smc_gen/r_drw2d_rx/src/tes/dave_dlist.c ****       for (i=0; i<dlist->vidmem_blocks->num_blocks; ++i)
 346                             		.loc 1 290 7 discriminator 1 view .LVU125
 347 0021 47 74                   		cmp	r7, r4
 348 0023 25 0D                   		bleu	.L36
 292:../src/smc_gen/r_drw2d_rx/src/tes/dave_dlist.c ****          {
 349                             		.loc 1 292 10 is_stmt 1 view .LVU126
 292:../src/smc_gen/r_drw2d_rx/src/tes/dave_dlist.c ****          {
 350                             		.loc 1 292 41 is_stmt 0 view .LVU127
 351 0025 EC 55                   		mov.L	[r5], r5
 292:../src/smc_gen/r_drw2d_rx/src/tes/dave_dlist.c ****          {
 352                             		.loc 1 292 49 view .LVU128
 353 0027 FE 67 53                		mov.L	[r7,r5], r3
 292:../src/smc_gen/r_drw2d_rx/src/tes/dave_dlist.c ****          {
 354                             		.loc 1 292 12 view .LVU129
 355 002a 61 03                   		cmp	#0, r3
 356 002c 21 E6                   		bne	.L37
 357 002e 2E EC                   		bra	.L31
 358                             	.L36:
 295:../src/smc_gen/r_drw2d_rx/src/tes/dave_dlist.c ****          }
 296:../src/smc_gen/r_drw2d_rx/src/tes/dave_dlist.c ****       }
 297:../src/smc_gen/r_drw2d_rx/src/tes/dave_dlist.c ****       d2_freemem_p(dlist->vidmem_blocks->blocks);
 359                             		.loc 1 297 7 is_stmt 1 view .LVU130
 360 0030 EC 51                   		mov.L	[r5], r1
 361 0032 05 00 00 00             		bsr	_d2_freemem_p
 362                             	.LVL41:
 298:../src/smc_gen/r_drw2d_rx/src/tes/dave_dlist.c ****       d2_freemem_p(dlist->vidmem_blocks);
 363                             		.loc 1 298 7 view .LVU131
 364 0036 ED A1 05                		mov.L	20[r10], r1
 365 0039 05 00 00 00             		bsr	_d2_freemem_p
 366                             	.LVL42:
 367                             	.L33:
 368                             		.loc 1 298 7 is_stmt 0 view .LVU132
 369                             	.LBE18:
 299:../src/smc_gen/r_drw2d_rx/src/tes/dave_dlist.c ****    }
 300:../src/smc_gen/r_drw2d_rx/src/tes/dave_dlist.c ****    else
 301:../src/smc_gen/r_drw2d_rx/src/tes/dave_dlist.c ****    {
 302:../src/smc_gen/r_drw2d_rx/src/tes/dave_dlist.c ****       d2_free_dlistblock_intern( dlist->device, dlist->firstblock );
 303:../src/smc_gen/r_drw2d_rx/src/tes/dave_dlist.c ****    }
 304:../src/smc_gen/r_drw2d_rx/src/tes/dave_dlist.c ****    if(NULL != dlist->dlist_addresses)
 370                             		.loc 1 304 4 is_stmt 1 view .LVU133
 371                             		.loc 1 304 20 is_stmt 0 view .LVU134
 372 003d ED A1 0C                		mov.L	48[r10], r1
 373                             		.loc 1 304 6 view .LVU135
 374 0040 61 01                   		cmp	#0, r1
 375 0042 15                      		beq	.L28
 305:../src/smc_gen/r_drw2d_rx/src/tes/dave_dlist.c ****    {
 306:../src/smc_gen/r_drw2d_rx/src/tes/dave_dlist.c ****       d2_freemem_p(dlist->dlist_addresses);
 376                             		.loc 1 306 7 is_stmt 1 view .LVU136
 377 0043 05 00 00 00             		bsr	_d2_freemem_p
 378                             	.LVL43:
 307:../src/smc_gen/r_drw2d_rx/src/tes/dave_dlist.c ****    }
 308:../src/smc_gen/r_drw2d_rx/src/tes/dave_dlist.c ****    return;
 379                             		.loc 1 308 4 view .LVU137
 380                             	.L28:
 309:../src/smc_gen/r_drw2d_rx/src/tes/dave_dlist.c **** }
 381                             		.loc 1 309 1 is_stmt 0 view .LVU138
 382 0047 3F 6A 05                		rtsd	#20, r6-r10
 383                             	.LVL44:
 384                             	.L29:
 302:../src/smc_gen/r_drw2d_rx/src/tes/dave_dlist.c ****    }
 385                             		.loc 1 302 7 is_stmt 1 view .LVU139
 386 004a A8 1A                   		mov.L	4[r1], r2
 387 004c EC 11                   		mov.L	[r1], r1
 388                             	.LVL45:
 302:../src/smc_gen/r_drw2d_rx/src/tes/dave_dlist.c ****    }
 389                             		.loc 1 302 7 is_stmt 0 view .LVU140
 390 004e 05 00 00 00             		bsr	_d2_free_dlistblock_intern
 391                             	.LVL46:
 392 0052 2E EB                   		bra	.L33
 393                             	.LFE10:
 395                             		.section	.text.d2_nextdlistblock_intern,"ax",@progbits
 396                             		.global	_d2_nextdlistblock_intern
 398                             	_d2_nextdlistblock_intern:
 399                             	.LVL47:
 400                             	.LFB11:
 310:../src/smc_gen/r_drw2d_rx/src/tes/dave_dlist.c **** 
 311:../src/smc_gen/r_drw2d_rx/src/tes/dave_dlist.c **** 
 312:../src/smc_gen/r_drw2d_rx/src/tes/dave_dlist.c **** /*--------------------------------------------------------------------------
 313:../src/smc_gen/r_drw2d_rx/src/tes/dave_dlist.c ****  * go to next display list block.
 314:../src/smc_gen/r_drw2d_rx/src/tes/dave_dlist.c ****  * used when the blocksize of the current dlist block is <= 1
 315:../src/smc_gen/r_drw2d_rx/src/tes/dave_dlist.c ****  * the last entry will be spared for a jump which might be necessary
 316:../src/smc_gen/r_drw2d_rx/src/tes/dave_dlist.c ****  * */
 317:../src/smc_gen/r_drw2d_rx/src/tes/dave_dlist.c **** void d2_nextdlistblock_intern( d2_dlist *dlist )
 318:../src/smc_gen/r_drw2d_rx/src/tes/dave_dlist.c **** {
 401                             		.loc 1 318 1 is_stmt 1 view -0
 402                             		.loc 1 318 1 is_stmt 0 view .LVU142
 403 0000 6E 6C                   		pushm	r6-r12
 404                             	.LCFI4:
 405 0002 60 40                   		sub	#4, r0
 406                             	.LCFI5:
 407 0004 EF 17                   		mov.L	r1, r7
 319:../src/smc_gen/r_drw2d_rx/src/tes/dave_dlist.c ****    d2_dlist_vidmem_blocks *vidmemBlocks = dlist->vidmem_blocks;
 408                             		.loc 1 319 4 is_stmt 1 view .LVU143
 409                             		.loc 1 319 28 is_stmt 0 view .LVU144
 410 0006 ED 1A 05                		mov.L	20[r1], r10
 411                             	.LVL48:
 320:../src/smc_gen/r_drw2d_rx/src/tes/dave_dlist.c **** 
 321:../src/smc_gen/r_drw2d_rx/src/tes/dave_dlist.c ****    if(NULL == vidmemBlocks )
 412                             		.loc 1 321 4 is_stmt 1 view .LVU145
 413                             		.loc 1 321 6 is_stmt 0 view .LVU146
 414 0009 61 0A                   		cmp	#0, r10
 415 000b 20 4B                   		beq	.L68
 322:../src/smc_gen/r_drw2d_rx/src/tes/dave_dlist.c ****    { /* normal mode -> always insert jump and start next block */
 323:../src/smc_gen/r_drw2d_rx/src/tes/dave_dlist.c ****       d2_s32 *patch = d2_insertdlistjump_intern( dlist, NULL );
 324:../src/smc_gen/r_drw2d_rx/src/tes/dave_dlist.c ****       d2_insertdlistspecial_intern( dlist, 3 );  /* terminate list correctly */
 325:../src/smc_gen/r_drw2d_rx/src/tes/dave_dlist.c ****       /* grow to prepare for next write */
 326:../src/smc_gen/r_drw2d_rx/src/tes/dave_dlist.c ****       d2_growdlist_intern( dlist );
 327:../src/smc_gen/r_drw2d_rx/src/tes/dave_dlist.c ****       /* check if d2_growdlist succeded */
 328:../src/smc_gen/r_drw2d_rx/src/tes/dave_dlist.c ****       if ( D2_DEV(dlist->device)->delayed_errorcode != D2_OK )
 329:../src/smc_gen/r_drw2d_rx/src/tes/dave_dlist.c ****       {
 330:../src/smc_gen/r_drw2d_rx/src/tes/dave_dlist.c ****          /* no more memory -> terminate current list */
 331:../src/smc_gen/r_drw2d_rx/src/tes/dave_dlist.c ****          dlist->position = (d2_dlist_entry *) (((d2_s32*)dlist->position) - 3);
 332:../src/smc_gen/r_drw2d_rx/src/tes/dave_dlist.c ****          d2_insertdlistspecial_intern( dlist, 3 );
 333:../src/smc_gen/r_drw2d_rx/src/tes/dave_dlist.c ****          return;
 334:../src/smc_gen/r_drw2d_rx/src/tes/dave_dlist.c ****       }
 335:../src/smc_gen/r_drw2d_rx/src/tes/dave_dlist.c ****       /* insert next block address (fix jump) */
 336:../src/smc_gen/r_drw2d_rx/src/tes/dave_dlist.c ****       *patch = (d2_s32) dlist->currentblock->block;
 337:../src/smc_gen/r_drw2d_rx/src/tes/dave_dlist.c ****    }
 338:../src/smc_gen/r_drw2d_rx/src/tes/dave_dlist.c ****    else if ((dlist->blocksize < 1) || (vidmemBlocks->slicesleft == 1))
 416                             		.loc 1 338 9 is_stmt 1 view .LVU147
 417                             		.loc 1 338 19 is_stmt 0 view .LVU148
 418 000d A9 9D                   		mov.L	28[r1], r5
 419                             		.loc 1 338 12 view .LVU149
 420 000f 61 05                   		cmp	#0, r5
 421 0011 11                      		beq	.L52
 422                             		.loc 1 338 52 discriminator 1 view .LVU150
 423 0012 ED A5 06                		mov.L	24[r10], r5
 424                             		.loc 1 338 36 discriminator 1 view .LVU151
 425 0015 61 15                   		cmp	#1, r5
 426 0017 3B 91 01                		bne	.L38
 427                             	.L52:
 428                             	.LBB33:
 339:../src/smc_gen/r_drw2d_rx/src/tes/dave_dlist.c ****    { /* 'low localmem' mode: the spare block for the jump is only needed in last slice */
 340:../src/smc_gen/r_drw2d_rx/src/tes/dave_dlist.c ****       d1_device *id = D2_DEV(dlist->device)->hwid;
 429                             		.loc 1 340 7 is_stmt 1 view .LVU152
 430                             		.loc 1 340 23 is_stmt 0 view .LVU153
 431 001a EC 74                   		mov.L	[r7], r4
 432                             		.loc 1 340 18 view .LVU154
 433 001c A9 C6                   		mov.L	24[r4], r6
 434                             	.LVL49:
 341:../src/smc_gen/r_drw2d_rx/src/tes/dave_dlist.c **** 
 342:../src/smc_gen/r_drw2d_rx/src/tes/dave_dlist.c ****       if (vidmemBlocks->slicesleft > 1)
 435                             		.loc 1 342 7 is_stmt 1 view .LVU155
 436                             		.loc 1 342 23 is_stmt 0 view .LVU156
 437 001e ED A5 06                		mov.L	24[r10], r5
 438                             		.loc 1 342 10 view .LVU157
 439 0021 61 15                   		cmp	#1, r5
 440 0023 24 05 38 86 01          		bleu	.L53
 441                             	.LBB34:
 343:../src/smc_gen/r_drw2d_rx/src/tes/dave_dlist.c ****       { /* current slice is now completely filled: make sure to pad possible remaining words */
 344:../src/smc_gen/r_drw2d_rx/src/tes/dave_dlist.c ****          d2_dlist_block *blk = dlist->currentblock;
 442                             		.loc 1 344 10 is_stmt 1 view .LVU158
 443                             		.loc 1 344 26 is_stmt 0 view .LVU159
 444 0028 A8 F1                   		mov.L	8[r7], r1
 445                             	.LVL50:
 345:../src/smc_gen/r_drw2d_rx/src/tes/dave_dlist.c ****          d2_s32* end = (d2_s32*)(blk->block + blk->quantity);
 446                             		.loc 1 345 10 is_stmt 1 view .LVU160
 447                             		.loc 1 345 37 is_stmt 0 view .LVU161
 448 002a A8 1C                   		mov.L	4[r1], r4
 449                             		.loc 1 345 50 view .LVU162
 450 002c A8 93                   		mov.L	8[r1], r3
 451                             		.loc 1 345 45 view .LVU163
 452 002e 75 13 14                		mul	#20, r3
 453                             		.loc 1 345 18 view .LVU164
 454 0031 4B 34                   		add	r3, r4
 455                             	.LVL51:
 346:../src/smc_gen/r_drw2d_rx/src/tes/dave_dlist.c ****          d2_s32* pos = (d2_s32*)(dlist->position);
 456                             		.loc 1 346 10 is_stmt 1 view .LVU165
 457                             		.loc 1 346 18 is_stmt 0 view .LVU166
 458 0033 A9 75                   		mov.L	16[r7], r5
 459                             	.LVL52:
 347:../src/smc_gen/r_drw2d_rx/src/tes/dave_dlist.c ****          d2_s8 *nextaddress = vidmemBlocks->currentaddress + (sizeof(d2_dlist_entry) * blk->quantit
 460                             		.loc 1 347 10 is_stmt 1 view .LVU167
 461                             		.loc 1 347 17 is_stmt 0 view .LVU168
 462 0035 ED AB 04                		mov.L	16[r10], r11
 463 0038 4B 3B                   		add	r3, r11
 464                             	.LVL53:
 348:../src/smc_gen/r_drw2d_rx/src/tes/dave_dlist.c ****          if(NULL != blk->jump)
 465                             		.loc 1 348 10 is_stmt 1 view .LVU169
 466                             		.loc 1 348 24 is_stmt 0 view .LVU170
 467 003a A8 9B                   		mov.L	12[r1], r3
 468                             		.loc 1 348 12 view .LVU171
 469 003c 61 03                   		cmp	#0, r3
 470 003e 16                      		beq	.L55
 349:../src/smc_gen/r_drw2d_rx/src/tes/dave_dlist.c ****          {
 350:../src/smc_gen/r_drw2d_rx/src/tes/dave_dlist.c ****             *(blk->jump) = (d2_s32)nextaddress;
 471                             		.loc 1 350 13 is_stmt 1 view .LVU172
 472                             		.loc 1 350 26 is_stmt 0 view .LVU173
 473 003f E3 3B                   		mov.L	r11, [r3]
 351:../src/smc_gen/r_drw2d_rx/src/tes/dave_dlist.c ****             blk->jump = 0;
 474                             		.loc 1 351 13 is_stmt 1 view .LVU174
 475                             		.loc 1 351 23 is_stmt 0 view .LVU175
 476 0041 3E 13 00                		mov.L	#0, 12[r1]
 477                             		.balign 8,3,1
 478                             	.L55:
 352:../src/smc_gen/r_drw2d_rx/src/tes/dave_dlist.c ****          }
 353:../src/smc_gen/r_drw2d_rx/src/tes/dave_dlist.c ****          while (pos < end)
 479                             		.loc 1 353 16 view .LVU176
 480 0044 47 45                   		cmp	r4, r5
 481 0046 23 05 38 3B 01          		bgeu	.L69
 354:../src/smc_gen/r_drw2d_rx/src/tes/dave_dlist.c ****          {
 355:../src/smc_gen/r_drw2d_rx/src/tes/dave_dlist.c ****             *pos= (d2_s32)0x80808080u;
 482                             		.loc 1 355 13 is_stmt 1 view .LVU177
 483                             		.loc 1 355 17 is_stmt 0 view .LVU178
 484 004b FB 32 80 80 80 80       		mov.L	#-2139062144, r3
 485 0051 FD 22 53                		mov.L	r3, [r5+]
 486                             	.LVL54:
 356:../src/smc_gen/r_drw2d_rx/src/tes/dave_dlist.c ****             pos++;
 487                             		.loc 1 356 13 is_stmt 1 view .LVU179
 488                             		.loc 1 356 13 is_stmt 0 view .LVU180
 489 0054 2E F0                   		bra	.L55
 490                             	.LVL55:
 491                             	.L68:
 492                             		.loc 1 356 13 view .LVU181
 493                             	.LBE34:
 494                             	.LBE33:
 495                             	.LBB43:
 323:../src/smc_gen/r_drw2d_rx/src/tes/dave_dlist.c ****       d2_insertdlistspecial_intern( dlist, 3 );  /* terminate list correctly */
 496                             		.loc 1 323 7 is_stmt 1 view .LVU182
 497                             	.LBB44:
 498                             	.LBI44:
 499                             		.file 2 "../src/smc_gen/r_drw2d_rx/src/tes/dave_dlist.h"
   1:../src/smc_gen/r_drw2d_rx/src/tes/dave_dlist.h **** /*--------------------------------------------------------------------------
   2:../src/smc_gen/r_drw2d_rx/src/tes/dave_dlist.h ****  * Project: D/AVE
   3:../src/smc_gen/r_drw2d_rx/src/tes/dave_dlist.h ****  * File:    dave_dlist.h (%version: 20 %)
   4:../src/smc_gen/r_drw2d_rx/src/tes/dave_dlist.h ****  *          created Thu Feb 17 21:44:45 2005 by hh04027
   5:../src/smc_gen/r_drw2d_rx/src/tes/dave_dlist.h ****  *
   6:../src/smc_gen/r_drw2d_rx/src/tes/dave_dlist.h ****  * Description:
   7:../src/smc_gen/r_drw2d_rx/src/tes/dave_dlist.h ****  *  %date_modified: Thu Jan 25 17:39:49 2007 %  (%derived_by:  hh74026 %)
   8:../src/smc_gen/r_drw2d_rx/src/tes/dave_dlist.h ****  *
   9:../src/smc_gen/r_drw2d_rx/src/tes/dave_dlist.h ****  * Changes:
  10:../src/smc_gen/r_drw2d_rx/src/tes/dave_dlist.h ****  * 2005-12-22 CSe  - added d2_copydlist_vidmem_intern()
  11:../src/smc_gen/r_drw2d_rx/src/tes/dave_dlist.h ****  *                 - renamed block->vram to block->vidmem for consistency
  12:../src/smc_gen/r_drw2d_rx/src/tes/dave_dlist.h ****  *                 - big endian change + define for BIG_ENDIAN
  13:../src/smc_gen/r_drw2d_rx/src/tes/dave_dlist.h ****  * 2005-02-28 CSe  - added d2_cacheflushdlist_intern()
  14:../src/smc_gen/r_drw2d_rx/src/tes/dave_dlist.h ****  * 2006-05-10 CSe  - added d2_mapdlist_vidmem_intern()
  15:../src/smc_gen/r_drw2d_rx/src/tes/dave_dlist.h ****  * 2006-10-30 CSe  - removed counting of dlist used slots
  16:../src/smc_gen/r_drw2d_rx/src/tes/dave_dlist.h ****  * 2006-11-07 CSe  - changes for new 'd2_df_low_localmem' mode
  17:../src/smc_gen/r_drw2d_rx/src/tes/dave_dlist.h ****  * 2006-11-30 CSe  - fixed insertion of dlist special commands
  18:../src/smc_gen/r_drw2d_rx/src/tes/dave_dlist.h ****  * 2007-01-26 CSe  - made 'low localmem' mode configurable
  19:../src/smc_gen/r_drw2d_rx/src/tes/dave_dlist.h ****  * 2007-03-08 CSe  - optimized dlist copying and flushing
  20:../src/smc_gen/r_drw2d_rx/src/tes/dave_dlist.h ****  * 2008-01-14 ASc  - changed comments from C++ to C, removed tabs
  21:../src/smc_gen/r_drw2d_rx/src/tes/dave_dlist.h ****  * 2012-08-23 MRe  - extended dlist structure for dlist lists
  22:../src/smc_gen/r_drw2d_rx/src/tes/dave_dlist.h ****  * 2012-09-25 BSp  - MISRA cleanup
  23:../src/smc_gen/r_drw2d_rx/src/tes/dave_dlist.h ****  * 2017-07-27 HFu  - clearly commented and renamed d2_insertwait...dlist_intern functions
  24:../src/smc_gen/r_drw2d_rx/src/tes/dave_dlist.h ****  *-------------------------------------------------------------------------- */
  25:../src/smc_gen/r_drw2d_rx/src/tes/dave_dlist.h **** 
  26:../src/smc_gen/r_drw2d_rx/src/tes/dave_dlist.h **** #ifndef __1_dave_dlist_h_H
  27:../src/smc_gen/r_drw2d_rx/src/tes/dave_dlist.h **** #define __1_dave_dlist_h_H
  28:../src/smc_gen/r_drw2d_rx/src/tes/dave_dlist.h **** /*--------------------------------------------------------------------------- */
  29:../src/smc_gen/r_drw2d_rx/src/tes/dave_dlist.h **** 
  30:../src/smc_gen/r_drw2d_rx/src/tes/dave_dlist.h **** #define D2_DLISTWRITES(x, y)  d2_add2dlist_intern( handle, x, y )             /* PRQA S 3453 */ /* 
  31:../src/smc_gen/r_drw2d_rx/src/tes/dave_dlist.h **** #define D2_DLISTWRITEU(x, y)  d2_add2dlist_intern( handle, x, (d2_s32) (y) )  /* PRQA S 3453 */ /* 
  32:../src/smc_gen/r_drw2d_rx/src/tes/dave_dlist.h **** 
  33:../src/smc_gen/r_drw2d_rx/src/tes/dave_dlist.h **** /*-------------------------------------------------------------------------- */
  34:../src/smc_gen/r_drw2d_rx/src/tes/dave_dlist.h **** #define D2_DLISTBLOCKSIZE 204    /* blocksize: initial number and number of entrys to grow when dli
  35:../src/smc_gen/r_drw2d_rx/src/tes/dave_dlist.h **** #define D2_DLISTSCRATCH   64     /* number of scratch buffer entries */
  36:../src/smc_gen/r_drw2d_rx/src/tes/dave_dlist.h **** #define D2_DLISTSHRINKDELAY 60  /* number of frames, for which the number of display list blocks ne
  37:../src/smc_gen/r_drw2d_rx/src/tes/dave_dlist.h ****                                 /*  the number of display list blocks is actually reduced */
  38:../src/smc_gen/r_drw2d_rx/src/tes/dave_dlist.h **** 
  39:../src/smc_gen/r_drw2d_rx/src/tes/dave_dlist.h **** 
  40:../src/smc_gen/r_drw2d_rx/src/tes/dave_dlist.h **** /*--------------------------------------------------------------------------- */
  41:../src/smc_gen/r_drw2d_rx/src/tes/dave_dlist.h **** 
  42:../src/smc_gen/r_drw2d_rx/src/tes/dave_dlist.h **** typedef struct _d2_dlist_vidmem_blocks
  43:../src/smc_gen/r_drw2d_rx/src/tes/dave_dlist.h **** {
  44:../src/smc_gen/r_drw2d_rx/src/tes/dave_dlist.h ****    void **   blocks;          /* array of dlist blocks in vidmem */
  45:../src/smc_gen/r_drw2d_rx/src/tes/dave_dlist.h ****    d2_u32    num_blocks;      /* number of entries in above array */
  46:../src/smc_gen/r_drw2d_rx/src/tes/dave_dlist.h ****    d2_u32    block_size;      /* size of blocks in vidmem */
  47:../src/smc_gen/r_drw2d_rx/src/tes/dave_dlist.h ****    void **   currentblock;    /* pointer into above array of vidmem blocks */
  48:../src/smc_gen/r_drw2d_rx/src/tes/dave_dlist.h ****    d2_s8 *   currentaddress;  /* pointer into vidmem inside current block (multiple local blocks ar
  49:../src/smc_gen/r_drw2d_rx/src/tes/dave_dlist.h ****    d2_u32    num_slices;      /* one vidmem blocks consists of multiple slices (see above) */
  50:../src/smc_gen/r_drw2d_rx/src/tes/dave_dlist.h ****    d2_u32    slicesleft;      /* number of slices left */
  51:../src/smc_gen/r_drw2d_rx/src/tes/dave_dlist.h ****    d2_u32    blocksleft;      /* number of vidmem blocks left */
  52:../src/smc_gen/r_drw2d_rx/src/tes/dave_dlist.h **** } d2_dlist_vidmem_blocks;
  53:../src/smc_gen/r_drw2d_rx/src/tes/dave_dlist.h **** 
  54:../src/smc_gen/r_drw2d_rx/src/tes/dave_dlist.h **** 
  55:../src/smc_gen/r_drw2d_rx/src/tes/dave_dlist.h **** typedef struct _d2_dlist_entry
  56:../src/smc_gen/r_drw2d_rx/src/tes/dave_dlist.h **** {
  57:../src/smc_gen/r_drw2d_rx/src/tes/dave_dlist.h ****    union d2_addresstag                 /* register tag field (4 reg indices) */
  58:../src/smc_gen/r_drw2d_rx/src/tes/dave_dlist.h ****    {
  59:../src/smc_gen/r_drw2d_rx/src/tes/dave_dlist.h ****       d2_u32 mask;
  60:../src/smc_gen/r_drw2d_rx/src/tes/dave_dlist.h ****       d2_u8  array[4];
  61:../src/smc_gen/r_drw2d_rx/src/tes/dave_dlist.h ****    } address;
  62:../src/smc_gen/r_drw2d_rx/src/tes/dave_dlist.h **** 
  63:../src/smc_gen/r_drw2d_rx/src/tes/dave_dlist.h ****    d2_s32 value[4];                       /* register value field */
  64:../src/smc_gen/r_drw2d_rx/src/tes/dave_dlist.h **** } d2_dlist_entry;
  65:../src/smc_gen/r_drw2d_rx/src/tes/dave_dlist.h **** 
  66:../src/smc_gen/r_drw2d_rx/src/tes/dave_dlist.h **** 
  67:../src/smc_gen/r_drw2d_rx/src/tes/dave_dlist.h **** typedef struct _d2_dlist_block
  68:../src/smc_gen/r_drw2d_rx/src/tes/dave_dlist.h **** {
  69:../src/smc_gen/r_drw2d_rx/src/tes/dave_dlist.h ****    struct _d2_dlist_block *next;
  70:../src/smc_gen/r_drw2d_rx/src/tes/dave_dlist.h **** 
  71:../src/smc_gen/r_drw2d_rx/src/tes/dave_dlist.h ****    d2_dlist_entry * block;              /* display list memory */
  72:../src/smc_gen/r_drw2d_rx/src/tes/dave_dlist.h ****    d2_u32           quantity;           /* number of dlist_entries */
  73:../src/smc_gen/r_drw2d_rx/src/tes/dave_dlist.h ****    d2_s32 *         jump;               /* pointer to addressentry of next display list or null */
  74:../src/smc_gen/r_drw2d_rx/src/tes/dave_dlist.h ****    void *           vidmem;             /* address of memoryblock in videoram or null */
  75:../src/smc_gen/r_drw2d_rx/src/tes/dave_dlist.h **** } d2_dlist_block ;
  76:../src/smc_gen/r_drw2d_rx/src/tes/dave_dlist.h **** 
  77:../src/smc_gen/r_drw2d_rx/src/tes/dave_dlist.h **** 
  78:../src/smc_gen/r_drw2d_rx/src/tes/dave_dlist.h **** typedef struct _d2_dlist
  79:../src/smc_gen/r_drw2d_rx/src/tes/dave_dlist.h **** {
  80:../src/smc_gen/r_drw2d_rx/src/tes/dave_dlist.h ****    d2_device              *device;
  81:../src/smc_gen/r_drw2d_rx/src/tes/dave_dlist.h ****    d2_dlist_block         *firstblock;
  82:../src/smc_gen/r_drw2d_rx/src/tes/dave_dlist.h ****    d2_dlist_block         *currentblock;
  83:../src/smc_gen/r_drw2d_rx/src/tes/dave_dlist.h ****    d2_dlist_block         *resumeblock;
  84:../src/smc_gen/r_drw2d_rx/src/tes/dave_dlist.h ****    d2_dlist_entry         *position;
  85:../src/smc_gen/r_drw2d_rx/src/tes/dave_dlist.h ****    d2_dlist_vidmem_blocks *vidmem_blocks;   /* used in low local memory mode only */
  86:../src/smc_gen/r_drw2d_rx/src/tes/dave_dlist.h **** 
  87:../src/smc_gen/r_drw2d_rx/src/tes/dave_dlist.h ****    d2_u32                  tagindex;
  88:../src/smc_gen/r_drw2d_rx/src/tes/dave_dlist.h ****    d2_u32                  blocksize;
  89:../src/smc_gen/r_drw2d_rx/src/tes/dave_dlist.h ****    d2_u32                  stepsize;
  90:../src/smc_gen/r_drw2d_rx/src/tes/dave_dlist.h ****    d2_s32                  busy;
  91:../src/smc_gen/r_drw2d_rx/src/tes/dave_dlist.h ****    d2_u32                  shrinkcount;
  92:../src/smc_gen/r_drw2d_rx/src/tes/dave_dlist.h ****    d2_u32                  count;
  93:../src/smc_gen/r_drw2d_rx/src/tes/dave_dlist.h **** 
  94:../src/smc_gen/r_drw2d_rx/src/tes/dave_dlist.h ****    void *                  dlist_addresses;        /* list of dlist start addresses accessible by D
  95:../src/smc_gen/r_drw2d_rx/src/tes/dave_dlist.h ****    d2_s16                  dlist_addresses_max;    /* max number of dlist start addresses in dlist_
  96:../src/smc_gen/r_drw2d_rx/src/tes/dave_dlist.h ****    d2_s16                  dlist_addresses_cur;    /* current number of dlist start addresses in dl
  97:../src/smc_gen/r_drw2d_rx/src/tes/dave_dlist.h **** } d2_dlist;
  98:../src/smc_gen/r_drw2d_rx/src/tes/dave_dlist.h **** 
  99:../src/smc_gen/r_drw2d_rx/src/tes/dave_dlist.h **** 
 100:../src/smc_gen/r_drw2d_rx/src/tes/dave_dlist.h **** typedef struct _d2_dlist_scratch_entry
 101:../src/smc_gen/r_drw2d_rx/src/tes/dave_dlist.h **** {
 102:../src/smc_gen/r_drw2d_rx/src/tes/dave_dlist.h ****    d2_u32             reg;
 103:../src/smc_gen/r_drw2d_rx/src/tes/dave_dlist.h ****    d2_s32             value;
 104:../src/smc_gen/r_drw2d_rx/src/tes/dave_dlist.h **** } d2_dlist_scratch_entry;
 105:../src/smc_gen/r_drw2d_rx/src/tes/dave_dlist.h **** 
 106:../src/smc_gen/r_drw2d_rx/src/tes/dave_dlist.h **** 
 107:../src/smc_gen/r_drw2d_rx/src/tes/dave_dlist.h **** typedef struct _d2_lowlocalmem_mode
 108:../src/smc_gen/r_drw2d_rx/src/tes/dave_dlist.h **** {
 109:../src/smc_gen/r_drw2d_rx/src/tes/dave_dlist.h ****    d2_dlist_block *dlist_buffer; /* two dlist blocks linked as ring */
 110:../src/smc_gen/r_drw2d_rx/src/tes/dave_dlist.h ****    d2_u32 vidmemblocksizefactor; /* factor for size of blocks in vidmem relative to local size */
 111:../src/smc_gen/r_drw2d_rx/src/tes/dave_dlist.h ****    d2_u32 vidmemblocks;          /* maximum number of dlist blocks in vidmem */
 112:../src/smc_gen/r_drw2d_rx/src/tes/dave_dlist.h **** } d2_lowlocalmem_mode;
 113:../src/smc_gen/r_drw2d_rx/src/tes/dave_dlist.h **** 
 114:../src/smc_gen/r_drw2d_rx/src/tes/dave_dlist.h **** /*--------------------------------------------------------------------------- */
 115:../src/smc_gen/r_drw2d_rx/src/tes/dave_dlist.h **** 
 116:../src/smc_gen/r_drw2d_rx/src/tes/dave_dlist.h **** D2_EXTERN void d2_paddlist_intern( d2_dlist *dlist );
 117:../src/smc_gen/r_drw2d_rx/src/tes/dave_dlist.h **** 
 118:../src/smc_gen/r_drw2d_rx/src/tes/dave_dlist.h **** D2_EXTERN void d2_growdlist_intern( d2_dlist *dlist );
 119:../src/smc_gen/r_drw2d_rx/src/tes/dave_dlist.h **** 
 120:../src/smc_gen/r_drw2d_rx/src/tes/dave_dlist.h **** D2_EXTERN d2_dlist_block * d2_alloc_dlistblock_intern( const d2_device *handle, d2_u32 size );
 121:../src/smc_gen/r_drw2d_rx/src/tes/dave_dlist.h **** 
 122:../src/smc_gen/r_drw2d_rx/src/tes/dave_dlist.h **** D2_EXTERN void d2_free_dlistblock_intern( const d2_device *handle, d2_dlist_block *data );
 123:../src/smc_gen/r_drw2d_rx/src/tes/dave_dlist.h **** 
 124:../src/smc_gen/r_drw2d_rx/src/tes/dave_dlist.h **** D2_EXTERN d2_s32 d2_initdlist_intern( d2_device *handle, d2_dlist *dlist, d2_u32 initialsize );
 125:../src/smc_gen/r_drw2d_rx/src/tes/dave_dlist.h **** 
 126:../src/smc_gen/r_drw2d_rx/src/tes/dave_dlist.h **** D2_EXTERN void d2_deinitdlist_intern(const d2_dlist *dlist);
 127:../src/smc_gen/r_drw2d_rx/src/tes/dave_dlist.h **** 
 128:../src/smc_gen/r_drw2d_rx/src/tes/dave_dlist.h **** D2_EXTERN void *d2_preparedlist_read_intern( const d2_device *handle, d2_dlist *dlist, d2_s32 reset
 129:../src/smc_gen/r_drw2d_rx/src/tes/dave_dlist.h **** 
 130:../src/smc_gen/r_drw2d_rx/src/tes/dave_dlist.h **** D2_EXTERN void d2_nextdlistblock_intern( d2_dlist *dlist );
 131:../src/smc_gen/r_drw2d_rx/src/tes/dave_dlist.h **** 
 132:../src/smc_gen/r_drw2d_rx/src/tes/dave_dlist.h **** D2_EXTERN d2_u32 d2_executedlist_intern( const d2_device *handle, d2_dlist_entry *block );
 133:../src/smc_gen/r_drw2d_rx/src/tes/dave_dlist.h **** 
 134:../src/smc_gen/r_drw2d_rx/src/tes/dave_dlist.h **** D2_EXTERN void d2_copydlist_vidmem_intern( const d2_dlist *dlist );
 135:../src/smc_gen/r_drw2d_rx/src/tes/dave_dlist.h **** 
 136:../src/smc_gen/r_drw2d_rx/src/tes/dave_dlist.h **** D2_EXTERN void d2_mapdlist_vidmem_intern( const d2_dlist *dlist );
 137:../src/smc_gen/r_drw2d_rx/src/tes/dave_dlist.h **** 
 138:../src/smc_gen/r_drw2d_rx/src/tes/dave_dlist.h **** D2_EXTERN void d2_cacheflushdlist_intern( const d2_dlist *dlist );
 139:../src/smc_gen/r_drw2d_rx/src/tes/dave_dlist.h **** 
 140:../src/smc_gen/r_drw2d_rx/src/tes/dave_dlist.h **** D2_EXTERN d2_s32 d2_insertwaitpipedlist_intern( d2_device *handle );
 141:../src/smc_gen/r_drw2d_rx/src/tes/dave_dlist.h **** 
 142:../src/smc_gen/r_drw2d_rx/src/tes/dave_dlist.h **** D2_EXTERN d2_s32 d2_insertwaitfulldlist_intern( d2_device *handle );
 143:../src/smc_gen/r_drw2d_rx/src/tes/dave_dlist.h **** 
 144:../src/smc_gen/r_drw2d_rx/src/tes/dave_dlist.h **** D2_EXTERN void d2_resetdlist_intern( d2_dlist *dlist );
 145:../src/smc_gen/r_drw2d_rx/src/tes/dave_dlist.h **** 
 146:../src/smc_gen/r_drw2d_rx/src/tes/dave_dlist.h **** D2_EXTERN void d2_scratch2dlist_intern( d2_device *handle );
 147:../src/smc_gen/r_drw2d_rx/src/tes/dave_dlist.h **** 
 148:../src/smc_gen/r_drw2d_rx/src/tes/dave_dlist.h **** D2_EXTERN void d2_clear_dlistlist_intern( const d2_device *handle, d2_dlist *dlist );
 149:../src/smc_gen/r_drw2d_rx/src/tes/dave_dlist.h **** 
 150:../src/smc_gen/r_drw2d_rx/src/tes/dave_dlist.h **** D2_EXTERN d2_s32* d2_add_dlistlist_intern( const d2_device *handle, d2_dlist *dlist, const void *dl
 151:../src/smc_gen/r_drw2d_rx/src/tes/dave_dlist.h **** 
 152:../src/smc_gen/r_drw2d_rx/src/tes/dave_dlist.h **** 
 153:../src/smc_gen/r_drw2d_rx/src/tes/dave_dlist.h **** /*--------------------------------------------------------------------------- */
 154:../src/smc_gen/r_drw2d_rx/src/tes/dave_dlist.h **** 
 155:../src/smc_gen/r_drw2d_rx/src/tes/dave_dlist.h **** /* call only when usedslots>0
 156:../src/smc_gen/r_drw2d_rx/src/tes/dave_dlist.h ****  * assumes full dlist_entries. padded entries supported at end of list only */
 157:../src/smc_gen/r_drw2d_rx/src/tes/dave_dlist.h **** static D2_INLINE d2_dlist_entry* d2_getdlist_intern( d2_dlist *dlist ) /* PRQA S 1527 */ /* $Misra:
 158:../src/smc_gen/r_drw2d_rx/src/tes/dave_dlist.h **** {
 159:../src/smc_gen/r_drw2d_rx/src/tes/dave_dlist.h ****    d2_dlist_entry *current;
 160:../src/smc_gen/r_drw2d_rx/src/tes/dave_dlist.h **** 
 161:../src/smc_gen/r_drw2d_rx/src/tes/dave_dlist.h ****    current = dlist->position;
 162:../src/smc_gen/r_drw2d_rx/src/tes/dave_dlist.h ****    dlist->position++;
 163:../src/smc_gen/r_drw2d_rx/src/tes/dave_dlist.h ****    dlist->blocksize--;
 164:../src/smc_gen/r_drw2d_rx/src/tes/dave_dlist.h **** 
 165:../src/smc_gen/r_drw2d_rx/src/tes/dave_dlist.h ****    if (dlist->blocksize < 1)
 166:../src/smc_gen/r_drw2d_rx/src/tes/dave_dlist.h ****    {
 167:../src/smc_gen/r_drw2d_rx/src/tes/dave_dlist.h ****       /* this block ran empty, setup for next read */
 168:../src/smc_gen/r_drw2d_rx/src/tes/dave_dlist.h ****       d2_dlist_block *n = dlist->currentblock->next;
 169:../src/smc_gen/r_drw2d_rx/src/tes/dave_dlist.h ****       if(NULL != n)
 170:../src/smc_gen/r_drw2d_rx/src/tes/dave_dlist.h ****       {
 171:../src/smc_gen/r_drw2d_rx/src/tes/dave_dlist.h ****          /* switch to next block */
 172:../src/smc_gen/r_drw2d_rx/src/tes/dave_dlist.h ****          dlist->position     = n->block;
 173:../src/smc_gen/r_drw2d_rx/src/tes/dave_dlist.h ****          dlist->blocksize    = n->quantity;
 174:../src/smc_gen/r_drw2d_rx/src/tes/dave_dlist.h ****          dlist->currentblock = n;
 175:../src/smc_gen/r_drw2d_rx/src/tes/dave_dlist.h ****       }
 176:../src/smc_gen/r_drw2d_rx/src/tes/dave_dlist.h ****    }
 177:../src/smc_gen/r_drw2d_rx/src/tes/dave_dlist.h **** 
 178:../src/smc_gen/r_drw2d_rx/src/tes/dave_dlist.h ****    return current;
 179:../src/smc_gen/r_drw2d_rx/src/tes/dave_dlist.h **** }
 180:../src/smc_gen/r_drw2d_rx/src/tes/dave_dlist.h **** 
 181:../src/smc_gen/r_drw2d_rx/src/tes/dave_dlist.h **** /* insert a jump into the dlist to target, return patch address */
 182:../src/smc_gen/r_drw2d_rx/src/tes/dave_dlist.h **** static D2_INLINE d2_s32* d2_insertdlistjump_intern( d2_dlist *dlist, const void *target ) /* PRQA S
 500                             		.loc 2 182 26 view .LVU183
 501                             	.LBB45:
 183:../src/smc_gen/r_drw2d_rx/src/tes/dave_dlist.h **** {
 184:../src/smc_gen/r_drw2d_rx/src/tes/dave_dlist.h ****    d2_s32 *patch;
 502                             		.loc 2 184 4 view .LVU184
 185:../src/smc_gen/r_drw2d_rx/src/tes/dave_dlist.h **** 
 186:../src/smc_gen/r_drw2d_rx/src/tes/dave_dlist.h ****    /* this block ran empty. insert dlist-jump and mark end */
 187:../src/smc_gen/r_drw2d_rx/src/tes/dave_dlist.h ****    dlist->position->address.mask = D2_DLISTSTART | 0x80808000u;
 503                             		.loc 2 187 4 view .LVU185
 504                             		.loc 2 187 9 is_stmt 0 view .LVU186
 505 0056 ED 1A 04                		mov.L	16[r1], r10
 506                             	.LVL56:
 507                             		.loc 2 187 34 view .LVU187
 508 0059 F8 A2 32 80 80 80       		mov.L	#-2139062222, [r10]
 509                             	.LVL57:
 188:../src/smc_gen/r_drw2d_rx/src/tes/dave_dlist.h ****    dlist->position->value[0] = (d2_s32)target;
 510                             		.loc 2 188 4 is_stmt 1 view .LVU188
 511                             		.loc 2 188 9 is_stmt 0 view .LVU189
 512 005f ED 1A 04                		mov.L	16[r1], r10
 513                             		.loc 2 188 30 view .LVU190
 514 0062 F9 A6 01 00             		mov.L	#0, 4[r10]
 189:../src/smc_gen/r_drw2d_rx/src/tes/dave_dlist.h **** 
 190:../src/smc_gen/r_drw2d_rx/src/tes/dave_dlist.h ****    /* remember value offset for later patching */
 191:../src/smc_gen/r_drw2d_rx/src/tes/dave_dlist.h ****    patch = & dlist->position->value[0];
 515                             		.loc 2 191 4 is_stmt 1 view .LVU191
 516                             		.loc 2 191 19 is_stmt 0 view .LVU192
 517 0066 A9 16                   		mov.L	16[r1], r6
 518                             		.loc 2 191 10 view .LVU193
 519 0068 71 65 04                		add	#4, r6, r5
 520                             	.LVL58:
 192:../src/smc_gen/r_drw2d_rx/src/tes/dave_dlist.h ****    dlist->currentblock->jump = patch;
 521                             		.loc 2 192 4 is_stmt 1 view .LVU194
 522                             		.loc 2 192 9 is_stmt 0 view .LVU195
 523 006b ED 1A 02                		mov.L	8[r1], r10
 524                             		.loc 2 192 30 view .LVU196
 525 006e E7 A5 03                		mov.L	r5, 12[r10]
 193:../src/smc_gen/r_drw2d_rx/src/tes/dave_dlist.h **** 
 194:../src/smc_gen/r_drw2d_rx/src/tes/dave_dlist.h ****    /* skip jump */
 195:../src/smc_gen/r_drw2d_rx/src/tes/dave_dlist.h ****    dlist->position = (d2_dlist_entry*) (((d2_s32 *)dlist->position) + 2);
 526                             		.loc 2 195 4 is_stmt 1 view .LVU197
 527                             		.loc 2 195 57 is_stmt 0 view .LVU198
 528 0071 A9 14                   		mov.L	16[r1], r4
 529                             		.loc 2 195 22 view .LVU199
 530 0073 71 45 08                		add	#8, r4, r5
 531                             	.LVL59:
 532                             		.loc 2 195 20 view .LVU200
 533 0076 A1 15                   		mov.L	r5, 16[r1]
 534                             	.LVL60:
 196:../src/smc_gen/r_drw2d_rx/src/tes/dave_dlist.h ****    dlist->tagindex = 0;
 535                             		.loc 2 196 4 is_stmt 1 view .LVU201
 536                             		.loc 2 196 20 is_stmt 0 view .LVU202
 537 0078 3E 16 00                		mov.L	#0, 24[r1]
 197:../src/smc_gen/r_drw2d_rx/src/tes/dave_dlist.h **** 
 198:../src/smc_gen/r_drw2d_rx/src/tes/dave_dlist.h ****    return patch;
 538                             		.loc 2 198 4 is_stmt 1 view .LVU203
 539                             	.LVL61:
 540                             		.loc 2 198 4 is_stmt 0 view .LVU204
 541                             	.LBE45:
 542                             	.LBE44:
 324:../src/smc_gen/r_drw2d_rx/src/tes/dave_dlist.c ****       /* grow to prepare for next write */
 543                             		.loc 1 324 7 is_stmt 1 view .LVU205
 544                             	.LBB46:
 545                             	.LBI46:
 199:../src/smc_gen/r_drw2d_rx/src/tes/dave_dlist.h **** }
 200:../src/smc_gen/r_drw2d_rx/src/tes/dave_dlist.h **** 
 201:../src/smc_gen/r_drw2d_rx/src/tes/dave_dlist.h **** 
 202:../src/smc_gen/r_drw2d_rx/src/tes/dave_dlist.h **** /* store a end of dlist special word at current position */
 203:../src/smc_gen/r_drw2d_rx/src/tes/dave_dlist.h **** static D2_INLINE void d2_insertdlistspecial_intern( d2_dlist *dlist, d2_u32 argument ) /* PRQA S 15
 546                             		.loc 2 203 23 view .LVU206
 547                             	.LBB47:
 204:../src/smc_gen/r_drw2d_rx/src/tes/dave_dlist.h **** {
 205:../src/smc_gen/r_drw2d_rx/src/tes/dave_dlist.h ****    d2_u32 tagIndex = dlist->tagindex;
 548                             		.loc 2 205 4 view .LVU207
 549                             		.loc 2 205 11 is_stmt 0 view .LVU208
 550 007b 66 0A                   		mov.L	#0, r10
 551                             	.LVL62:
 206:../src/smc_gen/r_drw2d_rx/src/tes/dave_dlist.h ****    d2_dlist_entry *pos = dlist->position;
 552                             		.loc 2 206 4 is_stmt 1 view .LVU209
 207:../src/smc_gen/r_drw2d_rx/src/tes/dave_dlist.h **** 
 208:../src/smc_gen/r_drw2d_rx/src/tes/dave_dlist.h ****    switch(tagIndex)
 553                             		.loc 2 208 4 view .LVU210
 554 007d 61 0A                   		cmp	#0, r10
 555 007f 20 2E                   		beq	.L41
 556 0081 61 2A                   		cmp	#2, r10
 557 0083 20 35                   		beq	.L42
 558 0085 61 3A                   		cmp	#3, r10
 559 0087 20 49                   		beq	.L43
 560                             	.LVL63:
 561                             		.balign 8,3,4
 562                             	.L44:
 209:../src/smc_gen/r_drw2d_rx/src/tes/dave_dlist.h ****    {
 210:../src/smc_gen/r_drw2d_rx/src/tes/dave_dlist.h ****       case 0:
 211:../src/smc_gen/r_drw2d_rx/src/tes/dave_dlist.h ****          /* list already closed -> the address word is not needed */
 212:../src/smc_gen/r_drw2d_rx/src/tes/dave_dlist.h ****          pos->address.mask = 0xffu | (argument << 8);
 213:../src/smc_gen/r_drw2d_rx/src/tes/dave_dlist.h ****          dlist->position = (d2_dlist_entry *) ((d2_s32*)pos + 1);
 214:../src/smc_gen/r_drw2d_rx/src/tes/dave_dlist.h ****          break;
 215:../src/smc_gen/r_drw2d_rx/src/tes/dave_dlist.h **** 
 216:../src/smc_gen/r_drw2d_rx/src/tes/dave_dlist.h ****       case 1:
 217:../src/smc_gen/r_drw2d_rx/src/tes/dave_dlist.h ****          /* already one entry in list */
 218:../src/smc_gen/r_drw2d_rx/src/tes/dave_dlist.h ****          pos->address.mask &= 0x000000ffu;
 219:../src/smc_gen/r_drw2d_rx/src/tes/dave_dlist.h ****          pos->address.mask |= 0x80808000u;
 220:../src/smc_gen/r_drw2d_rx/src/tes/dave_dlist.h ****          pos->value[tagIndex] = (d2_s32) (0xffu | (argument << 8));
 221:../src/smc_gen/r_drw2d_rx/src/tes/dave_dlist.h ****          dlist->position = (d2_dlist_entry *) ((d2_s32*)pos + 3);
 222:../src/smc_gen/r_drw2d_rx/src/tes/dave_dlist.h ****          break;
 223:../src/smc_gen/r_drw2d_rx/src/tes/dave_dlist.h **** 
 224:../src/smc_gen/r_drw2d_rx/src/tes/dave_dlist.h ****       case 2:
 225:../src/smc_gen/r_drw2d_rx/src/tes/dave_dlist.h ****          /* already two entries in list */
 226:../src/smc_gen/r_drw2d_rx/src/tes/dave_dlist.h ****          pos->address.mask &= 0x0000ffffu;
 227:../src/smc_gen/r_drw2d_rx/src/tes/dave_dlist.h ****          pos->address.mask |= 0x80800000u;
 228:../src/smc_gen/r_drw2d_rx/src/tes/dave_dlist.h ****          pos->value[tagIndex] = (d2_s32) (0xffu | (argument << 8));
 229:../src/smc_gen/r_drw2d_rx/src/tes/dave_dlist.h ****          dlist->position = (d2_dlist_entry *) ((d2_s32*)pos + 4);
 230:../src/smc_gen/r_drw2d_rx/src/tes/dave_dlist.h ****          break;
 231:../src/smc_gen/r_drw2d_rx/src/tes/dave_dlist.h **** 
 232:../src/smc_gen/r_drw2d_rx/src/tes/dave_dlist.h ****       case 3:
 233:../src/smc_gen/r_drw2d_rx/src/tes/dave_dlist.h ****          /* already three entries in list */
 234:../src/smc_gen/r_drw2d_rx/src/tes/dave_dlist.h ****          pos->address.mask &= 0x00ffffffu;
 235:../src/smc_gen/r_drw2d_rx/src/tes/dave_dlist.h ****          pos->address.mask |= 0x80000000u;
 236:../src/smc_gen/r_drw2d_rx/src/tes/dave_dlist.h ****          pos->value[tagIndex] = (d2_s32) (0xffu | (argument << 8));
 237:../src/smc_gen/r_drw2d_rx/src/tes/dave_dlist.h ****          dlist->position++;
 238:../src/smc_gen/r_drw2d_rx/src/tes/dave_dlist.h ****          break;
 239:../src/smc_gen/r_drw2d_rx/src/tes/dave_dlist.h **** 
 240:../src/smc_gen/r_drw2d_rx/src/tes/dave_dlist.h ****       default:
 241:../src/smc_gen/r_drw2d_rx/src/tes/dave_dlist.h ****          break;
 242:../src/smc_gen/r_drw2d_rx/src/tes/dave_dlist.h ****    }
 243:../src/smc_gen/r_drw2d_rx/src/tes/dave_dlist.h **** 
 244:../src/smc_gen/r_drw2d_rx/src/tes/dave_dlist.h ****    /* fix tag */
 245:../src/smc_gen/r_drw2d_rx/src/tes/dave_dlist.h ****    dlist->tagindex = 0;
 563                             		.loc 2 245 4 view .LVU211
 564                             		.loc 2 245 20 is_stmt 0 view .LVU212
 565 0089 3E 76 00                		mov.L	#0, 24[r7]
 246:../src/smc_gen/r_drw2d_rx/src/tes/dave_dlist.h ****    dlist->blocksize--;
 566                             		.loc 2 246 4 is_stmt 1 view .LVU213
 567                             		.loc 2 246 9 is_stmt 0 view .LVU214
 568 008c ED 7A 07                		mov.L	28[r7], r10
 569                             		.loc 2 246 20 view .LVU215
 570 008f 60 1A                   		sub	#1, r10
 571 0091 E7 7A 07                		mov.L	r10, 28[r7]
 247:../src/smc_gen/r_drw2d_rx/src/tes/dave_dlist.h **** 
 248:../src/smc_gen/r_drw2d_rx/src/tes/dave_dlist.h ****    /* make sure not to go beyond end of block in case the list is not finished!! */
 249:../src/smc_gen/r_drw2d_rx/src/tes/dave_dlist.h ****    if(0 == (argument & 1))
 572                             		.loc 2 249 4 is_stmt 1 view .LVU216
 573                             	.LVL64:
 574                             		.loc 2 249 4 is_stmt 0 view .LVU217
 575                             	.LBE47:
 576                             	.LBE46:
 326:../src/smc_gen/r_drw2d_rx/src/tes/dave_dlist.c ****       /* check if d2_growdlist succeded */
 577                             		.loc 1 326 7 is_stmt 1 view .LVU218
 578 0094 EF 71                   		mov.L	r7, r1
 579                             	.LVL65:
 326:../src/smc_gen/r_drw2d_rx/src/tes/dave_dlist.c ****       /* check if d2_growdlist succeded */
 580                             		.loc 1 326 7 is_stmt 0 view .LVU219
 581 0096 05 00 00 00             		bsr	_d2_growdlist_intern
 582                             	.LVL66:
 328:../src/smc_gen/r_drw2d_rx/src/tes/dave_dlist.c ****       {
 583                             		.loc 1 328 7 is_stmt 1 view .LVU220
 328:../src/smc_gen/r_drw2d_rx/src/tes/dave_dlist.c ****       {
 584                             		.loc 1 328 12 is_stmt 0 view .LVU221
 585 009a EC 7A                   		mov.L	[r7], r10
 328:../src/smc_gen/r_drw2d_rx/src/tes/dave_dlist.c ****       {
 586                             		.loc 1 328 10 view .LVU222
 587 009c CE AA C7 01             		mov.B	455[r10], r10
 588 00a0 61 0A                   		cmp	#0, r10
 589 00a2 21 50                   		bne	.L70
 336:../src/smc_gen/r_drw2d_rx/src/tes/dave_dlist.c ****    }
 590                             		.loc 1 336 7 is_stmt 1 view .LVU223
 336:../src/smc_gen/r_drw2d_rx/src/tes/dave_dlist.c ****    }
 591                             		.loc 1 336 30 is_stmt 0 view .LVU224
 592 00a4 A8 F7                   		mov.L	8[r7], r7
 593                             	.LVL67:
 336:../src/smc_gen/r_drw2d_rx/src/tes/dave_dlist.c ****    }
 594                             		.loc 1 336 14 view .LVU225
 595 00a6 E5 76 01 01             		mov.L	4[r7], 4[r6]
 596                             	.LBE43:
 597 00aa 38 FE 00                		bra	.L38
 598                             	.LVL68:
 599                             	.L41:
 600                             	.LBB52:
 601                             	.LBB49:
 602                             	.LBB48:
 212:../src/smc_gen/r_drw2d_rx/src/tes/dave_dlist.h ****          dlist->position = (d2_dlist_entry *) ((d2_s32*)pos + 1);
 603                             		.loc 2 212 10 is_stmt 1 view .LVU226
 212:../src/smc_gen/r_drw2d_rx/src/tes/dave_dlist.h ****          dlist->position = (d2_dlist_entry *) ((d2_s32*)pos + 1);
 604                             		.loc 2 212 28 is_stmt 0 view .LVU227
 605 00ad F9 4A 02 FF 03          		mov.L	#0x3ff, 8[r4]
 213:../src/smc_gen/r_drw2d_rx/src/tes/dave_dlist.h ****          break;
 606                             		.loc 2 213 10 is_stmt 1 view .LVU228
 213:../src/smc_gen/r_drw2d_rx/src/tes/dave_dlist.h ****          break;
 607                             		.loc 2 213 28 is_stmt 0 view .LVU229
 608 00b2 62 45                   		add	#4, r5
 609                             	.LVL69:
 213:../src/smc_gen/r_drw2d_rx/src/tes/dave_dlist.h ****          break;
 610                             		.loc 2 213 26 view .LVU230
 611 00b4 A1 15                   		mov.L	r5, 16[r1]
 214:../src/smc_gen/r_drw2d_rx/src/tes/dave_dlist.h **** 
 612                             		.loc 2 214 10 is_stmt 1 view .LVU231
 613 00b6 2E D3                   		bra	.L44
 614                             	.LVL70:
 615                             	.L42:
 226:../src/smc_gen/r_drw2d_rx/src/tes/dave_dlist.h ****          pos->address.mask |= 0x80800000u;
 616                             		.loc 2 226 10 view .LVU232
 226:../src/smc_gen/r_drw2d_rx/src/tes/dave_dlist.h ****          pos->address.mask |= 0x80800000u;
 617                             		.loc 2 226 28 is_stmt 0 view .LVU233
 618 00b8 5D 4A 04                		movu.W	8[r4], r10
 227:../src/smc_gen/r_drw2d_rx/src/tes/dave_dlist.h ****          pos->value[tagIndex] = (d2_s32) (0xffu | (argument << 8));
 619                             		.loc 2 227 10 is_stmt 1 view .LVU234
 227:../src/smc_gen/r_drw2d_rx/src/tes/dave_dlist.h ****          pos->value[tagIndex] = (d2_s32) (0xffu | (argument << 8));
 620                             		.loc 2 227 28 is_stmt 0 view .LVU235
 621 00bb 74 3A 00 00 80 80       		or	#-2139095040, r10
 622 00c1 E7 4A 02                		mov.L	r10, 8[r4]
 228:../src/smc_gen/r_drw2d_rx/src/tes/dave_dlist.h ****          dlist->position = (d2_dlist_entry *) ((d2_s32*)pos + 4);
 623                             		.loc 2 228 10 is_stmt 1 view .LVU236
 228:../src/smc_gen/r_drw2d_rx/src/tes/dave_dlist.h ****          dlist->position = (d2_dlist_entry *) ((d2_s32*)pos + 4);
 624                             		.loc 2 228 31 is_stmt 0 view .LVU237
 625 00c4 F9 5A 01 FF 03          		mov.L	#0x3ff, 4[r5]
 229:../src/smc_gen/r_drw2d_rx/src/tes/dave_dlist.h ****          break;
 626                             		.loc 2 229 10 is_stmt 1 view .LVU238
 229:../src/smc_gen/r_drw2d_rx/src/tes/dave_dlist.h ****          break;
 627                             		.loc 2 229 28 is_stmt 0 view .LVU239
 628 00c9 71 55 10                		add	#16, r5
 629                             	.LVL71:
 229:../src/smc_gen/r_drw2d_rx/src/tes/dave_dlist.h ****          break;
 630                             		.loc 2 229 26 view .LVU240
 631 00cc A1 15                   		mov.L	r5, 16[r1]
 230:../src/smc_gen/r_drw2d_rx/src/tes/dave_dlist.h **** 
 632                             		.loc 2 230 10 is_stmt 1 view .LVU241
 633 00ce 2E BB                   		bra	.L44
 634                             	.LVL72:
 635                             	.L43:
 234:../src/smc_gen/r_drw2d_rx/src/tes/dave_dlist.h ****          pos->address.mask |= 0x80000000u;
 636                             		.loc 2 234 10 view .LVU242
 234:../src/smc_gen/r_drw2d_rx/src/tes/dave_dlist.h ****          pos->address.mask |= 0x80000000u;
 637                             		.loc 2 234 28 is_stmt 0 view .LVU243
 638 00d0 ED 4A 02                		mov.L	8[r4], r10
 639 00d3 74 2A FF FF FF 00       		and #0xffffff, r10
 235:../src/smc_gen/r_drw2d_rx/src/tes/dave_dlist.h ****          pos->value[tagIndex] = (d2_s32) (0xffu | (argument << 8));
 640                             		.loc 2 235 10 is_stmt 1 view .LVU244
 235:../src/smc_gen/r_drw2d_rx/src/tes/dave_dlist.h ****          pos->value[tagIndex] = (d2_s32) (0xffu | (argument << 8));
 641                             		.loc 2 235 28 is_stmt 0 view .LVU245
 642 00d9 74 3A 00 00 00 80       		or	#-2147483648, r10
 643 00df E7 4A 02                		mov.L	r10, 8[r4]
 236:../src/smc_gen/r_drw2d_rx/src/tes/dave_dlist.h ****          dlist->position++;
 644                             		.loc 2 236 10 is_stmt 1 view .LVU246
 236:../src/smc_gen/r_drw2d_rx/src/tes/dave_dlist.h ****          dlist->position++;
 645                             		.loc 2 236 31 is_stmt 0 view .LVU247
 646 00e2 F9 5A 01 FF 03          		mov.L	#0x3ff, 4[r5]
 237:../src/smc_gen/r_drw2d_rx/src/tes/dave_dlist.h ****          break;
 647                             		.loc 2 237 10 is_stmt 1 view .LVU248
 237:../src/smc_gen/r_drw2d_rx/src/tes/dave_dlist.h ****          break;
 648                             		.loc 2 237 15 is_stmt 0 view .LVU249
 649 00e7 ED 1A 04                		mov.L	16[r1], r10
 237:../src/smc_gen/r_drw2d_rx/src/tes/dave_dlist.h ****          break;
 650                             		.loc 2 237 25 view .LVU250
 651 00ea 71 AA 14                		add	#20, r10
 652 00ed E7 1A 04                		mov.L	r10, 16[r1]
 238:../src/smc_gen/r_drw2d_rx/src/tes/dave_dlist.h **** 
 653                             		.loc 2 238 10 is_stmt 1 view .LVU251
 654 00f0 2E 99                   		bra	.L44
 655                             	.LVL73:
 656                             	.L70:
 238:../src/smc_gen/r_drw2d_rx/src/tes/dave_dlist.h **** 
 657                             		.loc 2 238 10 is_stmt 0 view .LVU252
 658                             	.LBE48:
 659                             	.LBE49:
 331:../src/smc_gen/r_drw2d_rx/src/tes/dave_dlist.c ****          d2_insertdlistspecial_intern( dlist, 3 );
 660                             		.loc 1 331 10 is_stmt 1 view .LVU253
 331:../src/smc_gen/r_drw2d_rx/src/tes/dave_dlist.c ****          d2_insertdlistspecial_intern( dlist, 3 );
 661                             		.loc 1 331 63 is_stmt 0 view .LVU254
 662 00f2 ED 7A 04                		mov.L	16[r7], r10
 331:../src/smc_gen/r_drw2d_rx/src/tes/dave_dlist.c ****          d2_insertdlistspecial_intern( dlist, 3 );
 663                             		.loc 1 331 28 view .LVU255
 664 00f5 60 CA                   		sub	#12, r10
 331:../src/smc_gen/r_drw2d_rx/src/tes/dave_dlist.c ****          d2_insertdlistspecial_intern( dlist, 3 );
 665                             		.loc 1 331 26 view .LVU256
 666 00f7 E7 7A 04                		mov.L	r10, 16[r7]
 332:../src/smc_gen/r_drw2d_rx/src/tes/dave_dlist.c ****          return;
 667                             		.loc 1 332 10 is_stmt 1 view .LVU257
 668                             	.LVL74:
 669                             	.LBB50:
 670                             	.LBI50:
 203:../src/smc_gen/r_drw2d_rx/src/tes/dave_dlist.h **** {
 671                             		.loc 2 203 23 view .LVU258
 672                             	.LBB51:
 205:../src/smc_gen/r_drw2d_rx/src/tes/dave_dlist.h ****    d2_dlist_entry *pos = dlist->position;
 673                             		.loc 2 205 4 view .LVU259
 205:../src/smc_gen/r_drw2d_rx/src/tes/dave_dlist.h ****    d2_dlist_entry *pos = dlist->position;
 674                             		.loc 2 205 11 is_stmt 0 view .LVU260
 675 00fa A9 F5                   		mov.L	24[r7], r5
 676                             	.LVL75:
 206:../src/smc_gen/r_drw2d_rx/src/tes/dave_dlist.h **** 
 677                             		.loc 2 206 4 is_stmt 1 view .LVU261
 208:../src/smc_gen/r_drw2d_rx/src/tes/dave_dlist.h ****    {
 678                             		.loc 2 208 4 view .LVU262
 679 00fc 61 15                   		cmp	#1, r5
 680 00fe 20 2C                   		beq	.L46
 681 0100 61 05                   		cmp	#0, r5
 682 0102 20 1C                   		beq	.L47
 683 0104 61 25                   		cmp	#2, r5
 684 0106 20 3E                   		beq	.L48
 685 0108 61 35                   		cmp	#3, r5
 686 010a 20 55                   		beq	.L49
 687                             	.LVL76:
 688 010c 76 10 01 00             		.balign 8,3,4
 689                             	.L50:
 245:../src/smc_gen/r_drw2d_rx/src/tes/dave_dlist.h ****    dlist->blocksize--;
 690                             		.loc 2 245 4 view .LVU263
 245:../src/smc_gen/r_drw2d_rx/src/tes/dave_dlist.h ****    dlist->blocksize--;
 691                             		.loc 2 245 20 is_stmt 0 view .LVU264
 692 0110 3E 76 00                		mov.L	#0, 24[r7]
 246:../src/smc_gen/r_drw2d_rx/src/tes/dave_dlist.h **** 
 693                             		.loc 2 246 4 is_stmt 1 view .LVU265
 246:../src/smc_gen/r_drw2d_rx/src/tes/dave_dlist.h **** 
 694                             		.loc 2 246 9 is_stmt 0 view .LVU266
 695 0113 ED 7A 07                		mov.L	28[r7], r10
 246:../src/smc_gen/r_drw2d_rx/src/tes/dave_dlist.h **** 
 696                             		.loc 2 246 20 view .LVU267
 697 0116 60 1A                   		sub	#1, r10
 698 0118 E7 7A 07                		mov.L	r10, 28[r7]
 699                             		.loc 2 249 4 is_stmt 1 view .LVU268
 700 011b 38 8D 00                		bra	.L38
 701                             	.LVL77:
 702                             	.L47:
 212:../src/smc_gen/r_drw2d_rx/src/tes/dave_dlist.h ****          dlist->position = (d2_dlist_entry *) ((d2_s32*)pos + 1);
 703                             		.loc 2 212 10 view .LVU269
 212:../src/smc_gen/r_drw2d_rx/src/tes/dave_dlist.h ****          dlist->position = (d2_dlist_entry *) ((d2_s32*)pos + 1);
 704                             		.loc 2 212 28 is_stmt 0 view .LVU270
 705 011e FB 3A FF 03             		mov.L	#0x3ff, r3
 706 0122 FD 22 A3                		mov.L	r3, [r10+]
 707                             	.LVL78:
 213:../src/smc_gen/r_drw2d_rx/src/tes/dave_dlist.h ****          break;
 708                             		.loc 2 213 10 is_stmt 1 view .LVU271
 213:../src/smc_gen/r_drw2d_rx/src/tes/dave_dlist.h ****          break;
 709                             		.loc 2 213 26 is_stmt 0 view .LVU272
 710 0125 E7 7A 04                		mov.L	r10, 16[r7]
 214:../src/smc_gen/r_drw2d_rx/src/tes/dave_dlist.h **** 
 711                             		.loc 2 214 10 is_stmt 1 view .LVU273
 712 0128 2E E8                   		bra	.L50
 713                             	.LVL79:
 714                             	.L46:
 218:../src/smc_gen/r_drw2d_rx/src/tes/dave_dlist.h ****          pos->address.mask |= 0x80808000u;
 715                             		.loc 2 218 10 view .LVU274
 218:../src/smc_gen/r_drw2d_rx/src/tes/dave_dlist.h ****          pos->address.mask |= 0x80808000u;
 716                             		.loc 2 218 28 is_stmt 0 view .LVU275
 717 012a 58 A4                   		movu.B	[r10], r4
 219:../src/smc_gen/r_drw2d_rx/src/tes/dave_dlist.h ****          pos->value[tagIndex] = (d2_s32) (0xffu | (argument << 8));
 718                             		.loc 2 219 10 is_stmt 1 view .LVU276
 219:../src/smc_gen/r_drw2d_rx/src/tes/dave_dlist.h ****          pos->value[tagIndex] = (d2_s32) (0xffu | (argument << 8));
 719                             		.loc 2 219 28 is_stmt 0 view .LVU277
 720 012c 74 34 00 80 80 80       		or	#-2139062272, r4
 721 0132 E3 A4                   		mov.L	r4, [r10]
 220:../src/smc_gen/r_drw2d_rx/src/tes/dave_dlist.h ****          dlist->position = (d2_dlist_entry *) ((d2_s32*)pos + 3);
 722                             		.loc 2 220 10 is_stmt 1 view .LVU278
 220:../src/smc_gen/r_drw2d_rx/src/tes/dave_dlist.h ****          dlist->position = (d2_dlist_entry *) ((d2_s32*)pos + 3);
 723                             		.loc 2 220 31 is_stmt 0 view .LVU279
 724 0134 62 15                   		add	#1, r5
 725                             	.LVL80:
 220:../src/smc_gen/r_drw2d_rx/src/tes/dave_dlist.h ****          dlist->position = (d2_dlist_entry *) ((d2_s32*)pos + 3);
 726                             		.loc 2 220 31 view .LVU280
 727 0136 FB 4A FF 03             		mov.L	#0x3ff, r4
 728 013a FE 25 A4                		mov.L	r4, [r5,r10]
 221:../src/smc_gen/r_drw2d_rx/src/tes/dave_dlist.h ****          break;
 729                             		.loc 2 221 10 is_stmt 1 view .LVU281
 221:../src/smc_gen/r_drw2d_rx/src/tes/dave_dlist.h ****          break;
 730                             		.loc 2 221 28 is_stmt 0 view .LVU282
 731 013d 62 CA                   		add	#12, r10
 732                             	.LVL81:
 221:../src/smc_gen/r_drw2d_rx/src/tes/dave_dlist.h ****          break;
 733                             		.loc 2 221 26 view .LVU283
 734 013f E7 7A 04                		mov.L	r10, 16[r7]
 222:../src/smc_gen/r_drw2d_rx/src/tes/dave_dlist.h **** 
 735                             		.loc 2 222 10 is_stmt 1 view .LVU284
 736 0142 2E CE                   		bra	.L50
 737                             	.LVL82:
 738                             	.L48:
 226:../src/smc_gen/r_drw2d_rx/src/tes/dave_dlist.h ****          pos->address.mask |= 0x80800000u;
 739                             		.loc 2 226 10 view .LVU285
 226:../src/smc_gen/r_drw2d_rx/src/tes/dave_dlist.h ****          pos->address.mask |= 0x80800000u;
 740                             		.loc 2 226 28 is_stmt 0 view .LVU286
 741 0144 5C A4                   		movu.W	[r10], r4
 227:../src/smc_gen/r_drw2d_rx/src/tes/dave_dlist.h ****          pos->value[tagIndex] = (d2_s32) (0xffu | (argument << 8));
 742                             		.loc 2 227 10 is_stmt 1 view .LVU287
 227:../src/smc_gen/r_drw2d_rx/src/tes/dave_dlist.h ****          pos->value[tagIndex] = (d2_s32) (0xffu | (argument << 8));
 743                             		.loc 2 227 28 is_stmt 0 view .LVU288
 744 0146 74 34 00 00 80 80       		or	#-2139095040, r4
 745 014c E3 A4                   		mov.L	r4, [r10]
 228:../src/smc_gen/r_drw2d_rx/src/tes/dave_dlist.h ****          dlist->position = (d2_dlist_entry *) ((d2_s32*)pos + 4);
 746                             		.loc 2 228 10 is_stmt 1 view .LVU289
 228:../src/smc_gen/r_drw2d_rx/src/tes/dave_dlist.h ****          dlist->position = (d2_dlist_entry *) ((d2_s32*)pos + 4);
 747                             		.loc 2 228 31 is_stmt 0 view .LVU290
 748 014e 62 15                   		add	#1, r5
 749                             	.LVL83:
 228:../src/smc_gen/r_drw2d_rx/src/tes/dave_dlist.h ****          dlist->position = (d2_dlist_entry *) ((d2_s32*)pos + 4);
 750                             		.loc 2 228 31 view .LVU291
 751 0150 FB 3A FF 03             		mov.L	#0x3ff, r3
 752 0154 FE 25 A3                		mov.L	r3, [r5,r10]
 229:../src/smc_gen/r_drw2d_rx/src/tes/dave_dlist.h ****          break;
 753                             		.loc 2 229 10 is_stmt 1 view .LVU292
 229:../src/smc_gen/r_drw2d_rx/src/tes/dave_dlist.h ****          break;
 754                             		.loc 2 229 28 is_stmt 0 view .LVU293
 755 0157 71 AA 10                		add	#16, r10
 756                             	.LVL84:
 229:../src/smc_gen/r_drw2d_rx/src/tes/dave_dlist.h ****          break;
 757                             		.loc 2 229 26 view .LVU294
 758 015a E7 7A 04                		mov.L	r10, 16[r7]
 230:../src/smc_gen/r_drw2d_rx/src/tes/dave_dlist.h **** 
 759                             		.loc 2 230 10 is_stmt 1 view .LVU295
 760 015d 2E B3                   		bra	.L50
 761                             	.LVL85:
 762                             	.L49:
 234:../src/smc_gen/r_drw2d_rx/src/tes/dave_dlist.h ****          pos->address.mask |= 0x80000000u;
 763                             		.loc 2 234 10 view .LVU296
 234:../src/smc_gen/r_drw2d_rx/src/tes/dave_dlist.h ****          pos->address.mask |= 0x80000000u;
 764                             		.loc 2 234 28 is_stmt 0 view .LVU297
 765 015f EC A4                   		mov.L	[r10], r4
 766 0161 74 24 FF FF FF 00       		and #0xffffff, r4
 235:../src/smc_gen/r_drw2d_rx/src/tes/dave_dlist.h ****          pos->value[tagIndex] = (d2_s32) (0xffu | (argument << 8));
 767                             		.loc 2 235 10 is_stmt 1 view .LVU298
 235:../src/smc_gen/r_drw2d_rx/src/tes/dave_dlist.h ****          pos->value[tagIndex] = (d2_s32) (0xffu | (argument << 8));
 768                             		.loc 2 235 28 is_stmt 0 view .LVU299
 769 0167 74 34 00 00 00 80       		or	#-2147483648, r4
 770 016d E3 A4                   		mov.L	r4, [r10]
 236:../src/smc_gen/r_drw2d_rx/src/tes/dave_dlist.h ****          dlist->position++;
 771                             		.loc 2 236 10 is_stmt 1 view .LVU300
 236:../src/smc_gen/r_drw2d_rx/src/tes/dave_dlist.h ****          dlist->position++;
 772                             		.loc 2 236 31 is_stmt 0 view .LVU301
 773 016f 62 15                   		add	#1, r5
 774                             	.LVL86:
 236:../src/smc_gen/r_drw2d_rx/src/tes/dave_dlist.h ****          dlist->position++;
 775                             		.loc 2 236 31 view .LVU302
 776 0171 FB 4A FF 03             		mov.L	#0x3ff, r4
 777 0175 FE 25 A4                		mov.L	r4, [r5,r10]
 237:../src/smc_gen/r_drw2d_rx/src/tes/dave_dlist.h ****          break;
 778                             		.loc 2 237 10 is_stmt 1 view .LVU303
 237:../src/smc_gen/r_drw2d_rx/src/tes/dave_dlist.h ****          break;
 779                             		.loc 2 237 15 is_stmt 0 view .LVU304
 780 0178 ED 7A 04                		mov.L	16[r7], r10
 781                             	.LVL87:
 237:../src/smc_gen/r_drw2d_rx/src/tes/dave_dlist.h ****          break;
 782                             		.loc 2 237 25 view .LVU305
 783 017b 71 AA 14                		add	#20, r10
 784 017e E7 7A 04                		mov.L	r10, 16[r7]
 238:../src/smc_gen/r_drw2d_rx/src/tes/dave_dlist.h **** 
 785                             		.loc 2 238 10 is_stmt 1 view .LVU306
 786 0181 2E 8F                   		bra	.L50
 787                             	.LVL88:
 788                             	.L69:
 238:../src/smc_gen/r_drw2d_rx/src/tes/dave_dlist.h **** 
 789                             		.loc 2 238 10 is_stmt 0 view .LVU307
 790                             	.LBE51:
 791                             	.LBE50:
 792                             	.LBE52:
 793                             	.LBB53:
 794                             	.LBB35:
 357:../src/smc_gen/r_drw2d_rx/src/tes/dave_dlist.c ****          }
 358:../src/smc_gen/r_drw2d_rx/src/tes/dave_dlist.c ****          (void)d1_copytovidmem( id, vidmemBlocks->currentaddress, blk->block, sizeof(d2_dlist_entry
 795                             		.loc 1 358 10 is_stmt 1 view .LVU308
 796                             		.loc 1 358 49 is_stmt 0 view .LVU309
 797 0183 ED A2 04                		mov.L	16[r10], r2
 798                             		.loc 1 358 70 view .LVU310
 799 0186 A8 1B                   		mov.L	4[r1], r3
 800                             		.loc 1 358 107 view .LVU311
 801 0188 A8 94                   		mov.L	8[r1], r4
 802                             	.LVL89:
 803                             		.loc 1 358 16 view .LVU312
 804 018a F8 06 10                		mov.L	#16, [r0]
 805 018d 75 14 14                		mul	#20, r4
 806 0190 EF 61                   		mov.L	r6, r1
 807                             	.LVL90:
 808                             		.loc 1 358 16 view .LVU313
 809 0192 05 00 00 00             		bsr	_d1_copytovidmem
 810                             	.LVL91:
 359:../src/smc_gen/r_drw2d_rx/src/tes/dave_dlist.c ****          vidmemBlocks->currentaddress = nextaddress;
 811                             		.loc 1 359 10 is_stmt 1 view .LVU314
 812                             		.loc 1 359 39 is_stmt 0 view .LVU315
 813 0196 E7 AB 04                		mov.L	r11, 16[r10]
 360:../src/smc_gen/r_drw2d_rx/src/tes/dave_dlist.c ****          vidmemBlocks->slicesleft--;
 814                             		.loc 1 360 10 is_stmt 1 view .LVU316
 815                             		.loc 1 360 22 is_stmt 0 view .LVU317
 816 0199 ED A5 06                		mov.L	24[r10], r5
 817                             		.loc 1 360 34 view .LVU318
 818 019c 60 15                   		sub	#1, r5
 819 019e E7 A5 06                		mov.L	r5, 24[r10]
 820                             	.LVL92:
 821                             		.balign 8,3,1
 822                             	.L57:
 823                             		.loc 1 360 34 view .LVU319
 824                             	.LBE35:
 361:../src/smc_gen/r_drw2d_rx/src/tes/dave_dlist.c ****       }
 362:../src/smc_gen/r_drw2d_rx/src/tes/dave_dlist.c ****       else if (vidmemBlocks->blocksleft > 1)
 363:../src/smc_gen/r_drw2d_rx/src/tes/dave_dlist.c ****       { /* last slice -> allocate new vidmem block (only if blocks left), insert jump */
 364:../src/smc_gen/r_drw2d_rx/src/tes/dave_dlist.c ****          d2_dlist_block *blk = dlist->currentblock;
 365:../src/smc_gen/r_drw2d_rx/src/tes/dave_dlist.c ****          void **nextblock = vidmemBlocks->currentblock + 1;
 366:../src/smc_gen/r_drw2d_rx/src/tes/dave_dlist.c ****          vidmemBlocks->blocksleft--;
 367:../src/smc_gen/r_drw2d_rx/src/tes/dave_dlist.c **** 
 368:../src/smc_gen/r_drw2d_rx/src/tes/dave_dlist.c ****          /* allocate next block if necessary */
 369:../src/smc_gen/r_drw2d_rx/src/tes/dave_dlist.c ****          if (*nextblock == NULL)
 370:../src/smc_gen/r_drw2d_rx/src/tes/dave_dlist.c ****          {
 371:../src/smc_gen/r_drw2d_rx/src/tes/dave_dlist.c ****             *nextblock = d1_allocvidmem(id, d1_mem_dlist, sizeof(d2_dlist_entry) * vidmemBlocks->bl
 372:../src/smc_gen/r_drw2d_rx/src/tes/dave_dlist.c ****             if(NULL == *nextblock)
 373:../src/smc_gen/r_drw2d_rx/src/tes/dave_dlist.c ****             {
 374:../src/smc_gen/r_drw2d_rx/src/tes/dave_dlist.c ****                D2_DEV(dlist->device)->delayed_errorcode = D2_NOMEMORY ; /* can't get videomemory */
 375:../src/smc_gen/r_drw2d_rx/src/tes/dave_dlist.c ****             }
 376:../src/smc_gen/r_drw2d_rx/src/tes/dave_dlist.c ****          }
 377:../src/smc_gen/r_drw2d_rx/src/tes/dave_dlist.c **** 
 378:../src/smc_gen/r_drw2d_rx/src/tes/dave_dlist.c ****          if(NULL != *nextblock) /* don't insert a jump to null into the list ( happens if allocatio
 379:../src/smc_gen/r_drw2d_rx/src/tes/dave_dlist.c ****          {
 380:../src/smc_gen/r_drw2d_rx/src/tes/dave_dlist.c ****             if(NULL != blk->jump)
 381:../src/smc_gen/r_drw2d_rx/src/tes/dave_dlist.c ****             {
 382:../src/smc_gen/r_drw2d_rx/src/tes/dave_dlist.c ****                *(blk->jump) = (d2_s32)(*nextblock);
 383:../src/smc_gen/r_drw2d_rx/src/tes/dave_dlist.c ****                blk->jump = 0;
 384:../src/smc_gen/r_drw2d_rx/src/tes/dave_dlist.c ****             }
 385:../src/smc_gen/r_drw2d_rx/src/tes/dave_dlist.c ****             else
 386:../src/smc_gen/r_drw2d_rx/src/tes/dave_dlist.c ****             {
 387:../src/smc_gen/r_drw2d_rx/src/tes/dave_dlist.c ****                (void)d2_insertdlistjump_intern( dlist, *nextblock );
 388:../src/smc_gen/r_drw2d_rx/src/tes/dave_dlist.c ****             }
 389:../src/smc_gen/r_drw2d_rx/src/tes/dave_dlist.c ****          }
 390:../src/smc_gen/r_drw2d_rx/src/tes/dave_dlist.c ****          d2_insertdlistspecial_intern( dlist, 3 );  /* terminate list correctly */
 391:../src/smc_gen/r_drw2d_rx/src/tes/dave_dlist.c **** 
 392:../src/smc_gen/r_drw2d_rx/src/tes/dave_dlist.c ****          /* copy the current dlist block to position inside current vidmem block */
 393:../src/smc_gen/r_drw2d_rx/src/tes/dave_dlist.c ****          (void)d1_copytovidmem( id, vidmemBlocks->currentaddress, dlist->currentblock->block, sizeo
 394:../src/smc_gen/r_drw2d_rx/src/tes/dave_dlist.c **** 
 395:../src/smc_gen/r_drw2d_rx/src/tes/dave_dlist.c ****          if(NULL != *nextblock)
 396:../src/smc_gen/r_drw2d_rx/src/tes/dave_dlist.c ****          {
 397:../src/smc_gen/r_drw2d_rx/src/tes/dave_dlist.c ****             vidmemBlocks->currentblock   = nextblock;
 398:../src/smc_gen/r_drw2d_rx/src/tes/dave_dlist.c ****             vidmemBlocks->currentaddress = *nextblock;
 399:../src/smc_gen/r_drw2d_rx/src/tes/dave_dlist.c ****             vidmemBlocks->slicesleft     = vidmemBlocks->num_slices;
 400:../src/smc_gen/r_drw2d_rx/src/tes/dave_dlist.c ****          }
 401:../src/smc_gen/r_drw2d_rx/src/tes/dave_dlist.c ****       } 
 402:../src/smc_gen/r_drw2d_rx/src/tes/dave_dlist.c ****       else if ( (1 == vidmemBlocks->blocksleft) && (1 == vidmemBlocks->slicesleft) ) 
 403:../src/smc_gen/r_drw2d_rx/src/tes/dave_dlist.c ****       {
 404:../src/smc_gen/r_drw2d_rx/src/tes/dave_dlist.c ****          D2_DEV(dlist->device)->delayed_errorcode = D2_NOT_ENOUGH_DLISTBLOCKS;      
 405:../src/smc_gen/r_drw2d_rx/src/tes/dave_dlist.c ****       }
 406:../src/smc_gen/r_drw2d_rx/src/tes/dave_dlist.c ****       else
 407:../src/smc_gen/r_drw2d_rx/src/tes/dave_dlist.c ****       {
 408:../src/smc_gen/r_drw2d_rx/src/tes/dave_dlist.c ****          /* empty else block to satisfy MISRA rule 14.10/2004 */
 409:../src/smc_gen/r_drw2d_rx/src/tes/dave_dlist.c ****       }
 825                             		.loc 1 409 7 is_stmt 1 view .LVU320
 410:../src/smc_gen/r_drw2d_rx/src/tes/dave_dlist.c ****     
 411:../src/smc_gen/r_drw2d_rx/src/tes/dave_dlist.c ****       d2_growdlist_intern( dlist );  /* go to next dlist buffer in ring */
 826                             		.loc 1 411 7 view .LVU321
 827 01a1 EF 71                   		mov.L	r7, r1
 828 01a3 05 00 00 00             		bsr	_d2_growdlist_intern
 829                             	.LVL93:
 412:../src/smc_gen/r_drw2d_rx/src/tes/dave_dlist.c **** 
 413:../src/smc_gen/r_drw2d_rx/src/tes/dave_dlist.c ****       /* check if d2_growdlist succeded */
 414:../src/smc_gen/r_drw2d_rx/src/tes/dave_dlist.c ****       if ( D2_DEV(dlist->device)->delayed_errorcode != D2_OK )
 830                             		.loc 1 414 7 view .LVU322
 831 01a7 03                      		.balign 8,3,2
 832                             	.L38:
 833                             		.loc 1 414 7 is_stmt 0 view .LVU323
 834                             	.LBE53:
 415:../src/smc_gen/r_drw2d_rx/src/tes/dave_dlist.c ****       {
 416:../src/smc_gen/r_drw2d_rx/src/tes/dave_dlist.c ****          return;
 417:../src/smc_gen/r_drw2d_rx/src/tes/dave_dlist.c ****       }
 418:../src/smc_gen/r_drw2d_rx/src/tes/dave_dlist.c ****    }
 419:../src/smc_gen/r_drw2d_rx/src/tes/dave_dlist.c ****    else
 420:../src/smc_gen/r_drw2d_rx/src/tes/dave_dlist.c ****    {
 421:../src/smc_gen/r_drw2d_rx/src/tes/dave_dlist.c ****       /* empty else block to satisfy MISRA rule 14.10/2004 */
 422:../src/smc_gen/r_drw2d_rx/src/tes/dave_dlist.c ****    }
 423:../src/smc_gen/r_drw2d_rx/src/tes/dave_dlist.c **** }
 835                             		.loc 1 423 1 view .LVU324
 836 01a8 3F 6C 08                		rtsd	#32, r6-r12
 837                             	.LVL94:
 838                             	.L53:
 839                             	.LBB54:
 362:../src/smc_gen/r_drw2d_rx/src/tes/dave_dlist.c ****       { /* last slice -> allocate new vidmem block (only if blocks left), insert jump */
 840                             		.loc 1 362 12 is_stmt 1 view .LVU325
 362:../src/smc_gen/r_drw2d_rx/src/tes/dave_dlist.c ****       { /* last slice -> allocate new vidmem block (only if blocks left), insert jump */
 841                             		.loc 1 362 28 is_stmt 0 view .LVU326
 842 01ab ED A3 07                		mov.L	28[r10], r3
 362:../src/smc_gen/r_drw2d_rx/src/tes/dave_dlist.c ****       { /* last slice -> allocate new vidmem block (only if blocks left), insert jump */
 843                             		.loc 1 362 15 view .LVU327
 844 01ae 61 13                   		cmp	#1, r3
 845 01b0 24 05 38 1A 01          		bleu	.L58
 846                             	.LBB36:
 364:../src/smc_gen/r_drw2d_rx/src/tes/dave_dlist.c ****          void **nextblock = vidmemBlocks->currentblock + 1;
 847                             		.loc 1 364 10 is_stmt 1 view .LVU328
 364:../src/smc_gen/r_drw2d_rx/src/tes/dave_dlist.c ****          void **nextblock = vidmemBlocks->currentblock + 1;
 848                             		.loc 1 364 26 is_stmt 0 view .LVU329
 849 01b5 ED 79 02                		mov.L	8[r7], r9
 850                             	.LVL95:
 365:../src/smc_gen/r_drw2d_rx/src/tes/dave_dlist.c ****          vidmemBlocks->blocksleft--;
 851                             		.loc 1 365 10 is_stmt 1 view .LVU330
 365:../src/smc_gen/r_drw2d_rx/src/tes/dave_dlist.c ****          vidmemBlocks->blocksleft--;
 852                             		.loc 1 365 41 is_stmt 0 view .LVU331
 853 01b8 ED AB 03                		mov.L	12[r10], r11
 365:../src/smc_gen/r_drw2d_rx/src/tes/dave_dlist.c ****          vidmemBlocks->blocksleft--;
 854                             		.loc 1 365 17 view .LVU332
 855 01bb 71 BC 04                		add	#4, r11, r12
 856                             	.LVL96:
 366:../src/smc_gen/r_drw2d_rx/src/tes/dave_dlist.c **** 
 857                             		.loc 1 366 10 is_stmt 1 view .LVU333
 366:../src/smc_gen/r_drw2d_rx/src/tes/dave_dlist.c **** 
 858                             		.loc 1 366 34 is_stmt 0 view .LVU334
 859 01be 60 13                   		sub	#1, r3
 860 01c0 E7 A3 07                		mov.L	r3, 28[r10]
 369:../src/smc_gen/r_drw2d_rx/src/tes/dave_dlist.c ****          {
 861                             		.loc 1 369 10 is_stmt 1 view .LVU335
 369:../src/smc_gen/r_drw2d_rx/src/tes/dave_dlist.c ****          {
 862                             		.loc 1 369 14 is_stmt 0 view .LVU336
 863 01c3 ED B5 01                		mov.L	4[r11], r5
 369:../src/smc_gen/r_drw2d_rx/src/tes/dave_dlist.c ****          {
 864                             		.loc 1 369 13 view .LVU337
 865 01c6 61 05                   		cmp	#0, r5
 866 01c8 20 63                   		beq	.L71
 867                             	.LVL97:
 868                             	.L59:
 378:../src/smc_gen/r_drw2d_rx/src/tes/dave_dlist.c ****          {
 869                             		.loc 1 378 10 is_stmt 1 view .LVU338
 378:../src/smc_gen/r_drw2d_rx/src/tes/dave_dlist.c ****          {
 870                             		.loc 1 378 21 is_stmt 0 view .LVU339
 871 01ca ED B5 01                		mov.L	4[r11], r5
 378:../src/smc_gen/r_drw2d_rx/src/tes/dave_dlist.c ****          {
 872                             		.loc 1 378 12 view .LVU340
 873 01cd 61 05                   		cmp	#0, r5
 874 01cf 20 0F                   		beq	.L60
 380:../src/smc_gen/r_drw2d_rx/src/tes/dave_dlist.c ****             {
 875                             		.loc 1 380 13 is_stmt 1 view .LVU341
 380:../src/smc_gen/r_drw2d_rx/src/tes/dave_dlist.c ****             {
 876                             		.loc 1 380 27 is_stmt 0 view .LVU342
 877 01d1 ED 94 03                		mov.L	12[r9], r4
 380:../src/smc_gen/r_drw2d_rx/src/tes/dave_dlist.c ****             {
 878                             		.loc 1 380 15 view .LVU343
 879 01d4 61 04                   		cmp	#0, r4
 880 01d6 20 73                   		beq	.L61
 382:../src/smc_gen/r_drw2d_rx/src/tes/dave_dlist.c ****                blk->jump = 0;
 881                             		.loc 1 382 16 is_stmt 1 view .LVU344
 382:../src/smc_gen/r_drw2d_rx/src/tes/dave_dlist.c ****                blk->jump = 0;
 882                             		.loc 1 382 29 is_stmt 0 view .LVU345
 883 01d8 E3 45                   		mov.L	r5, [r4]
 383:../src/smc_gen/r_drw2d_rx/src/tes/dave_dlist.c ****             }
 884                             		.loc 1 383 16 is_stmt 1 view .LVU346
 383:../src/smc_gen/r_drw2d_rx/src/tes/dave_dlist.c ****             }
 885                             		.loc 1 383 26 is_stmt 0 view .LVU347
 886 01da F9 96 03 00             		mov.L	#0, 12[r9]
 887                             	.L60:
 390:../src/smc_gen/r_drw2d_rx/src/tes/dave_dlist.c **** 
 888                             		.loc 1 390 10 is_stmt 1 view .LVU348
 889                             	.LVL98:
 890                             	.LBB37:
 891                             	.LBI37:
 203:../src/smc_gen/r_drw2d_rx/src/tes/dave_dlist.h **** {
 892                             		.loc 2 203 23 view .LVU349
 893                             	.LBB38:
 205:../src/smc_gen/r_drw2d_rx/src/tes/dave_dlist.h ****    d2_dlist_entry *pos = dlist->position;
 894                             		.loc 2 205 4 view .LVU350
 205:../src/smc_gen/r_drw2d_rx/src/tes/dave_dlist.h ****    d2_dlist_entry *pos = dlist->position;
 895                             		.loc 2 205 11 is_stmt 0 view .LVU351
 896 01de A9 F5                   		mov.L	24[r7], r5
 897                             	.LVL99:
 206:../src/smc_gen/r_drw2d_rx/src/tes/dave_dlist.h **** 
 898                             		.loc 2 206 4 is_stmt 1 view .LVU352
 206:../src/smc_gen/r_drw2d_rx/src/tes/dave_dlist.h **** 
 899                             		.loc 2 206 20 is_stmt 0 view .LVU353
 900 01e0 A9 74                   		mov.L	16[r7], r4
 901                             	.LVL100:
 208:../src/smc_gen/r_drw2d_rx/src/tes/dave_dlist.h ****    {
 902                             		.loc 2 208 4 is_stmt 1 view .LVU354
 903 01e2 61 15                   		cmp	#1, r5
 904 01e4 3A 90 00                		beq	.L62
 905 01e7 61 05                   		cmp	#0, r5
 906 01e9 3A 80 00                		beq	.L63
 907 01ec 61 25                   		cmp	#2, r5
 908 01ee 3A A0 00                		beq	.L64
 909 01f1 61 35                   		cmp	#3, r5
 910 01f3 3A B6 00                		beq	.L65
 911                             	.LVL101:
 912 01f6 EF 00                   		.balign 8,3,4
 913                             	.L66:
 245:../src/smc_gen/r_drw2d_rx/src/tes/dave_dlist.h ****    dlist->blocksize--;
 914                             		.loc 2 245 4 view .LVU355
 245:../src/smc_gen/r_drw2d_rx/src/tes/dave_dlist.h ****    dlist->blocksize--;
 915                             		.loc 2 245 20 is_stmt 0 view .LVU356
 916 01f8 3E 76 00                		mov.L	#0, 24[r7]
 246:../src/smc_gen/r_drw2d_rx/src/tes/dave_dlist.h **** 
 917                             		.loc 2 246 4 is_stmt 1 view .LVU357
 246:../src/smc_gen/r_drw2d_rx/src/tes/dave_dlist.h **** 
 918                             		.loc 2 246 9 is_stmt 0 view .LVU358
 919 01fb A9 FD                   		mov.L	28[r7], r5
 246:../src/smc_gen/r_drw2d_rx/src/tes/dave_dlist.h **** 
 920                             		.loc 2 246 20 view .LVU359
 921 01fd 60 15                   		sub	#1, r5
 922 01ff A1 FD                   		mov.L	r5, 28[r7]
 923                             		.loc 2 249 4 is_stmt 1 view .LVU360
 924                             	.LVL102:
 925                             		.loc 2 249 4 is_stmt 0 view .LVU361
 926                             	.LBE38:
 927                             	.LBE37:
 393:../src/smc_gen/r_drw2d_rx/src/tes/dave_dlist.c **** 
 928                             		.loc 1 393 10 is_stmt 1 view .LVU362
 393:../src/smc_gen/r_drw2d_rx/src/tes/dave_dlist.c **** 
 929                             		.loc 1 393 49 is_stmt 0 view .LVU363
 930 0201 ED A2 04                		mov.L	16[r10], r2
 393:../src/smc_gen/r_drw2d_rx/src/tes/dave_dlist.c **** 
 931                             		.loc 1 393 72 view .LVU364
 932 0204 A8 F5                   		mov.L	8[r7], r5
 393:../src/smc_gen/r_drw2d_rx/src/tes/dave_dlist.c **** 
 933                             		.loc 1 393 86 view .LVU365
 934 0206 A8 5B                   		mov.L	4[r5], r3
 393:../src/smc_gen/r_drw2d_rx/src/tes/dave_dlist.c **** 
 935                             		.loc 1 393 139 view .LVU366
 936 0208 A8 D4                   		mov.L	8[r5], r4
 393:../src/smc_gen/r_drw2d_rx/src/tes/dave_dlist.c **** 
 937                             		.loc 1 393 16 view .LVU367
 938 020a F8 06 10                		mov.L	#16, [r0]
 939 020d 75 14 14                		mul	#20, r4
 940 0210 EF 61                   		mov.L	r6, r1
 941 0212 05 00 00 00             		bsr	_d1_copytovidmem
 942                             	.LVL103:
 395:../src/smc_gen/r_drw2d_rx/src/tes/dave_dlist.c ****          {
 943                             		.loc 1 395 10 is_stmt 1 view .LVU368
 395:../src/smc_gen/r_drw2d_rx/src/tes/dave_dlist.c ****          {
 944                             		.loc 1 395 21 is_stmt 0 view .LVU369
 945 0216 ED B5 01                		mov.L	4[r11], r5
 395:../src/smc_gen/r_drw2d_rx/src/tes/dave_dlist.c ****          {
 946                             		.loc 1 395 12 view .LVU370
 947 0219 61 05                   		cmp	#0, r5
 948 021b 20 86                   		beq	.L57
 397:../src/smc_gen/r_drw2d_rx/src/tes/dave_dlist.c ****             vidmemBlocks->currentaddress = *nextblock;
 949                             		.loc 1 397 13 is_stmt 1 view .LVU371
 397:../src/smc_gen/r_drw2d_rx/src/tes/dave_dlist.c ****             vidmemBlocks->currentaddress = *nextblock;
 950                             		.loc 1 397 42 is_stmt 0 view .LVU372
 951 021d E7 AC 03                		mov.L	r12, 12[r10]
 398:../src/smc_gen/r_drw2d_rx/src/tes/dave_dlist.c ****             vidmemBlocks->slicesleft     = vidmemBlocks->num_slices;
 952                             		.loc 1 398 13 is_stmt 1 view .LVU373
 398:../src/smc_gen/r_drw2d_rx/src/tes/dave_dlist.c ****             vidmemBlocks->slicesleft     = vidmemBlocks->num_slices;
 953                             		.loc 1 398 42 is_stmt 0 view .LVU374
 954 0220 E5 BA 01 04             		mov.L	4[r11], 16[r10]
 399:../src/smc_gen/r_drw2d_rx/src/tes/dave_dlist.c ****          }
 955                             		.loc 1 399 13 is_stmt 1 view .LVU375
 399:../src/smc_gen/r_drw2d_rx/src/tes/dave_dlist.c ****          }
 956                             		.loc 1 399 42 is_stmt 0 view .LVU376
 957 0224 E5 AA 05 06             		mov.L	20[r10], 24[r10]
 958 0228 38 79 FF                		bra	.L57
 959                             	.LVL104:
 960                             	.L71:
 371:../src/smc_gen/r_drw2d_rx/src/tes/dave_dlist.c ****             if(NULL == *nextblock)
 961                             		.loc 1 371 13 is_stmt 1 view .LVU377
 371:../src/smc_gen/r_drw2d_rx/src/tes/dave_dlist.c ****             if(NULL == *nextblock)
 962                             		.loc 1 371 96 is_stmt 0 view .LVU378
 963 022b ED A3 02                		mov.L	8[r10], r3
 371:../src/smc_gen/r_drw2d_rx/src/tes/dave_dlist.c ****             if(NULL == *nextblock)
 964                             		.loc 1 371 26 view .LVU379
 965 022e 75 13 14                		mul	#20, r3
 966 0231 66 42                   		mov.L	#4, r2
 967 0233 EF 61                   		mov.L	r6, r1
 968                             	.LVL105:
 371:../src/smc_gen/r_drw2d_rx/src/tes/dave_dlist.c ****             if(NULL == *nextblock)
 969                             		.loc 1 371 26 view .LVU380
 970 0235 05 00 00 00             		bsr	_d1_allocvidmem
 971                             	.LVL106:
 371:../src/smc_gen/r_drw2d_rx/src/tes/dave_dlist.c ****             if(NULL == *nextblock)
 972                             		.loc 1 371 24 view .LVU381
 973 0239 E7 B1 01                		mov.L	r1, 4[r11]
 372:../src/smc_gen/r_drw2d_rx/src/tes/dave_dlist.c ****             {
 974                             		.loc 1 372 13 is_stmt 1 view .LVU382
 372:../src/smc_gen/r_drw2d_rx/src/tes/dave_dlist.c ****             {
 975                             		.loc 1 372 15 is_stmt 0 view .LVU383
 976 023c 61 01                   		cmp	#0, r1
 977 023e 21 8C                   		bne	.L59
 374:../src/smc_gen/r_drw2d_rx/src/tes/dave_dlist.c ****             }
 978                             		.loc 1 374 16 is_stmt 1 view .LVU384
 979 0240 EC 75                   		mov.L	[r7], r5
 374:../src/smc_gen/r_drw2d_rx/src/tes/dave_dlist.c ****             }
 980                             		.loc 1 374 57 is_stmt 0 view .LVU385
 981 0242 FA 54 C7 01 01          		mov.B	#1, 455[r5]
 982 0247 2E 83                   		bra	.L59
 983                             	.L61:
 387:../src/smc_gen/r_drw2d_rx/src/tes/dave_dlist.c ****             }
 984                             		.loc 1 387 16 is_stmt 1 view .LVU386
 985                             	.LVL107:
 986                             	.LBB40:
 987                             	.LBI40:
 182:../src/smc_gen/r_drw2d_rx/src/tes/dave_dlist.h **** {
 988                             		.loc 2 182 26 view .LVU387
 989                             	.LBB41:
 184:../src/smc_gen/r_drw2d_rx/src/tes/dave_dlist.h **** 
 990                             		.loc 2 184 4 view .LVU388
 187:../src/smc_gen/r_drw2d_rx/src/tes/dave_dlist.h ****    dlist->position->value[0] = (d2_s32)target;
 991                             		.loc 2 187 4 view .LVU389
 187:../src/smc_gen/r_drw2d_rx/src/tes/dave_dlist.h ****    dlist->position->value[0] = (d2_s32)target;
 992                             		.loc 2 187 9 is_stmt 0 view .LVU390
 993 0249 A9 74                   		mov.L	16[r7], r4
 187:../src/smc_gen/r_drw2d_rx/src/tes/dave_dlist.h ****    dlist->position->value[0] = (d2_s32)target;
 994                             		.loc 2 187 34 view .LVU391
 995 024b F8 42 32 80 80 80       		mov.L	#-2139062222, [r4]
 188:../src/smc_gen/r_drw2d_rx/src/tes/dave_dlist.h **** 
 996                             		.loc 2 188 4 is_stmt 1 view .LVU392
 188:../src/smc_gen/r_drw2d_rx/src/tes/dave_dlist.h **** 
 997                             		.loc 2 188 9 is_stmt 0 view .LVU393
 998 0251 A9 74                   		mov.L	16[r7], r4
 188:../src/smc_gen/r_drw2d_rx/src/tes/dave_dlist.h **** 
 999                             		.loc 2 188 30 view .LVU394
 1000 0253 A0 4D                   		mov.L	r5, 4[r4]
 191:../src/smc_gen/r_drw2d_rx/src/tes/dave_dlist.h ****    dlist->currentblock->jump = patch;
 1001                             		.loc 2 191 4 is_stmt 1 view .LVU395
 191:../src/smc_gen/r_drw2d_rx/src/tes/dave_dlist.h ****    dlist->currentblock->jump = patch;
 1002                             		.loc 2 191 19 is_stmt 0 view .LVU396
 1003 0255 A9 75                   		mov.L	16[r7], r5
 1004                             	.LVL108:
 191:../src/smc_gen/r_drw2d_rx/src/tes/dave_dlist.h ****    dlist->currentblock->jump = patch;
 1005                             		.loc 2 191 10 view .LVU397
 1006 0257 62 45                   		add	#4, r5
 1007                             	.LVL109:
 192:../src/smc_gen/r_drw2d_rx/src/tes/dave_dlist.h **** 
 1008                             		.loc 2 192 4 is_stmt 1 view .LVU398
 192:../src/smc_gen/r_drw2d_rx/src/tes/dave_dlist.h **** 
 1009                             		.loc 2 192 9 is_stmt 0 view .LVU399
 1010 0259 A8 F4                   		mov.L	8[r7], r4
 1011                             	.LVL110:
 192:../src/smc_gen/r_drw2d_rx/src/tes/dave_dlist.h **** 
 1012                             		.loc 2 192 30 view .LVU400
 1013 025b A0 CD                   		mov.L	r5, 12[r4]
 195:../src/smc_gen/r_drw2d_rx/src/tes/dave_dlist.h ****    dlist->tagindex = 0;
 1014                             		.loc 2 195 4 is_stmt 1 view .LVU401
 195:../src/smc_gen/r_drw2d_rx/src/tes/dave_dlist.h ****    dlist->tagindex = 0;
 1015                             		.loc 2 195 57 is_stmt 0 view .LVU402
 1016 025d A9 75                   		mov.L	16[r7], r5
 1017                             	.LVL111:
 195:../src/smc_gen/r_drw2d_rx/src/tes/dave_dlist.h ****    dlist->tagindex = 0;
 1018                             		.loc 2 195 22 view .LVU403
 1019 025f 62 85                   		add	#8, r5
 195:../src/smc_gen/r_drw2d_rx/src/tes/dave_dlist.h ****    dlist->tagindex = 0;
 1020                             		.loc 2 195 20 view .LVU404
 1021 0261 A1 75                   		mov.L	r5, 16[r7]
 1022                             	.LVL112:
 196:../src/smc_gen/r_drw2d_rx/src/tes/dave_dlist.h **** 
 1023                             		.loc 2 196 4 is_stmt 1 view .LVU405
 196:../src/smc_gen/r_drw2d_rx/src/tes/dave_dlist.h **** 
 1024                             		.loc 2 196 20 is_stmt 0 view .LVU406
 1025 0263 3E 76 00                		mov.L	#0, 24[r7]
 198:../src/smc_gen/r_drw2d_rx/src/tes/dave_dlist.h **** }
 1026                             		.loc 2 198 4 is_stmt 1 view .LVU407
 1027 0266 38 78 FF                		bra	.L60
 1028                             	.LVL113:
 1029                             	.L63:
 198:../src/smc_gen/r_drw2d_rx/src/tes/dave_dlist.h **** }
 1030                             		.loc 2 198 4 is_stmt 0 view .LVU408
 1031                             	.LBE41:
 1032                             	.LBE40:
 1033                             	.LBB42:
 1034                             	.LBB39:
 212:../src/smc_gen/r_drw2d_rx/src/tes/dave_dlist.h ****          dlist->position = (d2_dlist_entry *) ((d2_s32*)pos + 1);
 1035                             		.loc 2 212 10 is_stmt 1 view .LVU409
 212:../src/smc_gen/r_drw2d_rx/src/tes/dave_dlist.h ****          dlist->position = (d2_dlist_entry *) ((d2_s32*)pos + 1);
 1036                             		.loc 2 212 28 is_stmt 0 view .LVU410
 1037 0269 FB 5A FF 03             		mov.L	#0x3ff, r5
 1038                             	.LVL114:
 212:../src/smc_gen/r_drw2d_rx/src/tes/dave_dlist.h ****          dlist->position = (d2_dlist_entry *) ((d2_s32*)pos + 1);
 1039                             		.loc 2 212 28 view .LVU411
 1040 026d FD 22 45                		mov.L	r5, [r4+]
 1041                             	.LVL115:
 213:../src/smc_gen/r_drw2d_rx/src/tes/dave_dlist.h ****          break;
 1042                             		.loc 2 213 10 is_stmt 1 view .LVU412
 213:../src/smc_gen/r_drw2d_rx/src/tes/dave_dlist.h ****          break;
 1043                             		.loc 2 213 26 is_stmt 0 view .LVU413
 1044 0270 A1 74                   		mov.L	r4, 16[r7]
 214:../src/smc_gen/r_drw2d_rx/src/tes/dave_dlist.h **** 
 1045                             		.loc 2 214 10 is_stmt 1 view .LVU414
 1046 0272 2E 86                   		bra	.L66
 1047                             	.LVL116:
 1048                             	.L62:
 218:../src/smc_gen/r_drw2d_rx/src/tes/dave_dlist.h ****          pos->address.mask |= 0x80808000u;
 1049                             		.loc 2 218 10 view .LVU415
 218:../src/smc_gen/r_drw2d_rx/src/tes/dave_dlist.h ****          pos->address.mask |= 0x80808000u;
 1050                             		.loc 2 218 28 is_stmt 0 view .LVU416
 1051 0274 58 43                   		movu.B	[r4], r3
 219:../src/smc_gen/r_drw2d_rx/src/tes/dave_dlist.h ****          pos->value[tagIndex] = (d2_s32) (0xffu | (argument << 8));
 1052                             		.loc 2 219 10 is_stmt 1 view .LVU417
 219:../src/smc_gen/r_drw2d_rx/src/tes/dave_dlist.h ****          pos->value[tagIndex] = (d2_s32) (0xffu | (argument << 8));
 1053                             		.loc 2 219 28 is_stmt 0 view .LVU418
 1054 0276 74 33 00 80 80 80       		or	#-2139062272, r3
 1055 027c E3 43                   		mov.L	r3, [r4]
 220:../src/smc_gen/r_drw2d_rx/src/tes/dave_dlist.h ****          dlist->position = (d2_dlist_entry *) ((d2_s32*)pos + 3);
 1056                             		.loc 2 220 10 is_stmt 1 view .LVU419
 220:../src/smc_gen/r_drw2d_rx/src/tes/dave_dlist.h ****          dlist->position = (d2_dlist_entry *) ((d2_s32*)pos + 3);
 1057                             		.loc 2 220 31 is_stmt 0 view .LVU420
 1058 027e 62 15                   		add	#1, r5
 1059                             	.LVL117:
 220:../src/smc_gen/r_drw2d_rx/src/tes/dave_dlist.h ****          dlist->position = (d2_dlist_entry *) ((d2_s32*)pos + 3);
 1060                             		.loc 2 220 31 view .LVU421
 1061 0280 FB 3A FF 03             		mov.L	#0x3ff, r3
 1062 0284 FE 25 43                		mov.L	r3, [r5,r4]
 221:../src/smc_gen/r_drw2d_rx/src/tes/dave_dlist.h ****          break;
 1063                             		.loc 2 221 10 is_stmt 1 view .LVU422
 221:../src/smc_gen/r_drw2d_rx/src/tes/dave_dlist.h ****          break;
 1064                             		.loc 2 221 28 is_stmt 0 view .LVU423
 1065 0287 62 C4                   		add	#12, r4
 1066                             	.LVL118:
 221:../src/smc_gen/r_drw2d_rx/src/tes/dave_dlist.h ****          break;
 1067                             		.loc 2 221 26 view .LVU424
 1068 0289 A1 74                   		mov.L	r4, 16[r7]
 222:../src/smc_gen/r_drw2d_rx/src/tes/dave_dlist.h **** 
 1069                             		.loc 2 222 10 is_stmt 1 view .LVU425
 1070 028b 38 6D FF                		bra	.L66
 1071                             	.LVL119:
 1072                             	.L64:
 226:../src/smc_gen/r_drw2d_rx/src/tes/dave_dlist.h ****          pos->address.mask |= 0x80800000u;
 1073                             		.loc 2 226 10 view .LVU426
 226:../src/smc_gen/r_drw2d_rx/src/tes/dave_dlist.h ****          pos->address.mask |= 0x80800000u;
 1074                             		.loc 2 226 28 is_stmt 0 view .LVU427
 1075 028e 5C 43                   		movu.W	[r4], r3
 227:../src/smc_gen/r_drw2d_rx/src/tes/dave_dlist.h ****          pos->value[tagIndex] = (d2_s32) (0xffu | (argument << 8));
 1076                             		.loc 2 227 10 is_stmt 1 view .LVU428
 227:../src/smc_gen/r_drw2d_rx/src/tes/dave_dlist.h ****          pos->value[tagIndex] = (d2_s32) (0xffu | (argument << 8));
 1077                             		.loc 2 227 28 is_stmt 0 view .LVU429
 1078 0290 74 33 00 00 80 80       		or	#-2139095040, r3
 1079 0296 E3 43                   		mov.L	r3, [r4]
 228:../src/smc_gen/r_drw2d_rx/src/tes/dave_dlist.h ****          dlist->position = (d2_dlist_entry *) ((d2_s32*)pos + 4);
 1080                             		.loc 2 228 10 is_stmt 1 view .LVU430
 228:../src/smc_gen/r_drw2d_rx/src/tes/dave_dlist.h ****          dlist->position = (d2_dlist_entry *) ((d2_s32*)pos + 4);
 1081                             		.loc 2 228 31 is_stmt 0 view .LVU431
 1082 0298 62 15                   		add	#1, r5
 1083                             	.LVL120:
 228:../src/smc_gen/r_drw2d_rx/src/tes/dave_dlist.h ****          dlist->position = (d2_dlist_entry *) ((d2_s32*)pos + 4);
 1084                             		.loc 2 228 31 view .LVU432
 1085 029a FB 3A FF 03             		mov.L	#0x3ff, r3
 1086 029e FE 25 43                		mov.L	r3, [r5,r4]
 229:../src/smc_gen/r_drw2d_rx/src/tes/dave_dlist.h ****          break;
 1087                             		.loc 2 229 10 is_stmt 1 view .LVU433
 229:../src/smc_gen/r_drw2d_rx/src/tes/dave_dlist.h ****          break;
 1088                             		.loc 2 229 28 is_stmt 0 view .LVU434
 1089 02a1 71 44 10                		add	#16, r4
 1090                             	.LVL121:
 229:../src/smc_gen/r_drw2d_rx/src/tes/dave_dlist.h ****          break;
 1091                             		.loc 2 229 26 view .LVU435
 1092 02a4 A1 74                   		mov.L	r4, 16[r7]
 230:../src/smc_gen/r_drw2d_rx/src/tes/dave_dlist.h **** 
 1093                             		.loc 2 230 10 is_stmt 1 view .LVU436
 1094 02a6 38 52 FF                		bra	.L66
 1095                             	.LVL122:
 1096                             	.L65:
 234:../src/smc_gen/r_drw2d_rx/src/tes/dave_dlist.h ****          pos->address.mask |= 0x80000000u;
 1097                             		.loc 2 234 10 view .LVU437
 234:../src/smc_gen/r_drw2d_rx/src/tes/dave_dlist.h ****          pos->address.mask |= 0x80000000u;
 1098                             		.loc 2 234 28 is_stmt 0 view .LVU438
 1099 02a9 EC 43                   		mov.L	[r4], r3
 1100 02ab 74 23 FF FF FF 00       		and #0xffffff, r3
 235:../src/smc_gen/r_drw2d_rx/src/tes/dave_dlist.h ****          pos->value[tagIndex] = (d2_s32) (0xffu | (argument << 8));
 1101                             		.loc 2 235 10 is_stmt 1 view .LVU439
 235:../src/smc_gen/r_drw2d_rx/src/tes/dave_dlist.h ****          pos->value[tagIndex] = (d2_s32) (0xffu | (argument << 8));
 1102                             		.loc 2 235 28 is_stmt 0 view .LVU440
 1103 02b1 74 33 00 00 00 80       		or	#-2147483648, r3
 1104 02b7 E3 43                   		mov.L	r3, [r4]
 236:../src/smc_gen/r_drw2d_rx/src/tes/dave_dlist.h ****          dlist->position++;
 1105                             		.loc 2 236 10 is_stmt 1 view .LVU441
 236:../src/smc_gen/r_drw2d_rx/src/tes/dave_dlist.h ****          dlist->position++;
 1106                             		.loc 2 236 31 is_stmt 0 view .LVU442
 1107 02b9 62 15                   		add	#1, r5
 1108                             	.LVL123:
 236:../src/smc_gen/r_drw2d_rx/src/tes/dave_dlist.h ****          dlist->position++;
 1109                             		.loc 2 236 31 view .LVU443
 1110 02bb FB 3A FF 03             		mov.L	#0x3ff, r3
 1111 02bf FE 25 43                		mov.L	r3, [r5,r4]
 237:../src/smc_gen/r_drw2d_rx/src/tes/dave_dlist.h ****          break;
 1112                             		.loc 2 237 10 is_stmt 1 view .LVU444
 237:../src/smc_gen/r_drw2d_rx/src/tes/dave_dlist.h ****          break;
 1113                             		.loc 2 237 15 is_stmt 0 view .LVU445
 1114 02c2 A9 75                   		mov.L	16[r7], r5
 1115                             	.LVL124:
 237:../src/smc_gen/r_drw2d_rx/src/tes/dave_dlist.h ****          break;
 1116                             		.loc 2 237 25 view .LVU446
 1117 02c4 71 55 14                		add	#20, r5
 1118 02c7 A1 75                   		mov.L	r5, 16[r7]
 238:../src/smc_gen/r_drw2d_rx/src/tes/dave_dlist.h **** 
 1119                             		.loc 2 238 10 is_stmt 1 view .LVU447
 1120 02c9 38 2F FF                		bra	.L66
 1121                             	.LVL125:
 1122                             	.L58:
 238:../src/smc_gen/r_drw2d_rx/src/tes/dave_dlist.h **** 
 1123                             		.loc 2 238 10 is_stmt 0 view .LVU448
 1124                             	.LBE39:
 1125                             	.LBE42:
 1126                             	.LBE36:
 402:../src/smc_gen/r_drw2d_rx/src/tes/dave_dlist.c ****       {
 1127                             		.loc 1 402 12 is_stmt 1 view .LVU449
 402:../src/smc_gen/r_drw2d_rx/src/tes/dave_dlist.c ****       {
 1128                             		.loc 1 402 15 is_stmt 0 view .LVU450
 1129 02cc 3B D5 FE                		bne	.L57
 402:../src/smc_gen/r_drw2d_rx/src/tes/dave_dlist.c ****       {
 1130                             		.loc 1 402 49 discriminator 1 view .LVU451
 1131 02cf 61 15                   		cmp	#1, r5
 1132 02d1 3B D0 FE                		bne	.L57
 404:../src/smc_gen/r_drw2d_rx/src/tes/dave_dlist.c ****       }
 1133                             		.loc 1 404 10 is_stmt 1 view .LVU452
 404:../src/smc_gen/r_drw2d_rx/src/tes/dave_dlist.c ****       }
 1134                             		.loc 1 404 51 is_stmt 0 view .LVU453
 1135 02d4 FA 44 C7 01 15          		mov.B	#21, 455[r4]
 1136 02d9 38 C8 FE                		bra	.L57
 1137                             	.LBE54:
 1138                             	.LFE11:
 1140 02dc 76 10 01 00             		.section	.text.d2_dlist2dlist_intern,"ax",@progbits
 1142                             	_d2_dlist2dlist_intern:
 1143                             	.LVL126:
 1144                             	.LFB19:
 424:../src/smc_gen/r_drw2d_rx/src/tes/dave_dlist.c **** 
 425:../src/smc_gen/r_drw2d_rx/src/tes/dave_dlist.c **** 
 426:../src/smc_gen/r_drw2d_rx/src/tes/dave_dlist.c **** /*--------------------------------------------------------------------------
 427:../src/smc_gen/r_drw2d_rx/src/tes/dave_dlist.c ****  * pad display list.
 428:../src/smc_gen/r_drw2d_rx/src/tes/dave_dlist.c ****  * pad remaining entries of current addressword with 0x80 nop codes and fix
 429:../src/smc_gen/r_drw2d_rx/src/tes/dave_dlist.c ****  * address to point onto the next free full entry.
 430:../src/smc_gen/r_drw2d_rx/src/tes/dave_dlist.c ****  * */
 431:../src/smc_gen/r_drw2d_rx/src/tes/dave_dlist.c **** void d2_paddlist_intern( d2_dlist *dlist )
 432:../src/smc_gen/r_drw2d_rx/src/tes/dave_dlist.c **** {
 433:../src/smc_gen/r_drw2d_rx/src/tes/dave_dlist.c ****    d2_u32 tagIndex = dlist->tagindex;
 434:../src/smc_gen/r_drw2d_rx/src/tes/dave_dlist.c ****    d2_dlist_entry *pos = dlist->position;
 435:../src/smc_gen/r_drw2d_rx/src/tes/dave_dlist.c **** 
 436:../src/smc_gen/r_drw2d_rx/src/tes/dave_dlist.c ****    switch (tagIndex)
 437:../src/smc_gen/r_drw2d_rx/src/tes/dave_dlist.c ****    {
 438:../src/smc_gen/r_drw2d_rx/src/tes/dave_dlist.c ****       case 0:
 439:../src/smc_gen/r_drw2d_rx/src/tes/dave_dlist.c ****          /* list already closed */
 440:../src/smc_gen/r_drw2d_rx/src/tes/dave_dlist.c ****          return;
 441:../src/smc_gen/r_drw2d_rx/src/tes/dave_dlist.c **** 
 442:../src/smc_gen/r_drw2d_rx/src/tes/dave_dlist.c ****       case 1:
 443:../src/smc_gen/r_drw2d_rx/src/tes/dave_dlist.c ****          pos->address.mask &= 0x000000ffu;
 444:../src/smc_gen/r_drw2d_rx/src/tes/dave_dlist.c ****          pos->address.mask |= 0x80808000u;
 445:../src/smc_gen/r_drw2d_rx/src/tes/dave_dlist.c ****          dlist->position = (d2_dlist_entry *) ((d2_s32*)pos + 2);
 446:../src/smc_gen/r_drw2d_rx/src/tes/dave_dlist.c ****          break;
 447:../src/smc_gen/r_drw2d_rx/src/tes/dave_dlist.c **** 
 448:../src/smc_gen/r_drw2d_rx/src/tes/dave_dlist.c ****       case 2:
 449:../src/smc_gen/r_drw2d_rx/src/tes/dave_dlist.c ****          pos->address.mask &= 0x0000ffffu;
 450:../src/smc_gen/r_drw2d_rx/src/tes/dave_dlist.c ****          pos->address.mask |= 0x80800000u;
 451:../src/smc_gen/r_drw2d_rx/src/tes/dave_dlist.c ****          dlist->position = (d2_dlist_entry *) ((d2_s32*)pos + 3);
 452:../src/smc_gen/r_drw2d_rx/src/tes/dave_dlist.c ****          break;
 453:../src/smc_gen/r_drw2d_rx/src/tes/dave_dlist.c **** 
 454:../src/smc_gen/r_drw2d_rx/src/tes/dave_dlist.c ****       case 3:
 455:../src/smc_gen/r_drw2d_rx/src/tes/dave_dlist.c ****          pos->address.mask &= 0x00ffffffu;
 456:../src/smc_gen/r_drw2d_rx/src/tes/dave_dlist.c ****          pos->address.mask |= 0x80000000u;
 457:../src/smc_gen/r_drw2d_rx/src/tes/dave_dlist.c ****          dlist->position = (d2_dlist_entry *) ((d2_s32*)pos + 4);
 458:../src/smc_gen/r_drw2d_rx/src/tes/dave_dlist.c ****          break;
 459:../src/smc_gen/r_drw2d_rx/src/tes/dave_dlist.c ****          
 460:../src/smc_gen/r_drw2d_rx/src/tes/dave_dlist.c ****       default:
 461:../src/smc_gen/r_drw2d_rx/src/tes/dave_dlist.c ****          break;
 462:../src/smc_gen/r_drw2d_rx/src/tes/dave_dlist.c ****    }
 463:../src/smc_gen/r_drw2d_rx/src/tes/dave_dlist.c **** 
 464:../src/smc_gen/r_drw2d_rx/src/tes/dave_dlist.c ****    /* fix tag */
 465:../src/smc_gen/r_drw2d_rx/src/tes/dave_dlist.c ****    dlist->tagindex = 0;
 466:../src/smc_gen/r_drw2d_rx/src/tes/dave_dlist.c ****    dlist->blocksize--;
 467:../src/smc_gen/r_drw2d_rx/src/tes/dave_dlist.c **** }
 468:../src/smc_gen/r_drw2d_rx/src/tes/dave_dlist.c **** 
 469:../src/smc_gen/r_drw2d_rx/src/tes/dave_dlist.c **** /*-------------------------------------------------------------------------- */
 470:../src/smc_gen/r_drw2d_rx/src/tes/dave_dlist.c **** void d2_resetdlist_intern( d2_dlist *dlist )
 471:../src/smc_gen/r_drw2d_rx/src/tes/dave_dlist.c **** {
 472:../src/smc_gen/r_drw2d_rx/src/tes/dave_dlist.c **** #ifdef D2_USEREGCACHE
 473:../src/smc_gen/r_drw2d_rx/src/tes/dave_dlist.c ****    d2_cacheddata *cachedData = & ((d2_devicedata *) dlist->device)->cache;
 474:../src/smc_gen/r_drw2d_rx/src/tes/dave_dlist.c ****    d2_s32 regIdx;
 475:../src/smc_gen/r_drw2d_rx/src/tes/dave_dlist.c ****    if(0 == (((d2_devicedata *) dlist->device)->flags & d2_df_no_registercaching))
 476:../src/smc_gen/r_drw2d_rx/src/tes/dave_dlist.c ****    {
 477:../src/smc_gen/r_drw2d_rx/src/tes/dave_dlist.c ****       for (regIdx = 0; regIdx < D2_QUANTITY; regIdx++)
 478:../src/smc_gen/r_drw2d_rx/src/tes/dave_dlist.c ****       {
 479:../src/smc_gen/r_drw2d_rx/src/tes/dave_dlist.c ****          cachedData->valid[regIdx] = 0;
 480:../src/smc_gen/r_drw2d_rx/src/tes/dave_dlist.c ****       }
 481:../src/smc_gen/r_drw2d_rx/src/tes/dave_dlist.c ****    }
 482:../src/smc_gen/r_drw2d_rx/src/tes/dave_dlist.c **** #endif
 483:../src/smc_gen/r_drw2d_rx/src/tes/dave_dlist.c **** 
 484:../src/smc_gen/r_drw2d_rx/src/tes/dave_dlist.c ****    dlist->currentblock = dlist->firstblock;
 485:../src/smc_gen/r_drw2d_rx/src/tes/dave_dlist.c ****    dlist->resumeblock  = dlist->firstblock;
 486:../src/smc_gen/r_drw2d_rx/src/tes/dave_dlist.c **** 
 487:../src/smc_gen/r_drw2d_rx/src/tes/dave_dlist.c ****    if(NULL != dlist->vidmem_blocks)
 488:../src/smc_gen/r_drw2d_rx/src/tes/dave_dlist.c ****    {
 489:../src/smc_gen/r_drw2d_rx/src/tes/dave_dlist.c ****       dlist->vidmem_blocks->currentblock   = dlist->vidmem_blocks->blocks;
 490:../src/smc_gen/r_drw2d_rx/src/tes/dave_dlist.c ****       dlist->vidmem_blocks->currentaddress = dlist->vidmem_blocks->blocks[0];
 491:../src/smc_gen/r_drw2d_rx/src/tes/dave_dlist.c ****       dlist->vidmem_blocks->blocksleft     = dlist->vidmem_blocks->num_blocks;
 492:../src/smc_gen/r_drw2d_rx/src/tes/dave_dlist.c ****       dlist->vidmem_blocks->slicesleft     = dlist->vidmem_blocks->num_slices;
 493:../src/smc_gen/r_drw2d_rx/src/tes/dave_dlist.c ****    }
 494:../src/smc_gen/r_drw2d_rx/src/tes/dave_dlist.c **** 
 495:../src/smc_gen/r_drw2d_rx/src/tes/dave_dlist.c ****    dlist->position  = dlist->firstblock->block;
 496:../src/smc_gen/r_drw2d_rx/src/tes/dave_dlist.c ****    dlist->blocksize = dlist->firstblock->quantity;
 497:../src/smc_gen/r_drw2d_rx/src/tes/dave_dlist.c ****    dlist->tagindex  = 0;
 498:../src/smc_gen/r_drw2d_rx/src/tes/dave_dlist.c ****    dlist->count     = 0;
 499:../src/smc_gen/r_drw2d_rx/src/tes/dave_dlist.c **** 
 500:../src/smc_gen/r_drw2d_rx/src/tes/dave_dlist.c **** }
 501:../src/smc_gen/r_drw2d_rx/src/tes/dave_dlist.c **** 
 502:../src/smc_gen/r_drw2d_rx/src/tes/dave_dlist.c **** /*--------------------------------------------------------------------------
 503:../src/smc_gen/r_drw2d_rx/src/tes/dave_dlist.c ****  * prepare display list for reading.
 504:../src/smc_gen/r_drw2d_rx/src/tes/dave_dlist.c ****  * terminates the list with an FF command, applies padding and shrinks dlist
 505:../src/smc_gen/r_drw2d_rx/src/tes/dave_dlist.c ****  * if possible
 506:../src/smc_gen/r_drw2d_rx/src/tes/dave_dlist.c ****  * */
 507:../src/smc_gen/r_drw2d_rx/src/tes/dave_dlist.c **** void* d2_preparedlist_read_intern( const d2_device *handle, d2_dlist *dlist, d2_s32 reset )
 508:../src/smc_gen/r_drw2d_rx/src/tes/dave_dlist.c **** {
 509:../src/smc_gen/r_drw2d_rx/src/tes/dave_dlist.c ****    void *next_dlist_start = 0;
 510:../src/smc_gen/r_drw2d_rx/src/tes/dave_dlist.c **** 
 511:../src/smc_gen/r_drw2d_rx/src/tes/dave_dlist.c ****    /* copy scratch buffer to dlist (dlist cache flush) */
 512:../src/smc_gen/r_drw2d_rx/src/tes/dave_dlist.c ****    d2_scratch2dlist_intern( dlist->device );
 513:../src/smc_gen/r_drw2d_rx/src/tes/dave_dlist.c **** 
 514:../src/smc_gen/r_drw2d_rx/src/tes/dave_dlist.c ****    /* mark end of scene in dlist */
 515:../src/smc_gen/r_drw2d_rx/src/tes/dave_dlist.c ****    d2_insertdlistspecial_intern( dlist, 3 );
 516:../src/smc_gen/r_drw2d_rx/src/tes/dave_dlist.c **** 
 517:../src/smc_gen/r_drw2d_rx/src/tes/dave_dlist.c ****    if (D2_DEV(handle)->lowlocalmem_mode == NULL)
 518:../src/smc_gen/r_drw2d_rx/src/tes/dave_dlist.c ****    {
 519:../src/smc_gen/r_drw2d_rx/src/tes/dave_dlist.c ****       /* update shrinkcount */
 520:../src/smc_gen/r_drw2d_rx/src/tes/dave_dlist.c ****       if(NULL != dlist->currentblock->next)
 521:../src/smc_gen/r_drw2d_rx/src/tes/dave_dlist.c ****       {
 522:../src/smc_gen/r_drw2d_rx/src/tes/dave_dlist.c ****          ++dlist->shrinkcount;  /* list is too long */
 523:../src/smc_gen/r_drw2d_rx/src/tes/dave_dlist.c ****       }
 524:../src/smc_gen/r_drw2d_rx/src/tes/dave_dlist.c ****       else
 525:../src/smc_gen/r_drw2d_rx/src/tes/dave_dlist.c ****       {
 526:../src/smc_gen/r_drw2d_rx/src/tes/dave_dlist.c ****          dlist->shrinkcount = 0; /* at end of list */
 527:../src/smc_gen/r_drw2d_rx/src/tes/dave_dlist.c ****       }
 528:../src/smc_gen/r_drw2d_rx/src/tes/dave_dlist.c **** 
 529:../src/smc_gen/r_drw2d_rx/src/tes/dave_dlist.c ****       if (dlist->shrinkcount == D2_DLISTSHRINKDELAY)
 530:../src/smc_gen/r_drw2d_rx/src/tes/dave_dlist.c ****       {
 531:../src/smc_gen/r_drw2d_rx/src/tes/dave_dlist.c ****          /* go to penultimate element in list */
 532:../src/smc_gen/r_drw2d_rx/src/tes/dave_dlist.c ****          d2_dlist_block *blk = dlist->currentblock;
 533:../src/smc_gen/r_drw2d_rx/src/tes/dave_dlist.c ****          while(NULL != blk->next->next)
 534:../src/smc_gen/r_drw2d_rx/src/tes/dave_dlist.c ****          {
 535:../src/smc_gen/r_drw2d_rx/src/tes/dave_dlist.c ****             blk = blk->next;
 536:../src/smc_gen/r_drw2d_rx/src/tes/dave_dlist.c ****          }
 537:../src/smc_gen/r_drw2d_rx/src/tes/dave_dlist.c **** 
 538:../src/smc_gen/r_drw2d_rx/src/tes/dave_dlist.c ****          /* free the last element */
 539:../src/smc_gen/r_drw2d_rx/src/tes/dave_dlist.c ****          d2_free_dlistblock_intern(dlist->device, blk->next);
 540:../src/smc_gen/r_drw2d_rx/src/tes/dave_dlist.c ****          blk->next = NULL;
 541:../src/smc_gen/r_drw2d_rx/src/tes/dave_dlist.c ****          dlist->shrinkcount = 0;
 542:../src/smc_gen/r_drw2d_rx/src/tes/dave_dlist.c ****       }
 543:../src/smc_gen/r_drw2d_rx/src/tes/dave_dlist.c ****    }
 544:../src/smc_gen/r_drw2d_rx/src/tes/dave_dlist.c **** 
 545:../src/smc_gen/r_drw2d_rx/src/tes/dave_dlist.c ****    /* copy resp. flush dlist to vidmem */
 546:../src/smc_gen/r_drw2d_rx/src/tes/dave_dlist.c ****    if(NULL != dlist->vidmem_blocks)
 547:../src/smc_gen/r_drw2d_rx/src/tes/dave_dlist.c ****    {
 548:../src/smc_gen/r_drw2d_rx/src/tes/dave_dlist.c ****       /* low_local_memory_mode */
 549:../src/smc_gen/r_drw2d_rx/src/tes/dave_dlist.c ****       if(0 != reset)
 550:../src/smc_gen/r_drw2d_rx/src/tes/dave_dlist.c ****       {
 551:../src/smc_gen/r_drw2d_rx/src/tes/dave_dlist.c ****          (void)d1_copytovidmem( d2_level1interface(dlist->device), 
 552:../src/smc_gen/r_drw2d_rx/src/tes/dave_dlist.c ****                                 dlist->vidmem_blocks->currentaddress,
 553:../src/smc_gen/r_drw2d_rx/src/tes/dave_dlist.c ****                                 dlist->currentblock->block, 
 554:../src/smc_gen/r_drw2d_rx/src/tes/dave_dlist.c ****                                 (d2_u32)(sizeof(d2_dlist_entry) * (dlist->currentblock->quantity - 
 555:../src/smc_gen/r_drw2d_rx/src/tes/dave_dlist.c ****                                 0
 556:../src/smc_gen/r_drw2d_rx/src/tes/dave_dlist.c ****                                 );
 557:../src/smc_gen/r_drw2d_rx/src/tes/dave_dlist.c ****       } 
 558:../src/smc_gen/r_drw2d_rx/src/tes/dave_dlist.c ****       /* if !reset then d1_copytovidmem is done below by d2_nextdlistblock_intern */
 559:../src/smc_gen/r_drw2d_rx/src/tes/dave_dlist.c ****    }
 560:../src/smc_gen/r_drw2d_rx/src/tes/dave_dlist.c ****    else if(0 != (D2_DEV(handle)->hwmemarchitecture & d1_ma_separated))
 561:../src/smc_gen/r_drw2d_rx/src/tes/dave_dlist.c ****    {
 562:../src/smc_gen/r_drw2d_rx/src/tes/dave_dlist.c ****       d2_copydlist_vidmem_intern( dlist );
 563:../src/smc_gen/r_drw2d_rx/src/tes/dave_dlist.c ****    }
 564:../src/smc_gen/r_drw2d_rx/src/tes/dave_dlist.c ****    else if (0 != (D2_DEV(handle)->hwmemarchitecture & d1_ma_mapped))
 565:../src/smc_gen/r_drw2d_rx/src/tes/dave_dlist.c ****    {
 566:../src/smc_gen/r_drw2d_rx/src/tes/dave_dlist.c ****       d2_mapdlist_vidmem_intern( dlist );
 567:../src/smc_gen/r_drw2d_rx/src/tes/dave_dlist.c ****    }
 568:../src/smc_gen/r_drw2d_rx/src/tes/dave_dlist.c ****    else
 569:../src/smc_gen/r_drw2d_rx/src/tes/dave_dlist.c ****    {
 570:../src/smc_gen/r_drw2d_rx/src/tes/dave_dlist.c ****       d2_cacheflushdlist_intern( dlist );
 571:../src/smc_gen/r_drw2d_rx/src/tes/dave_dlist.c ****    }
 572:../src/smc_gen/r_drw2d_rx/src/tes/dave_dlist.c **** 
 573:../src/smc_gen/r_drw2d_rx/src/tes/dave_dlist.c ****    if(0 != reset)
 574:../src/smc_gen/r_drw2d_rx/src/tes/dave_dlist.c ****    {
 575:../src/smc_gen/r_drw2d_rx/src/tes/dave_dlist.c ****       /* reset list */
 576:../src/smc_gen/r_drw2d_rx/src/tes/dave_dlist.c ****       d2_resetdlist_intern( dlist );
 577:../src/smc_gen/r_drw2d_rx/src/tes/dave_dlist.c ****       dlist->busy = 0;
 578:../src/smc_gen/r_drw2d_rx/src/tes/dave_dlist.c ****    }
 579:../src/smc_gen/r_drw2d_rx/src/tes/dave_dlist.c ****    else
 580:../src/smc_gen/r_drw2d_rx/src/tes/dave_dlist.c ****    { /* goto next dlist block and get the current_dlist_start */
 581:../src/smc_gen/r_drw2d_rx/src/tes/dave_dlist.c **** 
 582:../src/smc_gen/r_drw2d_rx/src/tes/dave_dlist.c ****       /* mark dlist block to be full, so d2_nextdlistblock_intern will move to next block in any ca
 583:../src/smc_gen/r_drw2d_rx/src/tes/dave_dlist.c ****       dlist->blocksize = 0;
 584:../src/smc_gen/r_drw2d_rx/src/tes/dave_dlist.c **** 
 585:../src/smc_gen/r_drw2d_rx/src/tes/dave_dlist.c ****       /* resume adding commands in a new block */
 586:../src/smc_gen/r_drw2d_rx/src/tes/dave_dlist.c ****       d2_nextdlistblock_intern( dlist );
 587:../src/smc_gen/r_drw2d_rx/src/tes/dave_dlist.c ****       dlist->resumeblock = dlist->currentblock;
 588:../src/smc_gen/r_drw2d_rx/src/tes/dave_dlist.c **** 
 589:../src/smc_gen/r_drw2d_rx/src/tes/dave_dlist.c ****       if(NULL != dlist->vidmem_blocks)
 590:../src/smc_gen/r_drw2d_rx/src/tes/dave_dlist.c ****       {
 591:../src/smc_gen/r_drw2d_rx/src/tes/dave_dlist.c ****          /* low_local_memory_mode */
 592:../src/smc_gen/r_drw2d_rx/src/tes/dave_dlist.c ****          next_dlist_start =  dlist->vidmem_blocks->currentaddress;
 593:../src/smc_gen/r_drw2d_rx/src/tes/dave_dlist.c ****       }
 594:../src/smc_gen/r_drw2d_rx/src/tes/dave_dlist.c ****       else if( (0 != ((D2_DEV(handle)->hwmemarchitecture) & (d1_ma_separated | d1_ma_mapped))) && (
 595:../src/smc_gen/r_drw2d_rx/src/tes/dave_dlist.c ****       {
 596:../src/smc_gen/r_drw2d_rx/src/tes/dave_dlist.c ****          next_dlist_start = dlist->currentblock->vidmem;
 597:../src/smc_gen/r_drw2d_rx/src/tes/dave_dlist.c ****       }
 598:../src/smc_gen/r_drw2d_rx/src/tes/dave_dlist.c ****       else
 599:../src/smc_gen/r_drw2d_rx/src/tes/dave_dlist.c ****       {
 600:../src/smc_gen/r_drw2d_rx/src/tes/dave_dlist.c ****          next_dlist_start = dlist->position;
 601:../src/smc_gen/r_drw2d_rx/src/tes/dave_dlist.c ****       }
 602:../src/smc_gen/r_drw2d_rx/src/tes/dave_dlist.c ****    }
 603:../src/smc_gen/r_drw2d_rx/src/tes/dave_dlist.c **** 
 604:../src/smc_gen/r_drw2d_rx/src/tes/dave_dlist.c ****    return next_dlist_start;
 605:../src/smc_gen/r_drw2d_rx/src/tes/dave_dlist.c **** }
 606:../src/smc_gen/r_drw2d_rx/src/tes/dave_dlist.c **** 
 607:../src/smc_gen/r_drw2d_rx/src/tes/dave_dlist.c **** /*--------------------------------------------------------------------------
 608:../src/smc_gen/r_drw2d_rx/src/tes/dave_dlist.c ****  * simulated execution of a single display list page. optimized for speed
 609:../src/smc_gen/r_drw2d_rx/src/tes/dave_dlist.c ****  * returns end of list argument.
 610:../src/smc_gen/r_drw2d_rx/src/tes/dave_dlist.c ****  * note list MUST be terminated correctly
 611:../src/smc_gen/r_drw2d_rx/src/tes/dave_dlist.c ****  * */
 612:../src/smc_gen/r_drw2d_rx/src/tes/dave_dlist.c **** d2_u32 d2_executedlist_intern( const d2_device *handle, d2_dlist_entry *block )
 613:../src/smc_gen/r_drw2d_rx/src/tes/dave_dlist.c **** {
 614:../src/smc_gen/r_drw2d_rx/src/tes/dave_dlist.c ****    d2_u32 adrmask;
 615:../src/smc_gen/r_drw2d_rx/src/tes/dave_dlist.c ****    d2_u32 argument = 0;
 616:../src/smc_gen/r_drw2d_rx/src/tes/dave_dlist.c ****    d1_device *id = D2_DEV(handle)->hwid;
 617:../src/smc_gen/r_drw2d_rx/src/tes/dave_dlist.c ****    d2_u32 a1,a2,a3,a4;
 618:../src/smc_gen/r_drw2d_rx/src/tes/dave_dlist.c **** 
 619:../src/smc_gen/r_drw2d_rx/src/tes/dave_dlist.c ****    for (;;)
 620:../src/smc_gen/r_drw2d_rx/src/tes/dave_dlist.c ****    {
 621:../src/smc_gen/r_drw2d_rx/src/tes/dave_dlist.c ****       d2_s32 bEOL = 0;
 622:../src/smc_gen/r_drw2d_rx/src/tes/dave_dlist.c **** 
 623:../src/smc_gen/r_drw2d_rx/src/tes/dave_dlist.c ****       adrmask = block->address.mask;
 624:../src/smc_gen/r_drw2d_rx/src/tes/dave_dlist.c ****       if(0 != (adrmask & 0x80808080u))
 625:../src/smc_gen/r_drw2d_rx/src/tes/dave_dlist.c ****       {
 626:../src/smc_gen/r_drw2d_rx/src/tes/dave_dlist.c ****          /* contains special indices */
 627:../src/smc_gen/r_drw2d_rx/src/tes/dave_dlist.c ****          if(0x80808080u == adrmask)
 628:../src/smc_gen/r_drw2d_rx/src/tes/dave_dlist.c ****          {
 629:../src/smc_gen/r_drw2d_rx/src/tes/dave_dlist.c ****             /* completely empty -> skip */
 630:../src/smc_gen/r_drw2d_rx/src/tes/dave_dlist.c ****             block = (d2_dlist_entry*) ((d2_s32*)block + 1);
 631:../src/smc_gen/r_drw2d_rx/src/tes/dave_dlist.c ****          }
 632:../src/smc_gen/r_drw2d_rx/src/tes/dave_dlist.c ****          else if(0 != (adrmask & 0x00008000u))
 633:../src/smc_gen/r_drw2d_rx/src/tes/dave_dlist.c ****          {
 634:../src/smc_gen/r_drw2d_rx/src/tes/dave_dlist.c ****             /* index1 only */
 635:../src/smc_gen/r_drw2d_rx/src/tes/dave_dlist.c ****             if ((adrmask & 0xffu) == D2_DLISTSTART)
 636:../src/smc_gen/r_drw2d_rx/src/tes/dave_dlist.c ****             {
 637:../src/smc_gen/r_drw2d_rx/src/tes/dave_dlist.c ****                /* catch special case of display list jump */
 638:../src/smc_gen/r_drw2d_rx/src/tes/dave_dlist.c ****                return argument;
 639:../src/smc_gen/r_drw2d_rx/src/tes/dave_dlist.c ****             } 
 640:../src/smc_gen/r_drw2d_rx/src/tes/dave_dlist.c ****             else 
 641:../src/smc_gen/r_drw2d_rx/src/tes/dave_dlist.c ****             {
 642:../src/smc_gen/r_drw2d_rx/src/tes/dave_dlist.c ****                /* normal rewrite */
 643:../src/smc_gen/r_drw2d_rx/src/tes/dave_dlist.c ****                a1 = adrmask & 0xffu;
 644:../src/smc_gen/r_drw2d_rx/src/tes/dave_dlist.c ****                d2hw_set(id, a1, block->value[0]);
 645:../src/smc_gen/r_drw2d_rx/src/tes/dave_dlist.c **** #ifdef D2_EXECUTE_DLIST_NEEDWAIT
 646:../src/smc_gen/r_drw2d_rx/src/tes/dave_dlist.c ****                if(a1 == D2_ORIGIN)
 647:../src/smc_gen/r_drw2d_rx/src/tes/dave_dlist.c ****                {
 648:../src/smc_gen/r_drw2d_rx/src/tes/dave_dlist.c ****                   d2hw_wait(id);
 649:../src/smc_gen/r_drw2d_rx/src/tes/dave_dlist.c ****                }
 650:../src/smc_gen/r_drw2d_rx/src/tes/dave_dlist.c **** #endif /* D2_EXECUTE_DLIST_NEEDWAIT */
 651:../src/smc_gen/r_drw2d_rx/src/tes/dave_dlist.c ****             }
 652:../src/smc_gen/r_drw2d_rx/src/tes/dave_dlist.c ****             block = (d2_dlist_entry*) ((d2_s32*)block + 2);
 653:../src/smc_gen/r_drw2d_rx/src/tes/dave_dlist.c ****          }
 654:../src/smc_gen/r_drw2d_rx/src/tes/dave_dlist.c ****          else if (0 != (adrmask & 0x00800000u))
 655:../src/smc_gen/r_drw2d_rx/src/tes/dave_dlist.c ****          {
 656:../src/smc_gen/r_drw2d_rx/src/tes/dave_dlist.c ****             /* index1&2 only */
 657:../src/smc_gen/r_drw2d_rx/src/tes/dave_dlist.c ****             if( 0xffu == (adrmask & 0xffu) )
 658:../src/smc_gen/r_drw2d_rx/src/tes/dave_dlist.c ****             {
 659:../src/smc_gen/r_drw2d_rx/src/tes/dave_dlist.c ****                /* end of list word */
 660:../src/smc_gen/r_drw2d_rx/src/tes/dave_dlist.c ****                argument = (adrmask >> 8) & 0xffu;
 661:../src/smc_gen/r_drw2d_rx/src/tes/dave_dlist.c ****                if(2 == argument)
 662:../src/smc_gen/r_drw2d_rx/src/tes/dave_dlist.c ****                {
 663:../src/smc_gen/r_drw2d_rx/src/tes/dave_dlist.c ****                   /* just a flush. keep on reading */
 664:../src/smc_gen/r_drw2d_rx/src/tes/dave_dlist.c ****                   block = (d2_dlist_entry*) ((d2_s32*)block + 1);
 665:../src/smc_gen/r_drw2d_rx/src/tes/dave_dlist.c **** 
 666:../src/smc_gen/r_drw2d_rx/src/tes/dave_dlist.c **** #ifdef D2_EXECUTE_DLIST_NEEDWAIT
 667:../src/smc_gen/r_drw2d_rx/src/tes/dave_dlist.c ****                   d2hw_wait(id);
 668:../src/smc_gen/r_drw2d_rx/src/tes/dave_dlist.c **** #endif /* D2_EXECUTE_DLIST_NEEDWAIT */
 669:../src/smc_gen/r_drw2d_rx/src/tes/dave_dlist.c **** 
 670:../src/smc_gen/r_drw2d_rx/src/tes/dave_dlist.c ****                   bEOL = 1;
 671:../src/smc_gen/r_drw2d_rx/src/tes/dave_dlist.c ****                } 
 672:../src/smc_gen/r_drw2d_rx/src/tes/dave_dlist.c ****                else 
 673:../src/smc_gen/r_drw2d_rx/src/tes/dave_dlist.c ****                {
 674:../src/smc_gen/r_drw2d_rx/src/tes/dave_dlist.c ****                   /* terminate */
 675:../src/smc_gen/r_drw2d_rx/src/tes/dave_dlist.c ****                   return argument;
 676:../src/smc_gen/r_drw2d_rx/src/tes/dave_dlist.c ****                }
 677:../src/smc_gen/r_drw2d_rx/src/tes/dave_dlist.c ****             }
 678:../src/smc_gen/r_drw2d_rx/src/tes/dave_dlist.c **** 
 679:../src/smc_gen/r_drw2d_rx/src/tes/dave_dlist.c ****             if(0 == bEOL)
 680:../src/smc_gen/r_drw2d_rx/src/tes/dave_dlist.c ****             {
 681:../src/smc_gen/r_drw2d_rx/src/tes/dave_dlist.c ****                a1 = adrmask & 0xffu;
 682:../src/smc_gen/r_drw2d_rx/src/tes/dave_dlist.c ****                a2 = (adrmask >> 8) & 0xffu;
 683:../src/smc_gen/r_drw2d_rx/src/tes/dave_dlist.c **** 
 684:../src/smc_gen/r_drw2d_rx/src/tes/dave_dlist.c ****                d2hw_set(id, a1, block->value[0]);
 685:../src/smc_gen/r_drw2d_rx/src/tes/dave_dlist.c **** 
 686:../src/smc_gen/r_drw2d_rx/src/tes/dave_dlist.c **** #ifdef D2_EXECUTE_DLIST_NEEDWAIT
 687:../src/smc_gen/r_drw2d_rx/src/tes/dave_dlist.c ****                if(D2_ORIGIN == a1)
 688:../src/smc_gen/r_drw2d_rx/src/tes/dave_dlist.c ****                {
 689:../src/smc_gen/r_drw2d_rx/src/tes/dave_dlist.c ****                   d2hw_wait(id);
 690:../src/smc_gen/r_drw2d_rx/src/tes/dave_dlist.c ****                }
 691:../src/smc_gen/r_drw2d_rx/src/tes/dave_dlist.c **** #endif /* D2_EXECUTE_DLIST_NEEDWAIT */
 692:../src/smc_gen/r_drw2d_rx/src/tes/dave_dlist.c **** 
 693:../src/smc_gen/r_drw2d_rx/src/tes/dave_dlist.c ****                d2hw_set(id, a2, block->value[1]);
 694:../src/smc_gen/r_drw2d_rx/src/tes/dave_dlist.c **** 
 695:../src/smc_gen/r_drw2d_rx/src/tes/dave_dlist.c **** #ifdef D2_EXECUTE_DLIST_NEEDWAIT
 696:../src/smc_gen/r_drw2d_rx/src/tes/dave_dlist.c ****                if(D2_ORIGIN == a2)
 697:../src/smc_gen/r_drw2d_rx/src/tes/dave_dlist.c ****                {
 698:../src/smc_gen/r_drw2d_rx/src/tes/dave_dlist.c ****                   d2hw_wait(id);
 699:../src/smc_gen/r_drw2d_rx/src/tes/dave_dlist.c ****                }
 700:../src/smc_gen/r_drw2d_rx/src/tes/dave_dlist.c **** #endif /* D2_EXECUTE_DLIST_NEEDWAIT */
 701:../src/smc_gen/r_drw2d_rx/src/tes/dave_dlist.c **** 
 702:../src/smc_gen/r_drw2d_rx/src/tes/dave_dlist.c ****                block = (d2_dlist_entry*) ((d2_s32*)block + 3);
 703:../src/smc_gen/r_drw2d_rx/src/tes/dave_dlist.c ****             }
 704:../src/smc_gen/r_drw2d_rx/src/tes/dave_dlist.c ****          }
 705:../src/smc_gen/r_drw2d_rx/src/tes/dave_dlist.c ****          else if (0 != (adrmask & 0x80000000u))
 706:../src/smc_gen/r_drw2d_rx/src/tes/dave_dlist.c ****          {
 707:../src/smc_gen/r_drw2d_rx/src/tes/dave_dlist.c ****             /* index1,2,3 only */
 708:../src/smc_gen/r_drw2d_rx/src/tes/dave_dlist.c ****             a1 = adrmask & 0xffu;
 709:../src/smc_gen/r_drw2d_rx/src/tes/dave_dlist.c ****             a2 = (adrmask >> 8) & 0xffu;
 710:../src/smc_gen/r_drw2d_rx/src/tes/dave_dlist.c ****             a3 = (adrmask >> 16) & 0xffu;
 711:../src/smc_gen/r_drw2d_rx/src/tes/dave_dlist.c **** 
 712:../src/smc_gen/r_drw2d_rx/src/tes/dave_dlist.c ****             d2hw_set(id, a1, block->value[0]);
 713:../src/smc_gen/r_drw2d_rx/src/tes/dave_dlist.c **** 
 714:../src/smc_gen/r_drw2d_rx/src/tes/dave_dlist.c **** #ifdef D2_EXECUTE_DLIST_NEEDWAIT
 715:../src/smc_gen/r_drw2d_rx/src/tes/dave_dlist.c ****             if(D2_ORIGIN == a1)
 716:../src/smc_gen/r_drw2d_rx/src/tes/dave_dlist.c ****             {
 717:../src/smc_gen/r_drw2d_rx/src/tes/dave_dlist.c ****                d2hw_wait(id);
 718:../src/smc_gen/r_drw2d_rx/src/tes/dave_dlist.c ****             }
 719:../src/smc_gen/r_drw2d_rx/src/tes/dave_dlist.c **** #endif /* D2_EXECUTE_DLIST_NEEDWAIT */
 720:../src/smc_gen/r_drw2d_rx/src/tes/dave_dlist.c **** 
 721:../src/smc_gen/r_drw2d_rx/src/tes/dave_dlist.c ****             d2hw_set(id, a2, block->value[1]);
 722:../src/smc_gen/r_drw2d_rx/src/tes/dave_dlist.c **** 
 723:../src/smc_gen/r_drw2d_rx/src/tes/dave_dlist.c **** #ifdef D2_EXECUTE_DLIST_NEEDWAIT
 724:../src/smc_gen/r_drw2d_rx/src/tes/dave_dlist.c ****             if(D2_ORIGIN == a2)
 725:../src/smc_gen/r_drw2d_rx/src/tes/dave_dlist.c ****             {
 726:../src/smc_gen/r_drw2d_rx/src/tes/dave_dlist.c ****                d2hw_wait(id);
 727:../src/smc_gen/r_drw2d_rx/src/tes/dave_dlist.c ****             }
 728:../src/smc_gen/r_drw2d_rx/src/tes/dave_dlist.c **** #endif /* D2_EXECUTE_DLIST_NEEDWAIT */
 729:../src/smc_gen/r_drw2d_rx/src/tes/dave_dlist.c **** 
 730:../src/smc_gen/r_drw2d_rx/src/tes/dave_dlist.c ****             d2hw_set(id, a3, block->value[2]);
 731:../src/smc_gen/r_drw2d_rx/src/tes/dave_dlist.c **** 
 732:../src/smc_gen/r_drw2d_rx/src/tes/dave_dlist.c **** #ifdef D2_EXECUTE_DLIST_NEEDWAIT
 733:../src/smc_gen/r_drw2d_rx/src/tes/dave_dlist.c ****             if(D2_ORIGIN == a3)
 734:../src/smc_gen/r_drw2d_rx/src/tes/dave_dlist.c ****             {
 735:../src/smc_gen/r_drw2d_rx/src/tes/dave_dlist.c ****                d2hw_wait(id);
 736:../src/smc_gen/r_drw2d_rx/src/tes/dave_dlist.c ****             }
 737:../src/smc_gen/r_drw2d_rx/src/tes/dave_dlist.c **** #endif /* D2_EXECUTE_DLIST_NEEDWAIT */
 738:../src/smc_gen/r_drw2d_rx/src/tes/dave_dlist.c **** 
 739:../src/smc_gen/r_drw2d_rx/src/tes/dave_dlist.c ****             block = (d2_dlist_entry*) ((d2_s32*)block + 4);
 740:../src/smc_gen/r_drw2d_rx/src/tes/dave_dlist.c ****          }
 741:../src/smc_gen/r_drw2d_rx/src/tes/dave_dlist.c ****          else
 742:../src/smc_gen/r_drw2d_rx/src/tes/dave_dlist.c ****          {
 743:../src/smc_gen/r_drw2d_rx/src/tes/dave_dlist.c ****             /* end of list word */
 744:../src/smc_gen/r_drw2d_rx/src/tes/dave_dlist.c ****             if((adrmask & 0xffu) == 0xffu)
 745:../src/smc_gen/r_drw2d_rx/src/tes/dave_dlist.c ****             {
 746:../src/smc_gen/r_drw2d_rx/src/tes/dave_dlist.c ****                /* get eol argument */
 747:../src/smc_gen/r_drw2d_rx/src/tes/dave_dlist.c ****                argument = (adrmask >> 8) & 0xffu;
 748:../src/smc_gen/r_drw2d_rx/src/tes/dave_dlist.c ****                if ((2 == argument) || (4 == argument))
 749:../src/smc_gen/r_drw2d_rx/src/tes/dave_dlist.c ****                {
 750:../src/smc_gen/r_drw2d_rx/src/tes/dave_dlist.c ****                   /* just a flush. keep on reading */
 751:../src/smc_gen/r_drw2d_rx/src/tes/dave_dlist.c ****                   block = (d2_dlist_entry*) ((d2_s32*)block + 1);
 752:../src/smc_gen/r_drw2d_rx/src/tes/dave_dlist.c **** 
 753:../src/smc_gen/r_drw2d_rx/src/tes/dave_dlist.c **** #ifdef D2_EXECUTE_DLIST_NEEDWAIT
 754:../src/smc_gen/r_drw2d_rx/src/tes/dave_dlist.c ****                   d2hw_wait(id);
 755:../src/smc_gen/r_drw2d_rx/src/tes/dave_dlist.c **** #endif /* D2_EXECUTE_DLIST_NEEDWAIT */
 756:../src/smc_gen/r_drw2d_rx/src/tes/dave_dlist.c ****                } 
 757:../src/smc_gen/r_drw2d_rx/src/tes/dave_dlist.c ****                else 
 758:../src/smc_gen/r_drw2d_rx/src/tes/dave_dlist.c ****                {
 759:../src/smc_gen/r_drw2d_rx/src/tes/dave_dlist.c ****                   /* terminate */
 760:../src/smc_gen/r_drw2d_rx/src/tes/dave_dlist.c ****                   return argument;
 761:../src/smc_gen/r_drw2d_rx/src/tes/dave_dlist.c ****                }
 762:../src/smc_gen/r_drw2d_rx/src/tes/dave_dlist.c ****             } 
 763:../src/smc_gen/r_drw2d_rx/src/tes/dave_dlist.c ****             else 
 764:../src/smc_gen/r_drw2d_rx/src/tes/dave_dlist.c ****             {
 765:../src/smc_gen/r_drw2d_rx/src/tes/dave_dlist.c ****                /* invalid case, no index used */
 766:../src/smc_gen/r_drw2d_rx/src/tes/dave_dlist.c ****                block = (d2_dlist_entry*) ((d2_s32*)block + 1);
 767:../src/smc_gen/r_drw2d_rx/src/tes/dave_dlist.c ****             }
 768:../src/smc_gen/r_drw2d_rx/src/tes/dave_dlist.c ****          }
 769:../src/smc_gen/r_drw2d_rx/src/tes/dave_dlist.c ****       } 
 770:../src/smc_gen/r_drw2d_rx/src/tes/dave_dlist.c ****       else 
 771:../src/smc_gen/r_drw2d_rx/src/tes/dave_dlist.c ****       {
 772:../src/smc_gen/r_drw2d_rx/src/tes/dave_dlist.c ****          /* contains simple indices only */
 773:../src/smc_gen/r_drw2d_rx/src/tes/dave_dlist.c ****          a1 = adrmask & 0xffu;
 774:../src/smc_gen/r_drw2d_rx/src/tes/dave_dlist.c ****          a2 = (adrmask >> 8) & 0xffu;
 775:../src/smc_gen/r_drw2d_rx/src/tes/dave_dlist.c ****          a3 = (adrmask >> 16) & 0xffu;
 776:../src/smc_gen/r_drw2d_rx/src/tes/dave_dlist.c ****          a4 = adrmask >> 24;
 777:../src/smc_gen/r_drw2d_rx/src/tes/dave_dlist.c **** 
 778:../src/smc_gen/r_drw2d_rx/src/tes/dave_dlist.c ****          d2hw_set(id, a1, block->value[0]);
 779:../src/smc_gen/r_drw2d_rx/src/tes/dave_dlist.c **** 
 780:../src/smc_gen/r_drw2d_rx/src/tes/dave_dlist.c **** #ifdef D2_EXECUTE_DLIST_NEEDWAIT
 781:../src/smc_gen/r_drw2d_rx/src/tes/dave_dlist.c ****          if(D2_ORIGIN == a1)
 782:../src/smc_gen/r_drw2d_rx/src/tes/dave_dlist.c ****          {
 783:../src/smc_gen/r_drw2d_rx/src/tes/dave_dlist.c ****             d2hw_wait(id);
 784:../src/smc_gen/r_drw2d_rx/src/tes/dave_dlist.c ****          }
 785:../src/smc_gen/r_drw2d_rx/src/tes/dave_dlist.c **** #endif /* D2_EXECUTE_DLIST_NEEDWAIT */
 786:../src/smc_gen/r_drw2d_rx/src/tes/dave_dlist.c **** 
 787:../src/smc_gen/r_drw2d_rx/src/tes/dave_dlist.c ****          d2hw_set(id, a2, block->value[1]);
 788:../src/smc_gen/r_drw2d_rx/src/tes/dave_dlist.c **** 
 789:../src/smc_gen/r_drw2d_rx/src/tes/dave_dlist.c **** #ifdef D2_EXECUTE_DLIST_NEEDWAIT
 790:../src/smc_gen/r_drw2d_rx/src/tes/dave_dlist.c ****          if(D2_ORIGIN == a2)
 791:../src/smc_gen/r_drw2d_rx/src/tes/dave_dlist.c ****          {
 792:../src/smc_gen/r_drw2d_rx/src/tes/dave_dlist.c ****             d2hw_wait(id);
 793:../src/smc_gen/r_drw2d_rx/src/tes/dave_dlist.c ****          }
 794:../src/smc_gen/r_drw2d_rx/src/tes/dave_dlist.c **** #endif /* D2_EXECUTE_DLIST_NEEDWAIT */
 795:../src/smc_gen/r_drw2d_rx/src/tes/dave_dlist.c **** 
 796:../src/smc_gen/r_drw2d_rx/src/tes/dave_dlist.c ****          d2hw_set(id, a3, block->value[2]);
 797:../src/smc_gen/r_drw2d_rx/src/tes/dave_dlist.c **** 
 798:../src/smc_gen/r_drw2d_rx/src/tes/dave_dlist.c **** #ifdef D2_EXECUTE_DLIST_NEEDWAIT
 799:../src/smc_gen/r_drw2d_rx/src/tes/dave_dlist.c ****          if(D2_ORIGIN == a3)
 800:../src/smc_gen/r_drw2d_rx/src/tes/dave_dlist.c ****          {
 801:../src/smc_gen/r_drw2d_rx/src/tes/dave_dlist.c ****             d2hw_wait(id);
 802:../src/smc_gen/r_drw2d_rx/src/tes/dave_dlist.c ****          }
 803:../src/smc_gen/r_drw2d_rx/src/tes/dave_dlist.c **** #endif /* D2_EXECUTE_DLIST_NEEDWAIT */
 804:../src/smc_gen/r_drw2d_rx/src/tes/dave_dlist.c **** 
 805:../src/smc_gen/r_drw2d_rx/src/tes/dave_dlist.c ****          d2hw_set(id, a4, block->value[3]);
 806:../src/smc_gen/r_drw2d_rx/src/tes/dave_dlist.c **** 
 807:../src/smc_gen/r_drw2d_rx/src/tes/dave_dlist.c **** #ifdef D2_EXECUTE_DLIST_NEEDWAIT
 808:../src/smc_gen/r_drw2d_rx/src/tes/dave_dlist.c ****          if(D2_ORIGIN == a4)
 809:../src/smc_gen/r_drw2d_rx/src/tes/dave_dlist.c ****          {
 810:../src/smc_gen/r_drw2d_rx/src/tes/dave_dlist.c ****             d2hw_wait(id);
 811:../src/smc_gen/r_drw2d_rx/src/tes/dave_dlist.c ****          }
 812:../src/smc_gen/r_drw2d_rx/src/tes/dave_dlist.c **** #endif /* D2_EXECUTE_DLIST_NEEDWAIT */
 813:../src/smc_gen/r_drw2d_rx/src/tes/dave_dlist.c **** 
 814:../src/smc_gen/r_drw2d_rx/src/tes/dave_dlist.c ****          /* next entry */
 815:../src/smc_gen/r_drw2d_rx/src/tes/dave_dlist.c ****          block++;
 816:../src/smc_gen/r_drw2d_rx/src/tes/dave_dlist.c ****       }
 817:../src/smc_gen/r_drw2d_rx/src/tes/dave_dlist.c ****    }
 818:../src/smc_gen/r_drw2d_rx/src/tes/dave_dlist.c **** 
 819:../src/smc_gen/r_drw2d_rx/src/tes/dave_dlist.c ****    /* never reached */
 820:../src/smc_gen/r_drw2d_rx/src/tes/dave_dlist.c **** }
 821:../src/smc_gen/r_drw2d_rx/src/tes/dave_dlist.c **** 
 822:../src/smc_gen/r_drw2d_rx/src/tes/dave_dlist.c **** /*-------------------------------------------------------------------------
 823:../src/smc_gen/r_drw2d_rx/src/tes/dave_dlist.c ****  * Add a dave flush command into current dlist and wait */
 824:../src/smc_gen/r_drw2d_rx/src/tes/dave_dlist.c **** d2_s32 d2_insertwaitpipedlist_intern( d2_device *handle )
 825:../src/smc_gen/r_drw2d_rx/src/tes/dave_dlist.c **** {
 826:../src/smc_gen/r_drw2d_rx/src/tes/dave_dlist.c ****    D2_VALIDATE( handle, D2_INVALIDDEVICE); /* PRQA S 4130, 3112 */ /* $Misra: #DEBUG_MACRO $*/
 827:../src/smc_gen/r_drw2d_rx/src/tes/dave_dlist.c **** 
 828:../src/smc_gen/r_drw2d_rx/src/tes/dave_dlist.c ****    /* copy scratch buffer to dlist (dlist cache flush) */
 829:../src/smc_gen/r_drw2d_rx/src/tes/dave_dlist.c ****    d2_scratch2dlist_intern( handle );
 830:../src/smc_gen/r_drw2d_rx/src/tes/dave_dlist.c ****    /* insert 0x04 wait into dlist to wait for pipeline flush */
 831:../src/smc_gen/r_drw2d_rx/src/tes/dave_dlist.c ****    d2_insertdlistspecial_intern( &D2_DEV(handle)->selectedbuffer->baselist, 4 );
 832:../src/smc_gen/r_drw2d_rx/src/tes/dave_dlist.c **** 
 833:../src/smc_gen/r_drw2d_rx/src/tes/dave_dlist.c ****    D2_RETOK(handle);
 834:../src/smc_gen/r_drw2d_rx/src/tes/dave_dlist.c **** }
 835:../src/smc_gen/r_drw2d_rx/src/tes/dave_dlist.c **** 
 836:../src/smc_gen/r_drw2d_rx/src/tes/dave_dlist.c **** /*-------------------------------------------------------------------------
 837:../src/smc_gen/r_drw2d_rx/src/tes/dave_dlist.c ****  * Add a dave flush command into current dlist wait */
 838:../src/smc_gen/r_drw2d_rx/src/tes/dave_dlist.c **** d2_s32 d2_insertwaitfulldlist_intern( d2_device *handle )
 839:../src/smc_gen/r_drw2d_rx/src/tes/dave_dlist.c **** {
 840:../src/smc_gen/r_drw2d_rx/src/tes/dave_dlist.c ****    D2_VALIDATE( handle, D2_INVALIDDEVICE); /* PRQA S 4130, 3112 */ /* $Misra: #DEBUG_MACRO $*/
 841:../src/smc_gen/r_drw2d_rx/src/tes/dave_dlist.c **** 
 842:../src/smc_gen/r_drw2d_rx/src/tes/dave_dlist.c ****    /* copy scratch buffer to dlist (dlist cache flush) */
 843:../src/smc_gen/r_drw2d_rx/src/tes/dave_dlist.c ****    d2_scratch2dlist_intern( handle );
 844:../src/smc_gen/r_drw2d_rx/src/tes/dave_dlist.c ****    /* insert 0x02 wait into dlist to wait for pipeline flush and cache write complete */
 845:../src/smc_gen/r_drw2d_rx/src/tes/dave_dlist.c ****    d2_insertdlistspecial_intern( &D2_DEV(handle)->selectedbuffer->baselist, 2 );
 846:../src/smc_gen/r_drw2d_rx/src/tes/dave_dlist.c **** 
 847:../src/smc_gen/r_drw2d_rx/src/tes/dave_dlist.c ****    D2_RETOK(handle);
 848:../src/smc_gen/r_drw2d_rx/src/tes/dave_dlist.c **** }
 849:../src/smc_gen/r_drw2d_rx/src/tes/dave_dlist.c **** 
 850:../src/smc_gen/r_drw2d_rx/src/tes/dave_dlist.c **** /*--------------------------------------------------------------------------
 851:../src/smc_gen/r_drw2d_rx/src/tes/dave_dlist.c ****  * Copy scratch buffer into display list (dlist cache flush) */
 852:../src/smc_gen/r_drw2d_rx/src/tes/dave_dlist.c **** void d2_scratch2dlist_intern( d2_device *handle )
 853:../src/smc_gen/r_drw2d_rx/src/tes/dave_dlist.c **** {
 854:../src/smc_gen/r_drw2d_rx/src/tes/dave_dlist.c ****    d2_devicedata *dev = D2_DEV(handle);
 855:../src/smc_gen/r_drw2d_rx/src/tes/dave_dlist.c ****    d2_dlist *dlist    = &D2_DEV(handle)->selectedbuffer->baselist;
 856:../src/smc_gen/r_drw2d_rx/src/tes/dave_dlist.c ****    d2_dlist_scratch_entry *scratchEntry = dev->dlscratch_base;
 857:../src/smc_gen/r_drw2d_rx/src/tes/dave_dlist.c ****    d2_dlist_entry *pos;
 858:../src/smc_gen/r_drw2d_rx/src/tes/dave_dlist.c ****    d2_u32 i, cnt = (d2_u32) (dev->dlscratch_pos - dev->dlscratch_base);
 859:../src/smc_gen/r_drw2d_rx/src/tes/dave_dlist.c ****    d2_u32 tagIndex;
 860:../src/smc_gen/r_drw2d_rx/src/tes/dave_dlist.c **** 
 861:../src/smc_gen/r_drw2d_rx/src/tes/dave_dlist.c **** 
 862:../src/smc_gen/r_drw2d_rx/src/tes/dave_dlist.c **** #ifdef D2_USEREGCACHE
 863:../src/smc_gen/r_drw2d_rx/src/tes/dave_dlist.c ****    d2_cacheddata *cachedData = & ((d2_devicedata *) dlist->device)->cache;
 864:../src/smc_gen/r_drw2d_rx/src/tes/dave_dlist.c ****    d2_s32  *cache_data  = cachedData->data;
 865:../src/smc_gen/r_drw2d_rx/src/tes/dave_dlist.c ****    d2_s8   *cache_valid = cachedData->valid;
 866:../src/smc_gen/r_drw2d_rx/src/tes/dave_dlist.c **** 
 867:../src/smc_gen/r_drw2d_rx/src/tes/dave_dlist.c ****    if(0 == (D2_DEV(handle)->flags & d2_df_no_registercaching))
 868:../src/smc_gen/r_drw2d_rx/src/tes/dave_dlist.c ****    {
 869:../src/smc_gen/r_drw2d_rx/src/tes/dave_dlist.c ****       /* walk scratchbuffer
 870:../src/smc_gen/r_drw2d_rx/src/tes/dave_dlist.c ****        */
 871:../src/smc_gen/r_drw2d_rx/src/tes/dave_dlist.c ****       tagIndex = dlist->tagindex;
 872:../src/smc_gen/r_drw2d_rx/src/tes/dave_dlist.c ****       pos = dlist->position;
 873:../src/smc_gen/r_drw2d_rx/src/tes/dave_dlist.c **** 
 874:../src/smc_gen/r_drw2d_rx/src/tes/dave_dlist.c ****       for(i=0; (i < cnt) && (0 ==  D2_DEV(dlist->device)->delayed_errorcode) ; i++)
 875:../src/smc_gen/r_drw2d_rx/src/tes/dave_dlist.c ****       {
 876:../src/smc_gen/r_drw2d_rx/src/tes/dave_dlist.c ****          d2_s32 bSkip = 0;
 877:../src/smc_gen/r_drw2d_rx/src/tes/dave_dlist.c ****          d2_u32 regIdx = scratchEntry->reg;
 878:../src/smc_gen/r_drw2d_rx/src/tes/dave_dlist.c ****          d2_s32 val = scratchEntry->value;
 879:../src/smc_gen/r_drw2d_rx/src/tes/dave_dlist.c **** 
 880:../src/smc_gen/r_drw2d_rx/src/tes/dave_dlist.c ****          /* next */
 881:../src/smc_gen/r_drw2d_rx/src/tes/dave_dlist.c ****          scratchEntry++;
 882:../src/smc_gen/r_drw2d_rx/src/tes/dave_dlist.c **** 
 883:../src/smc_gen/r_drw2d_rx/src/tes/dave_dlist.c **** #ifdef _DEBUG
 884:../src/smc_gen/r_drw2d_rx/src/tes/dave_dlist.c ****          if (regIdx > D2_QUANTITY)
 885:../src/smc_gen/r_drw2d_rx/src/tes/dave_dlist.c ****          {
 886:../src/smc_gen/r_drw2d_rx/src/tes/dave_dlist.c ****             bSkip = 1;
 887:../src/smc_gen/r_drw2d_rx/src/tes/dave_dlist.c ****          }
 888:../src/smc_gen/r_drw2d_rx/src/tes/dave_dlist.c **** #endif
 889:../src/smc_gen/r_drw2d_rx/src/tes/dave_dlist.c **** 
 890:../src/smc_gen/r_drw2d_rx/src/tes/dave_dlist.c **** #ifdef _DEBUG
 891:../src/smc_gen/r_drw2d_rx/src/tes/dave_dlist.c ****          if(0 == bSkip)
 892:../src/smc_gen/r_drw2d_rx/src/tes/dave_dlist.c **** #endif /* _DEBUG */
 893:../src/smc_gen/r_drw2d_rx/src/tes/dave_dlist.c ****          {
 894:../src/smc_gen/r_drw2d_rx/src/tes/dave_dlist.c ****             if(0 != d2_cacheableregs[regIdx])
 895:../src/smc_gen/r_drw2d_rx/src/tes/dave_dlist.c ****             {
 896:../src/smc_gen/r_drw2d_rx/src/tes/dave_dlist.c ****                if( (0 != cache_valid[regIdx]) && ( cache_data[regIdx] == val ) ) 
 897:../src/smc_gen/r_drw2d_rx/src/tes/dave_dlist.c ****                {
 898:../src/smc_gen/r_drw2d_rx/src/tes/dave_dlist.c ****                   bSkip = 1;
 899:../src/smc_gen/r_drw2d_rx/src/tes/dave_dlist.c ****                }
 900:../src/smc_gen/r_drw2d_rx/src/tes/dave_dlist.c ****                else
 901:../src/smc_gen/r_drw2d_rx/src/tes/dave_dlist.c ****                {
 902:../src/smc_gen/r_drw2d_rx/src/tes/dave_dlist.c ****                   cache_valid[regIdx] = 1;
 903:../src/smc_gen/r_drw2d_rx/src/tes/dave_dlist.c ****                   cache_data[regIdx]  = val;
 904:../src/smc_gen/r_drw2d_rx/src/tes/dave_dlist.c ****                }
 905:../src/smc_gen/r_drw2d_rx/src/tes/dave_dlist.c ****             }
 906:../src/smc_gen/r_drw2d_rx/src/tes/dave_dlist.c **** 
 907:../src/smc_gen/r_drw2d_rx/src/tes/dave_dlist.c ****             if(0 == bSkip)
 908:../src/smc_gen/r_drw2d_rx/src/tes/dave_dlist.c ****             {
 909:../src/smc_gen/r_drw2d_rx/src/tes/dave_dlist.c ****                /* store in displaylist */
 910:../src/smc_gen/r_drw2d_rx/src/tes/dave_dlist.c **** #ifdef DAVE_DRIVER_BIG_ENDIAN
 911:../src/smc_gen/r_drw2d_rx/src/tes/dave_dlist.c ****                /* order bytes like integers -> allows to swap bytes in whole dlist */
 912:../src/smc_gen/r_drw2d_rx/src/tes/dave_dlist.c ****                pos->address.array[tagIndex^3] = (d2_u8) regIdx;
 913:../src/smc_gen/r_drw2d_rx/src/tes/dave_dlist.c **** #else
 914:../src/smc_gen/r_drw2d_rx/src/tes/dave_dlist.c ****                pos->address.array[tagIndex] = (d2_u8) regIdx;
 915:../src/smc_gen/r_drw2d_rx/src/tes/dave_dlist.c **** #endif
 916:../src/smc_gen/r_drw2d_rx/src/tes/dave_dlist.c ****                pos->value[tagIndex] = val;
 917:../src/smc_gen/r_drw2d_rx/src/tes/dave_dlist.c **** 
 918:../src/smc_gen/r_drw2d_rx/src/tes/dave_dlist.c ****                /* next tagindex */
 919:../src/smc_gen/r_drw2d_rx/src/tes/dave_dlist.c ****                tagIndex = (tagIndex + 1) & 3;
 920:../src/smc_gen/r_drw2d_rx/src/tes/dave_dlist.c **** 
 921:../src/smc_gen/r_drw2d_rx/src/tes/dave_dlist.c ****                dlist->count++;
 922:../src/smc_gen/r_drw2d_rx/src/tes/dave_dlist.c **** 
 923:../src/smc_gen/r_drw2d_rx/src/tes/dave_dlist.c ****                /* finish entry */
 924:../src/smc_gen/r_drw2d_rx/src/tes/dave_dlist.c ****                if(0 == tagIndex)
 925:../src/smc_gen/r_drw2d_rx/src/tes/dave_dlist.c ****                {
 926:../src/smc_gen/r_drw2d_rx/src/tes/dave_dlist.c ****                   dlist->position++;
 927:../src/smc_gen/r_drw2d_rx/src/tes/dave_dlist.c ****                   dlist->blocksize--;
 928:../src/smc_gen/r_drw2d_rx/src/tes/dave_dlist.c ****                   if(dlist->blocksize <= 1)
 929:../src/smc_gen/r_drw2d_rx/src/tes/dave_dlist.c ****                   {
 930:../src/smc_gen/r_drw2d_rx/src/tes/dave_dlist.c ****                      dlist->tagindex = tagIndex;
 931:../src/smc_gen/r_drw2d_rx/src/tes/dave_dlist.c ****                      d2_nextdlistblock_intern( dlist );
 932:../src/smc_gen/r_drw2d_rx/src/tes/dave_dlist.c ****                   }
 933:../src/smc_gen/r_drw2d_rx/src/tes/dave_dlist.c ****                   pos = dlist->position;
 934:../src/smc_gen/r_drw2d_rx/src/tes/dave_dlist.c ****                }
 935:../src/smc_gen/r_drw2d_rx/src/tes/dave_dlist.c **** 
 936:../src/smc_gen/r_drw2d_rx/src/tes/dave_dlist.c ****             } /* 0 == bSkip */
 937:../src/smc_gen/r_drw2d_rx/src/tes/dave_dlist.c **** 
 938:../src/smc_gen/r_drw2d_rx/src/tes/dave_dlist.c ****          } /* 0 == bSkip */
 939:../src/smc_gen/r_drw2d_rx/src/tes/dave_dlist.c **** 
 940:../src/smc_gen/r_drw2d_rx/src/tes/dave_dlist.c ****       } /* for i=0..cnt */
 941:../src/smc_gen/r_drw2d_rx/src/tes/dave_dlist.c **** 
 942:../src/smc_gen/r_drw2d_rx/src/tes/dave_dlist.c ****       dlist->tagindex = tagIndex;
 943:../src/smc_gen/r_drw2d_rx/src/tes/dave_dlist.c ****       cnt = 0;
 944:../src/smc_gen/r_drw2d_rx/src/tes/dave_dlist.c ****    } 
 945:../src/smc_gen/r_drw2d_rx/src/tes/dave_dlist.c ****    else 
 946:../src/smc_gen/r_drw2d_rx/src/tes/dave_dlist.c **** #endif
 947:../src/smc_gen/r_drw2d_rx/src/tes/dave_dlist.c ****    {
 948:../src/smc_gen/r_drw2d_rx/src/tes/dave_dlist.c ****       dlist->count += cnt;
 949:../src/smc_gen/r_drw2d_rx/src/tes/dave_dlist.c **** 
 950:../src/smc_gen/r_drw2d_rx/src/tes/dave_dlist.c ****       /* copy entries until start of a new dlist entry block */
 951:../src/smc_gen/r_drw2d_rx/src/tes/dave_dlist.c ****       tagIndex = dlist->tagindex;
 952:../src/smc_gen/r_drw2d_rx/src/tes/dave_dlist.c ****       if(0 == D2_DEV( dlist->device)->delayed_errorcode)
 953:../src/smc_gen/r_drw2d_rx/src/tes/dave_dlist.c ****       {
 954:../src/smc_gen/r_drw2d_rx/src/tes/dave_dlist.c ****          if(0 != tagIndex)
 955:../src/smc_gen/r_drw2d_rx/src/tes/dave_dlist.c ****          {
 956:../src/smc_gen/r_drw2d_rx/src/tes/dave_dlist.c ****             pos = dlist->position;
 957:../src/smc_gen/r_drw2d_rx/src/tes/dave_dlist.c **** 
 958:../src/smc_gen/r_drw2d_rx/src/tes/dave_dlist.c ****             while( (cnt > 0) && (0 != tagIndex) )
 959:../src/smc_gen/r_drw2d_rx/src/tes/dave_dlist.c ****             {
 960:../src/smc_gen/r_drw2d_rx/src/tes/dave_dlist.c ****                /* read entry */
 961:../src/smc_gen/r_drw2d_rx/src/tes/dave_dlist.c ****                d2_u32 regIdx = scratchEntry->reg;
 962:../src/smc_gen/r_drw2d_rx/src/tes/dave_dlist.c ****                d2_s32 scrValue = scratchEntry->value;
 963:../src/smc_gen/r_drw2d_rx/src/tes/dave_dlist.c **** 
 964:../src/smc_gen/r_drw2d_rx/src/tes/dave_dlist.c ****                /* next entry */
 965:../src/smc_gen/r_drw2d_rx/src/tes/dave_dlist.c ****                scratchEntry++;
 966:../src/smc_gen/r_drw2d_rx/src/tes/dave_dlist.c ****                cnt--;
 967:../src/smc_gen/r_drw2d_rx/src/tes/dave_dlist.c **** 
 968:../src/smc_gen/r_drw2d_rx/src/tes/dave_dlist.c ****                /* store in displaylist */
 969:../src/smc_gen/r_drw2d_rx/src/tes/dave_dlist.c **** #ifdef DAVE_DRIVER_BIG_ENDIAN
 970:../src/smc_gen/r_drw2d_rx/src/tes/dave_dlist.c ****                /* order bytes like integers -> allows to swap bytes in whole dlist */
 971:../src/smc_gen/r_drw2d_rx/src/tes/dave_dlist.c ****                pos->address.array[tagIndex^3] = (d2_u8) regIdx;
 972:../src/smc_gen/r_drw2d_rx/src/tes/dave_dlist.c **** #else
 973:../src/smc_gen/r_drw2d_rx/src/tes/dave_dlist.c ****                pos->address.array[tagIndex]   = (d2_u8) regIdx;
 974:../src/smc_gen/r_drw2d_rx/src/tes/dave_dlist.c **** #endif
 975:../src/smc_gen/r_drw2d_rx/src/tes/dave_dlist.c ****                pos->value[tagIndex] = scrValue;
 976:../src/smc_gen/r_drw2d_rx/src/tes/dave_dlist.c **** 
 977:../src/smc_gen/r_drw2d_rx/src/tes/dave_dlist.c ****                /* next tagindex */
 978:../src/smc_gen/r_drw2d_rx/src/tes/dave_dlist.c ****                tagIndex = (tagIndex + 1u) & 3u;
 979:../src/smc_gen/r_drw2d_rx/src/tes/dave_dlist.c ****             }
 980:../src/smc_gen/r_drw2d_rx/src/tes/dave_dlist.c **** 
 981:../src/smc_gen/r_drw2d_rx/src/tes/dave_dlist.c ****             /* finish entry */
 982:../src/smc_gen/r_drw2d_rx/src/tes/dave_dlist.c ****             if(0 == tagIndex)
 983:../src/smc_gen/r_drw2d_rx/src/tes/dave_dlist.c ****             {
 984:../src/smc_gen/r_drw2d_rx/src/tes/dave_dlist.c ****                dlist->tagindex = tagIndex;
 985:../src/smc_gen/r_drw2d_rx/src/tes/dave_dlist.c ****                dlist->position++;
 986:../src/smc_gen/r_drw2d_rx/src/tes/dave_dlist.c ****                dlist->blocksize--;
 987:../src/smc_gen/r_drw2d_rx/src/tes/dave_dlist.c ****                if(dlist->blocksize <= 1) 
 988:../src/smc_gen/r_drw2d_rx/src/tes/dave_dlist.c ****                {
 989:../src/smc_gen/r_drw2d_rx/src/tes/dave_dlist.c ****                   d2_nextdlistblock_intern( dlist );
 990:../src/smc_gen/r_drw2d_rx/src/tes/dave_dlist.c ****                }
 991:../src/smc_gen/r_drw2d_rx/src/tes/dave_dlist.c ****             }
 992:../src/smc_gen/r_drw2d_rx/src/tes/dave_dlist.c ****          }
 993:../src/smc_gen/r_drw2d_rx/src/tes/dave_dlist.c **** 
 994:../src/smc_gen/r_drw2d_rx/src/tes/dave_dlist.c ****          if(0 == tagIndex)
 995:../src/smc_gen/r_drw2d_rx/src/tes/dave_dlist.c ****          {
 996:../src/smc_gen/r_drw2d_rx/src/tes/dave_dlist.c ****             /* walk rest of scratchbuffer in multiples of 4
 997:../src/smc_gen/r_drw2d_rx/src/tes/dave_dlist.c ****              * tagindex must be 0 at this point (only exception is that cnt is already 0) */
 998:../src/smc_gen/r_drw2d_rx/src/tes/dave_dlist.c ****             for(i=0; (i < (cnt / 4)) && (0 == D2_DEV(dlist->device)->delayed_errorcode); i++)
 999:../src/smc_gen/r_drw2d_rx/src/tes/dave_dlist.c ****             {
1000:../src/smc_gen/r_drw2d_rx/src/tes/dave_dlist.c ****                pos = dlist->position;
1001:../src/smc_gen/r_drw2d_rx/src/tes/dave_dlist.c **** 
1002:../src/smc_gen/r_drw2d_rx/src/tes/dave_dlist.c **** #ifdef DAVE_DRIVER_BIG_ENDIAN
1003:../src/smc_gen/r_drw2d_rx/src/tes/dave_dlist.c ****                pos->address.array[3] = (d2_u8) scratchEntry[0].reg;
1004:../src/smc_gen/r_drw2d_rx/src/tes/dave_dlist.c ****                pos->address.array[2] = (d2_u8) scratchEntry[1].reg;
1005:../src/smc_gen/r_drw2d_rx/src/tes/dave_dlist.c ****                pos->address.array[1] = (d2_u8) scratchEntry[2].reg;
1006:../src/smc_gen/r_drw2d_rx/src/tes/dave_dlist.c ****                pos->address.array[0] = (d2_u8) scratchEntry[3].reg;
1007:../src/smc_gen/r_drw2d_rx/src/tes/dave_dlist.c **** #else
1008:../src/smc_gen/r_drw2d_rx/src/tes/dave_dlist.c ****                pos->address.array[0] = (d2_u8) scratchEntry[0].reg;
1009:../src/smc_gen/r_drw2d_rx/src/tes/dave_dlist.c ****                pos->address.array[1] = (d2_u8) scratchEntry[1].reg;
1010:../src/smc_gen/r_drw2d_rx/src/tes/dave_dlist.c ****                pos->address.array[2] = (d2_u8) scratchEntry[2].reg;
1011:../src/smc_gen/r_drw2d_rx/src/tes/dave_dlist.c ****                pos->address.array[3] = (d2_u8) scratchEntry[3].reg;
1012:../src/smc_gen/r_drw2d_rx/src/tes/dave_dlist.c **** #endif
1013:../src/smc_gen/r_drw2d_rx/src/tes/dave_dlist.c ****                pos->value[0] = scratchEntry[0].value;
1014:../src/smc_gen/r_drw2d_rx/src/tes/dave_dlist.c ****                pos->value[1] = scratchEntry[1].value;
1015:../src/smc_gen/r_drw2d_rx/src/tes/dave_dlist.c ****                pos->value[2] = scratchEntry[2].value;
1016:../src/smc_gen/r_drw2d_rx/src/tes/dave_dlist.c ****                pos->value[3] = scratchEntry[3].value;
1017:../src/smc_gen/r_drw2d_rx/src/tes/dave_dlist.c **** 
1018:../src/smc_gen/r_drw2d_rx/src/tes/dave_dlist.c ****                /* finish entry */
1019:../src/smc_gen/r_drw2d_rx/src/tes/dave_dlist.c ****                dlist->position++;
1020:../src/smc_gen/r_drw2d_rx/src/tes/dave_dlist.c ****                dlist->blocksize--;
1021:../src/smc_gen/r_drw2d_rx/src/tes/dave_dlist.c ****                if ( dlist->blocksize <= 1 ) 
1022:../src/smc_gen/r_drw2d_rx/src/tes/dave_dlist.c ****                {
1023:../src/smc_gen/r_drw2d_rx/src/tes/dave_dlist.c ****                   d2_nextdlistblock_intern( dlist );
1024:../src/smc_gen/r_drw2d_rx/src/tes/dave_dlist.c ****                }
1025:../src/smc_gen/r_drw2d_rx/src/tes/dave_dlist.c ****                /* next scratch entry */
1026:../src/smc_gen/r_drw2d_rx/src/tes/dave_dlist.c ****                scratchEntry += 4;
1027:../src/smc_gen/r_drw2d_rx/src/tes/dave_dlist.c ****             }
1028:../src/smc_gen/r_drw2d_rx/src/tes/dave_dlist.c **** 
1029:../src/smc_gen/r_drw2d_rx/src/tes/dave_dlist.c **** 
1030:../src/smc_gen/r_drw2d_rx/src/tes/dave_dlist.c ****             /* copy remaining entries */
1031:../src/smc_gen/r_drw2d_rx/src/tes/dave_dlist.c ****             cnt &= 3;
1032:../src/smc_gen/r_drw2d_rx/src/tes/dave_dlist.c ****             for(i=0; (i < cnt) && (0 == D2_DEV( dlist->device)->delayed_errorcode); i++)
1033:../src/smc_gen/r_drw2d_rx/src/tes/dave_dlist.c ****             {
1034:../src/smc_gen/r_drw2d_rx/src/tes/dave_dlist.c ****                d2_u32 regIdx = scratchEntry->reg;
1035:../src/smc_gen/r_drw2d_rx/src/tes/dave_dlist.c ****                d2_s32 scrValue = scratchEntry->value;
1036:../src/smc_gen/r_drw2d_rx/src/tes/dave_dlist.c **** 
1037:../src/smc_gen/r_drw2d_rx/src/tes/dave_dlist.c ****                /* next */
1038:../src/smc_gen/r_drw2d_rx/src/tes/dave_dlist.c ****                scratchEntry++;
1039:../src/smc_gen/r_drw2d_rx/src/tes/dave_dlist.c **** 
1040:../src/smc_gen/r_drw2d_rx/src/tes/dave_dlist.c ****                tagIndex = dlist->tagindex;
1041:../src/smc_gen/r_drw2d_rx/src/tes/dave_dlist.c ****                pos = dlist->position;
1042:../src/smc_gen/r_drw2d_rx/src/tes/dave_dlist.c **** 
1043:../src/smc_gen/r_drw2d_rx/src/tes/dave_dlist.c ****                /* store in displaylist */
1044:../src/smc_gen/r_drw2d_rx/src/tes/dave_dlist.c **** #ifdef DAVE_DRIVER_BIG_ENDIAN
1045:../src/smc_gen/r_drw2d_rx/src/tes/dave_dlist.c ****                /* order bytes like integers -> allows to swap bytes in whole dlist */
1046:../src/smc_gen/r_drw2d_rx/src/tes/dave_dlist.c ****                pos->address.array[tagIndex^3] = (d2_u8) regIdx;
1047:../src/smc_gen/r_drw2d_rx/src/tes/dave_dlist.c **** #else
1048:../src/smc_gen/r_drw2d_rx/src/tes/dave_dlist.c ****                pos->address.array[tagIndex] = (d2_u8) regIdx;
1049:../src/smc_gen/r_drw2d_rx/src/tes/dave_dlist.c **** #endif
1050:../src/smc_gen/r_drw2d_rx/src/tes/dave_dlist.c ****                pos->value[tagIndex] = scrValue;
1051:../src/smc_gen/r_drw2d_rx/src/tes/dave_dlist.c **** 
1052:../src/smc_gen/r_drw2d_rx/src/tes/dave_dlist.c ****                /* next tagindex */
1053:../src/smc_gen/r_drw2d_rx/src/tes/dave_dlist.c ****                tagIndex = (tagIndex + 1u) & 3u;
1054:../src/smc_gen/r_drw2d_rx/src/tes/dave_dlist.c ****                dlist->tagindex = tagIndex;
1055:../src/smc_gen/r_drw2d_rx/src/tes/dave_dlist.c ****             }
1056:../src/smc_gen/r_drw2d_rx/src/tes/dave_dlist.c ****          }
1057:../src/smc_gen/r_drw2d_rx/src/tes/dave_dlist.c ****       }
1058:../src/smc_gen/r_drw2d_rx/src/tes/dave_dlist.c ****    }
1059:../src/smc_gen/r_drw2d_rx/src/tes/dave_dlist.c ****    /* free scratch memory */
1060:../src/smc_gen/r_drw2d_rx/src/tes/dave_dlist.c ****    dev->dlscratch_pos = dev->dlscratch_base;
1061:../src/smc_gen/r_drw2d_rx/src/tes/dave_dlist.c ****    dev->dlscratch_cnt = D2_DLISTSCRATCH;
1062:../src/smc_gen/r_drw2d_rx/src/tes/dave_dlist.c **** }
1063:../src/smc_gen/r_drw2d_rx/src/tes/dave_dlist.c **** 
1064:../src/smc_gen/r_drw2d_rx/src/tes/dave_dlist.c **** /*--------------------------------------------------------------------------
1065:../src/smc_gen/r_drw2d_rx/src/tes/dave_dlist.c ****  * Append a prepared display list to the display list. */
1066:../src/smc_gen/r_drw2d_rx/src/tes/dave_dlist.c **** static d2_s32 d2_dlist2dlist_intern( d2_device *handle, d2_dlist *dlist, void *address, d2_s32 size
1067:../src/smc_gen/r_drw2d_rx/src/tes/dave_dlist.c **** {
 1145                             		.loc 1 1067 1 is_stmt 1 view -0
 1146                             		.loc 1 1067 1 is_stmt 0 view .LVU455
 1147 0000 6E 6D                   		pushm	r6-r13
 1148                             	.LCFI6:
 1149 0002 EF 17                   		mov.L	r1, r7
 1150 0004 EF 26                   		mov.L	r2, r6
 1151 0006 EF 3A                   		mov.L	r3, r10
1068:../src/smc_gen/r_drw2d_rx/src/tes/dave_dlist.c ****    d2_dlist_entry * pos         = dlist->position;
 1152                             		.loc 1 1068 4 is_stmt 1 view .LVU456
 1153                             		.loc 1 1068 21 is_stmt 0 view .LVU457
 1154 0008 A9 23                   		mov.L	16[r2], r3
 1155                             	.LVL127:
1069:../src/smc_gen/r_drw2d_rx/src/tes/dave_dlist.c ****    d2_u32           tagIndex    = dlist->tagindex;
 1156                             		.loc 1 1069 4 is_stmt 1 view .LVU458
 1157                             		.loc 1 1069 21 is_stmt 0 view .LVU459
 1158 000a A9 A5                   		mov.L	24[r2], r5
 1159                             	.LVL128:
1070:../src/smc_gen/r_drw2d_rx/src/tes/dave_dlist.c ****    d2_s32           cnt         = (size / (d2_s32)sizeof(d2_s32));
 1160                             		.loc 1 1070 4 is_stmt 1 view .LVU460
 1161                             		.loc 1 1070 21 is_stmt 0 view .LVU461
 1162 000c EF 42                   		mov.L	r4, r2
 1163                             	.LVL129:
 1164                             		.loc 1 1070 21 view .LVU462
 1165 000e 61 04                   		cmp	#0, r4
 1166 0010 29 22                   		blt	.L88
 1167                             	.L73:
 1168                             		.loc 1 1070 21 view .LVU463
 1169 0012 FD A2 24                		shar	#2, r2, r4
 1170                             	.LVL130:
 1171                             		.loc 1 1070 21 view .LVU464
 1172 0015 EF 4B                   		mov.L	r4, r11
 1173                             	.LVL131:
1071:../src/smc_gen/r_drw2d_rx/src/tes/dave_dlist.c ****    d2_s32           cnt_rem     = (cnt % 5);
 1174                             		.loc 1 1071 4 is_stmt 1 view .LVU465
 1175                             		.loc 1 1071 21 is_stmt 0 view .LVU466
 1176 0017 FB C2 67 66 66 66       		mov.L	#0x66666667, r12
 1177 001d FC 1B 4C                		emul	r4, r12
 1178 0020 FD A1 DC                		shar	#1, r13, r12
 1179 0023 6B F2                   		shar	#31, r2
 1180 0025 43 2C                   		sub	r2, r12
 1181 0027 63 5C                   		mul	#5, r12
 1182 0029 FF 0C C4                		sub	r12, r4, r12
 1183                             	.LVL132:
1072:../src/smc_gen/r_drw2d_rx/src/tes/dave_dlist.c ****    d2_u32 *         dlist_word  = (d2_u32*)address;
 1184                             		.loc 1 1072 4 is_stmt 1 view .LVU467
1073:../src/smc_gen/r_drw2d_rx/src/tes/dave_dlist.c ****    d2_s32           i;
 1185                             		.loc 1 1073 4 view .LVU468
1074:../src/smc_gen/r_drw2d_rx/src/tes/dave_dlist.c **** 
1075:../src/smc_gen/r_drw2d_rx/src/tes/dave_dlist.c ****    if(0 != tagIndex)
 1186                             		.loc 1 1075 4 view .LVU469
 1187                             		.loc 1 1075 6 is_stmt 0 view .LVU470
 1188 002c 61 05                   		cmp	#0, r5
 1189 002e 21 1C                   		bne	.L74
 1190 0030 2E 3B                   		bra	.L78
 1191                             	.LVL133:
 1192                             	.L88:
1070:../src/smc_gen/r_drw2d_rx/src/tes/dave_dlist.c ****    d2_s32           cnt_rem     = (cnt % 5);
 1193                             		.loc 1 1070 21 view .LVU471
 1194 0032 71 42 03                		add	#3, r4, r2
 1195                             	.LVL134:
1070:../src/smc_gen/r_drw2d_rx/src/tes/dave_dlist.c ****    d2_s32           cnt_rem     = (cnt % 5);
 1196                             		.loc 1 1070 21 view .LVU472
 1197 0035 2E DD                   		bra	.L73
 1198                             	.LVL135:
 1199                             	.L76:
1076:../src/smc_gen/r_drw2d_rx/src/tes/dave_dlist.c ****    {
1077:../src/smc_gen/r_drw2d_rx/src/tes/dave_dlist.c ****       /* fill dlist entry with 0x80 indices */
1078:../src/smc_gen/r_drw2d_rx/src/tes/dave_dlist.c ****       while(0 != tagIndex)
1079:../src/smc_gen/r_drw2d_rx/src/tes/dave_dlist.c ****       {
1080:../src/smc_gen/r_drw2d_rx/src/tes/dave_dlist.c ****          /* store in displaylist */
1081:../src/smc_gen/r_drw2d_rx/src/tes/dave_dlist.c **** #ifdef DAVE_DRIVER_BIG_ENDIAN
1082:../src/smc_gen/r_drw2d_rx/src/tes/dave_dlist.c ****          /* order bytes like integers -> allows to swap bytes in whole dlist */
1083:../src/smc_gen/r_drw2d_rx/src/tes/dave_dlist.c ****          pos->address.array[tagIndex^3] = (d2_u8) 0x80u;
1084:../src/smc_gen/r_drw2d_rx/src/tes/dave_dlist.c **** #else
1085:../src/smc_gen/r_drw2d_rx/src/tes/dave_dlist.c ****          pos->address.array[tagIndex]   = (d2_u8) 0x80u;
 1200                             		.loc 1 1085 10 is_stmt 1 view .LVU473
 1201                             		.loc 1 1085 41 is_stmt 0 view .LVU474
 1202 0037 FB D6 80                		mov	#-128, r13
 1203 003a FE 05 3D                		mov.B	r13, [r5,r3]
1086:../src/smc_gen/r_drw2d_rx/src/tes/dave_dlist.c **** #endif
1087:../src/smc_gen/r_drw2d_rx/src/tes/dave_dlist.c ****          pos->value[tagIndex] = (d2_s32)0x80808080u; /* pad with NULL command */
 1204                             		.loc 1 1087 10 is_stmt 1 view .LVU475
 1205                             		.loc 1 1087 31 is_stmt 0 view .LVU476
 1206 003d 62 15                   		add	#1, r5
 1207                             	.LVL136:
 1208                             		.loc 1 1087 31 view .LVU477
 1209 003f FB 42 80 80 80 80       		mov.L	#-2139062144, r4
 1210 0045 FE 25 34                		mov.L	r4, [r5,r3]
1088:../src/smc_gen/r_drw2d_rx/src/tes/dave_dlist.c ****          /* next tagindex */
1089:../src/smc_gen/r_drw2d_rx/src/tes/dave_dlist.c ****          tagIndex = (tagIndex + 1u) & 3u;
 1211                             		.loc 1 1089 10 is_stmt 1 view .LVU478
 1212                             		.loc 1 1089 19 is_stmt 0 view .LVU479
 1213 0048 64 35                   		and #3, r5
 1214                             	.LVL137:
 1215                             	.L74:
1078:../src/smc_gen/r_drw2d_rx/src/tes/dave_dlist.c ****       {
 1216                             		.loc 1 1078 12 view .LVU480
 1217 004a 61 05                   		cmp	#0, r5
 1218 004c 21 EB                   		bne	.L76
1090:../src/smc_gen/r_drw2d_rx/src/tes/dave_dlist.c ****       }
1091:../src/smc_gen/r_drw2d_rx/src/tes/dave_dlist.c ****       dlist->tagindex = 0;
 1219                             		.loc 1 1091 7 is_stmt 1 view .LVU481
 1220                             		.loc 1 1091 23 is_stmt 0 view .LVU482
 1221 004e 3E 66 00                		mov.L	#0, 24[r6]
1092:../src/smc_gen/r_drw2d_rx/src/tes/dave_dlist.c ****       /* finish entry */
1093:../src/smc_gen/r_drw2d_rx/src/tes/dave_dlist.c ****       dlist->position++;
 1222                             		.loc 1 1093 7 is_stmt 1 view .LVU483
 1223                             		.loc 1 1093 12 is_stmt 0 view .LVU484
 1224 0051 A9 65                   		mov.L	16[r6], r5
 1225                             	.LVL138:
 1226                             		.loc 1 1093 22 view .LVU485
 1227 0053 71 55 14                		add	#20, r5
 1228 0056 A1 65                   		mov.L	r5, 16[r6]
1094:../src/smc_gen/r_drw2d_rx/src/tes/dave_dlist.c ****       dlist->blocksize--;
 1229                             		.loc 1 1094 7 is_stmt 1 view .LVU486
 1230                             		.loc 1 1094 12 is_stmt 0 view .LVU487
 1231 0058 A9 ED                   		mov.L	28[r6], r5
 1232                             		.loc 1 1094 23 view .LVU488
 1233 005a 60 15                   		sub	#1, r5
 1234 005c A1 ED                   		mov.L	r5, 28[r6]
1095:../src/smc_gen/r_drw2d_rx/src/tes/dave_dlist.c ****       if(dlist->blocksize <= 1) 
 1235                             		.loc 1 1095 7 is_stmt 1 view .LVU489
 1236                             		.loc 1 1095 9 is_stmt 0 view .LVU490
 1237 005e 61 15                   		cmp	#1, r5
 1238 0060 24 0B                   		bgtu	.L78
1096:../src/smc_gen/r_drw2d_rx/src/tes/dave_dlist.c ****       {
1097:../src/smc_gen/r_drw2d_rx/src/tes/dave_dlist.c ****          d2_nextdlistblock_intern( dlist );
 1239                             		.loc 1 1097 10 is_stmt 1 view .LVU491
 1240 0062 EF 61                   		mov.L	r6, r1
 1241                             	.LVL139:
 1242                             		.loc 1 1097 10 is_stmt 0 view .LVU492
 1243 0064 05 00 00 00             		bsr	_d2_nextdlistblock_intern
 1244                             	.LVL140:
 1245                             		.loc 1 1097 10 view .LVU493
 1246 0068 0B                      		bra	.L78
 1247                             	.LVL141:
 1248                             	.L77:
 1249                             	.LBB55:
1098:../src/smc_gen/r_drw2d_rx/src/tes/dave_dlist.c ****       }
1099:../src/smc_gen/r_drw2d_rx/src/tes/dave_dlist.c ****    }
1100:../src/smc_gen/r_drw2d_rx/src/tes/dave_dlist.c **** 
1101:../src/smc_gen/r_drw2d_rx/src/tes/dave_dlist.c ****    /* copy dlist with size of dlist entries */
1102:../src/smc_gen/r_drw2d_rx/src/tes/dave_dlist.c ****    while(cnt >= 5)
1103:../src/smc_gen/r_drw2d_rx/src/tes/dave_dlist.c ****    {
1104:../src/smc_gen/r_drw2d_rx/src/tes/dave_dlist.c ****       d2_u32 *dl = &dlist->position->address.mask;
1105:../src/smc_gen/r_drw2d_rx/src/tes/dave_dlist.c ****       dl[0] = dlist_word[0];
1106:../src/smc_gen/r_drw2d_rx/src/tes/dave_dlist.c ****       dl[1] = dlist_word[1];
1107:../src/smc_gen/r_drw2d_rx/src/tes/dave_dlist.c ****       dl[2] = dlist_word[2];
1108:../src/smc_gen/r_drw2d_rx/src/tes/dave_dlist.c ****       dl[3] = dlist_word[3];
1109:../src/smc_gen/r_drw2d_rx/src/tes/dave_dlist.c ****       dl[4] = dlist_word[4];
1110:../src/smc_gen/r_drw2d_rx/src/tes/dave_dlist.c ****       dl += 5;
1111:../src/smc_gen/r_drw2d_rx/src/tes/dave_dlist.c ****       dlist_word += 5;
1112:../src/smc_gen/r_drw2d_rx/src/tes/dave_dlist.c **** 
1113:../src/smc_gen/r_drw2d_rx/src/tes/dave_dlist.c ****       /* finish entry */
1114:../src/smc_gen/r_drw2d_rx/src/tes/dave_dlist.c ****       dlist->position++;
1115:../src/smc_gen/r_drw2d_rx/src/tes/dave_dlist.c ****       dlist->blocksize--;
1116:../src/smc_gen/r_drw2d_rx/src/tes/dave_dlist.c ****       if(dlist->blocksize <= 1)
1117:../src/smc_gen/r_drw2d_rx/src/tes/dave_dlist.c ****       {
1118:../src/smc_gen/r_drw2d_rx/src/tes/dave_dlist.c ****          d2_nextdlistblock_intern( dlist );
1119:../src/smc_gen/r_drw2d_rx/src/tes/dave_dlist.c ****       }
1120:../src/smc_gen/r_drw2d_rx/src/tes/dave_dlist.c ****       cnt -= 5;
 1250                             		.loc 1 1120 7 is_stmt 1 view .LVU494
 1251                             		.loc 1 1120 11 is_stmt 0 view .LVU495
 1252 0069 60 5B                   		sub	#5, r11
 1253                             	.LVL142:
 1254                             		.balign 8,3,1
 1255                             	.L78:
 1256                             		.loc 1 1120 11 view .LVU496
 1257                             	.LBE55:
1102:../src/smc_gen/r_drw2d_rx/src/tes/dave_dlist.c ****    {
 1258                             		.loc 1 1102 9 view .LVU497
 1259 006b 61 4B                   		cmp	#4, r11
 1260 006d 2B 32                   		ble	.L89
 1261                             	.LBB56:
1104:../src/smc_gen/r_drw2d_rx/src/tes/dave_dlist.c ****       dl[0] = dlist_word[0];
 1262                             		.loc 1 1104 7 is_stmt 1 view .LVU498
1104:../src/smc_gen/r_drw2d_rx/src/tes/dave_dlist.c ****       dl[0] = dlist_word[0];
 1263                             		.loc 1 1104 26 is_stmt 0 view .LVU499
 1264 006f A9 65                   		mov.L	16[r6], r5
 1265                             	.LVL143:
1105:../src/smc_gen/r_drw2d_rx/src/tes/dave_dlist.c ****       dl[1] = dlist_word[1];
 1266                             		.loc 1 1105 7 is_stmt 1 view .LVU500
1105:../src/smc_gen/r_drw2d_rx/src/tes/dave_dlist.c ****       dl[1] = dlist_word[1];
 1267                             		.loc 1 1105 13 is_stmt 0 view .LVU501
 1268 0071 E0 A5                   		mov.L	[r10], [r5]
1106:../src/smc_gen/r_drw2d_rx/src/tes/dave_dlist.c ****       dl[2] = dlist_word[2];
 1269                             		.loc 1 1106 7 is_stmt 1 view .LVU502
1106:../src/smc_gen/r_drw2d_rx/src/tes/dave_dlist.c ****       dl[2] = dlist_word[2];
 1270                             		.loc 1 1106 13 is_stmt 0 view .LVU503
 1271 0073 E5 A5 01 01             		mov.L	4[r10], 4[r5]
1107:../src/smc_gen/r_drw2d_rx/src/tes/dave_dlist.c ****       dl[3] = dlist_word[3];
 1272                             		.loc 1 1107 7 is_stmt 1 view .LVU504
1107:../src/smc_gen/r_drw2d_rx/src/tes/dave_dlist.c ****       dl[3] = dlist_word[3];
 1273                             		.loc 1 1107 13 is_stmt 0 view .LVU505
 1274 0077 E5 A5 02 02             		mov.L	8[r10], 8[r5]
1108:../src/smc_gen/r_drw2d_rx/src/tes/dave_dlist.c ****       dl[4] = dlist_word[4];
 1275                             		.loc 1 1108 7 is_stmt 1 view .LVU506
1108:../src/smc_gen/r_drw2d_rx/src/tes/dave_dlist.c ****       dl[4] = dlist_word[4];
 1276                             		.loc 1 1108 13 is_stmt 0 view .LVU507
 1277 007b E5 A5 03 03             		mov.L	12[r10], 12[r5]
1109:../src/smc_gen/r_drw2d_rx/src/tes/dave_dlist.c ****       dl += 5;
 1278                             		.loc 1 1109 7 is_stmt 1 view .LVU508
1109:../src/smc_gen/r_drw2d_rx/src/tes/dave_dlist.c ****       dl += 5;
 1279                             		.loc 1 1109 13 is_stmt 0 view .LVU509
 1280 007f E5 A5 04 04             		mov.L	16[r10], 16[r5]
1110:../src/smc_gen/r_drw2d_rx/src/tes/dave_dlist.c ****       dlist_word += 5;
 1281                             		.loc 1 1110 7 is_stmt 1 view .LVU510
 1282                             	.LVL144:
1111:../src/smc_gen/r_drw2d_rx/src/tes/dave_dlist.c **** 
 1283                             		.loc 1 1111 7 view .LVU511
1111:../src/smc_gen/r_drw2d_rx/src/tes/dave_dlist.c **** 
 1284                             		.loc 1 1111 18 is_stmt 0 view .LVU512
 1285 0083 71 AA 14                		add	#20, r10
 1286                             	.LVL145:
1114:../src/smc_gen/r_drw2d_rx/src/tes/dave_dlist.c ****       dlist->blocksize--;
 1287                             		.loc 1 1114 7 is_stmt 1 view .LVU513
1114:../src/smc_gen/r_drw2d_rx/src/tes/dave_dlist.c ****       dlist->blocksize--;
 1288                             		.loc 1 1114 12 is_stmt 0 view .LVU514
 1289 0086 A9 65                   		mov.L	16[r6], r5
 1290                             	.LVL146:
1114:../src/smc_gen/r_drw2d_rx/src/tes/dave_dlist.c ****       dlist->blocksize--;
 1291                             		.loc 1 1114 22 view .LVU515
 1292 0088 71 55 14                		add	#20, r5
 1293 008b A1 65                   		mov.L	r5, 16[r6]
1115:../src/smc_gen/r_drw2d_rx/src/tes/dave_dlist.c ****       if(dlist->blocksize <= 1)
 1294                             		.loc 1 1115 7 is_stmt 1 view .LVU516
1115:../src/smc_gen/r_drw2d_rx/src/tes/dave_dlist.c ****       if(dlist->blocksize <= 1)
 1295                             		.loc 1 1115 12 is_stmt 0 view .LVU517
 1296 008d A9 ED                   		mov.L	28[r6], r5
1115:../src/smc_gen/r_drw2d_rx/src/tes/dave_dlist.c ****       if(dlist->blocksize <= 1)
 1297                             		.loc 1 1115 23 view .LVU518
 1298 008f 60 15                   		sub	#1, r5
 1299 0091 A1 ED                   		mov.L	r5, 28[r6]
1116:../src/smc_gen/r_drw2d_rx/src/tes/dave_dlist.c ****       {
 1300                             		.loc 1 1116 7 is_stmt 1 view .LVU519
1116:../src/smc_gen/r_drw2d_rx/src/tes/dave_dlist.c ****       {
 1301                             		.loc 1 1116 9 is_stmt 0 view .LVU520
 1302 0093 61 15                   		cmp	#1, r5
 1303 0095 24 D4                   		bgtu	.L77
1118:../src/smc_gen/r_drw2d_rx/src/tes/dave_dlist.c ****       }
 1304                             		.loc 1 1118 10 is_stmt 1 view .LVU521
 1305 0097 EF 61                   		mov.L	r6, r1
 1306 0099 05 00 00 00             		bsr	_d2_nextdlistblock_intern
 1307                             	.LVL147:
 1308 009d 2E CC                   		bra	.L77
 1309                             	.L89:
1118:../src/smc_gen/r_drw2d_rx/src/tes/dave_dlist.c ****       }
 1310                             		.loc 1 1118 10 is_stmt 0 view .LVU522
 1311                             	.LBE56:
1121:../src/smc_gen/r_drw2d_rx/src/tes/dave_dlist.c ****    }
1122:../src/smc_gen/r_drw2d_rx/src/tes/dave_dlist.c **** 
1123:../src/smc_gen/r_drw2d_rx/src/tes/dave_dlist.c ****    /* pad dlist entry */
1124:../src/smc_gen/r_drw2d_rx/src/tes/dave_dlist.c ****    if(0 != cnt_rem)
 1312                             		.loc 1 1124 4 is_stmt 1 view .LVU523
 1313                             		.loc 1 1124 6 is_stmt 0 view .LVU524
 1314 009f 61 0C                   		cmp	#0, r12
 1315 00a1 20 28                   		beq	.L80
 1316                             	.LBB57:
1125:../src/smc_gen/r_drw2d_rx/src/tes/dave_dlist.c ****    {
1126:../src/smc_gen/r_drw2d_rx/src/tes/dave_dlist.c ****       d2_u32 *dl = &dlist->position->address.mask;
 1317                             		.loc 1 1126 7 is_stmt 1 view .LVU525
 1318                             		.loc 1 1126 26 is_stmt 0 view .LVU526
 1319 00a3 A9 65                   		mov.L	16[r6], r5
 1320                             	.LVL148:
1127:../src/smc_gen/r_drw2d_rx/src/tes/dave_dlist.c **** 
1128:../src/smc_gen/r_drw2d_rx/src/tes/dave_dlist.c ****       /* copy remaining words */
1129:../src/smc_gen/r_drw2d_rx/src/tes/dave_dlist.c ****       cnt--;
 1321                             		.loc 1 1129 7 is_stmt 1 view .LVU527
 1322                             		.loc 1 1129 10 is_stmt 0 view .LVU528
 1323 00a5 60 1B                   		sub	#1, r11
 1324                             	.LVL149:
1130:../src/smc_gen/r_drw2d_rx/src/tes/dave_dlist.c ****       if(0 != cnt)
 1325                             		.loc 1 1130 7 is_stmt 1 view .LVU529
 1326                             		.loc 1 1130 9 is_stmt 0 view .LVU530
 1327 00a7 20 0C                   		beq	.L81
 1328                             	.L82:
1131:../src/smc_gen/r_drw2d_rx/src/tes/dave_dlist.c ****       {
1132:../src/smc_gen/r_drw2d_rx/src/tes/dave_dlist.c ****          do
 1329                             		.loc 1 1132 10 is_stmt 1 discriminator 1 view .LVU531
1133:../src/smc_gen/r_drw2d_rx/src/tes/dave_dlist.c ****          {
1134:../src/smc_gen/r_drw2d_rx/src/tes/dave_dlist.c ****             *dl = *dlist_word;
 1330                             		.loc 1 1134 13 discriminator 1 view .LVU532
 1331                             		.loc 1 1134 17 is_stmt 0 discriminator 1 view .LVU533
 1332 00a9 FD 2A AD                		mov.L	[r10+], r13
 1333                             	.LVL150:
 1334                             		.loc 1 1134 17 discriminator 1 view .LVU534
 1335 00ac FD 22 5D                		mov.L	r13, [r5+]
 1336                             	.LVL151:
1135:../src/smc_gen/r_drw2d_rx/src/tes/dave_dlist.c ****             dl++;
 1337                             		.loc 1 1135 13 is_stmt 1 discriminator 1 view .LVU535
1136:../src/smc_gen/r_drw2d_rx/src/tes/dave_dlist.c ****             dlist_word++;
 1338                             		.loc 1 1136 13 discriminator 1 view .LVU536
1137:../src/smc_gen/r_drw2d_rx/src/tes/dave_dlist.c ****             cnt--;
 1339                             		.loc 1 1137 13 discriminator 1 view .LVU537
 1340                             		.loc 1 1137 16 is_stmt 0 discriminator 1 view .LVU538
 1341 00af 60 1B                   		sub	#1, r11
 1342                             	.LVL152:
1138:../src/smc_gen/r_drw2d_rx/src/tes/dave_dlist.c ****          }
1139:../src/smc_gen/r_drw2d_rx/src/tes/dave_dlist.c ****          while(0 != cnt);
 1343                             		.loc 1 1139 10 discriminator 1 view .LVU539
 1344 00b1 21 F8                   		bne	.L82
 1345                             	.L81:
1140:../src/smc_gen/r_drw2d_rx/src/tes/dave_dlist.c ****       }
1141:../src/smc_gen/r_drw2d_rx/src/tes/dave_dlist.c **** 
1142:../src/smc_gen/r_drw2d_rx/src/tes/dave_dlist.c ****       /* pad with 0x80808080 */
1143:../src/smc_gen/r_drw2d_rx/src/tes/dave_dlist.c ****       for(cnt_rem = (5 - cnt_rem); cnt_rem > 0; cnt_rem--)
 1346                             		.loc 1 1143 7 is_stmt 1 view .LVU540
 1347                             		.loc 1 1143 19 is_stmt 0 view .LVU541
 1348 00b3 66 5A                   		mov.L	#5, r10
 1349                             	.LVL153:
 1350                             		.loc 1 1143 19 view .LVU542
 1351 00b5 FF 0C CA                		sub	r12, r10, r12
 1352                             	.LVL154:
 1353                             		.loc 1 1143 7 view .LVU543
 1354 00b8 2E 0D                   		bra	.L83
 1355                             	.L84:
1144:../src/smc_gen/r_drw2d_rx/src/tes/dave_dlist.c ****       {
1145:../src/smc_gen/r_drw2d_rx/src/tes/dave_dlist.c ****          *dl = 0x80808080u;
 1356                             		.loc 1 1145 10 is_stmt 1 discriminator 3 view .LVU544
 1357                             		.loc 1 1145 14 is_stmt 0 discriminator 3 view .LVU545
 1358 00ba FB 42 80 80 80 80       		mov.L	#-2139062144, r4
 1359 00c0 FD 22 54                		mov.L	r4, [r5+]
 1360                             	.LVL155:
1146:../src/smc_gen/r_drw2d_rx/src/tes/dave_dlist.c ****          dl++;
 1361                             		.loc 1 1146 10 is_stmt 1 discriminator 3 view .LVU546
1143:../src/smc_gen/r_drw2d_rx/src/tes/dave_dlist.c ****       {
 1362                             		.loc 1 1143 56 is_stmt 0 discriminator 3 view .LVU547
 1363 00c3 60 1C                   		sub	#1, r12
 1364                             	.LVL156:
 1365                             	.L83:
1143:../src/smc_gen/r_drw2d_rx/src/tes/dave_dlist.c ****       {
 1366                             		.loc 1 1143 7 discriminator 1 view .LVU548
 1367 00c5 61 0C                   		cmp	#0, r12
 1368 00c7 2A F3                   		bgt	.L84
 1369                             	.LVL157:
 1370                             	.L80:
1143:../src/smc_gen/r_drw2d_rx/src/tes/dave_dlist.c ****       {
 1371                             		.loc 1 1143 7 discriminator 1 view .LVU549
 1372                             	.LBE57:
1067:../src/smc_gen/r_drw2d_rx/src/tes/dave_dlist.c ****    d2_dlist_entry * pos         = dlist->position;
 1373                             		.loc 1 1067 1 discriminator 1 view .LVU550
 1374 00c9 66 05                   		mov.L	#0, r5
 1375                             	.L85:
 1376                             	.LVL158:
1147:../src/smc_gen/r_drw2d_rx/src/tes/dave_dlist.c ****       }
1148:../src/smc_gen/r_drw2d_rx/src/tes/dave_dlist.c ****    }
1149:../src/smc_gen/r_drw2d_rx/src/tes/dave_dlist.c **** 
1150:../src/smc_gen/r_drw2d_rx/src/tes/dave_dlist.c ****    /* clear register cache */
1151:../src/smc_gen/r_drw2d_rx/src/tes/dave_dlist.c **** #ifdef D2_USEREGCACHE
1152:../src/smc_gen/r_drw2d_rx/src/tes/dave_dlist.c ****    for(i=0; i<D2_QUANTITY; i++)
 1377                             		.loc 1 1152 4 discriminator 1 view .LVU551
 1378 00cb 75 55 3A                		cmp	#58, r5
 1379 00ce 2A 16                   		bgt	.L90
1153:../src/smc_gen/r_drw2d_rx/src/tes/dave_dlist.c ****    {
1154:../src/smc_gen/r_drw2d_rx/src/tes/dave_dlist.c ****       D2_DEV(handle)->cache.data[i]  = 0;
 1380                             		.loc 1 1154 7 is_stmt 1 discriminator 3 view .LVU552
 1381                             		.loc 1 1154 38 is_stmt 0 discriminator 3 view .LVU553
 1382 00d0 71 54 23                		add	#35, r5, r4
 1383 00d3 66 0A                   		mov.L	#0, r10
 1384 00d5 FE 24 7A                		mov.L	r10, [r4,r7]
1155:../src/smc_gen/r_drw2d_rx/src/tes/dave_dlist.c ****       D2_DEV(handle)->cache.valid[i] = 0;
 1385                             		.loc 1 1155 7 is_stmt 1 discriminator 3 view .LVU554
 1386                             		.loc 1 1155 38 is_stmt 0 discriminator 3 view .LVU555
 1387 00d8 FF 24 57                		add	r5, r7, r4
 1388 00db FA 44 78 01 00          		mov.B	#0, 376[r4]
1152:../src/smc_gen/r_drw2d_rx/src/tes/dave_dlist.c ****    {
 1389                             		.loc 1 1152 29 discriminator 3 view .LVU556
 1390 00e0 62 15                   		add	#1, r5
 1391                             	.LVL159:
1152:../src/smc_gen/r_drw2d_rx/src/tes/dave_dlist.c ****    {
 1392                             		.loc 1 1152 29 discriminator 3 view .LVU557
 1393 00e2 2E E9                   		bra	.L85
 1394                             	.L90:
1156:../src/smc_gen/r_drw2d_rx/src/tes/dave_dlist.c ****    }
1157:../src/smc_gen/r_drw2d_rx/src/tes/dave_dlist.c **** #endif
1158:../src/smc_gen/r_drw2d_rx/src/tes/dave_dlist.c **** 
1159:../src/smc_gen/r_drw2d_rx/src/tes/dave_dlist.c ****    return 0;
 1395                             		.loc 1 1159 4 is_stmt 1 view .LVU558
1160:../src/smc_gen/r_drw2d_rx/src/tes/dave_dlist.c **** }
 1396                             		.loc 1 1160 1 is_stmt 0 view .LVU559
 1397 00e4 66 01                   		mov.L	#0, r1
 1398 00e6 3F 6D 08                		rtsd	#32, r6-r13
 1399                             		.loc 1 1160 1 view .LVU560
 1400                             	.LFE19:
 1402 00e9 FD 70 40 00 00 00 80    		.section	.text.d2_paddlist_intern,"ax",@progbits
 1403                             		.global	_d2_paddlist_intern
 1405                             	_d2_paddlist_intern:
 1406                             	.LVL160:
 1407                             	.LFB12:
 432:../src/smc_gen/r_drw2d_rx/src/tes/dave_dlist.c ****    d2_u32 tagIndex = dlist->tagindex;
 1408                             		.loc 1 432 1 is_stmt 1 view -0
 433:../src/smc_gen/r_drw2d_rx/src/tes/dave_dlist.c ****    d2_dlist_entry *pos = dlist->position;
 1409                             		.loc 1 433 4 view .LVU562
 433:../src/smc_gen/r_drw2d_rx/src/tes/dave_dlist.c ****    d2_dlist_entry *pos = dlist->position;
 1410                             		.loc 1 433 11 is_stmt 0 view .LVU563
 1411 0000 A9 95                   		mov.L	24[r1], r5
 1412                             	.LVL161:
 434:../src/smc_gen/r_drw2d_rx/src/tes/dave_dlist.c **** 
 1413                             		.loc 1 434 4 is_stmt 1 view .LVU564
 434:../src/smc_gen/r_drw2d_rx/src/tes/dave_dlist.c **** 
 1414                             		.loc 1 434 20 is_stmt 0 view .LVU565
 1415 0002 A9 14                   		mov.L	16[r1], r4
 1416                             	.LVL162:
 436:../src/smc_gen/r_drw2d_rx/src/tes/dave_dlist.c ****    {
 1417                             		.loc 1 436 4 is_stmt 1 view .LVU566
 1418 0004 61 15                   		cmp	#1, r5
 1419 0006 20 1C                   		beq	.L92
 1420 0008 61 05                   		cmp	#0, r5
 1421 000a 20 17                   		beq	.L91
 1422 000c 61 25                   		cmp	#2, r5
 1423 000e 20 24                   		beq	.L94
 1424 0010 61 35                   		cmp	#3, r5
 1425 0012 20 30                   		beq	.L95
 1426                             	.LVL163:
 1427 0014 76 10 01 00             		.balign 8,3,4
 1428                             	.L96:
 465:../src/smc_gen/r_drw2d_rx/src/tes/dave_dlist.c ****    dlist->blocksize--;
 1429                             		.loc 1 465 4 view .LVU567
 465:../src/smc_gen/r_drw2d_rx/src/tes/dave_dlist.c ****    dlist->blocksize--;
 1430                             		.loc 1 465 20 is_stmt 0 view .LVU568
 1431 0018 3E 16 00                		mov.L	#0, 24[r1]
 466:../src/smc_gen/r_drw2d_rx/src/tes/dave_dlist.c **** }
 1432                             		.loc 1 466 4 is_stmt 1 view .LVU569
 466:../src/smc_gen/r_drw2d_rx/src/tes/dave_dlist.c **** }
 1433                             		.loc 1 466 9 is_stmt 0 view .LVU570
 1434 001b A9 9D                   		mov.L	28[r1], r5
 466:../src/smc_gen/r_drw2d_rx/src/tes/dave_dlist.c **** }
 1435                             		.loc 1 466 20 view .LVU571
 1436 001d 60 15                   		sub	#1, r5
 1437 001f A1 9D                   		mov.L	r5, 28[r1]
 1438                             	.L91:
 467:../src/smc_gen/r_drw2d_rx/src/tes/dave_dlist.c **** 
 1439                             		.loc 1 467 1 view .LVU572
 1440 0021 02                      		rts
 1441                             	.LVL164:
 1442                             	.L92:
 443:../src/smc_gen/r_drw2d_rx/src/tes/dave_dlist.c ****          pos->address.mask |= 0x80808000u;
 1443                             		.loc 1 443 10 is_stmt 1 view .LVU573
 443:../src/smc_gen/r_drw2d_rx/src/tes/dave_dlist.c ****          pos->address.mask |= 0x80808000u;
 1444                             		.loc 1 443 28 is_stmt 0 view .LVU574
 1445 0022 58 45                   		movu.B	[r4], r5
 1446                             	.LVL165:
 444:../src/smc_gen/r_drw2d_rx/src/tes/dave_dlist.c ****          dlist->position = (d2_dlist_entry *) ((d2_s32*)pos + 2);
 1447                             		.loc 1 444 10 is_stmt 1 view .LVU575
 444:../src/smc_gen/r_drw2d_rx/src/tes/dave_dlist.c ****          dlist->position = (d2_dlist_entry *) ((d2_s32*)pos + 2);
 1448                             		.loc 1 444 28 is_stmt 0 view .LVU576
 1449 0024 74 35 00 80 80 80       		or	#-2139062272, r5
 1450 002a E3 45                   		mov.L	r5, [r4]
 1451                             	.LVL166:
 445:../src/smc_gen/r_drw2d_rx/src/tes/dave_dlist.c ****          break;
 1452                             		.loc 1 445 10 is_stmt 1 view .LVU577
 445:../src/smc_gen/r_drw2d_rx/src/tes/dave_dlist.c ****          break;
 1453                             		.loc 1 445 28 is_stmt 0 view .LVU578
 1454 002c 62 84                   		add	#8, r4
 1455                             	.LVL167:
 445:../src/smc_gen/r_drw2d_rx/src/tes/dave_dlist.c ****          break;
 1456                             		.loc 1 445 26 view .LVU579
 1457 002e A1 14                   		mov.L	r4, 16[r1]
 446:../src/smc_gen/r_drw2d_rx/src/tes/dave_dlist.c **** 
 1458                             		.loc 1 446 10 is_stmt 1 view .LVU580
 1459 0030 2E E8                   		bra	.L96
 1460                             	.LVL168:
 1461                             	.L94:
 449:../src/smc_gen/r_drw2d_rx/src/tes/dave_dlist.c ****          pos->address.mask |= 0x80800000u;
 1462                             		.loc 1 449 10 view .LVU581
 449:../src/smc_gen/r_drw2d_rx/src/tes/dave_dlist.c ****          pos->address.mask |= 0x80800000u;
 1463                             		.loc 1 449 28 is_stmt 0 view .LVU582
 1464 0032 5C 45                   		movu.W	[r4], r5
 1465                             	.LVL169:
 450:../src/smc_gen/r_drw2d_rx/src/tes/dave_dlist.c ****          dlist->position = (d2_dlist_entry *) ((d2_s32*)pos + 3);
 1466                             		.loc 1 450 10 is_stmt 1 view .LVU583
 450:../src/smc_gen/r_drw2d_rx/src/tes/dave_dlist.c ****          dlist->position = (d2_dlist_entry *) ((d2_s32*)pos + 3);
 1467                             		.loc 1 450 28 is_stmt 0 view .LVU584
 1468 0034 74 35 00 00 80 80       		or	#-2139095040, r5
 1469 003a E3 45                   		mov.L	r5, [r4]
 1470                             	.LVL170:
 451:../src/smc_gen/r_drw2d_rx/src/tes/dave_dlist.c ****          break;
 1471                             		.loc 1 451 10 is_stmt 1 view .LVU585
 451:../src/smc_gen/r_drw2d_rx/src/tes/dave_dlist.c ****          break;
 1472                             		.loc 1 451 28 is_stmt 0 view .LVU586
 1473 003c 62 C4                   		add	#12, r4
 1474                             	.LVL171:
 451:../src/smc_gen/r_drw2d_rx/src/tes/dave_dlist.c ****          break;
 1475                             		.loc 1 451 26 view .LVU587
 1476 003e A1 14                   		mov.L	r4, 16[r1]
 452:../src/smc_gen/r_drw2d_rx/src/tes/dave_dlist.c **** 
 1477                             		.loc 1 452 10 is_stmt 1 view .LVU588
 1478 0040 2E D8                   		bra	.L96
 1479                             	.LVL172:
 1480                             	.L95:
 455:../src/smc_gen/r_drw2d_rx/src/tes/dave_dlist.c ****          pos->address.mask |= 0x80000000u;
 1481                             		.loc 1 455 10 view .LVU589
 455:../src/smc_gen/r_drw2d_rx/src/tes/dave_dlist.c ****          pos->address.mask |= 0x80000000u;
 1482                             		.loc 1 455 28 is_stmt 0 view .LVU590
 1483 0042 EC 45                   		mov.L	[r4], r5
 1484                             	.LVL173:
 455:../src/smc_gen/r_drw2d_rx/src/tes/dave_dlist.c ****          pos->address.mask |= 0x80000000u;
 1485                             		.loc 1 455 28 view .LVU591
 1486 0044 74 25 FF FF FF 00       		and #0xffffff, r5
 456:../src/smc_gen/r_drw2d_rx/src/tes/dave_dlist.c ****          dlist->position = (d2_dlist_entry *) ((d2_s32*)pos + 4);
 1487                             		.loc 1 456 10 is_stmt 1 view .LVU592
 456:../src/smc_gen/r_drw2d_rx/src/tes/dave_dlist.c ****          dlist->position = (d2_dlist_entry *) ((d2_s32*)pos + 4);
 1488                             		.loc 1 456 28 is_stmt 0 view .LVU593
 1489 004a 74 35 00 00 00 80       		or	#-2147483648, r5
 1490 0050 E3 45                   		mov.L	r5, [r4]
 1491                             	.LVL174:
 457:../src/smc_gen/r_drw2d_rx/src/tes/dave_dlist.c ****          break;
 1492                             		.loc 1 457 10 is_stmt 1 view .LVU594
 457:../src/smc_gen/r_drw2d_rx/src/tes/dave_dlist.c ****          break;
 1493                             		.loc 1 457 28 is_stmt 0 view .LVU595
 1494 0052 71 44 10                		add	#16, r4
 1495                             	.LVL175:
 457:../src/smc_gen/r_drw2d_rx/src/tes/dave_dlist.c ****          break;
 1496                             		.loc 1 457 26 view .LVU596
 1497 0055 A1 14                   		mov.L	r4, 16[r1]
 458:../src/smc_gen/r_drw2d_rx/src/tes/dave_dlist.c ****          
 1498                             		.loc 1 458 10 is_stmt 1 view .LVU597
 1499 0057 2E C1                   		bra	.L96
 1500                             	.LFE12:
 1502 0059 FD 70 40 00 00 00 80    		.section	.text.d2_resetdlist_intern,"ax",@progbits
 1503                             		.global	_d2_resetdlist_intern
 1505                             	_d2_resetdlist_intern:
 1506                             	.LVL176:
 1507                             	.LFB13:
 471:../src/smc_gen/r_drw2d_rx/src/tes/dave_dlist.c **** #ifdef D2_USEREGCACHE
 1508                             		.loc 1 471 1 view -0
 473:../src/smc_gen/r_drw2d_rx/src/tes/dave_dlist.c ****    d2_s32 regIdx;
 1509                             		.loc 1 473 4 view .LVU599
 473:../src/smc_gen/r_drw2d_rx/src/tes/dave_dlist.c ****    d2_s32 regIdx;
 1510                             		.loc 1 473 58 is_stmt 0 view .LVU600
 1511 0000 EC 13                   		mov.L	[r1], r3
 1512                             	.LVL177:
 474:../src/smc_gen/r_drw2d_rx/src/tes/dave_dlist.c ****    if(0 == (((d2_devicedata *) dlist->device)->flags & d2_df_no_registercaching))
 1513                             		.loc 1 474 4 is_stmt 1 view .LVU601
 475:../src/smc_gen/r_drw2d_rx/src/tes/dave_dlist.c ****    {
 1514                             		.loc 1 475 4 view .LVU602
 475:../src/smc_gen/r_drw2d_rx/src/tes/dave_dlist.c ****    {
 1515                             		.loc 1 475 46 is_stmt 0 view .LVU603
 1516 0002 AE B5                   		mov.L	104[r3], r5
 475:../src/smc_gen/r_drw2d_rx/src/tes/dave_dlist.c ****    {
 1517                             		.loc 1 475 6 view .LVU604
 1518 0004 FD 74 C5 20             		tst	#32, r5
 1519 0008 20 37                   		beq	.L102
 1520                             	.L99:
 484:../src/smc_gen/r_drw2d_rx/src/tes/dave_dlist.c ****    dlist->resumeblock  = dlist->firstblock;
 1521                             		.loc 1 484 4 is_stmt 1 view .LVU605
 484:../src/smc_gen/r_drw2d_rx/src/tes/dave_dlist.c ****    dlist->resumeblock  = dlist->firstblock;
 1522                             		.loc 1 484 24 is_stmt 0 view .LVU606
 1523 000a E5 11 01 02             		mov.L	4[r1], 8[r1]
 485:../src/smc_gen/r_drw2d_rx/src/tes/dave_dlist.c **** 
 1524                             		.loc 1 485 4 is_stmt 1 view .LVU607
 485:../src/smc_gen/r_drw2d_rx/src/tes/dave_dlist.c **** 
 1525                             		.loc 1 485 24 is_stmt 0 view .LVU608
 1526 000e E5 11 01 03             		mov.L	4[r1], 12[r1]
 487:../src/smc_gen/r_drw2d_rx/src/tes/dave_dlist.c ****    {
 1527                             		.loc 1 487 4 is_stmt 1 view .LVU609
 487:../src/smc_gen/r_drw2d_rx/src/tes/dave_dlist.c ****    {
 1528                             		.loc 1 487 20 is_stmt 0 view .LVU610
 1529 0012 A9 1D                   		mov.L	20[r1], r5
 487:../src/smc_gen/r_drw2d_rx/src/tes/dave_dlist.c ****    {
 1530                             		.loc 1 487 6 view .LVU611
 1531 0014 61 05                   		cmp	#0, r5
 1532 0016 20 18                   		beq	.L101
 489:../src/smc_gen/r_drw2d_rx/src/tes/dave_dlist.c ****       dlist->vidmem_blocks->currentaddress = dlist->vidmem_blocks->blocks[0];
 1533                             		.loc 1 489 7 is_stmt 1 view .LVU612
 489:../src/smc_gen/r_drw2d_rx/src/tes/dave_dlist.c ****       dlist->vidmem_blocks->currentaddress = dlist->vidmem_blocks->blocks[0];
 1534                             		.loc 1 489 44 is_stmt 0 view .LVU613
 1535 0018 E4 55 03                		mov.L	[r5], 12[r5]
 490:../src/smc_gen/r_drw2d_rx/src/tes/dave_dlist.c ****       dlist->vidmem_blocks->blocksleft     = dlist->vidmem_blocks->num_blocks;
 1536                             		.loc 1 490 7 is_stmt 1 view .LVU614
 490:../src/smc_gen/r_drw2d_rx/src/tes/dave_dlist.c ****       dlist->vidmem_blocks->blocksleft     = dlist->vidmem_blocks->num_blocks;
 1537                             		.loc 1 490 51 is_stmt 0 view .LVU615
 1538 001b A9 1D                   		mov.L	20[r1], r5
 490:../src/smc_gen/r_drw2d_rx/src/tes/dave_dlist.c ****       dlist->vidmem_blocks->blocksleft     = dlist->vidmem_blocks->num_blocks;
 1539                             		.loc 1 490 66 view .LVU616
 1540 001d EC 54                   		mov.L	[r5], r4
 490:../src/smc_gen/r_drw2d_rx/src/tes/dave_dlist.c ****       dlist->vidmem_blocks->blocksleft     = dlist->vidmem_blocks->num_blocks;
 1541                             		.loc 1 490 44 view .LVU617
 1542 001f E4 45 04                		mov.L	[r4], 16[r5]
 491:../src/smc_gen/r_drw2d_rx/src/tes/dave_dlist.c ****       dlist->vidmem_blocks->slicesleft     = dlist->vidmem_blocks->num_slices;
 1543                             		.loc 1 491 7 is_stmt 1 view .LVU618
 491:../src/smc_gen/r_drw2d_rx/src/tes/dave_dlist.c ****       dlist->vidmem_blocks->slicesleft     = dlist->vidmem_blocks->num_slices;
 1544                             		.loc 1 491 51 is_stmt 0 view .LVU619
 1545 0022 A9 1D                   		mov.L	20[r1], r5
 491:../src/smc_gen/r_drw2d_rx/src/tes/dave_dlist.c ****       dlist->vidmem_blocks->slicesleft     = dlist->vidmem_blocks->num_slices;
 1546                             		.loc 1 491 44 view .LVU620
 1547 0024 E5 55 01 07             		mov.L	4[r5], 28[r5]
 492:../src/smc_gen/r_drw2d_rx/src/tes/dave_dlist.c ****    }
 1548                             		.loc 1 492 7 is_stmt 1 view .LVU621
 492:../src/smc_gen/r_drw2d_rx/src/tes/dave_dlist.c ****    }
 1549                             		.loc 1 492 51 is_stmt 0 view .LVU622
 1550 0028 A9 1D                   		mov.L	20[r1], r5
 492:../src/smc_gen/r_drw2d_rx/src/tes/dave_dlist.c ****    }
 1551                             		.loc 1 492 44 view .LVU623
 1552 002a E5 55 05 06             		mov.L	20[r5], 24[r5]
 1553                             	.L101:
 495:../src/smc_gen/r_drw2d_rx/src/tes/dave_dlist.c ****    dlist->blocksize = dlist->firstblock->quantity;
 1554                             		.loc 1 495 4 is_stmt 1 view .LVU624
 495:../src/smc_gen/r_drw2d_rx/src/tes/dave_dlist.c ****    dlist->blocksize = dlist->firstblock->quantity;
 1555                             		.loc 1 495 28 is_stmt 0 view .LVU625
 1556 002e A8 1D                   		mov.L	4[r1], r5
 495:../src/smc_gen/r_drw2d_rx/src/tes/dave_dlist.c ****    dlist->blocksize = dlist->firstblock->quantity;
 1557                             		.loc 1 495 21 view .LVU626
 1558 0030 E5 51 01 04             		mov.L	4[r5], 16[r1]
 496:../src/smc_gen/r_drw2d_rx/src/tes/dave_dlist.c ****    dlist->tagindex  = 0;
 1559                             		.loc 1 496 4 is_stmt 1 view .LVU627
 496:../src/smc_gen/r_drw2d_rx/src/tes/dave_dlist.c ****    dlist->tagindex  = 0;
 1560                             		.loc 1 496 21 is_stmt 0 view .LVU628
 1561 0034 E5 51 02 07             		mov.L	8[r5], 28[r1]
 497:../src/smc_gen/r_drw2d_rx/src/tes/dave_dlist.c ****    dlist->count     = 0;
 1562                             		.loc 1 497 4 is_stmt 1 view .LVU629
 497:../src/smc_gen/r_drw2d_rx/src/tes/dave_dlist.c ****    dlist->count     = 0;
 1563                             		.loc 1 497 21 is_stmt 0 view .LVU630
 1564 0038 3E 16 00                		mov.L	#0, 24[r1]
 498:../src/smc_gen/r_drw2d_rx/src/tes/dave_dlist.c **** 
 1565                             		.loc 1 498 4 is_stmt 1 view .LVU631
 498:../src/smc_gen/r_drw2d_rx/src/tes/dave_dlist.c **** 
 1566                             		.loc 1 498 21 is_stmt 0 view .LVU632
 1567 003b 3E 1B 00                		mov.L	#0, 44[r1]
 500:../src/smc_gen/r_drw2d_rx/src/tes/dave_dlist.c **** 
 1568                             		.loc 1 500 1 view .LVU633
 1569 003e 02                      		rts
 1570                             	.L102:
 477:../src/smc_gen/r_drw2d_rx/src/tes/dave_dlist.c ****       {
 1571                             		.loc 1 477 19 view .LVU634
 1572 003f 66 05                   		mov.L	#0, r5
 1573                             	.L98:
 1574                             	.LVL178:
 477:../src/smc_gen/r_drw2d_rx/src/tes/dave_dlist.c ****       {
 1575                             		.loc 1 477 7 discriminator 1 view .LVU635
 1576 0041 75 55 3A                		cmp	#58, r5
 1577 0044 2A C6                   		bgt	.L99
 479:../src/smc_gen/r_drw2d_rx/src/tes/dave_dlist.c ****       }
 1578                             		.loc 1 479 10 is_stmt 1 discriminator 3 view .LVU636
 479:../src/smc_gen/r_drw2d_rx/src/tes/dave_dlist.c ****       }
 1579                             		.loc 1 479 36 is_stmt 0 discriminator 3 view .LVU637
 1580 0046 FF 24 53                		add	r5, r3, r4
 1581 0049 FA 44 78 01 00          		mov.B	#0, 376[r4]
 477:../src/smc_gen/r_drw2d_rx/src/tes/dave_dlist.c ****       {
 1582                             		.loc 1 477 52 discriminator 3 view .LVU638
 1583 004e 62 15                   		add	#1, r5
 1584                             	.LVL179:
 477:../src/smc_gen/r_drw2d_rx/src/tes/dave_dlist.c ****       {
 1585                             		.loc 1 477 52 discriminator 3 view .LVU639
 1586 0050 2E F1                   		bra	.L98
 1587                             	.LFE13:
 1589                             		.section	.text.d2_executedlist_intern,"ax",@progbits
 1590                             		.global	_d2_executedlist_intern
 1592                             	_d2_executedlist_intern:
 1593                             	.LVL180:
 1594                             	.LFB15:
 613:../src/smc_gen/r_drw2d_rx/src/tes/dave_dlist.c ****    d2_u32 adrmask;
 1595                             		.loc 1 613 1 is_stmt 1 view -0
 613:../src/smc_gen/r_drw2d_rx/src/tes/dave_dlist.c ****    d2_u32 adrmask;
 1596                             		.loc 1 613 1 is_stmt 0 view .LVU641
 1597 0000 6E 6C                   		pushm	r6-r12
 1598                             	.LCFI7:
 1599 0002 EF 2A                   		mov.L	r2, r10
 614:../src/smc_gen/r_drw2d_rx/src/tes/dave_dlist.c ****    d2_u32 argument = 0;
 1600                             		.loc 1 614 4 is_stmt 1 view .LVU642
 615:../src/smc_gen/r_drw2d_rx/src/tes/dave_dlist.c ****    d1_device *id = D2_DEV(handle)->hwid;
 1601                             		.loc 1 615 4 view .LVU643
 1602                             	.LVL181:
 616:../src/smc_gen/r_drw2d_rx/src/tes/dave_dlist.c ****    d2_u32 a1,a2,a3,a4;
 1603                             		.loc 1 616 4 view .LVU644
 616:../src/smc_gen/r_drw2d_rx/src/tes/dave_dlist.c ****    d2_u32 a1,a2,a3,a4;
 1604                             		.loc 1 616 15 is_stmt 0 view .LVU645
 1605 0004 A9 96                   		mov.L	24[r1], r6
 1606                             	.LVL182:
 615:../src/smc_gen/r_drw2d_rx/src/tes/dave_dlist.c ****    d1_device *id = D2_DEV(handle)->hwid;
 1607                             		.loc 1 615 11 view .LVU646
 1608 0006 66 08                   		mov.L	#0, r8
 1609 0008 38 62 01                		bra	.L104
 1610                             	.LVL183:
 1611                             	.L139:
 1612                             	.LBB58:
 630:../src/smc_gen/r_drw2d_rx/src/tes/dave_dlist.c ****          }
 1613                             		.loc 1 630 13 is_stmt 1 view .LVU647
 630:../src/smc_gen/r_drw2d_rx/src/tes/dave_dlist.c ****          }
 1614                             		.loc 1 630 19 is_stmt 0 view .LVU648
 1615 000b 62 4A                   		add	#4, r10
 1616                             	.LVL184:
 630:../src/smc_gen/r_drw2d_rx/src/tes/dave_dlist.c ****          }
 1617                             		.loc 1 630 19 view .LVU649
 1618 000d 38 5D 01                		bra	.L104
 1619                             	.LVL185:
 1620                             	.L140:
 648:../src/smc_gen/r_drw2d_rx/src/tes/dave_dlist.c ****                }
 1621                             		.loc 1 648 19 is_stmt 1 view .LVU650
 1622 0010 EF 61                   		mov.L	r6, r1
 1623 0012 05 00 00 00             		bsr	_d2hw_wait
 1624                             	.LVL186:
 1625 0016 38 8B 01                		bra	.L110
 1626                             	.LVL187:
 1627                             	.L108:
 654:../src/smc_gen/r_drw2d_rx/src/tes/dave_dlist.c ****          {
 1628                             		.loc 1 654 15 view .LVU651
 654:../src/smc_gen/r_drw2d_rx/src/tes/dave_dlist.c ****          {
 1629                             		.loc 1 654 18 is_stmt 0 view .LVU652
 1630 0019 FD 70 C7 00 00 80 00    		tst	#0x800000, r7
 1631 0020 20 66                   		beq	.L111
 657:../src/smc_gen/r_drw2d_rx/src/tes/dave_dlist.c ****             {
 1632                             		.loc 1 657 13 is_stmt 1 view .LVU653
 657:../src/smc_gen/r_drw2d_rx/src/tes/dave_dlist.c ****             {
 1633                             		.loc 1 657 35 is_stmt 0 view .LVU654
 1634 0022 75 4B FF                		mov.L	#0xff, r11
 1635 0025 53 7B                   		and	r7, r11
 657:../src/smc_gen/r_drw2d_rx/src/tes/dave_dlist.c ****             {
 1636                             		.loc 1 657 15 view .LVU655
 1637 0027 75 5B FF                		cmp	#0xff, r11
 1638 002a 20 34                   		beq	.L127
 621:../src/smc_gen/r_drw2d_rx/src/tes/dave_dlist.c **** 
 1639                             		.loc 1 621 14 view .LVU656
 1640 002c 66 05                   		mov.L	#0, r5
 1641                             	.LVL188:
 1642                             	.L112:
 679:../src/smc_gen/r_drw2d_rx/src/tes/dave_dlist.c ****             {
 1643                             		.loc 1 679 13 is_stmt 1 view .LVU657
 679:../src/smc_gen/r_drw2d_rx/src/tes/dave_dlist.c ****             {
 1644                             		.loc 1 679 15 is_stmt 0 view .LVU658
 1645 002e 61 05                   		cmp	#0, r5
 1646 0030 3B 3A 01                		bne	.L104
 681:../src/smc_gen/r_drw2d_rx/src/tes/dave_dlist.c ****                a2 = (adrmask >> 8) & 0xffu;
 1647                             		.loc 1 681 16 is_stmt 1 view .LVU659
 1648                             	.LVL189:
 682:../src/smc_gen/r_drw2d_rx/src/tes/dave_dlist.c **** 
 1649                             		.loc 1 682 16 view .LVU660
 682:../src/smc_gen/r_drw2d_rx/src/tes/dave_dlist.c **** 
 1650                             		.loc 1 682 30 is_stmt 0 view .LVU661
 1651 0033 68 87                   		shlr	#8, r7
 1652                             	.LVL190:
 682:../src/smc_gen/r_drw2d_rx/src/tes/dave_dlist.c **** 
 1653                             		.loc 1 682 19 view .LVU662
 1654 0035 76 27 FF 00             		and #0xff, r7
 1655                             	.LVL191:
 684:../src/smc_gen/r_drw2d_rx/src/tes/dave_dlist.c **** 
 1656                             		.loc 1 684 16 is_stmt 1 view .LVU663
 1657 0039 ED A3 01                		mov.L	4[r10], r3
 1658 003c EF B2                   		mov.L	r11, r2
 1659 003e EF 61                   		mov.L	r6, r1
 1660 0040 05 00 00 00             		bsr	_d2hw_set
 1661                             	.LVL192:
 687:../src/smc_gen/r_drw2d_rx/src/tes/dave_dlist.c ****                {
 1662                             		.loc 1 687 16 view .LVU664
 687:../src/smc_gen/r_drw2d_rx/src/tes/dave_dlist.c ****                {
 1663                             		.loc 1 687 18 is_stmt 0 view .LVU665
 1664 0044 75 5B 20                		cmp	#32, r11
 1665 0047 20 2F                   		beq	.L128
 1666                             	.L113:
 693:../src/smc_gen/r_drw2d_rx/src/tes/dave_dlist.c **** 
 1667                             		.loc 1 693 16 is_stmt 1 view .LVU666
 1668 0049 ED A3 02                		mov.L	8[r10], r3
 1669 004c EF 72                   		mov.L	r7, r2
 1670 004e EF 61                   		mov.L	r6, r1
 1671 0050 05 00 00 00             		bsr	_d2hw_set
 1672                             	.LVL193:
 696:../src/smc_gen/r_drw2d_rx/src/tes/dave_dlist.c ****                {
 1673                             		.loc 1 696 16 view .LVU667
 696:../src/smc_gen/r_drw2d_rx/src/tes/dave_dlist.c ****                {
 1674                             		.loc 1 696 18 is_stmt 0 view .LVU668
 1675 0054 75 57 20                		cmp	#32, r7
 1676 0057 20 27                   		beq	.L129
 1677                             	.L114:
 702:../src/smc_gen/r_drw2d_rx/src/tes/dave_dlist.c ****             }
 1678                             		.loc 1 702 16 is_stmt 1 view .LVU669
 702:../src/smc_gen/r_drw2d_rx/src/tes/dave_dlist.c ****             }
 1679                             		.loc 1 702 22 is_stmt 0 view .LVU670
 1680 0059 62 CA                   		add	#12, r10
 1681                             	.LVL194:
 702:../src/smc_gen/r_drw2d_rx/src/tes/dave_dlist.c ****             }
 1682                             		.loc 1 702 22 view .LVU671
 1683 005b 38 0F 01                		bra	.L104
 1684                             	.LVL195:
 1685                             	.L127:
 660:../src/smc_gen/r_drw2d_rx/src/tes/dave_dlist.c ****                if(2 == argument)
 1686                             		.loc 1 660 16 is_stmt 1 view .LVU672
 660:../src/smc_gen/r_drw2d_rx/src/tes/dave_dlist.c ****                if(2 == argument)
 1687                             		.loc 1 660 36 is_stmt 0 view .LVU673
 1688 005e FD 88 78                		shlr	#8, r7, r8
 1689                             	.LVL196:
 660:../src/smc_gen/r_drw2d_rx/src/tes/dave_dlist.c ****                if(2 == argument)
 1690                             		.loc 1 660 25 view .LVU674
 1691 0061 76 28 FF 00             		and #0xff, r8
 1692                             	.LVL197:
 661:../src/smc_gen/r_drw2d_rx/src/tes/dave_dlist.c ****                {
 1693                             		.loc 1 661 16 is_stmt 1 view .LVU675
 661:../src/smc_gen/r_drw2d_rx/src/tes/dave_dlist.c ****                {
 1694                             		.loc 1 661 18 is_stmt 0 view .LVU676
 1695 0065 61 28                   		cmp	#2, r8
 1696 0067 3B 5E 01                		bne	.L103
 664:../src/smc_gen/r_drw2d_rx/src/tes/dave_dlist.c **** 
 1697                             		.loc 1 664 19 is_stmt 1 view .LVU677
 664:../src/smc_gen/r_drw2d_rx/src/tes/dave_dlist.c **** 
 1698                             		.loc 1 664 25 is_stmt 0 view .LVU678
 1699 006a 62 4A                   		add	#4, r10
 1700                             	.LVL198:
 667:../src/smc_gen/r_drw2d_rx/src/tes/dave_dlist.c **** #endif /* D2_EXECUTE_DLIST_NEEDWAIT */
 1701                             		.loc 1 667 19 is_stmt 1 view .LVU679
 1702 006c EF 61                   		mov.L	r6, r1
 1703 006e 05 00 00 00             		bsr	_d2hw_wait
 1704                             	.LVL199:
 670:../src/smc_gen/r_drw2d_rx/src/tes/dave_dlist.c ****                } 
 1705                             		.loc 1 670 19 view .LVU680
 670:../src/smc_gen/r_drw2d_rx/src/tes/dave_dlist.c ****                } 
 1706                             		.loc 1 670 24 is_stmt 0 view .LVU681
 1707 0072 66 15                   		mov.L	#1, r5
 1708 0074 2E BA                   		bra	.L112
 1709                             	.LVL200:
 1710                             	.L128:
 689:../src/smc_gen/r_drw2d_rx/src/tes/dave_dlist.c ****                }
 1711                             		.loc 1 689 19 is_stmt 1 view .LVU682
 1712 0076 EF 61                   		mov.L	r6, r1
 1713 0078 05 00 00 00             		bsr	_d2hw_wait
 1714                             	.LVL201:
 1715 007c 2E CD                   		bra	.L113
 1716                             	.L129:
 698:../src/smc_gen/r_drw2d_rx/src/tes/dave_dlist.c ****                }
 1717                             		.loc 1 698 19 view .LVU683
 1718 007e EF 61                   		mov.L	r6, r1
 1719 0080 05 00 00 00             		bsr	_d2hw_wait
 1720                             	.LVL202:
 1721 0084 2E D5                   		bra	.L114
 1722                             	.LVL203:
 1723                             	.L111:
 705:../src/smc_gen/r_drw2d_rx/src/tes/dave_dlist.c ****          {
 1724                             		.loc 1 705 15 view .LVU684
 705:../src/smc_gen/r_drw2d_rx/src/tes/dave_dlist.c ****          {
 1725                             		.loc 1 705 18 is_stmt 0 view .LVU685
 1726 0086 61 07                   		cmp	#0, r7
 1727 0088 29 11                   		blt	.L130
 744:../src/smc_gen/r_drw2d_rx/src/tes/dave_dlist.c ****             {
 1728                             		.loc 1 744 13 is_stmt 1 view .LVU686
 744:../src/smc_gen/r_drw2d_rx/src/tes/dave_dlist.c ****             {
 1729                             		.loc 1 744 25 is_stmt 0 view .LVU687
 1730 008a 75 45 FF                		mov.L	#0xff, r5
 1731 008d 53 75                   		and	r7, r5
 744:../src/smc_gen/r_drw2d_rx/src/tes/dave_dlist.c ****             {
 1732                             		.loc 1 744 15 view .LVU688
 1733 008f 75 55 FF                		cmp	#0xff, r5
 1734 0092 20 67                   		beq	.L131
 766:../src/smc_gen/r_drw2d_rx/src/tes/dave_dlist.c ****             }
 1735                             		.loc 1 766 16 is_stmt 1 view .LVU689
 766:../src/smc_gen/r_drw2d_rx/src/tes/dave_dlist.c ****             }
 1736                             		.loc 1 766 22 is_stmt 0 view .LVU690
 1737 0094 62 4A                   		add	#4, r10
 1738                             	.LVL204:
 766:../src/smc_gen/r_drw2d_rx/src/tes/dave_dlist.c ****             }
 1739                             		.loc 1 766 22 view .LVU691
 1740 0096 38 D4 00                		bra	.L104
 1741                             	.L130:
 708:../src/smc_gen/r_drw2d_rx/src/tes/dave_dlist.c ****             a2 = (adrmask >> 8) & 0xffu;
 1742                             		.loc 1 708 13 is_stmt 1 view .LVU692
 708:../src/smc_gen/r_drw2d_rx/src/tes/dave_dlist.c ****             a2 = (adrmask >> 8) & 0xffu;
 1743                             		.loc 1 708 16 is_stmt 0 view .LVU693
 1744 0099 75 4C FF                		mov.L	#0xff, r12
 1745 009c 53 7C                   		and	r7, r12
 1746                             	.LVL205:
 709:../src/smc_gen/r_drw2d_rx/src/tes/dave_dlist.c ****             a3 = (adrmask >> 16) & 0xffu;
 1747                             		.loc 1 709 13 is_stmt 1 view .LVU694
 709:../src/smc_gen/r_drw2d_rx/src/tes/dave_dlist.c ****             a3 = (adrmask >> 16) & 0xffu;
 1748                             		.loc 1 709 27 is_stmt 0 view .LVU695
 1749 009e FD 88 7B                		shlr	#8, r7, r11
 709:../src/smc_gen/r_drw2d_rx/src/tes/dave_dlist.c ****             a3 = (adrmask >> 16) & 0xffu;
 1750                             		.loc 1 709 16 view .LVU696
 1751 00a1 76 2B FF 00             		and #0xff, r11
 1752                             	.LVL206:
 710:../src/smc_gen/r_drw2d_rx/src/tes/dave_dlist.c **** 
 1753                             		.loc 1 710 13 is_stmt 1 view .LVU697
 710:../src/smc_gen/r_drw2d_rx/src/tes/dave_dlist.c **** 
 1754                             		.loc 1 710 27 is_stmt 0 view .LVU698
 1755 00a5 69 07                   		shlr	#16, r7
 1756                             	.LVL207:
 710:../src/smc_gen/r_drw2d_rx/src/tes/dave_dlist.c **** 
 1757                             		.loc 1 710 16 view .LVU699
 1758 00a7 76 27 FF 00             		and #0xff, r7
 1759                             	.LVL208:
 712:../src/smc_gen/r_drw2d_rx/src/tes/dave_dlist.c **** 
 1760                             		.loc 1 712 13 is_stmt 1 view .LVU700
 1761 00ab ED A3 01                		mov.L	4[r10], r3
 1762 00ae EF C2                   		mov.L	r12, r2
 1763 00b0 EF 61                   		mov.L	r6, r1
 1764 00b2 05 00 00 00             		bsr	_d2hw_set
 1765                             	.LVL209:
 715:../src/smc_gen/r_drw2d_rx/src/tes/dave_dlist.c ****             {
 1766                             		.loc 1 715 13 view .LVU701
 715:../src/smc_gen/r_drw2d_rx/src/tes/dave_dlist.c ****             {
 1767                             		.loc 1 715 15 is_stmt 0 view .LVU702
 1768 00b6 75 5C 20                		cmp	#32, r12
 1769 00b9 20 28                   		beq	.L132
 1770                             	.L116:
 721:../src/smc_gen/r_drw2d_rx/src/tes/dave_dlist.c **** 
 1771                             		.loc 1 721 13 is_stmt 1 view .LVU703
 1772 00bb ED A3 02                		mov.L	8[r10], r3
 1773 00be EF B2                   		mov.L	r11, r2
 1774 00c0 EF 61                   		mov.L	r6, r1
 1775 00c2 05 00 00 00             		bsr	_d2hw_set
 1776                             	.LVL210:
 724:../src/smc_gen/r_drw2d_rx/src/tes/dave_dlist.c ****             {
 1777                             		.loc 1 724 13 view .LVU704
 724:../src/smc_gen/r_drw2d_rx/src/tes/dave_dlist.c ****             {
 1778                             		.loc 1 724 15 is_stmt 0 view .LVU705
 1779 00c6 75 5B 20                		cmp	#32, r11
 1780 00c9 20 20                   		beq	.L133
 1781                             	.L117:
 730:../src/smc_gen/r_drw2d_rx/src/tes/dave_dlist.c **** 
 1782                             		.loc 1 730 13 is_stmt 1 view .LVU706
 1783 00cb ED A3 03                		mov.L	12[r10], r3
 1784 00ce EF 72                   		mov.L	r7, r2
 1785 00d0 EF 61                   		mov.L	r6, r1
 1786 00d2 05 00 00 00             		bsr	_d2hw_set
 1787                             	.LVL211:
 733:../src/smc_gen/r_drw2d_rx/src/tes/dave_dlist.c ****             {
 1788                             		.loc 1 733 13 view .LVU707
 733:../src/smc_gen/r_drw2d_rx/src/tes/dave_dlist.c ****             {
 1789                             		.loc 1 733 15 is_stmt 0 view .LVU708
 1790 00d6 75 57 20                		cmp	#32, r7
 1791 00d9 20 18                   		beq	.L134
 1792                             	.L118:
 739:../src/smc_gen/r_drw2d_rx/src/tes/dave_dlist.c ****          }
 1793                             		.loc 1 739 13 is_stmt 1 view .LVU709
 739:../src/smc_gen/r_drw2d_rx/src/tes/dave_dlist.c ****          }
 1794                             		.loc 1 739 19 is_stmt 0 view .LVU710
 1795 00db 71 AA 10                		add	#16, r10
 1796                             	.LVL212:
 739:../src/smc_gen/r_drw2d_rx/src/tes/dave_dlist.c ****          }
 1797                             		.loc 1 739 19 view .LVU711
 1798 00de 38 8C 00                		bra	.L104
 1799                             	.L132:
 717:../src/smc_gen/r_drw2d_rx/src/tes/dave_dlist.c ****             }
 1800                             		.loc 1 717 16 is_stmt 1 view .LVU712
 1801 00e1 EF 61                   		mov.L	r6, r1
 1802 00e3 05 00 00 00             		bsr	_d2hw_wait
 1803                             	.LVL213:
 1804 00e7 2E D4                   		bra	.L116
 1805                             	.L133:
 726:../src/smc_gen/r_drw2d_rx/src/tes/dave_dlist.c ****             }
 1806                             		.loc 1 726 16 view .LVU713
 1807 00e9 EF 61                   		mov.L	r6, r1
 1808 00eb 05 00 00 00             		bsr	_d2hw_wait
 1809                             	.LVL214:
 1810 00ef 2E DC                   		bra	.L117
 1811                             	.L134:
 735:../src/smc_gen/r_drw2d_rx/src/tes/dave_dlist.c ****             }
 1812                             		.loc 1 735 16 view .LVU714
 1813 00f1 EF 61                   		mov.L	r6, r1
 1814 00f3 05 00 00 00             		bsr	_d2hw_wait
 1815                             	.LVL215:
 1816 00f7 2E E4                   		bra	.L118
 1817                             	.LVL216:
 1818                             	.L131:
 747:../src/smc_gen/r_drw2d_rx/src/tes/dave_dlist.c ****                if ((2 == argument) || (4 == argument))
 1819                             		.loc 1 747 16 view .LVU715
 747:../src/smc_gen/r_drw2d_rx/src/tes/dave_dlist.c ****                if ((2 == argument) || (4 == argument))
 1820                             		.loc 1 747 36 is_stmt 0 view .LVU716
 1821 00f9 68 87                   		shlr	#8, r7
 1822                             	.LVL217:
 747:../src/smc_gen/r_drw2d_rx/src/tes/dave_dlist.c ****                if ((2 == argument) || (4 == argument))
 1823                             		.loc 1 747 25 view .LVU717
 1824 00fb 75 48 FF                		mov.L	#0xff, r8
 1825                             	.LVL218:
 747:../src/smc_gen/r_drw2d_rx/src/tes/dave_dlist.c ****                if ((2 == argument) || (4 == argument))
 1826                             		.loc 1 747 25 view .LVU718
 1827 00fe 53 78                   		and	r7, r8
 1828                             	.LVL219:
 748:../src/smc_gen/r_drw2d_rx/src/tes/dave_dlist.c ****                {
 1829                             		.loc 1 748 16 is_stmt 1 view .LVU719
 748:../src/smc_gen/r_drw2d_rx/src/tes/dave_dlist.c ****                {
 1830                             		.loc 1 748 19 is_stmt 0 view .LVU720
 1831 0100 61 28                   		cmp	#2, r8
 1832 0102 16                      		beq	.L120
 748:../src/smc_gen/r_drw2d_rx/src/tes/dave_dlist.c ****                {
 1833                             		.loc 1 748 36 discriminator 1 view .LVU721
 1834 0103 61 48                   		cmp	#4, r8
 1835 0105 3B C0 00                		bne	.L103
 1836                             	.L120:
 751:../src/smc_gen/r_drw2d_rx/src/tes/dave_dlist.c **** 
 1837                             		.loc 1 751 19 is_stmt 1 view .LVU722
 751:../src/smc_gen/r_drw2d_rx/src/tes/dave_dlist.c **** 
 1838                             		.loc 1 751 25 is_stmt 0 view .LVU723
 1839 0108 62 4A                   		add	#4, r10
 1840                             	.LVL220:
 754:../src/smc_gen/r_drw2d_rx/src/tes/dave_dlist.c **** #endif /* D2_EXECUTE_DLIST_NEEDWAIT */
 1841                             		.loc 1 754 19 is_stmt 1 view .LVU724
 1842 010a EF 61                   		mov.L	r6, r1
 1843 010c 05 00 00 00             		bsr	_d2hw_wait
 1844                             	.LVL221:
 754:../src/smc_gen/r_drw2d_rx/src/tes/dave_dlist.c **** #endif /* D2_EXECUTE_DLIST_NEEDWAIT */
 1845                             		.loc 1 754 19 is_stmt 0 view .LVU725
 1846 0110 2E 5A                   		bra	.L104
 1847                             	.LVL222:
 1848                             	.L105:
 773:../src/smc_gen/r_drw2d_rx/src/tes/dave_dlist.c ****          a2 = (adrmask >> 8) & 0xffu;
 1849                             		.loc 1 773 10 is_stmt 1 view .LVU726
 773:../src/smc_gen/r_drw2d_rx/src/tes/dave_dlist.c ****          a2 = (adrmask >> 8) & 0xffu;
 1850                             		.loc 1 773 13 is_stmt 0 view .LVU727
 1851 0112 75 49 FF                		mov.L	#0xff, r9
 1852 0115 53 79                   		and	r7, r9
 1853                             	.LVL223:
 774:../src/smc_gen/r_drw2d_rx/src/tes/dave_dlist.c ****          a3 = (adrmask >> 16) & 0xffu;
 1854                             		.loc 1 774 10 is_stmt 1 view .LVU728
 774:../src/smc_gen/r_drw2d_rx/src/tes/dave_dlist.c ****          a3 = (adrmask >> 16) & 0xffu;
 1855                             		.loc 1 774 24 is_stmt 0 view .LVU729
 1856 0117 FD 88 7C                		shlr	#8, r7, r12
 774:../src/smc_gen/r_drw2d_rx/src/tes/dave_dlist.c ****          a3 = (adrmask >> 16) & 0xffu;
 1857                             		.loc 1 774 13 view .LVU730
 1858 011a 76 2C FF 00             		and #0xff, r12
 1859                             	.LVL224:
 775:../src/smc_gen/r_drw2d_rx/src/tes/dave_dlist.c ****          a4 = adrmask >> 24;
 1860                             		.loc 1 775 10 is_stmt 1 view .LVU731
 775:../src/smc_gen/r_drw2d_rx/src/tes/dave_dlist.c ****          a4 = adrmask >> 24;
 1861                             		.loc 1 775 24 is_stmt 0 view .LVU732
 1862 011e FD 90 7B                		shlr	#16, r7, r11
 775:../src/smc_gen/r_drw2d_rx/src/tes/dave_dlist.c ****          a4 = adrmask >> 24;
 1863                             		.loc 1 775 13 view .LVU733
 1864 0121 76 2B FF 00             		and #0xff, r11
 1865                             	.LVL225:
 776:../src/smc_gen/r_drw2d_rx/src/tes/dave_dlist.c **** 
 1866                             		.loc 1 776 10 is_stmt 1 view .LVU734
 776:../src/smc_gen/r_drw2d_rx/src/tes/dave_dlist.c **** 
 1867                             		.loc 1 776 13 is_stmt 0 view .LVU735
 1868 0125 69 87                   		shlr	#24, r7
 1869                             	.LVL226:
 778:../src/smc_gen/r_drw2d_rx/src/tes/dave_dlist.c **** 
 1870                             		.loc 1 778 10 is_stmt 1 view .LVU736
 1871 0127 ED A3 01                		mov.L	4[r10], r3
 1872 012a EF 92                   		mov.L	r9, r2
 1873 012c EF 61                   		mov.L	r6, r1
 1874 012e 05 00 00 00             		bsr	_d2hw_set
 1875                             	.LVL227:
 781:../src/smc_gen/r_drw2d_rx/src/tes/dave_dlist.c ****          {
 1876                             		.loc 1 781 10 view .LVU737
 781:../src/smc_gen/r_drw2d_rx/src/tes/dave_dlist.c ****          {
 1877                             		.loc 1 781 12 is_stmt 0 view .LVU738
 1878 0132 75 59 20                		cmp	#32, r9
 1879 0135 20 70                   		beq	.L135
 1880                             	.L121:
 787:../src/smc_gen/r_drw2d_rx/src/tes/dave_dlist.c **** 
 1881                             		.loc 1 787 10 is_stmt 1 view .LVU739
 1882 0137 ED A3 02                		mov.L	8[r10], r3
 1883 013a EF C2                   		mov.L	r12, r2
 1884 013c EF 61                   		mov.L	r6, r1
 1885 013e 05 00 00 00             		bsr	_d2hw_set
 1886                             	.LVL228:
 790:../src/smc_gen/r_drw2d_rx/src/tes/dave_dlist.c ****          {
 1887                             		.loc 1 790 10 view .LVU740
 790:../src/smc_gen/r_drw2d_rx/src/tes/dave_dlist.c ****          {
 1888                             		.loc 1 790 12 is_stmt 0 view .LVU741
 1889 0142 75 5C 20                		cmp	#32, r12
 1890 0145 20 68                   		beq	.L136
 1891                             	.L122:
 796:../src/smc_gen/r_drw2d_rx/src/tes/dave_dlist.c **** 
 1892                             		.loc 1 796 10 is_stmt 1 view .LVU742
 1893 0147 ED A3 03                		mov.L	12[r10], r3
 1894 014a EF B2                   		mov.L	r11, r2
 1895 014c EF 61                   		mov.L	r6, r1
 1896 014e 05 00 00 00             		bsr	_d2hw_set
 1897                             	.LVL229:
 799:../src/smc_gen/r_drw2d_rx/src/tes/dave_dlist.c ****          {
 1898                             		.loc 1 799 10 view .LVU743
 799:../src/smc_gen/r_drw2d_rx/src/tes/dave_dlist.c ****          {
 1899                             		.loc 1 799 12 is_stmt 0 view .LVU744
 1900 0152 75 5B 20                		cmp	#32, r11
 1901 0155 20 60                   		beq	.L137
 1902                             	.L123:
 805:../src/smc_gen/r_drw2d_rx/src/tes/dave_dlist.c **** 
 1903                             		.loc 1 805 10 is_stmt 1 view .LVU745
 1904 0157 ED A3 04                		mov.L	16[r10], r3
 1905 015a EF 72                   		mov.L	r7, r2
 1906 015c EF 61                   		mov.L	r6, r1
 1907 015e 05 00 00 00             		bsr	_d2hw_set
 1908                             	.LVL230:
 808:../src/smc_gen/r_drw2d_rx/src/tes/dave_dlist.c ****          {
 1909                             		.loc 1 808 10 view .LVU746
 808:../src/smc_gen/r_drw2d_rx/src/tes/dave_dlist.c ****          {
 1910                             		.loc 1 808 12 is_stmt 0 view .LVU747
 1911 0162 75 57 20                		cmp	#32, r7
 1912 0165 20 58                   		beq	.L138
 1913                             	.L124:
 815:../src/smc_gen/r_drw2d_rx/src/tes/dave_dlist.c ****       }
 1914                             		.loc 1 815 10 is_stmt 1 view .LVU748
 815:../src/smc_gen/r_drw2d_rx/src/tes/dave_dlist.c ****       }
 1915                             		.loc 1 815 15 is_stmt 0 view .LVU749
 1916 0167 71 AA 14                		add	#20, r10
 1917                             	.LVL231:
 1918                             		.balign 8,3,1
 1919                             	.L104:
 815:../src/smc_gen/r_drw2d_rx/src/tes/dave_dlist.c ****       }
 1920                             		.loc 1 815 15 view .LVU750
 1921                             	.LBE58:
 617:../src/smc_gen/r_drw2d_rx/src/tes/dave_dlist.c **** 
 1922                             		.loc 1 617 4 is_stmt 1 view .LVU751
 619:../src/smc_gen/r_drw2d_rx/src/tes/dave_dlist.c ****    {
 1923                             		.loc 1 619 4 view .LVU752
 1924                             	.LBB59:
 621:../src/smc_gen/r_drw2d_rx/src/tes/dave_dlist.c **** 
 1925                             		.loc 1 621 7 view .LVU753
 623:../src/smc_gen/r_drw2d_rx/src/tes/dave_dlist.c ****       if(0 != (adrmask & 0x80808080u))
 1926                             		.loc 1 623 7 view .LVU754
 623:../src/smc_gen/r_drw2d_rx/src/tes/dave_dlist.c ****       if(0 != (adrmask & 0x80808080u))
 1927                             		.loc 1 623 15 is_stmt 0 view .LVU755
 1928 016a EC A7                   		mov.L	[r10], r7
 1929                             	.LVL232:
 624:../src/smc_gen/r_drw2d_rx/src/tes/dave_dlist.c ****       {
 1930                             		.loc 1 624 7 is_stmt 1 view .LVU756
 624:../src/smc_gen/r_drw2d_rx/src/tes/dave_dlist.c ****       {
 1931                             		.loc 1 624 9 is_stmt 0 view .LVU757
 1932 016c FD 70 C7 80 80 80 80    		tst	#-2139062144, r7
 1933 0173 20 9F                   		beq	.L105
 627:../src/smc_gen/r_drw2d_rx/src/tes/dave_dlist.c ****          {
 1934                             		.loc 1 627 10 is_stmt 1 view .LVU758
 627:../src/smc_gen/r_drw2d_rx/src/tes/dave_dlist.c ****          {
 1935                             		.loc 1 627 12 is_stmt 0 view .LVU759
 1936 0175 74 07 80 80 80 80       		cmp	#-2139062144, r7
 1937 017b 3A 90 FE                		beq	.L139
 632:../src/smc_gen/r_drw2d_rx/src/tes/dave_dlist.c ****          {
 1938                             		.loc 1 632 15 is_stmt 1 view .LVU760
 632:../src/smc_gen/r_drw2d_rx/src/tes/dave_dlist.c ****          {
 1939                             		.loc 1 632 17 is_stmt 0 view .LVU761
 1940 017e FD 7C C7 00 80 00       		tst	#0x8000, r7
 1941 0184 3A 95 FE                		beq	.L108
 635:../src/smc_gen/r_drw2d_rx/src/tes/dave_dlist.c ****             {
 1942                             		.loc 1 635 13 is_stmt 1 view .LVU762
 635:../src/smc_gen/r_drw2d_rx/src/tes/dave_dlist.c ****             {
 1943                             		.loc 1 635 26 is_stmt 0 view .LVU763
 1944 0187 76 27 FF 00             		and #0xff, r7
 1945                             	.LVL233:
 635:../src/smc_gen/r_drw2d_rx/src/tes/dave_dlist.c ****             {
 1946                             		.loc 1 635 16 view .LVU764
 1947 018b 75 57 32                		cmp	#50, r7
 1948 018e 20 37                   		beq	.L103
 643:../src/smc_gen/r_drw2d_rx/src/tes/dave_dlist.c ****                d2hw_set(id, a1, block->value[0]);
 1949                             		.loc 1 643 16 is_stmt 1 view .LVU765
 1950                             	.LVL234:
 644:../src/smc_gen/r_drw2d_rx/src/tes/dave_dlist.c **** #ifdef D2_EXECUTE_DLIST_NEEDWAIT
 1951                             		.loc 1 644 16 view .LVU766
 1952 0190 ED A3 01                		mov.L	4[r10], r3
 1953 0193 EF 72                   		mov.L	r7, r2
 1954 0195 EF 61                   		mov.L	r6, r1
 1955 0197 05 00 00 00             		bsr	_d2hw_set
 1956                             	.LVL235:
 646:../src/smc_gen/r_drw2d_rx/src/tes/dave_dlist.c ****                {
 1957                             		.loc 1 646 16 view .LVU767
 646:../src/smc_gen/r_drw2d_rx/src/tes/dave_dlist.c ****                {
 1958                             		.loc 1 646 18 is_stmt 0 view .LVU768
 1959 019b 75 57 20                		cmp	#32, r7
 1960 019e 3A 72 FE                		beq	.L140
 1961                             	.L110:
 652:../src/smc_gen/r_drw2d_rx/src/tes/dave_dlist.c ****          }
 1962                             		.loc 1 652 13 is_stmt 1 view .LVU769
 652:../src/smc_gen/r_drw2d_rx/src/tes/dave_dlist.c ****          }
 1963                             		.loc 1 652 19 is_stmt 0 view .LVU770
 1964 01a1 62 8A                   		add	#8, r10
 1965                             	.LVL236:
 652:../src/smc_gen/r_drw2d_rx/src/tes/dave_dlist.c ****          }
 1966                             		.loc 1 652 19 view .LVU771
 1967 01a3 2E C7                   		bra	.L104
 1968                             	.LVL237:
 1969                             	.L135:
 783:../src/smc_gen/r_drw2d_rx/src/tes/dave_dlist.c ****          }
 1970                             		.loc 1 783 13 is_stmt 1 view .LVU772
 1971 01a5 EF 61                   		mov.L	r6, r1
 1972 01a7 05 00 00 00             		bsr	_d2hw_wait
 1973                             	.LVL238:
 1974 01ab 2E 8C                   		bra	.L121
 1975                             	.L136:
 792:../src/smc_gen/r_drw2d_rx/src/tes/dave_dlist.c ****          }
 1976                             		.loc 1 792 13 view .LVU773
 1977 01ad EF 61                   		mov.L	r6, r1
 1978 01af 05 00 00 00             		bsr	_d2hw_wait
 1979                             	.LVL239:
 1980 01b3 2E 94                   		bra	.L122
 1981                             	.L137:
 801:../src/smc_gen/r_drw2d_rx/src/tes/dave_dlist.c ****          }
 1982                             		.loc 1 801 13 view .LVU774
 1983 01b5 EF 61                   		mov.L	r6, r1
 1984 01b7 05 00 00 00             		bsr	_d2hw_wait
 1985                             	.LVL240:
 1986 01bb 2E 9C                   		bra	.L123
 1987                             	.L138:
 810:../src/smc_gen/r_drw2d_rx/src/tes/dave_dlist.c ****          }
 1988                             		.loc 1 810 13 view .LVU775
 1989 01bd EF 61                   		mov.L	r6, r1
 1990 01bf 05 00 00 00             		bsr	_d2hw_wait
 1991                             	.LVL241:
 1992 01c3 2E A4                   		bra	.L124
 1993                             	.LVL242:
 1994                             	.L103:
 810:../src/smc_gen/r_drw2d_rx/src/tes/dave_dlist.c ****          }
 1995                             		.loc 1 810 13 is_stmt 0 view .LVU776
 1996                             	.LBE59:
 820:../src/smc_gen/r_drw2d_rx/src/tes/dave_dlist.c **** 
 1997                             		.loc 1 820 1 view .LVU777
 1998 01c5 EF 81                   		mov.L	r8, r1
 1999 01c7 3F 6C 07                		rtsd	#28, r6-r12
 820:../src/smc_gen/r_drw2d_rx/src/tes/dave_dlist.c **** 
 2000                             		.loc 1 820 1 view .LVU778
 2001                             	.LFE15:
 2003 01ca 74 10 01 00 00 00       		.section	.text.d2_scratch2dlist_intern,"ax",@progbits
 2004                             		.global	_d2_scratch2dlist_intern
 2006                             	_d2_scratch2dlist_intern:
 2007                             	.LVL243:
 2008                             	.LFB18:
 853:../src/smc_gen/r_drw2d_rx/src/tes/dave_dlist.c ****    d2_devicedata *dev = D2_DEV(handle);
 2009                             		.loc 1 853 1 is_stmt 1 view -0
 853:../src/smc_gen/r_drw2d_rx/src/tes/dave_dlist.c ****    d2_devicedata *dev = D2_DEV(handle);
 2010                             		.loc 1 853 1 is_stmt 0 view .LVU780
 2011 0000 6E 6D                   		pushm	r6-r13
 2012                             	.LCFI8:
 2013 0002 60 40                   		sub	#4, r0
 2014                             	.LCFI9:
 2015 0004 EF 19                   		mov.L	r1, r9
 854:../src/smc_gen/r_drw2d_rx/src/tes/dave_dlist.c ****    d2_dlist *dlist    = &D2_DEV(handle)->selectedbuffer->baselist;
 2016                             		.loc 1 854 4 is_stmt 1 view .LVU781
 2017                             	.LVL244:
 855:../src/smc_gen/r_drw2d_rx/src/tes/dave_dlist.c ****    d2_dlist_scratch_entry *scratchEntry = dev->dlscratch_base;
 2018                             		.loc 1 855 4 view .LVU782
 855:../src/smc_gen/r_drw2d_rx/src/tes/dave_dlist.c ****    d2_dlist_scratch_entry *scratchEntry = dev->dlscratch_base;
 2019                             		.loc 1 855 40 is_stmt 0 view .LVU783
 2020 0006 A8 9F                   		mov.L	12[r1], r7
 855:../src/smc_gen/r_drw2d_rx/src/tes/dave_dlist.c ****    d2_dlist_scratch_entry *scratchEntry = dev->dlscratch_base;
 2021                             		.loc 1 855 14 view .LVU784
 2022 0008 E3 07                   		mov.L	r7, [r0]
 2023                             	.LVL245:
 856:../src/smc_gen/r_drw2d_rx/src/tes/dave_dlist.c ****    d2_dlist_entry *pos;
 2024                             		.loc 1 856 4 is_stmt 1 view .LVU785
 856:../src/smc_gen/r_drw2d_rx/src/tes/dave_dlist.c ****    d2_dlist_entry *pos;
 2025                             		.loc 1 856 28 is_stmt 0 view .LVU786
 2026 000a ED 1A 6D                		mov.L	436[r1], r10
 2027                             	.LVL246:
 857:../src/smc_gen/r_drw2d_rx/src/tes/dave_dlist.c ****    d2_u32 i, cnt = (d2_u32) (dev->dlscratch_pos - dev->dlscratch_base);
 2028                             		.loc 1 857 4 is_stmt 1 view .LVU787
 858:../src/smc_gen/r_drw2d_rx/src/tes/dave_dlist.c ****    d2_u32 tagIndex;
 2029                             		.loc 1 858 4 view .LVU788
 858:../src/smc_gen/r_drw2d_rx/src/tes/dave_dlist.c ****    d2_u32 tagIndex;
 2030                             		.loc 1 858 33 is_stmt 0 view .LVU789
 2031 000d ED 15 6E                		mov.L	440[r1], r5
 858:../src/smc_gen/r_drw2d_rx/src/tes/dave_dlist.c ****    d2_u32 tagIndex;
 2032                             		.loc 1 858 49 view .LVU790
 2033 0010 43 A5                   		sub	r10, r5
 2034 0012 6A 35                   		shar	#3, r5
 858:../src/smc_gen/r_drw2d_rx/src/tes/dave_dlist.c ****    d2_u32 tagIndex;
 2035                             		.loc 1 858 14 view .LVU791
 2036 0014 EF 5C                   		mov.L	r5, r12
 2037                             	.LVL247:
 859:../src/smc_gen/r_drw2d_rx/src/tes/dave_dlist.c **** 
 2038                             		.loc 1 859 4 is_stmt 1 view .LVU792
 863:../src/smc_gen/r_drw2d_rx/src/tes/dave_dlist.c ****    d2_s32  *cache_data  = cachedData->data;
 2039                             		.loc 1 863 4 view .LVU793
 863:../src/smc_gen/r_drw2d_rx/src/tes/dave_dlist.c ****    d2_s32  *cache_data  = cachedData->data;
 2040                             		.loc 1 863 58 is_stmt 0 view .LVU794
 2041 0016 EC 74                   		mov.L	[r7], r4
 2042                             	.LVL248:
 864:../src/smc_gen/r_drw2d_rx/src/tes/dave_dlist.c ****    d2_s8   *cache_valid = cachedData->valid;
 2043                             		.loc 1 864 4 is_stmt 1 view .LVU795
 864:../src/smc_gen/r_drw2d_rx/src/tes/dave_dlist.c ****    d2_s8   *cache_valid = cachedData->valid;
 2044                             		.loc 1 864 13 is_stmt 0 view .LVU796
 2045 0018 72 48 8C 00             		add	#0x8c, r4, r8
 2046                             	.LVL249:
 865:../src/smc_gen/r_drw2d_rx/src/tes/dave_dlist.c **** 
 2047                             		.loc 1 865 4 is_stmt 1 view .LVU797
 865:../src/smc_gen/r_drw2d_rx/src/tes/dave_dlist.c **** 
 2048                             		.loc 1 865 13 is_stmt 0 view .LVU798
 2049 001c 72 4D 78 01             		add	#0x178, r4, r13
 2050                             	.LVL250:
 867:../src/smc_gen/r_drw2d_rx/src/tes/dave_dlist.c ****    {
 2051                             		.loc 1 867 4 is_stmt 1 view .LVU799
 867:../src/smc_gen/r_drw2d_rx/src/tes/dave_dlist.c ****    {
 2052                             		.loc 1 867 27 is_stmt 0 view .LVU800
 2053 0020 ED 1B 1A                		mov.L	104[r1], r11
 867:../src/smc_gen/r_drw2d_rx/src/tes/dave_dlist.c ****    {
 2054                             		.loc 1 867 35 view .LVU801
 2055 0023 75 2B 20                		and	#32, r11
 867:../src/smc_gen/r_drw2d_rx/src/tes/dave_dlist.c ****    {
 2056                             		.loc 1 867 6 view .LVU802
 2057 0026 3B 87 00                		bne	.L142
 871:../src/smc_gen/r_drw2d_rx/src/tes/dave_dlist.c ****       pos = dlist->position;
 2058                             		.loc 1 871 7 is_stmt 1 view .LVU803
 871:../src/smc_gen/r_drw2d_rx/src/tes/dave_dlist.c ****       pos = dlist->position;
 2059                             		.loc 1 871 16 is_stmt 0 view .LVU804
 2060 0029 A9 F6                   		mov.L	24[r7], r6
 2061                             	.LVL251:
 872:../src/smc_gen/r_drw2d_rx/src/tes/dave_dlist.c **** 
 2062                             		.loc 1 872 7 is_stmt 1 view .LVU805
 872:../src/smc_gen/r_drw2d_rx/src/tes/dave_dlist.c **** 
 2063                             		.loc 1 872 11 is_stmt 0 view .LVU806
 2064 002b A9 73                   		mov.L	16[r7], r3
 2065                             	.LVL252:
 874:../src/smc_gen/r_drw2d_rx/src/tes/dave_dlist.c ****       {
 2066                             		.loc 1 874 7 is_stmt 1 view .LVU807
 874:../src/smc_gen/r_drw2d_rx/src/tes/dave_dlist.c ****       {
 2067                             		.loc 1 874 7 is_stmt 0 view .LVU808
 2068 002d 2E 35                   		bra	.L143
 2069                             	.LVL253:
 2070                             	.L145:
 2071                             	.LBB60:
 902:../src/smc_gen/r_drw2d_rx/src/tes/dave_dlist.c ****                   cache_data[regIdx]  = val;
 2072                             		.loc 1 902 19 is_stmt 1 view .LVU809
 902:../src/smc_gen/r_drw2d_rx/src/tes/dave_dlist.c ****                   cache_data[regIdx]  = val;
 2073                             		.loc 1 902 39 is_stmt 0 view .LVU810
 2074 002f F8 24 01                		mov.B	#1, [r2]
 903:../src/smc_gen/r_drw2d_rx/src/tes/dave_dlist.c ****                }
 2075                             		.loc 1 903 19 is_stmt 1 view .LVU811
 903:../src/smc_gen/r_drw2d_rx/src/tes/dave_dlist.c ****                }
 2076                             		.loc 1 903 29 is_stmt 0 view .LVU812
 2077 0032 FD C2 52                		shll	#2, r5, r2
 2078 0035 4B 82                   		add	r8, r2
 903:../src/smc_gen/r_drw2d_rx/src/tes/dave_dlist.c ****                }
 2079                             		.loc 1 903 39 view .LVU813
 2080 0037 E3 24                   		mov.L	r4, [r2]
 907:../src/smc_gen/r_drw2d_rx/src/tes/dave_dlist.c ****             {
 2081                             		.loc 1 907 13 is_stmt 1 view .LVU814
 2082                             	.L144:
 914:../src/smc_gen/r_drw2d_rx/src/tes/dave_dlist.c **** #endif
 2083                             		.loc 1 914 16 view .LVU815
 914:../src/smc_gen/r_drw2d_rx/src/tes/dave_dlist.c **** #endif
 2084                             		.loc 1 914 45 is_stmt 0 view .LVU816
 2085 0039 FE 06 35                		mov.B	r5, [r6,r3]
 916:../src/smc_gen/r_drw2d_rx/src/tes/dave_dlist.c **** 
 2086                             		.loc 1 916 16 is_stmt 1 view .LVU817
 916:../src/smc_gen/r_drw2d_rx/src/tes/dave_dlist.c **** 
 2087                             		.loc 1 916 37 is_stmt 0 view .LVU818
 2088 003c 62 16                   		add	#1, r6
 2089                             	.LVL254:
 916:../src/smc_gen/r_drw2d_rx/src/tes/dave_dlist.c **** 
 2090                             		.loc 1 916 37 view .LVU819
 2091 003e FE 26 34                		mov.L	r4, [r6,r3]
 919:../src/smc_gen/r_drw2d_rx/src/tes/dave_dlist.c **** 
 2092                             		.loc 1 919 16 is_stmt 1 view .LVU820
 919:../src/smc_gen/r_drw2d_rx/src/tes/dave_dlist.c **** 
 2093                             		.loc 1 919 25 is_stmt 0 view .LVU821
 2094 0041 64 36                   		and #3, r6
 2095                             	.LVL255:
 921:../src/smc_gen/r_drw2d_rx/src/tes/dave_dlist.c **** 
 2096                             		.loc 1 921 16 is_stmt 1 view .LVU822
 921:../src/smc_gen/r_drw2d_rx/src/tes/dave_dlist.c **** 
 2097                             		.loc 1 921 21 is_stmt 0 view .LVU823
 2098 0043 AA FD                   		mov.L	44[r7], r5
 2099                             	.LVL256:
 921:../src/smc_gen/r_drw2d_rx/src/tes/dave_dlist.c **** 
 2100                             		.loc 1 921 28 view .LVU824
 2101 0045 62 15                   		add	#1, r5
 2102 0047 A2 FD                   		mov.L	r5, 44[r7]
 924:../src/smc_gen/r_drw2d_rx/src/tes/dave_dlist.c ****                {
 2103                             		.loc 1 924 16 is_stmt 1 view .LVU825
 924:../src/smc_gen/r_drw2d_rx/src/tes/dave_dlist.c ****                {
 2104                             		.loc 1 924 18 is_stmt 0 view .LVU826
 2105 0049 61 06                   		cmp	#0, r6
 2106 004b 21 15                   		bne	.L146
 926:../src/smc_gen/r_drw2d_rx/src/tes/dave_dlist.c ****                   dlist->blocksize--;
 2107                             		.loc 1 926 19 is_stmt 1 view .LVU827
 926:../src/smc_gen/r_drw2d_rx/src/tes/dave_dlist.c ****                   dlist->blocksize--;
 2108                             		.loc 1 926 24 is_stmt 0 view .LVU828
 2109 004d A9 75                   		mov.L	16[r7], r5
 926:../src/smc_gen/r_drw2d_rx/src/tes/dave_dlist.c ****                   dlist->blocksize--;
 2110                             		.loc 1 926 34 view .LVU829
 2111 004f 71 55 14                		add	#20, r5
 2112 0052 A1 75                   		mov.L	r5, 16[r7]
 927:../src/smc_gen/r_drw2d_rx/src/tes/dave_dlist.c ****                   if(dlist->blocksize <= 1)
 2113                             		.loc 1 927 19 is_stmt 1 view .LVU830
 927:../src/smc_gen/r_drw2d_rx/src/tes/dave_dlist.c ****                   if(dlist->blocksize <= 1)
 2114                             		.loc 1 927 24 is_stmt 0 view .LVU831
 2115 0054 A9 FD                   		mov.L	28[r7], r5
 927:../src/smc_gen/r_drw2d_rx/src/tes/dave_dlist.c ****                   if(dlist->blocksize <= 1)
 2116                             		.loc 1 927 35 view .LVU832
 2117 0056 60 15                   		sub	#1, r5
 2118 0058 A1 FD                   		mov.L	r5, 28[r7]
 928:../src/smc_gen/r_drw2d_rx/src/tes/dave_dlist.c ****                   {
 2119                             		.loc 1 928 19 is_stmt 1 view .LVU833
 928:../src/smc_gen/r_drw2d_rx/src/tes/dave_dlist.c ****                   {
 2120                             		.loc 1 928 21 is_stmt 0 view .LVU834
 2121 005a 61 15                   		cmp	#1, r5
 2122 005c 25 3A                   		bleu	.L163
 2123                             	.LVL257:
 2124                             	.L147:
 933:../src/smc_gen/r_drw2d_rx/src/tes/dave_dlist.c ****                }
 2125                             		.loc 1 933 19 is_stmt 1 view .LVU835
 933:../src/smc_gen/r_drw2d_rx/src/tes/dave_dlist.c ****                }
 2126                             		.loc 1 933 23 is_stmt 0 view .LVU836
 2127 005e A9 73                   		mov.L	16[r7], r3
 2128                             	.LVL258:
 2129                             	.L146:
 933:../src/smc_gen/r_drw2d_rx/src/tes/dave_dlist.c ****                }
 2130                             		.loc 1 933 23 view .LVU837
 2131                             	.LBE60:
 874:../src/smc_gen/r_drw2d_rx/src/tes/dave_dlist.c ****       {
 2132                             		.loc 1 874 81 discriminator 2 view .LVU838
 2133 0060 62 1B                   		add	#1, r11
 2134                             	.LVL259:
 2135                             	.L143:
 874:../src/smc_gen/r_drw2d_rx/src/tes/dave_dlist.c ****       {
 2136                             		.loc 1 874 7 discriminator 1 view .LVU839
 2137 0062 47 CB                   		cmp	r12, r11
 2138 0064 22 3C                   		bgeu	.L148
 874:../src/smc_gen/r_drw2d_rx/src/tes/dave_dlist.c ****       {
 2139                             		.loc 1 874 36 discriminator 3 view .LVU840
 2140 0066 EC 75                   		mov.L	[r7], r5
 874:../src/smc_gen/r_drw2d_rx/src/tes/dave_dlist.c ****       {
 2141                             		.loc 1 874 26 discriminator 3 view .LVU841
 2142 0068 CE 55 C7 01             		mov.B	455[r5], r5
 2143 006c 61 05                   		cmp	#0, r5
 2144 006e 21 32                   		bne	.L148
 2145                             	.LBB61:
 876:../src/smc_gen/r_drw2d_rx/src/tes/dave_dlist.c ****          d2_u32 regIdx = scratchEntry->reg;
 2146                             		.loc 1 876 10 is_stmt 1 view .LVU842
 2147                             	.LVL260:
 877:../src/smc_gen/r_drw2d_rx/src/tes/dave_dlist.c ****          d2_s32 val = scratchEntry->value;
 2148                             		.loc 1 877 10 view .LVU843
 877:../src/smc_gen/r_drw2d_rx/src/tes/dave_dlist.c ****          d2_s32 val = scratchEntry->value;
 2149                             		.loc 1 877 17 is_stmt 0 view .LVU844
 2150 0070 EC A5                   		mov.L	[r10], r5
 2151                             	.LVL261:
 878:../src/smc_gen/r_drw2d_rx/src/tes/dave_dlist.c **** 
 2152                             		.loc 1 878 10 is_stmt 1 view .LVU845
 878:../src/smc_gen/r_drw2d_rx/src/tes/dave_dlist.c **** 
 2153                             		.loc 1 878 17 is_stmt 0 view .LVU846
 2154 0072 ED A4 01                		mov.L	4[r10], r4
 2155                             	.LVL262:
 881:../src/smc_gen/r_drw2d_rx/src/tes/dave_dlist.c **** 
 2156                             		.loc 1 881 10 is_stmt 1 view .LVU847
 881:../src/smc_gen/r_drw2d_rx/src/tes/dave_dlist.c **** 
 2157                             		.loc 1 881 22 is_stmt 0 view .LVU848
 2158 0075 62 8A                   		add	#8, r10
 2159                             	.LVL263:
 894:../src/smc_gen/r_drw2d_rx/src/tes/dave_dlist.c ****             {
 2160                             		.loc 1 894 13 is_stmt 1 view .LVU849
 894:../src/smc_gen/r_drw2d_rx/src/tes/dave_dlist.c ****             {
 2161                             		.loc 1 894 15 is_stmt 0 view .LVU850
 2162 0077 FB 22 00 00 00 00       		mov.L	#_d2_cacheableregs, r2
 2163 007d FE C5 22                		movu.B	[r5,r2], r2
 2164 0080 61 02                   		cmp	#0, r2
 2165 0082 20 B7                   		beq	.L144
 896:../src/smc_gen/r_drw2d_rx/src/tes/dave_dlist.c ****                {
 2166                             		.loc 1 896 16 is_stmt 1 view .LVU851
 896:../src/smc_gen/r_drw2d_rx/src/tes/dave_dlist.c ****                {
 2167                             		.loc 1 896 37 is_stmt 0 view .LVU852
 2168 0084 FF 22 5D                		add	r5, r13, r2
 896:../src/smc_gen/r_drw2d_rx/src/tes/dave_dlist.c ****                {
 2169                             		.loc 1 896 18 view .LVU853
 2170 0087 CC 21                   		mov.B	[r2], r1
 2171 0089 61 01                   		cmp	#0, r1
 2172 008b 20 A4                   		beq	.L145
 896:../src/smc_gen/r_drw2d_rx/src/tes/dave_dlist.c ****                {
 2173                             		.loc 1 896 62 discriminator 1 view .LVU854
 2174 008d FE 65 81                		mov.L	[r5,r8], r1
 896:../src/smc_gen/r_drw2d_rx/src/tes/dave_dlist.c ****                {
 2175                             		.loc 1 896 47 discriminator 1 view .LVU855
 2176 0090 47 41                   		cmp	r4, r1
 2177 0092 21 9D                   		bne	.L145
 2178 0094 2E CC                   		bra	.L146
 2179                             	.LVL264:
 2180                             	.L163:
 930:../src/smc_gen/r_drw2d_rx/src/tes/dave_dlist.c ****                      d2_nextdlistblock_intern( dlist );
 2181                             		.loc 1 930 22 is_stmt 1 view .LVU856
 930:../src/smc_gen/r_drw2d_rx/src/tes/dave_dlist.c ****                      d2_nextdlistblock_intern( dlist );
 2182                             		.loc 1 930 38 is_stmt 0 view .LVU857
 2183 0096 A1 F6                   		mov.L	r6, 24[r7]
 931:../src/smc_gen/r_drw2d_rx/src/tes/dave_dlist.c ****                   }
 2184                             		.loc 1 931 22 is_stmt 1 view .LVU858
 2185 0098 EC 01                   		mov.L	[r0], r1
 2186 009a 05 00 00 00             		bsr	_d2_nextdlistblock_intern
 2187                             	.LVL265:
 931:../src/smc_gen/r_drw2d_rx/src/tes/dave_dlist.c ****                   }
 2188                             		.loc 1 931 22 is_stmt 0 view .LVU859
 2189 009e 2E C0                   		bra	.L147
 2190                             	.LVL266:
 2191                             	.L148:
 931:../src/smc_gen/r_drw2d_rx/src/tes/dave_dlist.c ****                   }
 2192                             		.loc 1 931 22 view .LVU860
 2193                             	.LBE61:
 942:../src/smc_gen/r_drw2d_rx/src/tes/dave_dlist.c ****       cnt = 0;
 2194                             		.loc 1 942 7 is_stmt 1 view .LVU861
 942:../src/smc_gen/r_drw2d_rx/src/tes/dave_dlist.c ****       cnt = 0;
 2195                             		.loc 1 942 23 is_stmt 0 view .LVU862
 2196 00a0 A1 F6                   		mov.L	r6, 24[r7]
 943:../src/smc_gen/r_drw2d_rx/src/tes/dave_dlist.c ****    } 
 2197                             		.loc 1 943 7 is_stmt 1 view .LVU863
 2198                             	.LVL267:
 2199                             		.balign 8,3,1
 2200                             	.L150:
1060:../src/smc_gen/r_drw2d_rx/src/tes/dave_dlist.c ****    dev->dlscratch_cnt = D2_DLISTSCRATCH;
 2201                             		.loc 1 1060 4 view .LVU864
1060:../src/smc_gen/r_drw2d_rx/src/tes/dave_dlist.c ****    dev->dlscratch_cnt = D2_DLISTSCRATCH;
 2202                             		.loc 1 1060 23 is_stmt 0 view .LVU865
 2203 00a2 E5 99 6D 6E             		mov.L	436[r9], 440[r9]
1061:../src/smc_gen/r_drw2d_rx/src/tes/dave_dlist.c **** }
 2204                             		.loc 1 1061 4 is_stmt 1 view .LVU866
1061:../src/smc_gen/r_drw2d_rx/src/tes/dave_dlist.c **** }
 2205                             		.loc 1 1061 23 is_stmt 0 view .LVU867
 2206 00a6 F9 96 6F 40             		mov.L	#0x40, 444[r9]
1062:../src/smc_gen/r_drw2d_rx/src/tes/dave_dlist.c **** 
 2207                             		.loc 1 1062 1 view .LVU868
 2208 00aa 3F 6D 09                		rtsd	#36, r6-r13
 2209                             	.LVL268:
 2210                             	.L142:
 948:../src/smc_gen/r_drw2d_rx/src/tes/dave_dlist.c **** 
 2211                             		.loc 1 948 7 is_stmt 1 view .LVU869
 948:../src/smc_gen/r_drw2d_rx/src/tes/dave_dlist.c **** 
 2212                             		.loc 1 948 20 is_stmt 0 view .LVU870
 2213 00ad 06 89 75 0B             		add	44[r7], r5
 2214                             	.LVL269:
 948:../src/smc_gen/r_drw2d_rx/src/tes/dave_dlist.c **** 
 2215                             		.loc 1 948 20 view .LVU871
 2216 00b1 A2 FD                   		mov.L	r5, 44[r7]
 951:../src/smc_gen/r_drw2d_rx/src/tes/dave_dlist.c ****       if(0 == D2_DEV( dlist->device)->delayed_errorcode)
 2217                             		.loc 1 951 7 is_stmt 1 view .LVU872
 951:../src/smc_gen/r_drw2d_rx/src/tes/dave_dlist.c ****       if(0 == D2_DEV( dlist->device)->delayed_errorcode)
 2218                             		.loc 1 951 16 is_stmt 0 view .LVU873
 2219 00b3 A9 F6                   		mov.L	24[r7], r6
 2220                             	.LVL270:
 952:../src/smc_gen/r_drw2d_rx/src/tes/dave_dlist.c ****       {
 2221                             		.loc 1 952 7 is_stmt 1 view .LVU874
 952:../src/smc_gen/r_drw2d_rx/src/tes/dave_dlist.c ****       {
 2222                             		.loc 1 952 9 is_stmt 0 view .LVU875
 2223 00b5 CE 45 C7 01             		mov.B	455[r4], r5
 2224 00b9 61 05                   		cmp	#0, r5
 2225 00bb 21 E7                   		bne	.L150
 954:../src/smc_gen/r_drw2d_rx/src/tes/dave_dlist.c ****          {
 2226                             		.loc 1 954 10 is_stmt 1 view .LVU876
 954:../src/smc_gen/r_drw2d_rx/src/tes/dave_dlist.c ****          {
 2227                             		.loc 1 954 12 is_stmt 0 view .LVU877
 2228 00bd 61 06                   		cmp	#0, r6
 2229 00bf 20 37                   		beq	.L151
 956:../src/smc_gen/r_drw2d_rx/src/tes/dave_dlist.c **** 
 2230                             		.loc 1 956 13 is_stmt 1 view .LVU878
 956:../src/smc_gen/r_drw2d_rx/src/tes/dave_dlist.c **** 
 2231                             		.loc 1 956 17 is_stmt 0 view .LVU879
 2232 00c1 A9 75                   		mov.L	16[r7], r5
 2233                             	.LVL271:
 958:../src/smc_gen/r_drw2d_rx/src/tes/dave_dlist.c ****             {
 2234                             		.loc 1 958 13 is_stmt 1 view .LVU880
 958:../src/smc_gen/r_drw2d_rx/src/tes/dave_dlist.c ****             {
 2235                             		.loc 1 958 18 is_stmt 0 view .LVU881
 2236 00c3 2E 15                   		bra	.L152
 2237                             	.L154:
 2238                             	.LBB62:
 961:../src/smc_gen/r_drw2d_rx/src/tes/dave_dlist.c ****                d2_s32 scrValue = scratchEntry->value;
 2239                             		.loc 1 961 16 is_stmt 1 view .LVU882
 961:../src/smc_gen/r_drw2d_rx/src/tes/dave_dlist.c ****                d2_s32 scrValue = scratchEntry->value;
 2240                             		.loc 1 961 23 is_stmt 0 view .LVU883
 2241 00c5 EC A3                   		mov.L	[r10], r3
 2242                             	.LVL272:
 962:../src/smc_gen/r_drw2d_rx/src/tes/dave_dlist.c **** 
 2243                             		.loc 1 962 16 is_stmt 1 view .LVU884
 962:../src/smc_gen/r_drw2d_rx/src/tes/dave_dlist.c **** 
 2244                             		.loc 1 962 23 is_stmt 0 view .LVU885
 2245 00c7 ED A4 01                		mov.L	4[r10], r4
 2246                             	.LVL273:
 965:../src/smc_gen/r_drw2d_rx/src/tes/dave_dlist.c ****                cnt--;
 2247                             		.loc 1 965 16 is_stmt 1 view .LVU886
 965:../src/smc_gen/r_drw2d_rx/src/tes/dave_dlist.c ****                cnt--;
 2248                             		.loc 1 965 28 is_stmt 0 view .LVU887
 2249 00ca 62 8A                   		add	#8, r10
 2250                             	.LVL274:
 966:../src/smc_gen/r_drw2d_rx/src/tes/dave_dlist.c **** 
 2251                             		.loc 1 966 16 is_stmt 1 view .LVU888
 966:../src/smc_gen/r_drw2d_rx/src/tes/dave_dlist.c **** 
 2252                             		.loc 1 966 19 is_stmt 0 view .LVU889
 2253 00cc 60 1C                   		sub	#1, r12
 2254                             	.LVL275:
 973:../src/smc_gen/r_drw2d_rx/src/tes/dave_dlist.c **** #endif
 2255                             		.loc 1 973 16 is_stmt 1 view .LVU890
 973:../src/smc_gen/r_drw2d_rx/src/tes/dave_dlist.c **** #endif
 2256                             		.loc 1 973 47 is_stmt 0 view .LVU891
 2257 00ce FE 06 53                		mov.B	r3, [r6,r5]
 975:../src/smc_gen/r_drw2d_rx/src/tes/dave_dlist.c **** 
 2258                             		.loc 1 975 16 is_stmt 1 view .LVU892
 975:../src/smc_gen/r_drw2d_rx/src/tes/dave_dlist.c **** 
 2259                             		.loc 1 975 37 is_stmt 0 view .LVU893
 2260 00d1 62 16                   		add	#1, r6
 2261                             	.LVL276:
 975:../src/smc_gen/r_drw2d_rx/src/tes/dave_dlist.c **** 
 2262                             		.loc 1 975 37 view .LVU894
 2263 00d3 FE 26 54                		mov.L	r4, [r6,r5]
 978:../src/smc_gen/r_drw2d_rx/src/tes/dave_dlist.c ****             }
 2264                             		.loc 1 978 16 is_stmt 1 view .LVU895
 978:../src/smc_gen/r_drw2d_rx/src/tes/dave_dlist.c ****             }
 2265                             		.loc 1 978 25 is_stmt 0 view .LVU896
 2266 00d6 64 36                   		and #3, r6
 2267                             	.LVL277:
 2268                             	.L152:
 978:../src/smc_gen/r_drw2d_rx/src/tes/dave_dlist.c ****             }
 2269                             		.loc 1 978 25 view .LVU897
 2270                             	.LBE62:
 958:../src/smc_gen/r_drw2d_rx/src/tes/dave_dlist.c ****             {
 2271                             		.loc 1 958 18 view .LVU898
 2272 00d8 61 0C                   		cmp	#0, r12
 2273 00da 15                      		beq	.L153
 958:../src/smc_gen/r_drw2d_rx/src/tes/dave_dlist.c ****             {
 2274                             		.loc 1 958 30 discriminator 1 view .LVU899
 2275 00db 61 06                   		cmp	#0, r6
 2276 00dd 21 E8                   		bne	.L154
 2277                             	.L153:
 982:../src/smc_gen/r_drw2d_rx/src/tes/dave_dlist.c ****             {
 2278                             		.loc 1 982 13 is_stmt 1 view .LVU900
 982:../src/smc_gen/r_drw2d_rx/src/tes/dave_dlist.c ****             {
 2279                             		.loc 1 982 15 is_stmt 0 view .LVU901
 2280 00df 61 06                   		cmp	#0, r6
 2281 00e1 21 15                   		bne	.L151
 984:../src/smc_gen/r_drw2d_rx/src/tes/dave_dlist.c ****                dlist->position++;
 2282                             		.loc 1 984 16 is_stmt 1 view .LVU902
 984:../src/smc_gen/r_drw2d_rx/src/tes/dave_dlist.c ****                dlist->position++;
 2283                             		.loc 1 984 32 is_stmt 0 view .LVU903
 2284 00e3 A1 F6                   		mov.L	r6, 24[r7]
 985:../src/smc_gen/r_drw2d_rx/src/tes/dave_dlist.c ****                dlist->blocksize--;
 2285                             		.loc 1 985 16 is_stmt 1 view .LVU904
 985:../src/smc_gen/r_drw2d_rx/src/tes/dave_dlist.c ****                dlist->blocksize--;
 2286                             		.loc 1 985 21 is_stmt 0 view .LVU905
 2287 00e5 A9 75                   		mov.L	16[r7], r5
 2288                             	.LVL278:
 985:../src/smc_gen/r_drw2d_rx/src/tes/dave_dlist.c ****                dlist->blocksize--;
 2289                             		.loc 1 985 31 view .LVU906
 2290 00e7 71 55 14                		add	#20, r5
 2291 00ea A1 75                   		mov.L	r5, 16[r7]
 986:../src/smc_gen/r_drw2d_rx/src/tes/dave_dlist.c ****                if(dlist->blocksize <= 1) 
 2292                             		.loc 1 986 16 is_stmt 1 view .LVU907
 986:../src/smc_gen/r_drw2d_rx/src/tes/dave_dlist.c ****                if(dlist->blocksize <= 1) 
 2293                             		.loc 1 986 21 is_stmt 0 view .LVU908
 2294 00ec A9 FD                   		mov.L	28[r7], r5
 986:../src/smc_gen/r_drw2d_rx/src/tes/dave_dlist.c ****                if(dlist->blocksize <= 1) 
 2295                             		.loc 1 986 32 view .LVU909
 2296 00ee 60 15                   		sub	#1, r5
 2297 00f0 A1 FD                   		mov.L	r5, 28[r7]
 987:../src/smc_gen/r_drw2d_rx/src/tes/dave_dlist.c ****                {
 2298                             		.loc 1 987 16 is_stmt 1 view .LVU910
 987:../src/smc_gen/r_drw2d_rx/src/tes/dave_dlist.c ****                {
 2299                             		.loc 1 987 18 is_stmt 0 view .LVU911
 2300 00f2 61 15                   		cmp	#1, r5
 2301 00f4 25 0A                   		bleu	.L164
 2302                             	.LVL279:
 2303                             		.balign 8,3,1
 2304                             	.L151:
 994:../src/smc_gen/r_drw2d_rx/src/tes/dave_dlist.c ****          {
 2305                             		.loc 1 994 10 is_stmt 1 view .LVU912
 994:../src/smc_gen/r_drw2d_rx/src/tes/dave_dlist.c ****          {
 2306                             		.loc 1 994 12 is_stmt 0 view .LVU913
 2307 00f6 61 06                   		cmp	#0, r6
 2308 00f8 21 AA                   		bne	.L150
 998:../src/smc_gen/r_drw2d_rx/src/tes/dave_dlist.c ****             {
 2309                             		.loc 1 998 18 view .LVU914
 2310 00fa EF 6B                   		mov.L	r6, r11
 2311 00fc 2E 0F                   		bra	.L155
 2312                             	.LVL280:
 2313                             	.L164:
 989:../src/smc_gen/r_drw2d_rx/src/tes/dave_dlist.c ****                }
 2314                             		.loc 1 989 19 is_stmt 1 view .LVU915
 2315 00fe EF 71                   		mov.L	r7, r1
 2316                             	.LVL281:
 989:../src/smc_gen/r_drw2d_rx/src/tes/dave_dlist.c ****                }
 2317                             		.loc 1 989 19 is_stmt 0 view .LVU916
 2318 0100 05 00 00 00             		bsr	_d2_nextdlistblock_intern
 2319                             	.LVL282:
 2320 0104 2E F2                   		bra	.L151
 2321                             	.LVL283:
 2322                             	.L156:
1026:../src/smc_gen/r_drw2d_rx/src/tes/dave_dlist.c ****             }
 2323                             		.loc 1 1026 16 is_stmt 1 discriminator 2 view .LVU917
1026:../src/smc_gen/r_drw2d_rx/src/tes/dave_dlist.c ****             }
 2324                             		.loc 1 1026 29 is_stmt 0 discriminator 2 view .LVU918
 2325 0106 71 AA 20                		add	#32, r10
 2326                             	.LVL284:
 998:../src/smc_gen/r_drw2d_rx/src/tes/dave_dlist.c ****             {
 2327                             		.loc 1 998 91 discriminator 2 view .LVU919
 2328 0109 62 1B                   		add	#1, r11
 2329                             	.LVL285:
 2330                             	.L155:
 998:../src/smc_gen/r_drw2d_rx/src/tes/dave_dlist.c ****             {
 2331                             		.loc 1 998 32 discriminator 1 view .LVU920
 2332 010b FD 82 C5                		shlr	#2, r12, r5
 998:../src/smc_gen/r_drw2d_rx/src/tes/dave_dlist.c ****             {
 2333                             		.loc 1 998 13 discriminator 1 view .LVU921
 2334 010e 47 B5                   		cmp	r11, r5
 2335 0110 25 45                   		bleu	.L157
 998:../src/smc_gen/r_drw2d_rx/src/tes/dave_dlist.c ****             {
 2336                             		.loc 1 998 47 discriminator 3 view .LVU922
 2337 0112 EC 75                   		mov.L	[r7], r5
 998:../src/smc_gen/r_drw2d_rx/src/tes/dave_dlist.c ****             {
 2338                             		.loc 1 998 38 discriminator 3 view .LVU923
 2339 0114 CE 55 C7 01             		mov.B	455[r5], r5
 2340 0118 61 05                   		cmp	#0, r5
 2341 011a 21 3B                   		bne	.L157
1000:../src/smc_gen/r_drw2d_rx/src/tes/dave_dlist.c **** 
 2342                             		.loc 1 1000 16 is_stmt 1 view .LVU924
1000:../src/smc_gen/r_drw2d_rx/src/tes/dave_dlist.c **** 
 2343                             		.loc 1 1000 20 is_stmt 0 view .LVU925
 2344 011c A9 75                   		mov.L	16[r7], r5
 2345                             	.LVL286:
1008:../src/smc_gen/r_drw2d_rx/src/tes/dave_dlist.c ****                pos->address.array[1] = (d2_u8) scratchEntry[1].reg;
 2346                             		.loc 1 1008 16 is_stmt 1 view .LVU926
1008:../src/smc_gen/r_drw2d_rx/src/tes/dave_dlist.c ****                pos->address.array[1] = (d2_u8) scratchEntry[1].reg;
 2347                             		.loc 1 1008 38 is_stmt 0 view .LVU927
 2348 011e C0 A5                   		mov.B	[r10], [r5]
1009:../src/smc_gen/r_drw2d_rx/src/tes/dave_dlist.c ****                pos->address.array[2] = (d2_u8) scratchEntry[2].reg;
 2349                             		.loc 1 1009 16 is_stmt 1 view .LVU928
1009:../src/smc_gen/r_drw2d_rx/src/tes/dave_dlist.c ****                pos->address.array[2] = (d2_u8) scratchEntry[2].reg;
 2350                             		.loc 1 1009 38 is_stmt 0 view .LVU929
 2351 0120 C5 A5 08 01             		mov.B	8[r10], 1[r5]
1010:../src/smc_gen/r_drw2d_rx/src/tes/dave_dlist.c ****                pos->address.array[3] = (d2_u8) scratchEntry[3].reg;
 2352                             		.loc 1 1010 16 is_stmt 1 view .LVU930
1010:../src/smc_gen/r_drw2d_rx/src/tes/dave_dlist.c ****                pos->address.array[3] = (d2_u8) scratchEntry[3].reg;
 2353                             		.loc 1 1010 38 is_stmt 0 view .LVU931
 2354 0124 C5 A5 10 02             		mov.B	16[r10], 2[r5]
1011:../src/smc_gen/r_drw2d_rx/src/tes/dave_dlist.c **** #endif
 2355                             		.loc 1 1011 16 is_stmt 1 view .LVU932
1011:../src/smc_gen/r_drw2d_rx/src/tes/dave_dlist.c **** #endif
 2356                             		.loc 1 1011 38 is_stmt 0 view .LVU933
 2357 0128 C5 A5 18 03             		mov.B	24[r10], 3[r5]
1013:../src/smc_gen/r_drw2d_rx/src/tes/dave_dlist.c ****                pos->value[1] = scratchEntry[1].value;
 2358                             		.loc 1 1013 16 is_stmt 1 view .LVU934
1013:../src/smc_gen/r_drw2d_rx/src/tes/dave_dlist.c ****                pos->value[1] = scratchEntry[1].value;
 2359                             		.loc 1 1013 30 is_stmt 0 view .LVU935
 2360 012c E5 A5 01 01             		mov.L	4[r10], 4[r5]
1014:../src/smc_gen/r_drw2d_rx/src/tes/dave_dlist.c ****                pos->value[2] = scratchEntry[2].value;
 2361                             		.loc 1 1014 16 is_stmt 1 view .LVU936
1014:../src/smc_gen/r_drw2d_rx/src/tes/dave_dlist.c ****                pos->value[2] = scratchEntry[2].value;
 2362                             		.loc 1 1014 30 is_stmt 0 view .LVU937
 2363 0130 E5 A5 03 02             		mov.L	12[r10], 8[r5]
1015:../src/smc_gen/r_drw2d_rx/src/tes/dave_dlist.c ****                pos->value[3] = scratchEntry[3].value;
 2364                             		.loc 1 1015 16 is_stmt 1 view .LVU938
1015:../src/smc_gen/r_drw2d_rx/src/tes/dave_dlist.c ****                pos->value[3] = scratchEntry[3].value;
 2365                             		.loc 1 1015 30 is_stmt 0 view .LVU939
 2366 0134 E5 A5 05 03             		mov.L	20[r10], 12[r5]
1016:../src/smc_gen/r_drw2d_rx/src/tes/dave_dlist.c **** 
 2367                             		.loc 1 1016 16 is_stmt 1 view .LVU940
1016:../src/smc_gen/r_drw2d_rx/src/tes/dave_dlist.c **** 
 2368                             		.loc 1 1016 30 is_stmt 0 view .LVU941
 2369 0138 E5 A5 07 04             		mov.L	28[r10], 16[r5]
1019:../src/smc_gen/r_drw2d_rx/src/tes/dave_dlist.c ****                dlist->blocksize--;
 2370                             		.loc 1 1019 16 is_stmt 1 view .LVU942
1019:../src/smc_gen/r_drw2d_rx/src/tes/dave_dlist.c ****                dlist->blocksize--;
 2371                             		.loc 1 1019 21 is_stmt 0 view .LVU943
 2372 013c A9 75                   		mov.L	16[r7], r5
 2373                             	.LVL287:
1019:../src/smc_gen/r_drw2d_rx/src/tes/dave_dlist.c ****                dlist->blocksize--;
 2374                             		.loc 1 1019 31 view .LVU944
 2375 013e 71 55 14                		add	#20, r5
 2376 0141 A1 75                   		mov.L	r5, 16[r7]
1020:../src/smc_gen/r_drw2d_rx/src/tes/dave_dlist.c ****                if ( dlist->blocksize <= 1 ) 
 2377                             		.loc 1 1020 16 is_stmt 1 view .LVU945
1020:../src/smc_gen/r_drw2d_rx/src/tes/dave_dlist.c ****                if ( dlist->blocksize <= 1 ) 
 2378                             		.loc 1 1020 21 is_stmt 0 view .LVU946
 2379 0143 A9 FD                   		mov.L	28[r7], r5
1020:../src/smc_gen/r_drw2d_rx/src/tes/dave_dlist.c ****                if ( dlist->blocksize <= 1 ) 
 2380                             		.loc 1 1020 32 view .LVU947
 2381 0145 60 15                   		sub	#1, r5
 2382 0147 A1 FD                   		mov.L	r5, 28[r7]
1021:../src/smc_gen/r_drw2d_rx/src/tes/dave_dlist.c ****                {
 2383                             		.loc 1 1021 16 is_stmt 1 view .LVU948
1021:../src/smc_gen/r_drw2d_rx/src/tes/dave_dlist.c ****                {
 2384                             		.loc 1 1021 19 is_stmt 0 view .LVU949
 2385 0149 61 15                   		cmp	#1, r5
 2386 014b 24 BB                   		bgtu	.L156
1023:../src/smc_gen/r_drw2d_rx/src/tes/dave_dlist.c ****                }
 2387                             		.loc 1 1023 19 is_stmt 1 view .LVU950
 2388 014d EC 01                   		mov.L	[r0], r1
 2389 014f 05 00 00 00             		bsr	_d2_nextdlistblock_intern
 2390                             	.LVL288:
 2391 0153 2E B3                   		bra	.L156
 2392                             	.L157:
1031:../src/smc_gen/r_drw2d_rx/src/tes/dave_dlist.c ****             for(i=0; (i < cnt) && (0 == D2_DEV( dlist->device)->delayed_errorcode); i++)
 2393                             		.loc 1 1031 13 view .LVU951
1031:../src/smc_gen/r_drw2d_rx/src/tes/dave_dlist.c ****             for(i=0; (i < cnt) && (0 == D2_DEV( dlist->device)->delayed_errorcode); i++)
 2394                             		.loc 1 1031 17 is_stmt 0 view .LVU952
 2395 0155 64 3C                   		and #3, r12
 2396                             	.LVL289:
1032:../src/smc_gen/r_drw2d_rx/src/tes/dave_dlist.c ****             {
 2397                             		.loc 1 1032 13 is_stmt 1 view .LVU953
1032:../src/smc_gen/r_drw2d_rx/src/tes/dave_dlist.c ****             {
 2398                             		.loc 1 1032 13 is_stmt 0 view .LVU954
 2399 0157 2E 1B                   		bra	.L159
 2400                             	.LVL290:
 2401                             	.L160:
 2402                             	.LBB63:
1034:../src/smc_gen/r_drw2d_rx/src/tes/dave_dlist.c ****                d2_s32 scrValue = scratchEntry->value;
 2403                             		.loc 1 1034 16 is_stmt 1 discriminator 4 view .LVU955
1034:../src/smc_gen/r_drw2d_rx/src/tes/dave_dlist.c ****                d2_s32 scrValue = scratchEntry->value;
 2404                             		.loc 1 1034 23 is_stmt 0 discriminator 4 view .LVU956
 2405 0159 EC A2                   		mov.L	[r10], r2
 2406                             	.LVL291:
1035:../src/smc_gen/r_drw2d_rx/src/tes/dave_dlist.c **** 
 2407                             		.loc 1 1035 16 is_stmt 1 discriminator 4 view .LVU957
1035:../src/smc_gen/r_drw2d_rx/src/tes/dave_dlist.c **** 
 2408                             		.loc 1 1035 23 is_stmt 0 discriminator 4 view .LVU958
 2409 015b ED A3 01                		mov.L	4[r10], r3
 2410                             	.LVL292:
1038:../src/smc_gen/r_drw2d_rx/src/tes/dave_dlist.c **** 
 2411                             		.loc 1 1038 16 is_stmt 1 discriminator 4 view .LVU959
1038:../src/smc_gen/r_drw2d_rx/src/tes/dave_dlist.c **** 
 2412                             		.loc 1 1038 28 is_stmt 0 discriminator 4 view .LVU960
 2413 015e 62 8A                   		add	#8, r10
 2414                             	.LVL293:
1040:../src/smc_gen/r_drw2d_rx/src/tes/dave_dlist.c ****                pos = dlist->position;
 2415                             		.loc 1 1040 16 is_stmt 1 discriminator 4 view .LVU961
1040:../src/smc_gen/r_drw2d_rx/src/tes/dave_dlist.c ****                pos = dlist->position;
 2416                             		.loc 1 1040 25 is_stmt 0 discriminator 4 view .LVU962
 2417 0160 A9 F5                   		mov.L	24[r7], r5
 2418                             	.LVL294:
1041:../src/smc_gen/r_drw2d_rx/src/tes/dave_dlist.c **** 
 2419                             		.loc 1 1041 16 is_stmt 1 discriminator 4 view .LVU963
1041:../src/smc_gen/r_drw2d_rx/src/tes/dave_dlist.c **** 
 2420                             		.loc 1 1041 20 is_stmt 0 discriminator 4 view .LVU964
 2421 0162 A9 74                   		mov.L	16[r7], r4
 2422                             	.LVL295:
1048:../src/smc_gen/r_drw2d_rx/src/tes/dave_dlist.c **** #endif
 2423                             		.loc 1 1048 16 is_stmt 1 discriminator 4 view .LVU965
1048:../src/smc_gen/r_drw2d_rx/src/tes/dave_dlist.c **** #endif
 2424                             		.loc 1 1048 45 is_stmt 0 discriminator 4 view .LVU966
 2425 0164 FE 05 42                		mov.B	r2, [r5,r4]
1050:../src/smc_gen/r_drw2d_rx/src/tes/dave_dlist.c **** 
 2426                             		.loc 1 1050 16 is_stmt 1 discriminator 4 view .LVU967
1050:../src/smc_gen/r_drw2d_rx/src/tes/dave_dlist.c **** 
 2427                             		.loc 1 1050 37 is_stmt 0 discriminator 4 view .LVU968
 2428 0167 62 15                   		add	#1, r5
 2429                             	.LVL296:
1050:../src/smc_gen/r_drw2d_rx/src/tes/dave_dlist.c **** 
 2430                             		.loc 1 1050 37 discriminator 4 view .LVU969
 2431 0169 FE 25 43                		mov.L	r3, [r5,r4]
1053:../src/smc_gen/r_drw2d_rx/src/tes/dave_dlist.c ****                dlist->tagindex = tagIndex;
 2432                             		.loc 1 1053 16 is_stmt 1 discriminator 4 view .LVU970
1053:../src/smc_gen/r_drw2d_rx/src/tes/dave_dlist.c ****                dlist->tagindex = tagIndex;
 2433                             		.loc 1 1053 25 is_stmt 0 discriminator 4 view .LVU971
 2434 016c 64 35                   		and #3, r5
 2435                             	.LVL297:
1054:../src/smc_gen/r_drw2d_rx/src/tes/dave_dlist.c ****             }
 2436                             		.loc 1 1054 16 is_stmt 1 discriminator 4 view .LVU972
1054:../src/smc_gen/r_drw2d_rx/src/tes/dave_dlist.c ****             }
 2437                             		.loc 1 1054 32 is_stmt 0 discriminator 4 view .LVU973
 2438 016e A1 F5                   		mov.L	r5, 24[r7]
 2439                             	.LBE63:
1032:../src/smc_gen/r_drw2d_rx/src/tes/dave_dlist.c ****             {
 2440                             		.loc 1 1032 86 discriminator 4 view .LVU974
 2441 0170 62 16                   		add	#1, r6
 2442                             	.LVL298:
 2443                             	.L159:
1032:../src/smc_gen/r_drw2d_rx/src/tes/dave_dlist.c ****             {
 2444                             		.loc 1 1032 13 discriminator 1 view .LVU975
 2445 0172 47 C6                   		cmp	r12, r6
 2446 0174 23 05 38 2C FF          		bgeu	.L150
1032:../src/smc_gen/r_drw2d_rx/src/tes/dave_dlist.c ****             {
 2447                             		.loc 1 1032 41 discriminator 3 view .LVU976
 2448 0179 EC 75                   		mov.L	[r7], r5
1032:../src/smc_gen/r_drw2d_rx/src/tes/dave_dlist.c ****             {
 2449                             		.loc 1 1032 32 discriminator 3 view .LVU977
 2450 017b CE 55 C7 01             		mov.B	455[r5], r5
 2451 017f 61 05                   		cmp	#0, r5
 2452 0181 20 D8                   		beq	.L160
 2453 0183 38 1F FF                		bra	.L150
 2454                             	.LFE18:
 2456 0186 EF 00                   		.section	.text.d2_insertwaitpipedlist_intern,"ax",@progbits
 2457                             		.global	_d2_insertwaitpipedlist_intern
 2459                             	_d2_insertwaitpipedlist_intern:
 2460                             	.LVL299:
 2461                             	.LFB16:
 825:../src/smc_gen/r_drw2d_rx/src/tes/dave_dlist.c ****    D2_VALIDATE( handle, D2_INVALIDDEVICE); /* PRQA S 4130, 3112 */ /* $Misra: #DEBUG_MACRO $*/
 2462                             		.loc 1 825 1 is_stmt 1 view -0
 825:../src/smc_gen/r_drw2d_rx/src/tes/dave_dlist.c ****    D2_VALIDATE( handle, D2_INVALIDDEVICE); /* PRQA S 4130, 3112 */ /* $Misra: #DEBUG_MACRO $*/
 2463                             		.loc 1 825 1 is_stmt 0 view .LVU979
 2464 0000 6E 7A                   		pushm	r7-r10
 2465                             	.LCFI10:
 2466 0002 EF 17                   		mov.L	r1, r7
 826:../src/smc_gen/r_drw2d_rx/src/tes/dave_dlist.c **** 
 2467                             		.loc 1 826 4 is_stmt 1 view .LVU980
 829:../src/smc_gen/r_drw2d_rx/src/tes/dave_dlist.c ****    /* insert 0x04 wait into dlist to wait for pipeline flush */
 2468                             		.loc 1 829 4 view .LVU981
 2469 0004 05 00 00 00             		bsr	_d2_scratch2dlist_intern
 2470                             	.LVL300:
 831:../src/smc_gen/r_drw2d_rx/src/tes/dave_dlist.c **** 
 2471                             		.loc 1 831 4 view .LVU982
 831:../src/smc_gen/r_drw2d_rx/src/tes/dave_dlist.c **** 
 2472                             		.loc 1 831 49 is_stmt 0 view .LVU983
 2473 0008 A8 F9                   		mov.L	12[r7], r1
 2474                             	.LVL301:
 2475                             	.LBB68:
 2476                             	.LBI68:
 203:../src/smc_gen/r_drw2d_rx/src/tes/dave_dlist.h **** {
 2477                             		.loc 2 203 23 is_stmt 1 view .LVU984
 2478                             	.LBB69:
 205:../src/smc_gen/r_drw2d_rx/src/tes/dave_dlist.h ****    d2_dlist_entry *pos = dlist->position;
 2479                             		.loc 2 205 4 view .LVU985
 205:../src/smc_gen/r_drw2d_rx/src/tes/dave_dlist.h ****    d2_dlist_entry *pos = dlist->position;
 2480                             		.loc 2 205 11 is_stmt 0 view .LVU986
 2481 000a A9 95                   		mov.L	24[r1], r5
 2482                             	.LVL302:
 206:../src/smc_gen/r_drw2d_rx/src/tes/dave_dlist.h **** 
 2483                             		.loc 2 206 4 is_stmt 1 view .LVU987
 206:../src/smc_gen/r_drw2d_rx/src/tes/dave_dlist.h **** 
 2484                             		.loc 2 206 20 is_stmt 0 view .LVU988
 2485 000c A9 14                   		mov.L	16[r1], r4
 2486                             	.LVL303:
 208:../src/smc_gen/r_drw2d_rx/src/tes/dave_dlist.h ****    {
 2487                             		.loc 2 208 4 is_stmt 1 view .LVU989
 2488 000e 61 15                   		cmp	#1, r5
 2489 0010 20 32                   		beq	.L166
 2490 0012 61 05                   		cmp	#0, r5
 2491 0014 20 23                   		beq	.L167
 2492 0016 61 25                   		cmp	#2, r5
 2493 0018 20 43                   		beq	.L168
 2494 001a 61 35                   		cmp	#3, r5
 2495 001c 20 59                   		beq	.L169
 2496                             	.LVL304:
 2497 001e EF 00                   		.balign 8,3,4
 2498                             	.L170:
 245:../src/smc_gen/r_drw2d_rx/src/tes/dave_dlist.h ****    dlist->blocksize--;
 2499                             		.loc 2 245 4 view .LVU990
 245:../src/smc_gen/r_drw2d_rx/src/tes/dave_dlist.h ****    dlist->blocksize--;
 2500                             		.loc 2 245 20 is_stmt 0 view .LVU991
 2501 0020 3E 16 00                		mov.L	#0, 24[r1]
 246:../src/smc_gen/r_drw2d_rx/src/tes/dave_dlist.h **** 
 2502                             		.loc 2 246 4 is_stmt 1 view .LVU992
 246:../src/smc_gen/r_drw2d_rx/src/tes/dave_dlist.h **** 
 2503                             		.loc 2 246 9 is_stmt 0 view .LVU993
 2504 0023 A9 9D                   		mov.L	28[r1], r5
 246:../src/smc_gen/r_drw2d_rx/src/tes/dave_dlist.h **** 
 2505                             		.loc 2 246 20 view .LVU994
 2506 0025 60 15                   		sub	#1, r5
 2507 0027 A1 9D                   		mov.L	r5, 28[r1]
 2508                             		.loc 2 249 4 is_stmt 1 view .LVU995
 250:../src/smc_gen/r_drw2d_rx/src/tes/dave_dlist.h ****    {
 251:../src/smc_gen/r_drw2d_rx/src/tes/dave_dlist.h ****       if(dlist->blocksize <= 1)
 2509                             		.loc 2 251 7 view .LVU996
 2510                             		.loc 2 251 9 is_stmt 0 view .LVU997
 2511 0029 61 15                   		cmp	#1, r5
 2512 002b 25 6C                   		bleu	.L173
 2513                             	.LVL305:
 2514                             	.L171:
 2515                             		.loc 2 251 9 view .LVU998
 2516                             	.LBE69:
 2517                             	.LBE68:
 833:../src/smc_gen/r_drw2d_rx/src/tes/dave_dlist.c **** }
 2518                             		.loc 1 833 4 is_stmt 1 view .LVU999
 2519                             	.LBB71:
 2520                             	.LBI71:
 2521                             		.file 3 "../src/smc_gen/r_drw2d_rx/src/tes/dave_intern.h"
   1:../src/smc_gen/r_drw2d_rx/src/tes/dave_intern.h **** /*--------------------------------------------------------------------------
   2:../src/smc_gen/r_drw2d_rx/src/tes/dave_intern.h ****  * Project: D/AVE
   3:../src/smc_gen/r_drw2d_rx/src/tes/dave_intern.h ****  * File:    dave_intern.h (%version: 29 %)
   4:../src/smc_gen/r_drw2d_rx/src/tes/dave_intern.h ****  *          created Tue Jan 11 12:57:48 2005 by hh04027
   5:../src/smc_gen/r_drw2d_rx/src/tes/dave_intern.h ****  *
   6:../src/smc_gen/r_drw2d_rx/src/tes/dave_intern.h ****  * Description:
   7:../src/smc_gen/r_drw2d_rx/src/tes/dave_intern.h ****  *  %date_modified: Thu Jan 25 18:12:54 2007 %  (%derived_by:  hh74026 %)
   8:../src/smc_gen/r_drw2d_rx/src/tes/dave_intern.h ****  *
   9:../src/smc_gen/r_drw2d_rx/src/tes/dave_intern.h ****  * Changes:
  10:../src/smc_gen/r_drw2d_rx/src/tes/dave_intern.h ****  *  2005-12-22 CSe  removed transfermode field, added flags field in _d2_devicedata
  11:../src/smc_gen/r_drw2d_rx/src/tes/dave_intern.h ****  *  2006-02-16 CSe  added performance counter support
  12:../src/smc_gen/r_drw2d_rx/src/tes/dave_intern.h ****  *  2006-10-30 CSe  removed waitdlist flag
  13:../src/smc_gen/r_drw2d_rx/src/tes/dave_intern.h ****  *  2006-11-07 CSe  removed waitdlist flag
  14:../src/smc_gen/r_drw2d_rx/src/tes/dave_intern.h ****  *  2006-11-07 CSe  added dlist_buffer to device struct for 'd2_df_low_localmem' mode
  15:../src/smc_gen/r_drw2d_rx/src/tes/dave_intern.h ****  *  2007-01-26 CSe  made 'low localmem' mode configurable
  16:../src/smc_gen/r_drw2d_rx/src/tes/dave_intern.h ****  *  2007-05-23 MGe  added delayed_errorcode to context
  17:../src/smc_gen/r_drw2d_rx/src/tes/dave_intern.h ****  *  2008-01-14 ASc  changed comments from C++ to C, removed tabs
  18:../src/smc_gen/r_drw2d_rx/src/tes/dave_intern.h ****  *  2008-11-24 AJ   Added support for IAR compiler
  19:../src/smc_gen/r_drw2d_rx/src/tes/dave_intern.h ****  *  2011-09-05 MRe  added cr2 register to device structure
  20:../src/smc_gen/r_drw2d_rx/src/tes/dave_intern.h ****  *  2012-09-25 BSp  MISRA cleanup
  21:../src/smc_gen/r_drw2d_rx/src/tes/dave_intern.h ****  *-------------------------------------------------------------------------- */
  22:../src/smc_gen/r_drw2d_rx/src/tes/dave_intern.h **** 
  23:../src/smc_gen/r_drw2d_rx/src/tes/dave_intern.h **** #ifndef __1_dave_intern_h_H
  24:../src/smc_gen/r_drw2d_rx/src/tes/dave_intern.h **** #define __1_dave_intern_h_H
  25:../src/smc_gen/r_drw2d_rx/src/tes/dave_intern.h **** /*---------------------------------------------------------------------------
  26:../src/smc_gen/r_drw2d_rx/src/tes/dave_intern.h ****  * define inline modifier if available */
  27:../src/smc_gen/r_drw2d_rx/src/tes/dave_intern.h **** #ifdef _MSC_VER
  28:../src/smc_gen/r_drw2d_rx/src/tes/dave_intern.h **** #define D2_INLINE __forceinline
  29:../src/smc_gen/r_drw2d_rx/src/tes/dave_intern.h **** #else
  30:../src/smc_gen/r_drw2d_rx/src/tes/dave_intern.h **** #ifdef __CA850__
  31:../src/smc_gen/r_drw2d_rx/src/tes/dave_intern.h **** #define D2_INLINE
  32:../src/smc_gen/r_drw2d_rx/src/tes/dave_intern.h **** #elif defined(__ICCV850__)
  33:../src/smc_gen/r_drw2d_rx/src/tes/dave_intern.h **** #define D2_INLINE _Pragma("inline")
  34:../src/smc_gen/r_drw2d_rx/src/tes/dave_intern.h **** #else
  35:../src/smc_gen/r_drw2d_rx/src/tes/dave_intern.h **** #define D2_INLINE inline
  36:../src/smc_gen/r_drw2d_rx/src/tes/dave_intern.h **** #endif
  37:../src/smc_gen/r_drw2d_rx/src/tes/dave_intern.h **** #endif
  38:../src/smc_gen/r_drw2d_rx/src/tes/dave_intern.h **** 
  39:../src/smc_gen/r_drw2d_rx/src/tes/dave_intern.h **** /*---------------------------------------------------------------------------
  40:../src/smc_gen/r_drw2d_rx/src/tes/dave_intern.h ****  * define null to become independent of stdlib */
  41:../src/smc_gen/r_drw2d_rx/src/tes/dave_intern.h **** #ifndef NULL
  42:../src/smc_gen/r_drw2d_rx/src/tes/dave_intern.h **** #ifdef __cplusplus
  43:../src/smc_gen/r_drw2d_rx/src/tes/dave_intern.h **** #define NULL    0
  44:../src/smc_gen/r_drw2d_rx/src/tes/dave_intern.h **** #else
  45:../src/smc_gen/r_drw2d_rx/src/tes/dave_intern.h **** #define NULL    ((void *)0)
  46:../src/smc_gen/r_drw2d_rx/src/tes/dave_intern.h **** #endif
  47:../src/smc_gen/r_drw2d_rx/src/tes/dave_intern.h **** #endif
  48:../src/smc_gen/r_drw2d_rx/src/tes/dave_intern.h **** 
  49:../src/smc_gen/r_drw2d_rx/src/tes/dave_intern.h **** /*---------------------------------------------------------------------------
  50:../src/smc_gen/r_drw2d_rx/src/tes/dave_intern.h ****  * internally used types */
  51:../src/smc_gen/r_drw2d_rx/src/tes/dave_intern.h **** 
  52:../src/smc_gen/r_drw2d_rx/src/tes/dave_intern.h **** #ifdef _MSC_VER
  53:../src/smc_gen/r_drw2d_rx/src/tes/dave_intern.h **** typedef __int64 d2_int64;
  54:../src/smc_gen/r_drw2d_rx/src/tes/dave_intern.h **** #elif (defined(__CA850__) || defined(__ICC850__))
  55:../src/smc_gen/r_drw2d_rx/src/tes/dave_intern.h **** #define _NO_LL_
  56:../src/smc_gen/r_drw2d_rx/src/tes/dave_intern.h **** typedef struct {
  57:../src/smc_gen/r_drw2d_rx/src/tes/dave_intern.h ****    d2_u32 low32;
  58:../src/smc_gen/r_drw2d_rx/src/tes/dave_intern.h ****    d2_s32 high32;
  59:../src/smc_gen/r_drw2d_rx/src/tes/dave_intern.h **** } d2_int64;
  60:../src/smc_gen/r_drw2d_rx/src/tes/dave_intern.h **** #else
  61:../src/smc_gen/r_drw2d_rx/src/tes/dave_intern.h **** typedef long long d2_int64;
  62:../src/smc_gen/r_drw2d_rx/src/tes/dave_intern.h **** #endif
  63:../src/smc_gen/r_drw2d_rx/src/tes/dave_intern.h **** 
  64:../src/smc_gen/r_drw2d_rx/src/tes/dave_intern.h **** /*---------------------------------------------------------------------------
  65:../src/smc_gen/r_drw2d_rx/src/tes/dave_intern.h ****  * use separate context for blit 
  66:../src/smc_gen/r_drw2d_rx/src/tes/dave_intern.h ****  see also d2_df_no_blitctxbackup and d2_bf_no_blitctxbackup*/
  67:../src/smc_gen/r_drw2d_rx/src/tes/dave_intern.h **** 
  68:../src/smc_gen/r_drw2d_rx/src/tes/dave_intern.h **** /*
  69:../src/smc_gen/r_drw2d_rx/src/tes/dave_intern.h **** #define D2_USEBLITBACKUPCONTEXT 
  70:../src/smc_gen/r_drw2d_rx/src/tes/dave_intern.h **** */
  71:../src/smc_gen/r_drw2d_rx/src/tes/dave_intern.h **** 
  72:../src/smc_gen/r_drw2d_rx/src/tes/dave_intern.h **** 
  73:../src/smc_gen/r_drw2d_rx/src/tes/dave_intern.h **** /*---------------------------------------------------------------------------
  74:../src/smc_gen/r_drw2d_rx/src/tes/dave_intern.h ****  * force register cache usage
  75:../src/smc_gen/r_drw2d_rx/src/tes/dave_intern.h ****  see also d2_df_no_registercaching */
  76:../src/smc_gen/r_drw2d_rx/src/tes/dave_intern.h **** 
  77:../src/smc_gen/r_drw2d_rx/src/tes/dave_intern.h **** #define D2_USEREGCACHE 
  78:../src/smc_gen/r_drw2d_rx/src/tes/dave_intern.h **** 
  79:../src/smc_gen/r_drw2d_rx/src/tes/dave_intern.h **** /*---------------------------------------------------------------------------
  80:../src/smc_gen/r_drw2d_rx/src/tes/dave_intern.h ****  * set initial size of list of dlist start address */
  81:../src/smc_gen/r_drw2d_rx/src/tes/dave_intern.h **** 
  82:../src/smc_gen/r_drw2d_rx/src/tes/dave_intern.h **** #define DLIST_ADRESSES_NUMBER 16
  83:../src/smc_gen/r_drw2d_rx/src/tes/dave_intern.h **** 
  84:../src/smc_gen/r_drw2d_rx/src/tes/dave_intern.h **** 
  85:../src/smc_gen/r_drw2d_rx/src/tes/dave_intern.h **** /*---------------------------------------------------------------------------
  86:../src/smc_gen/r_drw2d_rx/src/tes/dave_intern.h ****  * Register Cache */
  87:../src/smc_gen/r_drw2d_rx/src/tes/dave_intern.h **** 
  88:../src/smc_gen/r_drw2d_rx/src/tes/dave_intern.h **** #include "dave_registermap.h"
  89:../src/smc_gen/r_drw2d_rx/src/tes/dave_intern.h **** 
  90:../src/smc_gen/r_drw2d_rx/src/tes/dave_intern.h **** typedef struct _d2_cacheddata
  91:../src/smc_gen/r_drw2d_rx/src/tes/dave_intern.h **** {
  92:../src/smc_gen/r_drw2d_rx/src/tes/dave_intern.h ****    d2_s32    data[  D2_QUANTITY ];
  93:../src/smc_gen/r_drw2d_rx/src/tes/dave_intern.h ****    d2_s8     valid[ D2_QUANTITY ];
  94:../src/smc_gen/r_drw2d_rx/src/tes/dave_intern.h **** } d2_cacheddata;
  95:../src/smc_gen/r_drw2d_rx/src/tes/dave_intern.h **** 
  96:../src/smc_gen/r_drw2d_rx/src/tes/dave_intern.h **** #ifdef D2_USEREGCACHE
  97:../src/smc_gen/r_drw2d_rx/src/tes/dave_intern.h **** D2_EXTERN const d2_u8 d2_cacheableregs[D2_QUANTITY];
  98:../src/smc_gen/r_drw2d_rx/src/tes/dave_intern.h **** #endif
  99:../src/smc_gen/r_drw2d_rx/src/tes/dave_intern.h **** 
 100:../src/smc_gen/r_drw2d_rx/src/tes/dave_intern.h **** typedef void (*d2_fp_scratchfull)( void *handle );
 101:../src/smc_gen/r_drw2d_rx/src/tes/dave_intern.h **** 
 102:../src/smc_gen/r_drw2d_rx/src/tes/dave_intern.h **** /*--------------------------------------------------------------------------- */
 103:../src/smc_gen/r_drw2d_rx/src/tes/dave_intern.h **** #include "dave_base.h"
 104:../src/smc_gen/r_drw2d_rx/src/tes/dave_intern.h **** #include "dave_dlist.h"
 105:../src/smc_gen/r_drw2d_rx/src/tes/dave_intern.h **** #include "dave_rbuffer.h"
 106:../src/smc_gen/r_drw2d_rx/src/tes/dave_intern.h **** #include "dave_hardware.h"
 107:../src/smc_gen/r_drw2d_rx/src/tes/dave_intern.h **** #include "dave_context.h"
 108:../src/smc_gen/r_drw2d_rx/src/tes/dave_intern.h **** #include "dave_math.h"
 109:../src/smc_gen/r_drw2d_rx/src/tes/dave_intern.h **** 
 110:../src/smc_gen/r_drw2d_rx/src/tes/dave_intern.h **** /*---------------------------------------------------------------------------
 111:../src/smc_gen/r_drw2d_rx/src/tes/dave_intern.h ****  * use higher precision of qlimiters */
 112:../src/smc_gen/r_drw2d_rx/src/tes/dave_intern.h **** 
 113:../src/smc_gen/r_drw2d_rx/src/tes/dave_intern.h **** #define LIMITER_HIPRECISION 6 
 114:../src/smc_gen/r_drw2d_rx/src/tes/dave_intern.h **** 
 115:../src/smc_gen/r_drw2d_rx/src/tes/dave_intern.h **** 
 116:../src/smc_gen/r_drw2d_rx/src/tes/dave_intern.h **** /*---------------------------------------------------------------------------
 117:../src/smc_gen/r_drw2d_rx/src/tes/dave_intern.h ****  * These helper macros are used to stringify a given macro */
 118:../src/smc_gen/r_drw2d_rx/src/tes/dave_intern.h **** #define D2_STR(s)           # s
 119:../src/smc_gen/r_drw2d_rx/src/tes/dave_intern.h **** #define D2_XSTR(s)          D2_STR(s)  /* PRQA S 3453 */ /* $Misra: #MISRA_BUG_MACRO_HASH $*/
 120:../src/smc_gen/r_drw2d_rx/src/tes/dave_intern.h **** 
 121:../src/smc_gen/r_drw2d_rx/src/tes/dave_intern.h **** 
 122:../src/smc_gen/r_drw2d_rx/src/tes/dave_intern.h **** /*---------------------------------------------------------------------------
 123:../src/smc_gen/r_drw2d_rx/src/tes/dave_intern.h ****  * Define the D2_VERSION and D2_VERSION_STRING macros */
 124:../src/smc_gen/r_drw2d_rx/src/tes/dave_intern.h **** 
 125:../src/smc_gen/r_drw2d_rx/src/tes/dave_intern.h **** /* Build up the D2_VERSION macro */
 126:../src/smc_gen/r_drw2d_rx/src/tes/dave_intern.h **** #define D2_VERSION ((D2_VERSION_BRANCH << 24) | (D2_VERSION_MAJOR << 16) | D2_VERSION_MINOR )
 127:../src/smc_gen/r_drw2d_rx/src/tes/dave_intern.h **** 
 128:../src/smc_gen/r_drw2d_rx/src/tes/dave_intern.h **** /* Create the D2_VERSION_STRING macro */
 129:../src/smc_gen/r_drw2d_rx/src/tes/dave_intern.h **** #define D2_VERSION_STRING  D2_VERSION_BRANCH_STRING " V" D2_XSTR(D2_VERSION_MAJOR) "." D2_XSTR(D2_V
 130:../src/smc_gen/r_drw2d_rx/src/tes/dave_intern.h **** 
 131:../src/smc_gen/r_drw2d_rx/src/tes/dave_intern.h **** /*---------------------------------------------------------------------------
 132:../src/smc_gen/r_drw2d_rx/src/tes/dave_intern.h ****  * Internal device structure */
 133:../src/smc_gen/r_drw2d_rx/src/tes/dave_intern.h **** 
 134:../src/smc_gen/r_drw2d_rx/src/tes/dave_intern.h **** typedef struct _d2_devicedata
 135:../src/smc_gen/r_drw2d_rx/src/tes/dave_intern.h **** {
 136:../src/smc_gen/r_drw2d_rx/src/tes/dave_intern.h ****    struct _d2_devicedata *next;        /* to chain devices [must be index 0] */
 137:../src/smc_gen/r_drw2d_rx/src/tes/dave_intern.h **** 
 138:../src/smc_gen/r_drw2d_rx/src/tes/dave_intern.h ****    d2_dlist *readlist;                 /* read (executing) dlist */
 139:../src/smc_gen/r_drw2d_rx/src/tes/dave_intern.h ****    d2_dlist *writelist;                /* write (under construction) dlist */
 140:../src/smc_gen/r_drw2d_rx/src/tes/dave_intern.h ****    d2_rbuffer *selectedbuffer;         /* currently selected renderbuffer */
 141:../src/smc_gen/r_drw2d_rx/src/tes/dave_intern.h ****    d2_rbuffer *renderbuffer[2];        /* default renderbuffers */
 142:../src/smc_gen/r_drw2d_rx/src/tes/dave_intern.h **** 
 143:../src/smc_gen/r_drw2d_rx/src/tes/dave_intern.h ****    d1_device      *hwid;               /* lowlevel access handle */
 144:../src/smc_gen/r_drw2d_rx/src/tes/dave_intern.h ****    d2_contextdata *ctxchain;           /* context chain (list of all contexts for this device) */
 145:../src/smc_gen/r_drw2d_rx/src/tes/dave_intern.h ****    d2_contextdata *ctxdef;             /* default context (cannot be removed by application) */
 146:../src/smc_gen/r_drw2d_rx/src/tes/dave_intern.h ****    d2_contextdata *ctxselected;        /* selected context (used as target of context write/read op
 147:../src/smc_gen/r_drw2d_rx/src/tes/dave_intern.h ****    d2_contextdata *ctxsolid;           /* solid context (used as source for rendering solid geometr
 148:../src/smc_gen/r_drw2d_rx/src/tes/dave_intern.h ****    d2_contextdata *ctxoutline;         /* outline context (used as source for rendering outlines) *
 149:../src/smc_gen/r_drw2d_rx/src/tes/dave_intern.h **** #ifdef D2_USEBLITBACKUPCONTEXT
 150:../src/smc_gen/r_drw2d_rx/src/tes/dave_intern.h ****    d2_contextdata *blitcontext;        /* internal context used only for blits */
 151:../src/smc_gen/r_drw2d_rx/src/tes/dave_intern.h **** #else
 152:../src/smc_gen/r_drw2d_rx/src/tes/dave_intern.h ****    d2_contextdata_backup *blitcontext_b; /* internal context backup used only for blits */
 153:../src/smc_gen/r_drw2d_rx/src/tes/dave_intern.h **** #endif
 154:../src/smc_gen/r_drw2d_rx/src/tes/dave_intern.h ****    d2_contextdata *srccontext;         /* last context that acted as source for display list (for d
 155:../src/smc_gen/r_drw2d_rx/src/tes/dave_intern.h ****    d2_color       *srcclut;            /* last clut that was loaded  */
 156:../src/smc_gen/r_drw2d_rx/src/tes/dave_intern.h **** 
 157:../src/smc_gen/r_drw2d_rx/src/tes/dave_intern.h ****    void *   framebuffer;               /* rendering baseaddress */
 158:../src/smc_gen/r_drw2d_rx/src/tes/dave_intern.h ****    d2_s32   pitch, bpp;                /* framebuffer pitch and bytes per pixel */
 159:../src/smc_gen/r_drw2d_rx/src/tes/dave_intern.h ****    d2_s32   fbformat;                  /* framebuffer format */
 160:../src/smc_gen/r_drw2d_rx/src/tes/dave_intern.h ****    d2_u32   fbwidth,fbheight;          /* framebuffer size */
 161:../src/smc_gen/r_drw2d_rx/src/tes/dave_intern.h ****    d2_u32   fbstylemask;               /* dave ctrl1 bitmask for framebuffer format */
 162:../src/smc_gen/r_drw2d_rx/src/tes/dave_intern.h ****    d2_u32   cr2;                       /* control register 2 */
 163:../src/smc_gen/r_drw2d_rx/src/tes/dave_intern.h **** 
 164:../src/smc_gen/r_drw2d_rx/src/tes/dave_intern.h ****    d2_u32   cachectlmask;              /* dave cache ctrl register bitmask */
 165:../src/smc_gen/r_drw2d_rx/src/tes/dave_intern.h ****    d2_u32   perftriggermask;           /* dave performance counter trigger source register bitmask 
 166:../src/smc_gen/r_drw2d_rx/src/tes/dave_intern.h **** 
 167:../src/smc_gen/r_drw2d_rx/src/tes/dave_intern.h ****    d2_u32   rendermode;                /* see 'enum d2_rendermodes' */
 168:../src/smc_gen/r_drw2d_rx/src/tes/dave_intern.h ****    d2_u32   flags;                     /* see 'enum d2_deviceflags' */
 169:../src/smc_gen/r_drw2d_rx/src/tes/dave_intern.h ****    d2_width outlinewidth;
 170:../src/smc_gen/r_drw2d_rx/src/tes/dave_intern.h ****    d2_point soffx, soffy;
 171:../src/smc_gen/r_drw2d_rx/src/tes/dave_intern.h ****    d2_point clipxmin, clipymin;
 172:../src/smc_gen/r_drw2d_rx/src/tes/dave_intern.h ****    d2_point clipxmax, clipymax;
 173:../src/smc_gen/r_drw2d_rx/src/tes/dave_intern.h **** 
 174:../src/smc_gen/r_drw2d_rx/src/tes/dave_intern.h ****    d2_lowlocalmem_mode *lowlocalmem_mode;       /* only used in 'low localmem' mode */
 175:../src/smc_gen/r_drw2d_rx/src/tes/dave_intern.h **** 
 176:../src/smc_gen/r_drw2d_rx/src/tes/dave_intern.h ****    d2_u32 hwrevision;
 177:../src/smc_gen/r_drw2d_rx/src/tes/dave_intern.h ****    d2_u32 hwmemarchitecture;
 178:../src/smc_gen/r_drw2d_rx/src/tes/dave_intern.h **** 
 179:../src/smc_gen/r_drw2d_rx/src/tes/dave_intern.h ****    d2_u32 dlistblocksize;              /* specify number of entries to grow when dlist is full */
 180:../src/smc_gen/r_drw2d_rx/src/tes/dave_intern.h **** #ifdef D2_USEREGCACHE
 181:../src/smc_gen/r_drw2d_rx/src/tes/dave_intern.h ****    d2_cacheddata cache;                 /* register cache for this device */
 182:../src/smc_gen/r_drw2d_rx/src/tes/dave_intern.h **** #endif
 183:../src/smc_gen/r_drw2d_rx/src/tes/dave_intern.h ****    /* display list assembly buffer */
 184:../src/smc_gen/r_drw2d_rx/src/tes/dave_intern.h ****    d2_dlist_scratch_entry *dlscratch_base;
 185:../src/smc_gen/r_drw2d_rx/src/tes/dave_intern.h ****    d2_dlist_scratch_entry *dlscratch_pos;
 186:../src/smc_gen/r_drw2d_rx/src/tes/dave_intern.h ****    d2_s32                  dlscratch_cnt;
 187:../src/smc_gen/r_drw2d_rx/src/tes/dave_intern.h ****    d2_fp_scratchfull       dlscratch_hook;
 188:../src/smc_gen/r_drw2d_rx/src/tes/dave_intern.h **** 
 189:../src/smc_gen/r_drw2d_rx/src/tes/dave_intern.h ****    d2_s8   lasttextwasrle;               /* last texture format was RLE */
 190:../src/smc_gen/r_drw2d_rx/src/tes/dave_intern.h ****    d2_s8   maxpatlen;                    /* maximum size of pattern bitvector supported by the hard
 191:../src/smc_gen/r_drw2d_rx/src/tes/dave_intern.h ****    d2_s8   errorcode;                    /* last actions detaild result code */
 192:../src/smc_gen/r_drw2d_rx/src/tes/dave_intern.h ****    d2_s8   delayed_errorcode;            /* errorcondition that exists until the renderbuffer gets 
 193:../src/smc_gen/r_drw2d_rx/src/tes/dave_intern.h ****    d2_s8   hilimiterprecision_supported; /* is set to 1 when the hilimiterprecision feature is supp
 194:../src/smc_gen/r_drw2d_rx/src/tes/dave_intern.h **** 
 195:../src/smc_gen/r_drw2d_rx/src/tes/dave_intern.h ****    d2_s8   dlist_indirect_supported;     /* is set to 1 when lists of dlist addresses are supported
 196:../src/smc_gen/r_drw2d_rx/src/tes/dave_intern.h ****    d2_s32* dlist_list_single[2];         /* for d2_executedlist we need an extra dlist list with ju
 197:../src/smc_gen/r_drw2d_rx/src/tes/dave_intern.h **** 
 198:../src/smc_gen/r_drw2d_rx/src/tes/dave_intern.h **** } d2_devicedata;
 199:../src/smc_gen/r_drw2d_rx/src/tes/dave_intern.h **** 
 200:../src/smc_gen/r_drw2d_rx/src/tes/dave_intern.h **** /*--------------------------------------------------------------------------- */
 201:../src/smc_gen/r_drw2d_rx/src/tes/dave_intern.h **** 
 202:../src/smc_gen/r_drw2d_rx/src/tes/dave_intern.h **** typedef struct _d2_bbox
 203:../src/smc_gen/r_drw2d_rx/src/tes/dave_intern.h **** {
 204:../src/smc_gen/r_drw2d_rx/src/tes/dave_intern.h ****    d2_point xmin, ymin;
 205:../src/smc_gen/r_drw2d_rx/src/tes/dave_intern.h ****    d2_point xmax, ymax;
 206:../src/smc_gen/r_drw2d_rx/src/tes/dave_intern.h **** } d2_bbox;
 207:../src/smc_gen/r_drw2d_rx/src/tes/dave_intern.h **** 
 208:../src/smc_gen/r_drw2d_rx/src/tes/dave_intern.h **** typedef struct _d2_limdata
 209:../src/smc_gen/r_drw2d_rx/src/tes/dave_intern.h **** {
 210:../src/smc_gen/r_drw2d_rx/src/tes/dave_intern.h ****    d2_s32 start;
 211:../src/smc_gen/r_drw2d_rx/src/tes/dave_intern.h ****    d2_s32 xadd;
 212:../src/smc_gen/r_drw2d_rx/src/tes/dave_intern.h ****    d2_s32 yadd;
 213:../src/smc_gen/r_drw2d_rx/src/tes/dave_intern.h **** } d2_limdata;
 214:../src/smc_gen/r_drw2d_rx/src/tes/dave_intern.h **** 
 215:../src/smc_gen/r_drw2d_rx/src/tes/dave_intern.h **** /*---------------------------------------------------------------------------
 216:../src/smc_gen/r_drw2d_rx/src/tes/dave_intern.h ****  * Internal flags */
 217:../src/smc_gen/r_drw2d_rx/src/tes/dave_intern.h **** 
 218:../src/smc_gen/r_drw2d_rx/src/tes/dave_intern.h **** typedef d2_u32 d2_lineendflags_intern;
 219:../src/smc_gen/r_drw2d_rx/src/tes/dave_intern.h **** 
 220:../src/smc_gen/r_drw2d_rx/src/tes/dave_intern.h **** #define d2_lei_base                256u
 221:../src/smc_gen/r_drw2d_rx/src/tes/dave_intern.h **** 
 222:../src/smc_gen/r_drw2d_rx/src/tes/dave_intern.h **** #define d2_lei_ext_first_edge     (d2_lei_base *  2)
 223:../src/smc_gen/r_drw2d_rx/src/tes/dave_intern.h **** #define d2_lei_ext_last_edge      (d2_lei_base *  4)
 224:../src/smc_gen/r_drw2d_rx/src/tes/dave_intern.h **** #define d2_lei_buffer_first_edge  (d2_lei_base *  8)
 225:../src/smc_gen/r_drw2d_rx/src/tes/dave_intern.h **** #define d2_lei_buffer_last_edge   (d2_lei_base * 16)
 226:../src/smc_gen/r_drw2d_rx/src/tes/dave_intern.h **** #define d2_lei_miter_edge         (d2_lei_base * 32)
 227:../src/smc_gen/r_drw2d_rx/src/tes/dave_intern.h **** #define d2_lei_miter1_flip        (d2_lei_base * 64)
 228:../src/smc_gen/r_drw2d_rx/src/tes/dave_intern.h **** #define d2_lei_miter2_flip        (d2_lei_base *128)
 229:../src/smc_gen/r_drw2d_rx/src/tes/dave_intern.h **** 
 230:../src/smc_gen/r_drw2d_rx/src/tes/dave_intern.h **** /*---------------------------------------------------------------------------
 231:../src/smc_gen/r_drw2d_rx/src/tes/dave_intern.h ****  * Internal macros */
 232:../src/smc_gen/r_drw2d_rx/src/tes/dave_intern.h **** 
 233:../src/smc_gen/r_drw2d_rx/src/tes/dave_intern.h **** #define D2_DEV(d)           ((d2_devicedata *) (d))           /* PRQA S 3453 */ /* $Misra: #MACRO_T
 234:../src/smc_gen/r_drw2d_rx/src/tes/dave_intern.h **** #define D2_CTX(c)           ((d2_contextdata *) (c))          /* PRQA S 3453 */ /* $Misra: #MACRO_T
 235:../src/smc_gen/r_drw2d_rx/src/tes/dave_intern.h **** #define D2_FNC(r)           ((d2_renderfunctions *) (r))      /* PRQA S 3453 */ /* $Misra: #MACRO_T
 236:../src/smc_gen/r_drw2d_rx/src/tes/dave_intern.h **** #define D2_DRB(r)           ((d2_rbuffer *) (r))              /* PRQA S 3453 */ /* $Misra: #MACRO_T
 237:../src/smc_gen/r_drw2d_rx/src/tes/dave_intern.h **** 
 238:../src/smc_gen/r_drw2d_rx/src/tes/dave_intern.h **** static D2_INLINE d2_s32 d2_seterr(d2_device *handle, d2_s32 err); /* to satisfy MISRA rule 3450 */
 239:../src/smc_gen/r_drw2d_rx/src/tes/dave_intern.h **** static D2_INLINE d2_s32 d2_seterr(d2_device *handle, d2_s32 err) /* PRQA S 3219, 3480 */ /* $Misra:
 2522                             		.loc 3 239 25 view .LVU1000
 2523                             	.LBB72:
 240:../src/smc_gen/r_drw2d_rx/src/tes/dave_intern.h **** {
 241:../src/smc_gen/r_drw2d_rx/src/tes/dave_intern.h ****    D2_DEV(handle)->errorcode = (d2_s8)(err);
 2524                             		.loc 3 241 4 view .LVU1001
 2525                             		.loc 3 241 30 is_stmt 0 view .LVU1002
 2526 002d FA 74 C6 01 00          		mov.B	#0, 454[r7]
 242:../src/smc_gen/r_drw2d_rx/src/tes/dave_intern.h **** 
 243:../src/smc_gen/r_drw2d_rx/src/tes/dave_intern.h ****    return err;
 2527                             		.loc 3 243 4 is_stmt 1 view .LVU1003
 2528                             	.LVL306:
 2529                             		.loc 3 243 4 is_stmt 0 view .LVU1004
 2530                             	.LBE72:
 2531                             	.LBE71:
 834:../src/smc_gen/r_drw2d_rx/src/tes/dave_dlist.c **** 
 2532                             		.loc 1 834 1 view .LVU1005
 2533 0032 66 01                   		mov.L	#0, r1
 2534 0034 3F 7A 04                		rtsd	#16, r7-r10
 2535                             	.LVL307:
 2536                             	.L167:
 2537                             	.LBB73:
 2538                             	.LBB70:
 212:../src/smc_gen/r_drw2d_rx/src/tes/dave_dlist.h ****          dlist->position = (d2_dlist_entry *) ((d2_s32*)pos + 1);
 2539                             		.loc 2 212 10 is_stmt 1 view .LVU1006
 212:../src/smc_gen/r_drw2d_rx/src/tes/dave_dlist.h ****          dlist->position = (d2_dlist_entry *) ((d2_s32*)pos + 1);
 2540                             		.loc 2 212 28 is_stmt 0 view .LVU1007
 2541 0037 FB AA FF 04             		mov.L	#0x4ff, r10
 2542 003b FD 22 4A                		mov.L	r10, [r4+]
 2543                             	.LVL308:
 213:../src/smc_gen/r_drw2d_rx/src/tes/dave_dlist.h ****          break;
 2544                             		.loc 2 213 10 is_stmt 1 view .LVU1008
 213:../src/smc_gen/r_drw2d_rx/src/tes/dave_dlist.h ****          break;
 2545                             		.loc 2 213 26 is_stmt 0 view .LVU1009
 2546 003e A1 14                   		mov.L	r4, 16[r1]
 214:../src/smc_gen/r_drw2d_rx/src/tes/dave_dlist.h **** 
 2547                             		.loc 2 214 10 is_stmt 1 view .LVU1010
 2548 0040 2E E0                   		bra	.L170
 2549                             	.LVL309:
 2550                             	.L166:
 218:../src/smc_gen/r_drw2d_rx/src/tes/dave_dlist.h ****          pos->address.mask |= 0x80808000u;
 2551                             		.loc 2 218 10 view .LVU1011
 218:../src/smc_gen/r_drw2d_rx/src/tes/dave_dlist.h ****          pos->address.mask |= 0x80808000u;
 2552                             		.loc 2 218 28 is_stmt 0 view .LVU1012
 2553 0042 58 43                   		movu.B	[r4], r3
 219:../src/smc_gen/r_drw2d_rx/src/tes/dave_dlist.h ****          pos->value[tagIndex] = (d2_s32) (0xffu | (argument << 8));
 2554                             		.loc 2 219 10 is_stmt 1 view .LVU1013
 219:../src/smc_gen/r_drw2d_rx/src/tes/dave_dlist.h ****          pos->value[tagIndex] = (d2_s32) (0xffu | (argument << 8));
 2555                             		.loc 2 219 28 is_stmt 0 view .LVU1014
 2556 0044 74 33 00 80 80 80       		or	#-2139062272, r3
 2557 004a E3 43                   		mov.L	r3, [r4]
 220:../src/smc_gen/r_drw2d_rx/src/tes/dave_dlist.h ****          dlist->position = (d2_dlist_entry *) ((d2_s32*)pos + 3);
 2558                             		.loc 2 220 10 is_stmt 1 view .LVU1015
 220:../src/smc_gen/r_drw2d_rx/src/tes/dave_dlist.h ****          dlist->position = (d2_dlist_entry *) ((d2_s32*)pos + 3);
 2559                             		.loc 2 220 31 is_stmt 0 view .LVU1016
 2560 004c 62 15                   		add	#1, r5
 2561                             	.LVL310:
 220:../src/smc_gen/r_drw2d_rx/src/tes/dave_dlist.h ****          dlist->position = (d2_dlist_entry *) ((d2_s32*)pos + 3);
 2562                             		.loc 2 220 31 view .LVU1017
 2563 004e FB AA FF 04             		mov.L	#0x4ff, r10
 2564 0052 FE 25 4A                		mov.L	r10, [r5,r4]
 221:../src/smc_gen/r_drw2d_rx/src/tes/dave_dlist.h ****          break;
 2565                             		.loc 2 221 10 is_stmt 1 view .LVU1018
 221:../src/smc_gen/r_drw2d_rx/src/tes/dave_dlist.h ****          break;
 2566                             		.loc 2 221 28 is_stmt 0 view .LVU1019
 2567 0055 62 C4                   		add	#12, r4
 2568                             	.LVL311:
 221:../src/smc_gen/r_drw2d_rx/src/tes/dave_dlist.h ****          break;
 2569                             		.loc 2 221 26 view .LVU1020
 2570 0057 A1 14                   		mov.L	r4, 16[r1]
 222:../src/smc_gen/r_drw2d_rx/src/tes/dave_dlist.h **** 
 2571                             		.loc 2 222 10 is_stmt 1 view .LVU1021
 2572 0059 2E C7                   		bra	.L170
 2573                             	.LVL312:
 2574                             	.L168:
 226:../src/smc_gen/r_drw2d_rx/src/tes/dave_dlist.h ****          pos->address.mask |= 0x80800000u;
 2575                             		.loc 2 226 10 view .LVU1022
 226:../src/smc_gen/r_drw2d_rx/src/tes/dave_dlist.h ****          pos->address.mask |= 0x80800000u;
 2576                             		.loc 2 226 28 is_stmt 0 view .LVU1023
 2577 005b 5C 43                   		movu.W	[r4], r3
 227:../src/smc_gen/r_drw2d_rx/src/tes/dave_dlist.h ****          pos->value[tagIndex] = (d2_s32) (0xffu | (argument << 8));
 2578                             		.loc 2 227 10 is_stmt 1 view .LVU1024
 227:../src/smc_gen/r_drw2d_rx/src/tes/dave_dlist.h ****          pos->value[tagIndex] = (d2_s32) (0xffu | (argument << 8));
 2579                             		.loc 2 227 28 is_stmt 0 view .LVU1025
 2580 005d 74 33 00 00 80 80       		or	#-2139095040, r3
 2581 0063 E3 43                   		mov.L	r3, [r4]
 228:../src/smc_gen/r_drw2d_rx/src/tes/dave_dlist.h ****          dlist->position = (d2_dlist_entry *) ((d2_s32*)pos + 4);
 2582                             		.loc 2 228 10 is_stmt 1 view .LVU1026
 228:../src/smc_gen/r_drw2d_rx/src/tes/dave_dlist.h ****          dlist->position = (d2_dlist_entry *) ((d2_s32*)pos + 4);
 2583                             		.loc 2 228 31 is_stmt 0 view .LVU1027
 2584 0065 62 15                   		add	#1, r5
 2585                             	.LVL313:
 228:../src/smc_gen/r_drw2d_rx/src/tes/dave_dlist.h ****          dlist->position = (d2_dlist_entry *) ((d2_s32*)pos + 4);
 2586                             		.loc 2 228 31 view .LVU1028
 2587 0067 FB AA FF 04             		mov.L	#0x4ff, r10
 2588 006b FE 25 4A                		mov.L	r10, [r5,r4]
 229:../src/smc_gen/r_drw2d_rx/src/tes/dave_dlist.h ****          break;
 2589                             		.loc 2 229 10 is_stmt 1 view .LVU1029
 229:../src/smc_gen/r_drw2d_rx/src/tes/dave_dlist.h ****          break;
 2590                             		.loc 2 229 28 is_stmt 0 view .LVU1030
 2591 006e 71 44 10                		add	#16, r4
 2592                             	.LVL314:
 229:../src/smc_gen/r_drw2d_rx/src/tes/dave_dlist.h ****          break;
 2593                             		.loc 2 229 26 view .LVU1031
 2594 0071 A1 14                   		mov.L	r4, 16[r1]
 230:../src/smc_gen/r_drw2d_rx/src/tes/dave_dlist.h **** 
 2595                             		.loc 2 230 10 is_stmt 1 view .LVU1032
 2596 0073 2E AD                   		bra	.L170
 2597                             	.LVL315:
 2598                             	.L169:
 234:../src/smc_gen/r_drw2d_rx/src/tes/dave_dlist.h ****          pos->address.mask |= 0x80000000u;
 2599                             		.loc 2 234 10 view .LVU1033
 234:../src/smc_gen/r_drw2d_rx/src/tes/dave_dlist.h ****          pos->address.mask |= 0x80000000u;
 2600                             		.loc 2 234 28 is_stmt 0 view .LVU1034
 2601 0075 EC 43                   		mov.L	[r4], r3
 2602 0077 74 23 FF FF FF 00       		and #0xffffff, r3
 235:../src/smc_gen/r_drw2d_rx/src/tes/dave_dlist.h ****          pos->value[tagIndex] = (d2_s32) (0xffu | (argument << 8));
 2603                             		.loc 2 235 10 is_stmt 1 view .LVU1035
 235:../src/smc_gen/r_drw2d_rx/src/tes/dave_dlist.h ****          pos->value[tagIndex] = (d2_s32) (0xffu | (argument << 8));
 2604                             		.loc 2 235 28 is_stmt 0 view .LVU1036
 2605 007d 74 33 00 00 00 80       		or	#-2147483648, r3
 2606 0083 E3 43                   		mov.L	r3, [r4]
 236:../src/smc_gen/r_drw2d_rx/src/tes/dave_dlist.h ****          dlist->position++;
 2607                             		.loc 2 236 10 is_stmt 1 view .LVU1037
 236:../src/smc_gen/r_drw2d_rx/src/tes/dave_dlist.h ****          dlist->position++;
 2608                             		.loc 2 236 31 is_stmt 0 view .LVU1038
 2609 0085 62 15                   		add	#1, r5
 2610                             	.LVL316:
 236:../src/smc_gen/r_drw2d_rx/src/tes/dave_dlist.h ****          dlist->position++;
 2611                             		.loc 2 236 31 view .LVU1039
 2612 0087 FB AA FF 04             		mov.L	#0x4ff, r10
 2613 008b FE 25 4A                		mov.L	r10, [r5,r4]
 237:../src/smc_gen/r_drw2d_rx/src/tes/dave_dlist.h ****          break;
 2614                             		.loc 2 237 10 is_stmt 1 view .LVU1040
 237:../src/smc_gen/r_drw2d_rx/src/tes/dave_dlist.h ****          break;
 2615                             		.loc 2 237 15 is_stmt 0 view .LVU1041
 2616 008e A9 15                   		mov.L	16[r1], r5
 2617                             	.LVL317:
 237:../src/smc_gen/r_drw2d_rx/src/tes/dave_dlist.h ****          break;
 2618                             		.loc 2 237 25 view .LVU1042
 2619 0090 71 55 14                		add	#20, r5
 2620 0093 A1 15                   		mov.L	r5, 16[r1]
 238:../src/smc_gen/r_drw2d_rx/src/tes/dave_dlist.h **** 
 2621                             		.loc 2 238 10 is_stmt 1 view .LVU1043
 2622 0095 2E 8B                   		bra	.L170
 2623                             	.LVL318:
 2624                             	.L173:
 252:../src/smc_gen/r_drw2d_rx/src/tes/dave_dlist.h ****       {
 253:../src/smc_gen/r_drw2d_rx/src/tes/dave_dlist.h ****          d2_nextdlistblock_intern(dlist);
 2625                             		.loc 2 253 10 view .LVU1044
 2626 0097 05 00 00 00             		bsr	_d2_nextdlistblock_intern
 2627                             	.LVL319:
 2628                             		.loc 2 253 10 is_stmt 0 view .LVU1045
 2629 009b 2E 92                   		bra	.L171
 2630                             	.LBE70:
 2631                             	.LBE73:
 2632                             	.LFE16:
 2634 009d FC 13 00                		.section	.text.d2_insertwaitfulldlist_intern,"ax",@progbits
 2635                             		.global	_d2_insertwaitfulldlist_intern
 2637                             	_d2_insertwaitfulldlist_intern:
 2638                             	.LVL320:
 2639                             	.LFB17:
 839:../src/smc_gen/r_drw2d_rx/src/tes/dave_dlist.c ****    D2_VALIDATE( handle, D2_INVALIDDEVICE); /* PRQA S 4130, 3112 */ /* $Misra: #DEBUG_MACRO $*/
 2640                             		.loc 1 839 1 is_stmt 1 view -0
 839:../src/smc_gen/r_drw2d_rx/src/tes/dave_dlist.c ****    D2_VALIDATE( handle, D2_INVALIDDEVICE); /* PRQA S 4130, 3112 */ /* $Misra: #DEBUG_MACRO $*/
 2641                             		.loc 1 839 1 is_stmt 0 view .LVU1047
 2642 0000 6E 7A                   		pushm	r7-r10
 2643                             	.LCFI11:
 2644 0002 EF 17                   		mov.L	r1, r7
 840:../src/smc_gen/r_drw2d_rx/src/tes/dave_dlist.c **** 
 2645                             		.loc 1 840 4 is_stmt 1 view .LVU1048
 843:../src/smc_gen/r_drw2d_rx/src/tes/dave_dlist.c ****    /* insert 0x02 wait into dlist to wait for pipeline flush and cache write complete */
 2646                             		.loc 1 843 4 view .LVU1049
 2647 0004 05 00 00 00             		bsr	_d2_scratch2dlist_intern
 2648                             	.LVL321:
 845:../src/smc_gen/r_drw2d_rx/src/tes/dave_dlist.c **** 
 2649                             		.loc 1 845 4 view .LVU1050
 845:../src/smc_gen/r_drw2d_rx/src/tes/dave_dlist.c **** 
 2650                             		.loc 1 845 49 is_stmt 0 view .LVU1051
 2651 0008 A8 F9                   		mov.L	12[r7], r1
 2652                             	.LVL322:
 2653                             	.LBB78:
 2654                             	.LBI78:
 203:../src/smc_gen/r_drw2d_rx/src/tes/dave_dlist.h **** {
 2655                             		.loc 2 203 23 is_stmt 1 view .LVU1052
 2656                             	.LBB79:
 205:../src/smc_gen/r_drw2d_rx/src/tes/dave_dlist.h ****    d2_dlist_entry *pos = dlist->position;
 2657                             		.loc 2 205 4 view .LVU1053
 205:../src/smc_gen/r_drw2d_rx/src/tes/dave_dlist.h ****    d2_dlist_entry *pos = dlist->position;
 2658                             		.loc 2 205 11 is_stmt 0 view .LVU1054
 2659 000a A9 95                   		mov.L	24[r1], r5
 2660                             	.LVL323:
 206:../src/smc_gen/r_drw2d_rx/src/tes/dave_dlist.h **** 
 2661                             		.loc 2 206 4 is_stmt 1 view .LVU1055
 206:../src/smc_gen/r_drw2d_rx/src/tes/dave_dlist.h **** 
 2662                             		.loc 2 206 20 is_stmt 0 view .LVU1056
 2663 000c A9 14                   		mov.L	16[r1], r4
 2664                             	.LVL324:
 208:../src/smc_gen/r_drw2d_rx/src/tes/dave_dlist.h ****    {
 2665                             		.loc 2 208 4 is_stmt 1 view .LVU1057
 2666 000e 61 15                   		cmp	#1, r5
 2667 0010 20 32                   		beq	.L175
 2668 0012 61 05                   		cmp	#0, r5
 2669 0014 20 23                   		beq	.L176
 2670 0016 61 25                   		cmp	#2, r5
 2671 0018 20 43                   		beq	.L177
 2672 001a 61 35                   		cmp	#3, r5
 2673 001c 20 59                   		beq	.L178
 2674                             	.LVL325:
 2675 001e EF 00                   		.balign 8,3,4
 2676                             	.L179:
 245:../src/smc_gen/r_drw2d_rx/src/tes/dave_dlist.h ****    dlist->blocksize--;
 2677                             		.loc 2 245 4 view .LVU1058
 245:../src/smc_gen/r_drw2d_rx/src/tes/dave_dlist.h ****    dlist->blocksize--;
 2678                             		.loc 2 245 20 is_stmt 0 view .LVU1059
 2679 0020 3E 16 00                		mov.L	#0, 24[r1]
 246:../src/smc_gen/r_drw2d_rx/src/tes/dave_dlist.h **** 
 2680                             		.loc 2 246 4 is_stmt 1 view .LVU1060
 246:../src/smc_gen/r_drw2d_rx/src/tes/dave_dlist.h **** 
 2681                             		.loc 2 246 9 is_stmt 0 view .LVU1061
 2682 0023 A9 9D                   		mov.L	28[r1], r5
 246:../src/smc_gen/r_drw2d_rx/src/tes/dave_dlist.h **** 
 2683                             		.loc 2 246 20 view .LVU1062
 2684 0025 60 15                   		sub	#1, r5
 2685 0027 A1 9D                   		mov.L	r5, 28[r1]
 249:../src/smc_gen/r_drw2d_rx/src/tes/dave_dlist.h ****    {
 2686                             		.loc 2 249 4 is_stmt 1 view .LVU1063
 251:../src/smc_gen/r_drw2d_rx/src/tes/dave_dlist.h ****       {
 2687                             		.loc 2 251 7 view .LVU1064
 251:../src/smc_gen/r_drw2d_rx/src/tes/dave_dlist.h ****       {
 2688                             		.loc 2 251 9 is_stmt 0 view .LVU1065
 2689 0029 61 15                   		cmp	#1, r5
 2690 002b 25 6C                   		bleu	.L182
 2691                             	.LVL326:
 2692                             	.L180:
 251:../src/smc_gen/r_drw2d_rx/src/tes/dave_dlist.h ****       {
 2693                             		.loc 2 251 9 view .LVU1066
 2694                             	.LBE79:
 2695                             	.LBE78:
 847:../src/smc_gen/r_drw2d_rx/src/tes/dave_dlist.c **** }
 2696                             		.loc 1 847 4 is_stmt 1 view .LVU1067
 2697                             	.LBB81:
 2698                             	.LBI81:
 239:../src/smc_gen/r_drw2d_rx/src/tes/dave_intern.h **** {
 2699                             		.loc 3 239 25 view .LVU1068
 2700                             	.LBB82:
 241:../src/smc_gen/r_drw2d_rx/src/tes/dave_intern.h **** 
 2701                             		.loc 3 241 4 view .LVU1069
 241:../src/smc_gen/r_drw2d_rx/src/tes/dave_intern.h **** 
 2702                             		.loc 3 241 30 is_stmt 0 view .LVU1070
 2703 002d FA 74 C6 01 00          		mov.B	#0, 454[r7]
 2704                             		.loc 3 243 4 is_stmt 1 view .LVU1071
 2705                             	.LVL327:
 2706                             		.loc 3 243 4 is_stmt 0 view .LVU1072
 2707                             	.LBE82:
 2708                             	.LBE81:
 848:../src/smc_gen/r_drw2d_rx/src/tes/dave_dlist.c **** 
 2709                             		.loc 1 848 1 view .LVU1073
 2710 0032 66 01                   		mov.L	#0, r1
 2711 0034 3F 7A 04                		rtsd	#16, r7-r10
 2712                             	.LVL328:
 2713                             	.L176:
 2714                             	.LBB83:
 2715                             	.LBB80:
 212:../src/smc_gen/r_drw2d_rx/src/tes/dave_dlist.h ****          dlist->position = (d2_dlist_entry *) ((d2_s32*)pos + 1);
 2716                             		.loc 2 212 10 is_stmt 1 view .LVU1074
 212:../src/smc_gen/r_drw2d_rx/src/tes/dave_dlist.h ****          dlist->position = (d2_dlist_entry *) ((d2_s32*)pos + 1);
 2717                             		.loc 2 212 28 is_stmt 0 view .LVU1075
 2718 0037 FB AA FF 02             		mov.L	#0x2ff, r10
 2719 003b FD 22 4A                		mov.L	r10, [r4+]
 2720                             	.LVL329:
 213:../src/smc_gen/r_drw2d_rx/src/tes/dave_dlist.h ****          break;
 2721                             		.loc 2 213 10 is_stmt 1 view .LVU1076
 213:../src/smc_gen/r_drw2d_rx/src/tes/dave_dlist.h ****          break;
 2722                             		.loc 2 213 26 is_stmt 0 view .LVU1077
 2723 003e A1 14                   		mov.L	r4, 16[r1]
 214:../src/smc_gen/r_drw2d_rx/src/tes/dave_dlist.h **** 
 2724                             		.loc 2 214 10 is_stmt 1 view .LVU1078
 2725 0040 2E E0                   		bra	.L179
 2726                             	.LVL330:
 2727                             	.L175:
 218:../src/smc_gen/r_drw2d_rx/src/tes/dave_dlist.h ****          pos->address.mask |= 0x80808000u;
 2728                             		.loc 2 218 10 view .LVU1079
 218:../src/smc_gen/r_drw2d_rx/src/tes/dave_dlist.h ****          pos->address.mask |= 0x80808000u;
 2729                             		.loc 2 218 28 is_stmt 0 view .LVU1080
 2730 0042 58 43                   		movu.B	[r4], r3
 219:../src/smc_gen/r_drw2d_rx/src/tes/dave_dlist.h ****          pos->value[tagIndex] = (d2_s32) (0xffu | (argument << 8));
 2731                             		.loc 2 219 10 is_stmt 1 view .LVU1081
 219:../src/smc_gen/r_drw2d_rx/src/tes/dave_dlist.h ****          pos->value[tagIndex] = (d2_s32) (0xffu | (argument << 8));
 2732                             		.loc 2 219 28 is_stmt 0 view .LVU1082
 2733 0044 74 33 00 80 80 80       		or	#-2139062272, r3
 2734 004a E3 43                   		mov.L	r3, [r4]
 220:../src/smc_gen/r_drw2d_rx/src/tes/dave_dlist.h ****          dlist->position = (d2_dlist_entry *) ((d2_s32*)pos + 3);
 2735                             		.loc 2 220 10 is_stmt 1 view .LVU1083
 220:../src/smc_gen/r_drw2d_rx/src/tes/dave_dlist.h ****          dlist->position = (d2_dlist_entry *) ((d2_s32*)pos + 3);
 2736                             		.loc 2 220 31 is_stmt 0 view .LVU1084
 2737 004c 62 15                   		add	#1, r5
 2738                             	.LVL331:
 220:../src/smc_gen/r_drw2d_rx/src/tes/dave_dlist.h ****          dlist->position = (d2_dlist_entry *) ((d2_s32*)pos + 3);
 2739                             		.loc 2 220 31 view .LVU1085
 2740 004e FB AA FF 02             		mov.L	#0x2ff, r10
 2741 0052 FE 25 4A                		mov.L	r10, [r5,r4]
 221:../src/smc_gen/r_drw2d_rx/src/tes/dave_dlist.h ****          break;
 2742                             		.loc 2 221 10 is_stmt 1 view .LVU1086
 221:../src/smc_gen/r_drw2d_rx/src/tes/dave_dlist.h ****          break;
 2743                             		.loc 2 221 28 is_stmt 0 view .LVU1087
 2744 0055 62 C4                   		add	#12, r4
 2745                             	.LVL332:
 221:../src/smc_gen/r_drw2d_rx/src/tes/dave_dlist.h ****          break;
 2746                             		.loc 2 221 26 view .LVU1088
 2747 0057 A1 14                   		mov.L	r4, 16[r1]
 222:../src/smc_gen/r_drw2d_rx/src/tes/dave_dlist.h **** 
 2748                             		.loc 2 222 10 is_stmt 1 view .LVU1089
 2749 0059 2E C7                   		bra	.L179
 2750                             	.LVL333:
 2751                             	.L177:
 226:../src/smc_gen/r_drw2d_rx/src/tes/dave_dlist.h ****          pos->address.mask |= 0x80800000u;
 2752                             		.loc 2 226 10 view .LVU1090
 226:../src/smc_gen/r_drw2d_rx/src/tes/dave_dlist.h ****          pos->address.mask |= 0x80800000u;
 2753                             		.loc 2 226 28 is_stmt 0 view .LVU1091
 2754 005b 5C 43                   		movu.W	[r4], r3
 227:../src/smc_gen/r_drw2d_rx/src/tes/dave_dlist.h ****          pos->value[tagIndex] = (d2_s32) (0xffu | (argument << 8));
 2755                             		.loc 2 227 10 is_stmt 1 view .LVU1092
 227:../src/smc_gen/r_drw2d_rx/src/tes/dave_dlist.h ****          pos->value[tagIndex] = (d2_s32) (0xffu | (argument << 8));
 2756                             		.loc 2 227 28 is_stmt 0 view .LVU1093
 2757 005d 74 33 00 00 80 80       		or	#-2139095040, r3
 2758 0063 E3 43                   		mov.L	r3, [r4]
 228:../src/smc_gen/r_drw2d_rx/src/tes/dave_dlist.h ****          dlist->position = (d2_dlist_entry *) ((d2_s32*)pos + 4);
 2759                             		.loc 2 228 10 is_stmt 1 view .LVU1094
 228:../src/smc_gen/r_drw2d_rx/src/tes/dave_dlist.h ****          dlist->position = (d2_dlist_entry *) ((d2_s32*)pos + 4);
 2760                             		.loc 2 228 31 is_stmt 0 view .LVU1095
 2761 0065 62 15                   		add	#1, r5
 2762                             	.LVL334:
 228:../src/smc_gen/r_drw2d_rx/src/tes/dave_dlist.h ****          dlist->position = (d2_dlist_entry *) ((d2_s32*)pos + 4);
 2763                             		.loc 2 228 31 view .LVU1096
 2764 0067 FB AA FF 02             		mov.L	#0x2ff, r10
 2765 006b FE 25 4A                		mov.L	r10, [r5,r4]
 229:../src/smc_gen/r_drw2d_rx/src/tes/dave_dlist.h ****          break;
 2766                             		.loc 2 229 10 is_stmt 1 view .LVU1097
 229:../src/smc_gen/r_drw2d_rx/src/tes/dave_dlist.h ****          break;
 2767                             		.loc 2 229 28 is_stmt 0 view .LVU1098
 2768 006e 71 44 10                		add	#16, r4
 2769                             	.LVL335:
 229:../src/smc_gen/r_drw2d_rx/src/tes/dave_dlist.h ****          break;
 2770                             		.loc 2 229 26 view .LVU1099
 2771 0071 A1 14                   		mov.L	r4, 16[r1]
 230:../src/smc_gen/r_drw2d_rx/src/tes/dave_dlist.h **** 
 2772                             		.loc 2 230 10 is_stmt 1 view .LVU1100
 2773 0073 2E AD                   		bra	.L179
 2774                             	.LVL336:
 2775                             	.L178:
 234:../src/smc_gen/r_drw2d_rx/src/tes/dave_dlist.h ****          pos->address.mask |= 0x80000000u;
 2776                             		.loc 2 234 10 view .LVU1101
 234:../src/smc_gen/r_drw2d_rx/src/tes/dave_dlist.h ****          pos->address.mask |= 0x80000000u;
 2777                             		.loc 2 234 28 is_stmt 0 view .LVU1102
 2778 0075 EC 43                   		mov.L	[r4], r3
 2779 0077 74 23 FF FF FF 00       		and #0xffffff, r3
 235:../src/smc_gen/r_drw2d_rx/src/tes/dave_dlist.h ****          pos->value[tagIndex] = (d2_s32) (0xffu | (argument << 8));
 2780                             		.loc 2 235 10 is_stmt 1 view .LVU1103
 235:../src/smc_gen/r_drw2d_rx/src/tes/dave_dlist.h ****          pos->value[tagIndex] = (d2_s32) (0xffu | (argument << 8));
 2781                             		.loc 2 235 28 is_stmt 0 view .LVU1104
 2782 007d 74 33 00 00 00 80       		or	#-2147483648, r3
 2783 0083 E3 43                   		mov.L	r3, [r4]
 236:../src/smc_gen/r_drw2d_rx/src/tes/dave_dlist.h ****          dlist->position++;
 2784                             		.loc 2 236 10 is_stmt 1 view .LVU1105
 236:../src/smc_gen/r_drw2d_rx/src/tes/dave_dlist.h ****          dlist->position++;
 2785                             		.loc 2 236 31 is_stmt 0 view .LVU1106
 2786 0085 62 15                   		add	#1, r5
 2787                             	.LVL337:
 236:../src/smc_gen/r_drw2d_rx/src/tes/dave_dlist.h ****          dlist->position++;
 2788                             		.loc 2 236 31 view .LVU1107
 2789 0087 FB AA FF 02             		mov.L	#0x2ff, r10
 2790 008b FE 25 4A                		mov.L	r10, [r5,r4]
 237:../src/smc_gen/r_drw2d_rx/src/tes/dave_dlist.h ****          break;
 2791                             		.loc 2 237 10 is_stmt 1 view .LVU1108
 237:../src/smc_gen/r_drw2d_rx/src/tes/dave_dlist.h ****          break;
 2792                             		.loc 2 237 15 is_stmt 0 view .LVU1109
 2793 008e A9 15                   		mov.L	16[r1], r5
 2794                             	.LVL338:
 237:../src/smc_gen/r_drw2d_rx/src/tes/dave_dlist.h ****          break;
 2795                             		.loc 2 237 25 view .LVU1110
 2796 0090 71 55 14                		add	#20, r5
 2797 0093 A1 15                   		mov.L	r5, 16[r1]
 238:../src/smc_gen/r_drw2d_rx/src/tes/dave_dlist.h **** 
 2798                             		.loc 2 238 10 is_stmt 1 view .LVU1111
 2799 0095 2E 8B                   		bra	.L179
 2800                             	.LVL339:
 2801                             	.L182:
 2802                             		.loc 2 253 10 view .LVU1112
 2803 0097 05 00 00 00             		bsr	_d2_nextdlistblock_intern
 2804                             	.LVL340:
 2805                             		.loc 2 253 10 is_stmt 0 view .LVU1113
 2806 009b 2E 92                   		bra	.L180
 2807                             	.LBE80:
 2808                             	.LBE83:
 2809                             	.LFE17:
 2811 009d FC 13 00                		.section	.text.d2_copydlist_vidmem_intern,"ax",@progbits
 2812                             		.global	_d2_copydlist_vidmem_intern
 2814                             	_d2_copydlist_vidmem_intern:
 2815                             	.LVL341:
 2816                             	.LFB20:
1161:../src/smc_gen/r_drw2d_rx/src/tes/dave_dlist.c **** 
1162:../src/smc_gen/r_drw2d_rx/src/tes/dave_dlist.c **** /*--------------------------------------------------------------------------
1163:../src/smc_gen/r_drw2d_rx/src/tes/dave_dlist.c ****  * Copy a display list to video memory. */
1164:../src/smc_gen/r_drw2d_rx/src/tes/dave_dlist.c **** void d2_copydlist_vidmem_intern( const d2_dlist *dlist )
1165:../src/smc_gen/r_drw2d_rx/src/tes/dave_dlist.c **** {
 2817                             		.loc 1 1165 1 is_stmt 1 view -0
 2818                             		.loc 1 1165 1 is_stmt 0 view .LVU1115
 2819 0000 6E 6B                   		pushm	r6-r11
 2820                             	.LCFI12:
 2821 0002 60 40                   		sub	#4, r0
 2822                             	.LCFI13:
 2823 0004 EF 1B                   		mov.L	r1, r11
1166:../src/smc_gen/r_drw2d_rx/src/tes/dave_dlist.c ****    d1_device *id = D2_DEV(dlist->device)->hwid;
 2824                             		.loc 1 1166 4 is_stmt 1 view .LVU1116
 2825                             		.loc 1 1166 20 is_stmt 0 view .LVU1117
 2826 0006 EC 15                   		mov.L	[r1], r5
 2827                             		.loc 1 1166 15 view .LVU1118
 2828 0008 ED 5A 06                		mov.L	24[r5], r10
 2829                             	.LVL342:
1167:../src/smc_gen/r_drw2d_rx/src/tes/dave_dlist.c ****    d2_dlist_block *blk  = dlist->resumeblock;
 2830                             		.loc 1 1167 4 is_stmt 1 view .LVU1119
 2831                             		.loc 1 1167 20 is_stmt 0 view .LVU1120
 2832 000b A8 9F                   		mov.L	12[r1], r7
 2833                             	.LVL343:
1168:../src/smc_gen/r_drw2d_rx/src/tes/dave_dlist.c ****    d2_dlist_block *last = dlist->currentblock;
 2834                             		.loc 1 1168 4 is_stmt 1 view .LVU1121
 2835                             		.loc 1 1168 20 is_stmt 0 view .LVU1122
 2836 000d A8 96                   		mov.L	8[r1], r6
 2837                             	.LVL344:
1169:../src/smc_gen/r_drw2d_rx/src/tes/dave_dlist.c **** 
1170:../src/smc_gen/r_drw2d_rx/src/tes/dave_dlist.c ****    if(0 != (D2_DEV(dlist->device)->flags & d2_df_no_dlist))
 2838                             		.loc 1 1170 4 is_stmt 1 view .LVU1123
 2839                             		.loc 1 1170 34 is_stmt 0 view .LVU1124
 2840 000f AE D5                   		mov.L	104[r5], r5
 2841                             		.loc 1 1170 6 view .LVU1125
 2842 0011 FD 74 C5 01             		tst	#1, r5
 2843 0015 20 18                   		beq	.L185
 2844 0017 2E 42                   		bra	.L183
 2845                             	.LVL345:
 2846                             	.L186:
1171:../src/smc_gen/r_drw2d_rx/src/tes/dave_dlist.c ****    {
1172:../src/smc_gen/r_drw2d_rx/src/tes/dave_dlist.c ****       return;
1173:../src/smc_gen/r_drw2d_rx/src/tes/dave_dlist.c ****    }
1174:../src/smc_gen/r_drw2d_rx/src/tes/dave_dlist.c **** 
1175:../src/smc_gen/r_drw2d_rx/src/tes/dave_dlist.c ****    /* copy all but the last block */
1176:../src/smc_gen/r_drw2d_rx/src/tes/dave_dlist.c ****    while(blk != last)
1177:../src/smc_gen/r_drw2d_rx/src/tes/dave_dlist.c ****    {
1178:../src/smc_gen/r_drw2d_rx/src/tes/dave_dlist.c ****       /* replace jump address with new address inside vidmem */
1179:../src/smc_gen/r_drw2d_rx/src/tes/dave_dlist.c ****       if((NULL != blk->next) && (NULL != blk->jump))
1180:../src/smc_gen/r_drw2d_rx/src/tes/dave_dlist.c ****       {
1181:../src/smc_gen/r_drw2d_rx/src/tes/dave_dlist.c ****          /* replace jump address */
1182:../src/smc_gen/r_drw2d_rx/src/tes/dave_dlist.c ****          *(blk->jump) = (d2_s32)(blk->next->vidmem);
1183:../src/smc_gen/r_drw2d_rx/src/tes/dave_dlist.c ****       }
1184:../src/smc_gen/r_drw2d_rx/src/tes/dave_dlist.c **** 
1185:../src/smc_gen/r_drw2d_rx/src/tes/dave_dlist.c ****       /* write block to video memory */
1186:../src/smc_gen/r_drw2d_rx/src/tes/dave_dlist.c ****       (void)d1_copytovidmem( id, blk->vidmem, blk->block, sizeof(d2_dlist_entry) * blk->quantity, 0
 2847                             		.loc 1 1186 7 is_stmt 1 view .LVU1126
 2848                             		.loc 1 1186 50 is_stmt 0 view .LVU1127
 2849 0019 A8 7B                   		mov.L	4[r7], r3
 2850                             		.loc 1 1186 87 view .LVU1128
 2851 001b A8 F4                   		mov.L	8[r7], r4
 2852                             		.loc 1 1186 13 view .LVU1129
 2853 001d A9 72                   		mov.L	16[r7], r2
 2854 001f F8 06 00                		mov.L	#0, [r0]
 2855 0022 75 14 14                		mul	#20, r4
 2856 0025 EF A1                   		mov.L	r10, r1
 2857 0027 05 00 00 00             		bsr	_d1_copytovidmem
 2858                             	.LVL346:
1187:../src/smc_gen/r_drw2d_rx/src/tes/dave_dlist.c **** 
1188:../src/smc_gen/r_drw2d_rx/src/tes/dave_dlist.c ****       /* next block */
1189:../src/smc_gen/r_drw2d_rx/src/tes/dave_dlist.c ****       blk = blk->next;
 2859                             		.loc 1 1189 7 is_stmt 1 view .LVU1130
 2860                             		.loc 1 1189 11 is_stmt 0 view .LVU1131
 2861 002b EC 77                   		mov.L	[r7], r7
 2862                             	.LVL347:
 2863                             	.L185:
1176:../src/smc_gen/r_drw2d_rx/src/tes/dave_dlist.c ****    {
 2864                             		.loc 1 1176 9 view .LVU1132
 2865 002d 47 67                   		cmp	r6, r7
 2866 002f 20 13                   		beq	.L189
1179:../src/smc_gen/r_drw2d_rx/src/tes/dave_dlist.c ****       {
 2867                             		.loc 1 1179 7 is_stmt 1 view .LVU1133
1179:../src/smc_gen/r_drw2d_rx/src/tes/dave_dlist.c ****       {
 2868                             		.loc 1 1179 22 is_stmt 0 view .LVU1134
 2869 0031 EC 75                   		mov.L	[r7], r5
1179:../src/smc_gen/r_drw2d_rx/src/tes/dave_dlist.c ****       {
 2870                             		.loc 1 1179 9 view .LVU1135
 2871 0033 61 05                   		cmp	#0, r5
 2872 0035 20 E4                   		beq	.L186
1179:../src/smc_gen/r_drw2d_rx/src/tes/dave_dlist.c ****       {
 2873                             		.loc 1 1179 45 discriminator 1 view .LVU1136
 2874 0037 A8 FC                   		mov.L	12[r7], r4
1179:../src/smc_gen/r_drw2d_rx/src/tes/dave_dlist.c ****       {
 2875                             		.loc 1 1179 30 discriminator 1 view .LVU1137
 2876 0039 61 04                   		cmp	#0, r4
 2877 003b 20 DE                   		beq	.L186
1182:../src/smc_gen/r_drw2d_rx/src/tes/dave_dlist.c ****       }
 2878                             		.loc 1 1182 10 is_stmt 1 view .LVU1138
1182:../src/smc_gen/r_drw2d_rx/src/tes/dave_dlist.c ****       }
 2879                             		.loc 1 1182 23 is_stmt 0 view .LVU1139
 2880 003d E1 54 04                		mov.L	16[r5], [r4]
 2881 0040 2E D9                   		bra	.L186
 2882                             	.L189:
1190:../src/smc_gen/r_drw2d_rx/src/tes/dave_dlist.c ****    }
1191:../src/smc_gen/r_drw2d_rx/src/tes/dave_dlist.c **** 
1192:../src/smc_gen/r_drw2d_rx/src/tes/dave_dlist.c ****    /* copy last block (not whole block needs to be copied) */
1193:../src/smc_gen/r_drw2d_rx/src/tes/dave_dlist.c ****    (void)d1_copytovidmem( id, blk->vidmem, blk->block, sizeof(d2_dlist_entry) * (blk->quantity - dl
 2883                             		.loc 1 1193 4 is_stmt 1 view .LVU1140
 2884                             		.loc 1 1193 47 is_stmt 0 view .LVU1141
 2885 0042 A8 7B                   		mov.L	4[r7], r3
 2886                             		.loc 1 1193 85 view .LVU1142
 2887 0044 A8 F4                   		mov.L	8[r7], r4
 2888                             		.loc 1 1193 103 view .LVU1143
 2889 0046 ED B5 07                		mov.L	28[r11], r5
 2890                             		.loc 1 1193 96 view .LVU1144
 2891 0049 43 54                   		sub	r5, r4
 2892                             		.loc 1 1193 10 view .LVU1145
 2893 004b A9 72                   		mov.L	16[r7], r2
 2894 004d F8 06 00                		mov.L	#0, [r0]
 2895 0050 75 14 14                		mul	#20, r4
 2896 0053 EF A1                   		mov.L	r10, r1
 2897 0055 05 00 00 00             		bsr	_d1_copytovidmem
 2898                             	.LVL348:
 2899                             	.L183:
1194:../src/smc_gen/r_drw2d_rx/src/tes/dave_dlist.c **** }
 2900                             		.loc 1 1194 1 view .LVU1146
 2901 0059 3F 6B 07                		rtsd	#28, r6-r11
 2902                             		.loc 1 1194 1 view .LVU1147
 2903                             	.LFE20:
 2905                             		.section	.text.d2_cacheflushdlist_intern,"ax",@progbits
 2906                             		.global	_d2_cacheflushdlist_intern
 2908                             	_d2_cacheflushdlist_intern:
 2909                             	.LVL349:
 2910                             	.LFB21:
1195:../src/smc_gen/r_drw2d_rx/src/tes/dave_dlist.c **** 
1196:../src/smc_gen/r_drw2d_rx/src/tes/dave_dlist.c **** 
1197:../src/smc_gen/r_drw2d_rx/src/tes/dave_dlist.c **** /*--------------------------------------------------------------------------
1198:../src/smc_gen/r_drw2d_rx/src/tes/dave_dlist.c ****  * Flush a display list out of data cache. */
1199:../src/smc_gen/r_drw2d_rx/src/tes/dave_dlist.c **** void d2_cacheflushdlist_intern( const d2_dlist *dlist )
1200:../src/smc_gen/r_drw2d_rx/src/tes/dave_dlist.c **** {
 2911                             		.loc 1 1200 1 is_stmt 1 view -0
 2912                             		.loc 1 1200 1 is_stmt 0 view .LVU1149
 2913 0000 6E 6B                   		pushm	r6-r11
 2914                             	.LCFI14:
 2915 0002 EF 1B                   		mov.L	r1, r11
1201:../src/smc_gen/r_drw2d_rx/src/tes/dave_dlist.c ****    d1_device *id = D2_DEV(dlist->device)->hwid;
 2916                             		.loc 1 1201 4 is_stmt 1 view .LVU1150
 2917                             		.loc 1 1201 20 is_stmt 0 view .LVU1151
 2918 0004 EC 15                   		mov.L	[r1], r5
 2919                             		.loc 1 1201 15 view .LVU1152
 2920 0006 ED 5A 06                		mov.L	24[r5], r10
 2921                             	.LVL350:
1202:../src/smc_gen/r_drw2d_rx/src/tes/dave_dlist.c ****    d2_dlist_block *blk  = dlist->resumeblock;
 2922                             		.loc 1 1202 4 is_stmt 1 view .LVU1153
 2923                             		.loc 1 1202 20 is_stmt 0 view .LVU1154
 2924 0009 A8 9F                   		mov.L	12[r1], r7
 2925                             	.LVL351:
1203:../src/smc_gen/r_drw2d_rx/src/tes/dave_dlist.c ****    d2_dlist_block *last = dlist->currentblock;
 2926                             		.loc 1 1203 4 is_stmt 1 view .LVU1155
 2927                             		.loc 1 1203 20 is_stmt 0 view .LVU1156
 2928 000b A8 96                   		mov.L	8[r1], r6
 2929                             	.LVL352:
1204:../src/smc_gen/r_drw2d_rx/src/tes/dave_dlist.c **** 
1205:../src/smc_gen/r_drw2d_rx/src/tes/dave_dlist.c ****    if(0 != (D2_DEV(dlist->device)->flags & d2_df_no_dlist))
 2930                             		.loc 1 1205 4 is_stmt 1 view .LVU1157
 2931                             		.loc 1 1205 34 is_stmt 0 view .LVU1158
 2932 000d AE D5                   		mov.L	104[r5], r5
 2933                             		.loc 1 1205 6 view .LVU1159
 2934 000f FD 74 C5 01             		tst	#1, r5
 2935 0013 21 2D                   		bne	.L190
 2936                             	.LVL353:
 2937                             	.L192:
1206:../src/smc_gen/r_drw2d_rx/src/tes/dave_dlist.c ****    {
1207:../src/smc_gen/r_drw2d_rx/src/tes/dave_dlist.c ****       return;
1208:../src/smc_gen/r_drw2d_rx/src/tes/dave_dlist.c ****    }
1209:../src/smc_gen/r_drw2d_rx/src/tes/dave_dlist.c **** 
1210:../src/smc_gen/r_drw2d_rx/src/tes/dave_dlist.c ****    /* flush all but the first block */
1211:../src/smc_gen/r_drw2d_rx/src/tes/dave_dlist.c ****    while(blk != last)
 2938                             		.loc 1 1211 9 view .LVU1160
 2939 0015 47 67                   		cmp	r6, r7
 2940 0017 20 15                   		beq	.L195
1212:../src/smc_gen/r_drw2d_rx/src/tes/dave_dlist.c ****    {
1213:../src/smc_gen/r_drw2d_rx/src/tes/dave_dlist.c ****       /* replace jump address with new address inside vidmem */
1214:../src/smc_gen/r_drw2d_rx/src/tes/dave_dlist.c ****       (void)d1_cacheblockflush(id, d1_mem_dlist, blk->block, sizeof(d2_dlist_entry) * blk->quantity
 2941                             		.loc 1 1214 7 is_stmt 1 view .LVU1161
 2942                             		.loc 1 1214 90 is_stmt 0 view .LVU1162
 2943 0019 A8 F4                   		mov.L	8[r7], r4
 2944                             		.loc 1 1214 13 view .LVU1163
 2945 001b 75 14 14                		mul	#20, r4
 2946 001e A8 7B                   		mov.L	4[r7], r3
 2947 0020 66 42                   		mov.L	#4, r2
 2948 0022 EF A1                   		mov.L	r10, r1
 2949 0024 05 00 00 00             		bsr	_d1_cacheblockflush
 2950                             	.LVL354:
1215:../src/smc_gen/r_drw2d_rx/src/tes/dave_dlist.c ****       blk = blk->next;
 2951                             		.loc 1 1215 7 is_stmt 1 view .LVU1164
 2952                             		.loc 1 1215 11 is_stmt 0 view .LVU1165
 2953 0028 EC 77                   		mov.L	[r7], r7
 2954                             	.LVL355:
 2955                             		.loc 1 1215 11 view .LVU1166
 2956 002a 2E EB                   		bra	.L192
 2957                             	.L195:
1216:../src/smc_gen/r_drw2d_rx/src/tes/dave_dlist.c ****    }
1217:../src/smc_gen/r_drw2d_rx/src/tes/dave_dlist.c **** 
1218:../src/smc_gen/r_drw2d_rx/src/tes/dave_dlist.c ****    /* flush last block (not whole block needs to be flushed) */
1219:../src/smc_gen/r_drw2d_rx/src/tes/dave_dlist.c ****    (void)d1_cacheblockflush(id, d1_mem_dlist, blk->block, sizeof(d2_dlist_entry) * (blk->quantity -
 2958                             		.loc 1 1219 4 is_stmt 1 view .LVU1167
 2959                             		.loc 1 1219 88 is_stmt 0 view .LVU1168
 2960 002c A8 F4                   		mov.L	8[r7], r4
 2961                             		.loc 1 1219 106 view .LVU1169
 2962 002e ED B5 07                		mov.L	28[r11], r5
 2963                             		.loc 1 1219 99 view .LVU1170
 2964 0031 43 54                   		sub	r5, r4
 2965                             		.loc 1 1219 10 view .LVU1171
 2966 0033 75 14 14                		mul	#20, r4
 2967 0036 A8 7B                   		mov.L	4[r7], r3
 2968 0038 66 42                   		mov.L	#4, r2
 2969 003a EF A1                   		mov.L	r10, r1
 2970 003c 05 00 00 00             		bsr	_d1_cacheblockflush
 2971                             	.LVL356:
 2972                             	.L190:
1220:../src/smc_gen/r_drw2d_rx/src/tes/dave_dlist.c **** }
 2973                             		.loc 1 1220 1 view .LVU1172
 2974 0040 3F 6B 06                		rtsd	#24, r6-r11
 2975                             		.loc 1 1220 1 view .LVU1173
 2976                             	.LFE21:
 2978                             		.section	.text.d2_mapdlist_vidmem_intern,"ax",@progbits
 2979                             		.global	_d2_mapdlist_vidmem_intern
 2981                             	_d2_mapdlist_vidmem_intern:
 2982                             	.LVL357:
 2983                             	.LFB22:
1221:../src/smc_gen/r_drw2d_rx/src/tes/dave_dlist.c **** 
1222:../src/smc_gen/r_drw2d_rx/src/tes/dave_dlist.c **** 
1223:../src/smc_gen/r_drw2d_rx/src/tes/dave_dlist.c **** /*--------------------------------------------------------------------------
1224:../src/smc_gen/r_drw2d_rx/src/tes/dave_dlist.c ****  * Map a displaylist to vidmem. */
1225:../src/smc_gen/r_drw2d_rx/src/tes/dave_dlist.c **** void d2_mapdlist_vidmem_intern( const d2_dlist *dlist )
1226:../src/smc_gen/r_drw2d_rx/src/tes/dave_dlist.c **** {
 2984                             		.loc 1 1226 1 is_stmt 1 view -0
 2985                             		.loc 1 1226 1 is_stmt 0 view .LVU1175
 2986 0000 6E 6B                   		pushm	r6-r11
 2987                             	.LCFI15:
 2988 0002 EF 1B                   		mov.L	r1, r11
1227:../src/smc_gen/r_drw2d_rx/src/tes/dave_dlist.c ****    d1_device *id = D2_DEV(dlist->device)->hwid;
 2989                             		.loc 1 1227 4 is_stmt 1 view .LVU1176
 2990                             		.loc 1 1227 20 is_stmt 0 view .LVU1177
 2991 0004 EC 15                   		mov.L	[r1], r5
 2992                             		.loc 1 1227 15 view .LVU1178
 2993 0006 ED 5A 06                		mov.L	24[r5], r10
 2994                             	.LVL358:
1228:../src/smc_gen/r_drw2d_rx/src/tes/dave_dlist.c ****    d2_dlist_block *blk  = dlist->resumeblock;
 2995                             		.loc 1 1228 4 is_stmt 1 view .LVU1179
 2996                             		.loc 1 1228 20 is_stmt 0 view .LVU1180
 2997 0009 A8 9F                   		mov.L	12[r1], r7
 2998                             	.LVL359:
1229:../src/smc_gen/r_drw2d_rx/src/tes/dave_dlist.c ****    d2_dlist_block *last = dlist->currentblock;
 2999                             		.loc 1 1229 4 is_stmt 1 view .LVU1181
 3000                             		.loc 1 1229 20 is_stmt 0 view .LVU1182
 3001 000b A8 96                   		mov.L	8[r1], r6
 3002                             	.LVL360:
1230:../src/smc_gen/r_drw2d_rx/src/tes/dave_dlist.c **** 
1231:../src/smc_gen/r_drw2d_rx/src/tes/dave_dlist.c ****    if(0 != (D2_DEV(dlist->device)->flags & d2_df_no_dlist))
 3003                             		.loc 1 1231 4 is_stmt 1 view .LVU1183
 3004                             		.loc 1 1231 34 is_stmt 0 view .LVU1184
 3005 000d AE D5                   		mov.L	104[r5], r5
 3006                             		.loc 1 1231 6 view .LVU1185
 3007 000f FD 74 C5 01             		tst	#1, r5
 3008 0013 20 15                   		beq	.L198
 3009 0015 2E 3C                   		bra	.L196
 3010                             	.LVL361:
 3011                             	.L199:
1232:../src/smc_gen/r_drw2d_rx/src/tes/dave_dlist.c ****    {
1233:../src/smc_gen/r_drw2d_rx/src/tes/dave_dlist.c ****       return;
1234:../src/smc_gen/r_drw2d_rx/src/tes/dave_dlist.c ****    }
1235:../src/smc_gen/r_drw2d_rx/src/tes/dave_dlist.c **** 
1236:../src/smc_gen/r_drw2d_rx/src/tes/dave_dlist.c ****    /* flush all but the first block */
1237:../src/smc_gen/r_drw2d_rx/src/tes/dave_dlist.c ****    while(blk != last)
1238:../src/smc_gen/r_drw2d_rx/src/tes/dave_dlist.c ****    {
1239:../src/smc_gen/r_drw2d_rx/src/tes/dave_dlist.c ****       if( (NULL != blk->next) && (NULL != blk->jump) )
1240:../src/smc_gen/r_drw2d_rx/src/tes/dave_dlist.c ****       {
1241:../src/smc_gen/r_drw2d_rx/src/tes/dave_dlist.c ****          /* replace jump address (vidmem has been assigned by d2_alloc_dlistblock_intern) */
1242:../src/smc_gen/r_drw2d_rx/src/tes/dave_dlist.c ****          *(blk->jump) = (d2_s32)(blk->next->vidmem);
1243:../src/smc_gen/r_drw2d_rx/src/tes/dave_dlist.c ****       }
1244:../src/smc_gen/r_drw2d_rx/src/tes/dave_dlist.c **** 
1245:../src/smc_gen/r_drw2d_rx/src/tes/dave_dlist.c ****       /* replace jump address with new address inside vidmem */
1246:../src/smc_gen/r_drw2d_rx/src/tes/dave_dlist.c ****       (void)d1_cacheblockflush(id, d1_mem_dlist, blk->vidmem, sizeof(d2_dlist_entry) * blk->quantit
 3012                             		.loc 1 1246 7 is_stmt 1 view .LVU1186
 3013                             		.loc 1 1246 91 is_stmt 0 view .LVU1187
 3014 0017 A8 F4                   		mov.L	8[r7], r4
 3015                             		.loc 1 1246 13 view .LVU1188
 3016 0019 75 14 14                		mul	#20, r4
 3017 001c A9 73                   		mov.L	16[r7], r3
 3018 001e 66 42                   		mov.L	#4, r2
 3019 0020 EF A1                   		mov.L	r10, r1
 3020 0022 05 00 00 00             		bsr	_d1_cacheblockflush
 3021                             	.LVL362:
1247:../src/smc_gen/r_drw2d_rx/src/tes/dave_dlist.c ****       blk = blk->next;
 3022                             		.loc 1 1247 7 is_stmt 1 view .LVU1189
 3023                             		.loc 1 1247 11 is_stmt 0 view .LVU1190
 3024 0026 EC 77                   		mov.L	[r7], r7
 3025                             	.LVL363:
 3026                             	.L198:
1237:../src/smc_gen/r_drw2d_rx/src/tes/dave_dlist.c ****    {
 3027                             		.loc 1 1237 9 view .LVU1191
 3028 0028 47 67                   		cmp	r6, r7
 3029 002a 20 13                   		beq	.L202
1239:../src/smc_gen/r_drw2d_rx/src/tes/dave_dlist.c ****       {
 3030                             		.loc 1 1239 7 is_stmt 1 view .LVU1192
1239:../src/smc_gen/r_drw2d_rx/src/tes/dave_dlist.c ****       {
 3031                             		.loc 1 1239 23 is_stmt 0 view .LVU1193
 3032 002c EC 75                   		mov.L	[r7], r5
1239:../src/smc_gen/r_drw2d_rx/src/tes/dave_dlist.c ****       {
 3033                             		.loc 1 1239 9 view .LVU1194
 3034 002e 61 05                   		cmp	#0, r5
 3035 0030 20 E7                   		beq	.L199
1239:../src/smc_gen/r_drw2d_rx/src/tes/dave_dlist.c ****       {
 3036                             		.loc 1 1239 46 discriminator 1 view .LVU1195
 3037 0032 A8 FC                   		mov.L	12[r7], r4
1239:../src/smc_gen/r_drw2d_rx/src/tes/dave_dlist.c ****       {
 3038                             		.loc 1 1239 31 discriminator 1 view .LVU1196
 3039 0034 61 04                   		cmp	#0, r4
 3040 0036 20 E1                   		beq	.L199
1242:../src/smc_gen/r_drw2d_rx/src/tes/dave_dlist.c ****       }
 3041                             		.loc 1 1242 10 is_stmt 1 view .LVU1197
1242:../src/smc_gen/r_drw2d_rx/src/tes/dave_dlist.c ****       }
 3042                             		.loc 1 1242 23 is_stmt 0 view .LVU1198
 3043 0038 E1 54 04                		mov.L	16[r5], [r4]
 3044 003b 2E DC                   		bra	.L199
 3045                             	.L202:
1248:../src/smc_gen/r_drw2d_rx/src/tes/dave_dlist.c ****    }
1249:../src/smc_gen/r_drw2d_rx/src/tes/dave_dlist.c **** 
1250:../src/smc_gen/r_drw2d_rx/src/tes/dave_dlist.c ****    /* flush last block (not whole block needs to be flushed) */
1251:../src/smc_gen/r_drw2d_rx/src/tes/dave_dlist.c ****    (void)d1_cacheblockflush(id, d1_mem_dlist, blk->vidmem, sizeof(d2_dlist_entry) * (blk->quantity 
 3046                             		.loc 1 1251 4 is_stmt 1 view .LVU1199
 3047                             		.loc 1 1251 89 is_stmt 0 view .LVU1200
 3048 003d A8 F4                   		mov.L	8[r7], r4
 3049                             		.loc 1 1251 107 view .LVU1201
 3050 003f ED B5 07                		mov.L	28[r11], r5
 3051                             		.loc 1 1251 100 view .LVU1202
 3052 0042 43 54                   		sub	r5, r4
 3053                             		.loc 1 1251 10 view .LVU1203
 3054 0044 75 14 14                		mul	#20, r4
 3055 0047 A9 73                   		mov.L	16[r7], r3
 3056 0049 66 42                   		mov.L	#4, r2
 3057 004b EF A1                   		mov.L	r10, r1
 3058 004d 05 00 00 00             		bsr	_d1_cacheblockflush
 3059                             	.LVL364:
 3060                             	.L196:
1252:../src/smc_gen/r_drw2d_rx/src/tes/dave_dlist.c **** }
 3061                             		.loc 1 1252 1 view .LVU1204
 3062 0051 3F 6B 06                		rtsd	#24, r6-r11
 3063                             		.loc 1 1252 1 view .LVU1205
 3064                             	.LFE22:
 3066                             		.section	.text.d2_preparedlist_read_intern,"ax",@progbits
 3067                             		.global	_d2_preparedlist_read_intern
 3069                             	_d2_preparedlist_read_intern:
 3070                             	.LVL365:
 3071                             	.LFB14:
 508:../src/smc_gen/r_drw2d_rx/src/tes/dave_dlist.c ****    void *next_dlist_start = 0;
 3072                             		.loc 1 508 1 is_stmt 1 view -0
 508:../src/smc_gen/r_drw2d_rx/src/tes/dave_dlist.c ****    void *next_dlist_start = 0;
 3073                             		.loc 1 508 1 is_stmt 0 view .LVU1207
 3074 0000 6E 6B                   		pushm	r6-r11
 3075                             	.LCFI16:
 3076 0002 60 40                   		sub	#4, r0
 3077                             	.LCFI17:
 3078 0004 EF 16                   		mov.L	r1, r6
 3079 0006 EF 27                   		mov.L	r2, r7
 3080 0008 EF 3A                   		mov.L	r3, r10
 509:../src/smc_gen/r_drw2d_rx/src/tes/dave_dlist.c **** 
 3081                             		.loc 1 509 4 is_stmt 1 view .LVU1208
 3082                             	.LVL366:
 512:../src/smc_gen/r_drw2d_rx/src/tes/dave_dlist.c **** 
 3083                             		.loc 1 512 4 view .LVU1209
 3084 000a EC 21                   		mov.L	[r2], r1
 3085                             	.LVL367:
 512:../src/smc_gen/r_drw2d_rx/src/tes/dave_dlist.c **** 
 3086                             		.loc 1 512 4 is_stmt 0 view .LVU1210
 3087 000c 05 00 00 00             		bsr	_d2_scratch2dlist_intern
 3088                             	.LVL368:
 515:../src/smc_gen/r_drw2d_rx/src/tes/dave_dlist.c **** 
 3089                             		.loc 1 515 4 is_stmt 1 view .LVU1211
 3090                             	.LBB87:
 3091                             	.LBI87:
 203:../src/smc_gen/r_drw2d_rx/src/tes/dave_dlist.h **** {
 3092                             		.loc 2 203 23 view .LVU1212
 3093                             	.LBB88:
 205:../src/smc_gen/r_drw2d_rx/src/tes/dave_dlist.h ****    d2_dlist_entry *pos = dlist->position;
 3094                             		.loc 2 205 4 view .LVU1213
 205:../src/smc_gen/r_drw2d_rx/src/tes/dave_dlist.h ****    d2_dlist_entry *pos = dlist->position;
 3095                             		.loc 2 205 11 is_stmt 0 view .LVU1214
 3096 0010 A9 F5                   		mov.L	24[r7], r5
 3097                             	.LVL369:
 206:../src/smc_gen/r_drw2d_rx/src/tes/dave_dlist.h **** 
 3098                             		.loc 2 206 4 is_stmt 1 view .LVU1215
 206:../src/smc_gen/r_drw2d_rx/src/tes/dave_dlist.h **** 
 3099                             		.loc 2 206 20 is_stmt 0 view .LVU1216
 3100 0012 A9 74                   		mov.L	16[r7], r4
 3101                             	.LVL370:
 208:../src/smc_gen/r_drw2d_rx/src/tes/dave_dlist.h ****    {
 3102                             		.loc 2 208 4 is_stmt 1 view .LVU1217
 3103 0014 61 15                   		cmp	#1, r5
 3104 0016 20 59                   		beq	.L204
 3105 0018 61 05                   		cmp	#0, r5
 3106 001a 20 4A                   		beq	.L205
 3107 001c 61 25                   		cmp	#2, r5
 3108 001e 20 6A                   		beq	.L206
 3109 0020 61 35                   		cmp	#3, r5
 3110 0022 3A 80 00                		beq	.L207
 3111                             	.LVL371:
 3112 0025 FC 13 00                		.balign 8,3,4
 3113                             	.L208:
 245:../src/smc_gen/r_drw2d_rx/src/tes/dave_dlist.h ****    dlist->blocksize--;
 3114                             		.loc 2 245 4 view .LVU1218
 245:../src/smc_gen/r_drw2d_rx/src/tes/dave_dlist.h ****    dlist->blocksize--;
 3115                             		.loc 2 245 20 is_stmt 0 view .LVU1219
 3116 0028 3E 76 00                		mov.L	#0, 24[r7]
 246:../src/smc_gen/r_drw2d_rx/src/tes/dave_dlist.h **** 
 3117                             		.loc 2 246 4 is_stmt 1 view .LVU1220
 246:../src/smc_gen/r_drw2d_rx/src/tes/dave_dlist.h **** 
 3118                             		.loc 2 246 9 is_stmt 0 view .LVU1221
 3119 002b A9 FD                   		mov.L	28[r7], r5
 246:../src/smc_gen/r_drw2d_rx/src/tes/dave_dlist.h **** 
 3120                             		.loc 2 246 20 view .LVU1222
 3121 002d 60 15                   		sub	#1, r5
 3122 002f A1 FD                   		mov.L	r5, 28[r7]
 249:../src/smc_gen/r_drw2d_rx/src/tes/dave_dlist.h ****    {
 3123                             		.loc 2 249 4 is_stmt 1 view .LVU1223
 3124                             	.LVL372:
 249:../src/smc_gen/r_drw2d_rx/src/tes/dave_dlist.h ****    {
 3125                             		.loc 2 249 4 is_stmt 0 view .LVU1224
 3126                             	.LBE88:
 3127                             	.LBE87:
 517:../src/smc_gen/r_drw2d_rx/src/tes/dave_dlist.c ****    {
 3128                             		.loc 1 517 4 is_stmt 1 view .LVU1225
 517:../src/smc_gen/r_drw2d_rx/src/tes/dave_dlist.c ****    {
 3129                             		.loc 1 517 22 is_stmt 0 view .LVU1226
 3130 0031 AF ED                   		mov.L	124[r6], r5
 517:../src/smc_gen/r_drw2d_rx/src/tes/dave_dlist.c ****    {
 3131                             		.loc 1 517 7 view .LVU1227
 3132 0033 61 05                   		cmp	#0, r5
 3133 0035 3A 90 00                		beq	.L223
 3134                             	.L209:
 546:../src/smc_gen/r_drw2d_rx/src/tes/dave_dlist.c ****    {
 3135                             		.loc 1 546 4 is_stmt 1 view .LVU1228
 546:../src/smc_gen/r_drw2d_rx/src/tes/dave_dlist.c ****    {
 3136                             		.loc 1 546 20 is_stmt 0 view .LVU1229
 3137 0038 A9 7D                   		mov.L	20[r7], r5
 546:../src/smc_gen/r_drw2d_rx/src/tes/dave_dlist.c ****    {
 3138                             		.loc 1 546 6 view .LVU1230
 3139 003a 61 05                   		cmp	#0, r5
 3140 003c 3A E0 00                		beq	.L213
 549:../src/smc_gen/r_drw2d_rx/src/tes/dave_dlist.c ****       {
 3141                             		.loc 1 549 7 is_stmt 1 view .LVU1231
 549:../src/smc_gen/r_drw2d_rx/src/tes/dave_dlist.c ****       {
 3142                             		.loc 1 549 9 is_stmt 0 view .LVU1232
 3143 003f 61 0A                   		cmp	#0, r10
 3144 0041 3B BA 00                		bne	.L224
 3145                             		.balign 8,3,1
 3146                             	.L214:
 573:../src/smc_gen/r_drw2d_rx/src/tes/dave_dlist.c ****    {
 3147                             		.loc 1 573 4 is_stmt 1 view .LVU1233
 573:../src/smc_gen/r_drw2d_rx/src/tes/dave_dlist.c ****    {
 3148                             		.loc 1 573 6 is_stmt 0 view .LVU1234
 3149 0044 61 0A                   		cmp	#0, r10
 3150 0046 3B 00 01                		bne	.L225
 583:../src/smc_gen/r_drw2d_rx/src/tes/dave_dlist.c **** 
 3151                             		.loc 1 583 7 is_stmt 1 view .LVU1235
 583:../src/smc_gen/r_drw2d_rx/src/tes/dave_dlist.c **** 
 3152                             		.loc 1 583 24 is_stmt 0 view .LVU1236
 3153 0049 3E 77 00                		mov.L	#0, 28[r7]
 586:../src/smc_gen/r_drw2d_rx/src/tes/dave_dlist.c ****       dlist->resumeblock = dlist->currentblock;
 3154                             		.loc 1 586 7 is_stmt 1 view .LVU1237
 3155 004c EF 71                   		mov.L	r7, r1
 3156 004e 05 00 00 00             		bsr	_d2_nextdlistblock_intern
 3157                             	.LVL373:
 587:../src/smc_gen/r_drw2d_rx/src/tes/dave_dlist.c **** 
 3158                             		.loc 1 587 7 view .LVU1238
 587:../src/smc_gen/r_drw2d_rx/src/tes/dave_dlist.c **** 
 3159                             		.loc 1 587 33 is_stmt 0 view .LVU1239
 3160 0052 A8 F5                   		mov.L	8[r7], r5
 587:../src/smc_gen/r_drw2d_rx/src/tes/dave_dlist.c **** 
 3161                             		.loc 1 587 26 view .LVU1240
 3162 0054 A0 FD                   		mov.L	r5, 12[r7]
 589:../src/smc_gen/r_drw2d_rx/src/tes/dave_dlist.c ****       {
 3163                             		.loc 1 589 7 is_stmt 1 view .LVU1241
 589:../src/smc_gen/r_drw2d_rx/src/tes/dave_dlist.c ****       {
 3164                             		.loc 1 589 23 is_stmt 0 view .LVU1242
 3165 0056 ED 7A 05                		mov.L	20[r7], r10
 3166                             	.LVL374:
 589:../src/smc_gen/r_drw2d_rx/src/tes/dave_dlist.c ****       {
 3167                             		.loc 1 589 9 view .LVU1243
 3168 0059 61 0A                   		cmp	#0, r10
 3169 005b 3A F9 00                		beq	.L219
 592:../src/smc_gen/r_drw2d_rx/src/tes/dave_dlist.c ****       }
 3170                             		.loc 1 592 10 is_stmt 1 view .LVU1244
 592:../src/smc_gen/r_drw2d_rx/src/tes/dave_dlist.c ****       }
 3171                             		.loc 1 592 27 is_stmt 0 view .LVU1245
 3172 005e ED A1 04                		mov.L	16[r10], r1
 3173                             	.LVL375:
 3174                             		.balign 8,3,2
 3175                             	.L203:
 605:../src/smc_gen/r_drw2d_rx/src/tes/dave_dlist.c **** 
 3176                             		.loc 1 605 1 view .LVU1246
 3177 0061 3F 6B 07                		rtsd	#28, r6-r11
 3178                             	.LVL376:
 3179                             	.L205:
 3180                             	.LBB90:
 3181                             	.LBB89:
 212:../src/smc_gen/r_drw2d_rx/src/tes/dave_dlist.h ****          dlist->position = (d2_dlist_entry *) ((d2_s32*)pos + 1);
 3182                             		.loc 2 212 10 is_stmt 1 view .LVU1247
 212:../src/smc_gen/r_drw2d_rx/src/tes/dave_dlist.h ****          dlist->position = (d2_dlist_entry *) ((d2_s32*)pos + 1);
 3183                             		.loc 2 212 28 is_stmt 0 view .LVU1248
 3184 0064 FB 3A FF 03             		mov.L	#0x3ff, r3
 3185 0068 FD 22 43                		mov.L	r3, [r4+]
 3186                             	.LVL377:
 213:../src/smc_gen/r_drw2d_rx/src/tes/dave_dlist.h ****          break;
 3187                             		.loc 2 213 10 is_stmt 1 view .LVU1249
 213:../src/smc_gen/r_drw2d_rx/src/tes/dave_dlist.h ****          break;
 3188                             		.loc 2 213 26 is_stmt 0 view .LVU1250
 3189 006b A1 74                   		mov.L	r4, 16[r7]
 214:../src/smc_gen/r_drw2d_rx/src/tes/dave_dlist.h **** 
 3190                             		.loc 2 214 10 is_stmt 1 view .LVU1251
 3191 006d 2E BB                   		bra	.L208
 3192                             	.LVL378:
 3193                             	.L204:
 218:../src/smc_gen/r_drw2d_rx/src/tes/dave_dlist.h ****          pos->address.mask |= 0x80808000u;
 3194                             		.loc 2 218 10 view .LVU1252
 218:../src/smc_gen/r_drw2d_rx/src/tes/dave_dlist.h ****          pos->address.mask |= 0x80808000u;
 3195                             		.loc 2 218 28 is_stmt 0 view .LVU1253
 3196 006f 58 43                   		movu.B	[r4], r3
 219:../src/smc_gen/r_drw2d_rx/src/tes/dave_dlist.h ****          pos->value[tagIndex] = (d2_s32) (0xffu | (argument << 8));
 3197                             		.loc 2 219 10 is_stmt 1 view .LVU1254
 219:../src/smc_gen/r_drw2d_rx/src/tes/dave_dlist.h ****          pos->value[tagIndex] = (d2_s32) (0xffu | (argument << 8));
 3198                             		.loc 2 219 28 is_stmt 0 view .LVU1255
 3199 0071 74 33 00 80 80 80       		or	#-2139062272, r3
 3200 0077 E3 43                   		mov.L	r3, [r4]
 220:../src/smc_gen/r_drw2d_rx/src/tes/dave_dlist.h ****          dlist->position = (d2_dlist_entry *) ((d2_s32*)pos + 3);
 3201                             		.loc 2 220 10 is_stmt 1 view .LVU1256
 220:../src/smc_gen/r_drw2d_rx/src/tes/dave_dlist.h ****          dlist->position = (d2_dlist_entry *) ((d2_s32*)pos + 3);
 3202                             		.loc 2 220 31 is_stmt 0 view .LVU1257
 3203 0079 62 15                   		add	#1, r5
 3204                             	.LVL379:
 220:../src/smc_gen/r_drw2d_rx/src/tes/dave_dlist.h ****          dlist->position = (d2_dlist_entry *) ((d2_s32*)pos + 3);
 3205                             		.loc 2 220 31 view .LVU1258
 3206 007b FB 3A FF 03             		mov.L	#0x3ff, r3
 3207 007f FE 25 43                		mov.L	r3, [r5,r4]
 221:../src/smc_gen/r_drw2d_rx/src/tes/dave_dlist.h ****          break;
 3208                             		.loc 2 221 10 is_stmt 1 view .LVU1259
 221:../src/smc_gen/r_drw2d_rx/src/tes/dave_dlist.h ****          break;
 3209                             		.loc 2 221 28 is_stmt 0 view .LVU1260
 3210 0082 62 C4                   		add	#12, r4
 3211                             	.LVL380:
 221:../src/smc_gen/r_drw2d_rx/src/tes/dave_dlist.h ****          break;
 3212                             		.loc 2 221 26 view .LVU1261
 3213 0084 A1 74                   		mov.L	r4, 16[r7]
 222:../src/smc_gen/r_drw2d_rx/src/tes/dave_dlist.h **** 
 3214                             		.loc 2 222 10 is_stmt 1 view .LVU1262
 3215 0086 2E A2                   		bra	.L208
 3216                             	.LVL381:
 3217                             	.L206:
 226:../src/smc_gen/r_drw2d_rx/src/tes/dave_dlist.h ****          pos->address.mask |= 0x80800000u;
 3218                             		.loc 2 226 10 view .LVU1263
 226:../src/smc_gen/r_drw2d_rx/src/tes/dave_dlist.h ****          pos->address.mask |= 0x80800000u;
 3219                             		.loc 2 226 28 is_stmt 0 view .LVU1264
 3220 0088 5C 43                   		movu.W	[r4], r3
 227:../src/smc_gen/r_drw2d_rx/src/tes/dave_dlist.h ****          pos->value[tagIndex] = (d2_s32) (0xffu | (argument << 8));
 3221                             		.loc 2 227 10 is_stmt 1 view .LVU1265
 227:../src/smc_gen/r_drw2d_rx/src/tes/dave_dlist.h ****          pos->value[tagIndex] = (d2_s32) (0xffu | (argument << 8));
 3222                             		.loc 2 227 28 is_stmt 0 view .LVU1266
 3223 008a 74 33 00 00 80 80       		or	#-2139095040, r3
 3224 0090 E3 43                   		mov.L	r3, [r4]
 228:../src/smc_gen/r_drw2d_rx/src/tes/dave_dlist.h ****          dlist->position = (d2_dlist_entry *) ((d2_s32*)pos + 4);
 3225                             		.loc 2 228 10 is_stmt 1 view .LVU1267
 228:../src/smc_gen/r_drw2d_rx/src/tes/dave_dlist.h ****          dlist->position = (d2_dlist_entry *) ((d2_s32*)pos + 4);
 3226                             		.loc 2 228 31 is_stmt 0 view .LVU1268
 3227 0092 62 15                   		add	#1, r5
 3228                             	.LVL382:
 228:../src/smc_gen/r_drw2d_rx/src/tes/dave_dlist.h ****          dlist->position = (d2_dlist_entry *) ((d2_s32*)pos + 4);
 3229                             		.loc 2 228 31 view .LVU1269
 3230 0094 FB 3A FF 03             		mov.L	#0x3ff, r3
 3231 0098 FE 25 43                		mov.L	r3, [r5,r4]
 229:../src/smc_gen/r_drw2d_rx/src/tes/dave_dlist.h ****          break;
 3232                             		.loc 2 229 10 is_stmt 1 view .LVU1270
 229:../src/smc_gen/r_drw2d_rx/src/tes/dave_dlist.h ****          break;
 3233                             		.loc 2 229 28 is_stmt 0 view .LVU1271
 3234 009b 71 44 10                		add	#16, r4
 3235                             	.LVL383:
 229:../src/smc_gen/r_drw2d_rx/src/tes/dave_dlist.h ****          break;
 3236                             		.loc 2 229 26 view .LVU1272
 3237 009e A1 74                   		mov.L	r4, 16[r7]
 230:../src/smc_gen/r_drw2d_rx/src/tes/dave_dlist.h **** 
 3238                             		.loc 2 230 10 is_stmt 1 view .LVU1273
 3239 00a0 2E 88                   		bra	.L208
 3240                             	.LVL384:
 3241                             	.L207:
 234:../src/smc_gen/r_drw2d_rx/src/tes/dave_dlist.h ****          pos->address.mask |= 0x80000000u;
 3242                             		.loc 2 234 10 view .LVU1274
 234:../src/smc_gen/r_drw2d_rx/src/tes/dave_dlist.h ****          pos->address.mask |= 0x80000000u;
 3243                             		.loc 2 234 28 is_stmt 0 view .LVU1275
 3244 00a2 EC 43                   		mov.L	[r4], r3
 3245 00a4 74 23 FF FF FF 00       		and #0xffffff, r3
 235:../src/smc_gen/r_drw2d_rx/src/tes/dave_dlist.h ****          pos->value[tagIndex] = (d2_s32) (0xffu | (argument << 8));
 3246                             		.loc 2 235 10 is_stmt 1 view .LVU1276
 235:../src/smc_gen/r_drw2d_rx/src/tes/dave_dlist.h ****          pos->value[tagIndex] = (d2_s32) (0xffu | (argument << 8));
 3247                             		.loc 2 235 28 is_stmt 0 view .LVU1277
 3248 00aa 74 33 00 00 00 80       		or	#-2147483648, r3
 3249 00b0 E3 43                   		mov.L	r3, [r4]
 236:../src/smc_gen/r_drw2d_rx/src/tes/dave_dlist.h ****          dlist->position++;
 3250                             		.loc 2 236 10 is_stmt 1 view .LVU1278
 236:../src/smc_gen/r_drw2d_rx/src/tes/dave_dlist.h ****          dlist->position++;
 3251                             		.loc 2 236 31 is_stmt 0 view .LVU1279
 3252 00b2 62 15                   		add	#1, r5
 3253                             	.LVL385:
 236:../src/smc_gen/r_drw2d_rx/src/tes/dave_dlist.h ****          dlist->position++;
 3254                             		.loc 2 236 31 view .LVU1280
 3255 00b4 FB 3A FF 03             		mov.L	#0x3ff, r3
 3256 00b8 FE 25 43                		mov.L	r3, [r5,r4]
 237:../src/smc_gen/r_drw2d_rx/src/tes/dave_dlist.h ****          break;
 3257                             		.loc 2 237 10 is_stmt 1 view .LVU1281
 237:../src/smc_gen/r_drw2d_rx/src/tes/dave_dlist.h ****          break;
 3258                             		.loc 2 237 15 is_stmt 0 view .LVU1282
 3259 00bb A9 75                   		mov.L	16[r7], r5
 3260                             	.LVL386:
 237:../src/smc_gen/r_drw2d_rx/src/tes/dave_dlist.h ****          break;
 3261                             		.loc 2 237 25 view .LVU1283
 3262 00bd 71 55 14                		add	#20, r5
 3263 00c0 A1 75                   		mov.L	r5, 16[r7]
 238:../src/smc_gen/r_drw2d_rx/src/tes/dave_dlist.h **** 
 3264                             		.loc 2 238 10 is_stmt 1 view .LVU1284
 3265 00c2 38 66 FF                		bra	.L208
 3266                             	.LVL387:
 3267                             	.L223:
 238:../src/smc_gen/r_drw2d_rx/src/tes/dave_dlist.h **** 
 3268                             		.loc 2 238 10 is_stmt 0 view .LVU1285
 3269                             	.LBE89:
 3270                             	.LBE90:
 520:../src/smc_gen/r_drw2d_rx/src/tes/dave_dlist.c ****       {
 3271                             		.loc 1 520 7 is_stmt 1 view .LVU1286
 520:../src/smc_gen/r_drw2d_rx/src/tes/dave_dlist.c ****       {
 3272                             		.loc 1 520 23 is_stmt 0 view .LVU1287
 3273 00c5 ED 7B 02                		mov.L	8[r7], r11
 520:../src/smc_gen/r_drw2d_rx/src/tes/dave_dlist.c ****       {
 3274                             		.loc 1 520 37 view .LVU1288
 3275 00c8 EC B5                   		mov.L	[r11], r5
 520:../src/smc_gen/r_drw2d_rx/src/tes/dave_dlist.c ****       {
 3276                             		.loc 1 520 9 view .LVU1289
 3277 00ca 61 05                   		cmp	#0, r5
 3278 00cc 20 11                   		beq	.L210
 522:../src/smc_gen/r_drw2d_rx/src/tes/dave_dlist.c ****       }
 3279                             		.loc 1 522 10 is_stmt 1 view .LVU1290
 522:../src/smc_gen/r_drw2d_rx/src/tes/dave_dlist.c ****       }
 3280                             		.loc 1 522 17 is_stmt 0 view .LVU1291
 3281 00ce AA F5                   		mov.L	40[r7], r5
 522:../src/smc_gen/r_drw2d_rx/src/tes/dave_dlist.c ****       }
 3282                             		.loc 1 522 10 view .LVU1292
 3283 00d0 62 15                   		add	#1, r5
 3284 00d2 A2 F5                   		mov.L	r5, 40[r7]
 3285                             	.L211:
 529:../src/smc_gen/r_drw2d_rx/src/tes/dave_dlist.c ****       {
 3286                             		.loc 1 529 7 is_stmt 1 view .LVU1293
 529:../src/smc_gen/r_drw2d_rx/src/tes/dave_dlist.c ****       {
 3287                             		.loc 1 529 16 is_stmt 0 view .LVU1294
 3288 00d4 AA F5                   		mov.L	40[r7], r5
 529:../src/smc_gen/r_drw2d_rx/src/tes/dave_dlist.c ****       {
 3289                             		.loc 1 529 10 view .LVU1295
 3290 00d6 75 55 3C                		cmp	#60, r5
 3291 00d9 3B 5F FF                		bne	.L209
 3292 00dc 08                      		bra	.L212
 3293                             	.L210:
 526:../src/smc_gen/r_drw2d_rx/src/tes/dave_dlist.c ****       }
 3294                             		.loc 1 526 10 is_stmt 1 view .LVU1296
 526:../src/smc_gen/r_drw2d_rx/src/tes/dave_dlist.c ****       }
 3295                             		.loc 1 526 29 is_stmt 0 view .LVU1297
 3296 00dd 3E 7A 00                		mov.L	#0, 40[r7]
 3297 00e0 2E F4                   		bra	.L211
 3298                             	.LVL388:
 3299                             	.L221:
 3300                             	.LBB91:
 535:../src/smc_gen/r_drw2d_rx/src/tes/dave_dlist.c ****          }
 3301                             		.loc 1 535 17 view .LVU1298
 3302 00e2 EF 2B                   		mov.L	r2, r11
 3303                             	.LVL389:
 3304                             	.L212:
 533:../src/smc_gen/r_drw2d_rx/src/tes/dave_dlist.c ****          {
 3305                             		.loc 1 533 27 view .LVU1299
 3306 00e4 EC B2                   		mov.L	[r11], r2
 533:../src/smc_gen/r_drw2d_rx/src/tes/dave_dlist.c ****          {
 3307                             		.loc 1 533 33 view .LVU1300
 3308 00e6 EC 25                   		mov.L	[r2], r5
 533:../src/smc_gen/r_drw2d_rx/src/tes/dave_dlist.c ****          {
 3309                             		.loc 1 533 15 view .LVU1301
 3310 00e8 61 05                   		cmp	#0, r5
 3311 00ea 21 F8                   		bne	.L221
 539:../src/smc_gen/r_drw2d_rx/src/tes/dave_dlist.c ****          blk->next = NULL;
 3312                             		.loc 1 539 10 is_stmt 1 view .LVU1302
 3313 00ec EC 71                   		mov.L	[r7], r1
 3314 00ee 05 00 00 00             		bsr	_d2_free_dlistblock_intern
 3315                             	.LVL390:
 540:../src/smc_gen/r_drw2d_rx/src/tes/dave_dlist.c ****          dlist->shrinkcount = 0;
 3316                             		.loc 1 540 10 view .LVU1303
 540:../src/smc_gen/r_drw2d_rx/src/tes/dave_dlist.c ****          dlist->shrinkcount = 0;
 3317                             		.loc 1 540 20 is_stmt 0 view .LVU1304
 3318 00f2 F8 B6 00                		mov.L	#0, [r11]
 541:../src/smc_gen/r_drw2d_rx/src/tes/dave_dlist.c ****       }
 3319                             		.loc 1 541 10 is_stmt 1 view .LVU1305
 541:../src/smc_gen/r_drw2d_rx/src/tes/dave_dlist.c ****       }
 3320                             		.loc 1 541 29 is_stmt 0 view .LVU1306
 3321 00f5 3E 7A 00                		mov.L	#0, 40[r7]
 3322 00f8 38 40 FF                		bra	.L209
 3323                             	.LVL391:
 3324                             	.L224:
 541:../src/smc_gen/r_drw2d_rx/src/tes/dave_dlist.c ****       }
 3325                             		.loc 1 541 29 view .LVU1307
 3326                             	.LBE91:
 551:../src/smc_gen/r_drw2d_rx/src/tes/dave_dlist.c ****                                 dlist->vidmem_blocks->currentaddress,
 3327                             		.loc 1 551 10 is_stmt 1 view .LVU1308
 551:../src/smc_gen/r_drw2d_rx/src/tes/dave_dlist.c ****                                 dlist->vidmem_blocks->currentaddress,
 3328                             		.loc 1 551 16 is_stmt 0 view .LVU1309
 3329 00fb EC 71                   		mov.L	[r7], r1
 3330 00fd 05 00 00 00             		bsr	_d2_level1interface
 3331                             	.LVL392:
 552:../src/smc_gen/r_drw2d_rx/src/tes/dave_dlist.c ****                                 dlist->currentblock->block, 
 3332                             		.loc 1 552 38 view .LVU1310
 3333 0101 A9 7D                   		mov.L	20[r7], r5
 552:../src/smc_gen/r_drw2d_rx/src/tes/dave_dlist.c ****                                 dlist->currentblock->block, 
 3334                             		.loc 1 552 53 view .LVU1311
 3335 0103 A9 52                   		mov.L	16[r5], r2
 553:../src/smc_gen/r_drw2d_rx/src/tes/dave_dlist.c ****                                 (d2_u32)(sizeof(d2_dlist_entry) * (dlist->currentblock->quantity - 
 3336                             		.loc 1 553 38 view .LVU1312
 3337 0105 A8 F5                   		mov.L	8[r7], r5
 553:../src/smc_gen/r_drw2d_rx/src/tes/dave_dlist.c ****                                 (d2_u32)(sizeof(d2_dlist_entry) * (dlist->currentblock->quantity - 
 3338                             		.loc 1 553 52 view .LVU1313
 3339 0107 A8 5B                   		mov.L	4[r5], r3
 554:../src/smc_gen/r_drw2d_rx/src/tes/dave_dlist.c ****                                 0
 3340                             		.loc 1 554 87 view .LVU1314
 3341 0109 A8 D4                   		mov.L	8[r5], r4
 554:../src/smc_gen/r_drw2d_rx/src/tes/dave_dlist.c ****                                 0
 3342                             		.loc 1 554 105 view .LVU1315
 3343 010b A9 FD                   		mov.L	28[r7], r5
 554:../src/smc_gen/r_drw2d_rx/src/tes/dave_dlist.c ****                                 0
 3344                             		.loc 1 554 98 view .LVU1316
 3345 010d 43 54                   		sub	r5, r4
 551:../src/smc_gen/r_drw2d_rx/src/tes/dave_dlist.c ****                                 dlist->vidmem_blocks->currentaddress,
 3346                             		.loc 1 551 16 view .LVU1317
 3347 010f F8 06 00                		mov.L	#0, [r0]
 3348 0112 75 14 14                		mul	#20, r4
 3349 0115 05 00 00 00             		bsr	_d1_copytovidmem
 3350                             	.LVL393:
 3351 0119 38 2B FF                		bra	.L214
 3352                             	.L213:
 560:../src/smc_gen/r_drw2d_rx/src/tes/dave_dlist.c ****    {
 3353                             		.loc 1 560 9 is_stmt 1 view .LVU1318
 560:../src/smc_gen/r_drw2d_rx/src/tes/dave_dlist.c ****    {
 3354                             		.loc 1 560 32 is_stmt 0 view .LVU1319
 3355 011c ED 65 21                		mov.L	132[r6], r5
 560:../src/smc_gen/r_drw2d_rx/src/tes/dave_dlist.c ****    {
 3356                             		.loc 1 560 11 view .LVU1320
 3357 011f FD 74 C5 02             		tst	#2, r5
 3358 0123 21 11                   		bne	.L226
 564:../src/smc_gen/r_drw2d_rx/src/tes/dave_dlist.c ****    {
 3359                             		.loc 1 564 9 is_stmt 1 view .LVU1321
 564:../src/smc_gen/r_drw2d_rx/src/tes/dave_dlist.c ****    {
 3360                             		.loc 1 564 12 is_stmt 0 view .LVU1322
 3361 0125 FD 74 C5 10             		tst	#16, r5
 3362 0129 20 14                   		beq	.L216
 566:../src/smc_gen/r_drw2d_rx/src/tes/dave_dlist.c ****    }
 3363                             		.loc 1 566 7 is_stmt 1 view .LVU1323
 3364 012b EF 71                   		mov.L	r7, r1
 3365 012d 05 00 00 00             		bsr	_d2_mapdlist_vidmem_intern
 3366                             	.LVL394:
 3367 0131 38 13 FF                		bra	.L214
 3368                             	.L226:
 562:../src/smc_gen/r_drw2d_rx/src/tes/dave_dlist.c ****    }
 3369                             		.loc 1 562 7 view .LVU1324
 3370 0134 EF 71                   		mov.L	r7, r1
 3371 0136 05 00 00 00             		bsr	_d2_copydlist_vidmem_intern
 3372                             	.LVL395:
 3373 013a 38 0A FF                		bra	.L214
 3374                             	.L216:
 570:../src/smc_gen/r_drw2d_rx/src/tes/dave_dlist.c ****    }
 3375                             		.loc 1 570 7 view .LVU1325
 3376 013d EF 71                   		mov.L	r7, r1
 3377 013f 05 00 00 00             		bsr	_d2_cacheflushdlist_intern
 3378                             	.LVL396:
 3379 0143 38 01 FF                		bra	.L214
 3380                             	.L225:
 576:../src/smc_gen/r_drw2d_rx/src/tes/dave_dlist.c ****       dlist->busy = 0;
 3381                             		.loc 1 576 7 view .LVU1326
 3382 0146 EF 71                   		mov.L	r7, r1
 3383 0148 05 00 00 00             		bsr	_d2_resetdlist_intern
 3384                             	.LVL397:
 577:../src/smc_gen/r_drw2d_rx/src/tes/dave_dlist.c ****    }
 3385                             		.loc 1 577 7 view .LVU1327
 577:../src/smc_gen/r_drw2d_rx/src/tes/dave_dlist.c ****    }
 3386                             		.loc 1 577 19 is_stmt 0 view .LVU1328
 3387 014c 3E 79 00                		mov.L	#0, 36[r7]
 509:../src/smc_gen/r_drw2d_rx/src/tes/dave_dlist.c **** 
 3388                             		.loc 1 509 10 view .LVU1329
 3389 014f 66 01                   		mov.L	#0, r1
 3390 0151 38 10 FF                		bra	.L203
 3391                             	.LVL398:
 3392                             	.L219:
 594:../src/smc_gen/r_drw2d_rx/src/tes/dave_dlist.c ****       {
 3393                             		.loc 1 594 12 is_stmt 1 view .LVU1330
 594:../src/smc_gen/r_drw2d_rx/src/tes/dave_dlist.c ****       {
 3394                             		.loc 1 594 38 is_stmt 0 view .LVU1331
 3395 0154 ED 6A 21                		mov.L	132[r6], r10
 594:../src/smc_gen/r_drw2d_rx/src/tes/dave_dlist.c ****       {
 3396                             		.loc 1 594 14 view .LVU1332
 3397 0157 FD 74 CA 12             		tst	#18, r10
 3398 015b 10                      		beq	.L220
 594:../src/smc_gen/r_drw2d_rx/src/tes/dave_dlist.c ****       {
 3399                             		.loc 1 594 127 discriminator 1 view .LVU1333
 3400 015c A9 51                   		mov.L	16[r5], r1
 594:../src/smc_gen/r_drw2d_rx/src/tes/dave_dlist.c ****       {
 3401                             		.loc 1 594 96 discriminator 1 view .LVU1334
 3402 015e 61 01                   		cmp	#0, r1
 3403 0160 3B 01 FF                		bne	.L203
 3404                             	.L220:
 600:../src/smc_gen/r_drw2d_rx/src/tes/dave_dlist.c ****       }
 3405                             		.loc 1 600 10 is_stmt 1 view .LVU1335
 600:../src/smc_gen/r_drw2d_rx/src/tes/dave_dlist.c ****       }
 3406                             		.loc 1 600 27 is_stmt 0 view .LVU1336
 3407 0163 A9 71                   		mov.L	16[r7], r1
 3408                             	.LVL399:
 604:../src/smc_gen/r_drw2d_rx/src/tes/dave_dlist.c **** }
 3409                             		.loc 1 604 4 is_stmt 1 view .LVU1337
 604:../src/smc_gen/r_drw2d_rx/src/tes/dave_dlist.c **** }
 3410                             		.loc 1 604 11 is_stmt 0 view .LVU1338
 3411 0165 38 FC FE                		bra	.L203
 3412                             	.LFE14:
 3414                             		.section	.text.d2_clear_dlistlist_intern,"ax",@progbits
 3415                             		.global	_d2_clear_dlistlist_intern
 3417                             	_d2_clear_dlistlist_intern:
 3418                             	.LVL400:
 3419                             	.LFB23:
1253:../src/smc_gen/r_drw2d_rx/src/tes/dave_dlist.c **** 
1254:../src/smc_gen/r_drw2d_rx/src/tes/dave_dlist.c **** /*--------------------------------------------------------------------------
1255:../src/smc_gen/r_drw2d_rx/src/tes/dave_dlist.c ****  * Clear the list of dlist start addresses. */
1256:../src/smc_gen/r_drw2d_rx/src/tes/dave_dlist.c **** void d2_clear_dlistlist_intern( const d2_device *handle, d2_dlist *dlist )
1257:../src/smc_gen/r_drw2d_rx/src/tes/dave_dlist.c **** {
 3420                             		.loc 1 1257 1 is_stmt 1 view -0
1258:../src/smc_gen/r_drw2d_rx/src/tes/dave_dlist.c ****    d2_s32 i;
 3421                             		.loc 1 1258 4 view .LVU1340
1259:../src/smc_gen/r_drw2d_rx/src/tes/dave_dlist.c ****    d2_s32 *dlist_list = (d2_s32 *)dlist->dlist_addresses;
 3422                             		.loc 1 1259 4 view .LVU1341
 3423                             		.loc 1 1259 12 is_stmt 0 view .LVU1342
 3424 0000 AB 23                   		mov.L	48[r2], r3
 3425                             	.LVL401:
1260:../src/smc_gen/r_drw2d_rx/src/tes/dave_dlist.c ****    (void)handle; /* PRQA S 3112 */ /*$Misra: #COMPILER_WARNING $*/
 3426                             		.loc 1 1260 4 is_stmt 1 view .LVU1343
1261:../src/smc_gen/r_drw2d_rx/src/tes/dave_dlist.c **** 
1262:../src/smc_gen/r_drw2d_rx/src/tes/dave_dlist.c ****    for (i=0; i<dlist->dlist_addresses_max; i++)
 3427                             		.loc 1 1262 4 view .LVU1344
 3428                             		.loc 1 1262 10 is_stmt 0 view .LVU1345
 3429 0002 66 05                   		mov.L	#0, r5
 3430                             	.LVL402:
 3431                             	.L228:
 3432                             		.loc 1 1262 21 discriminator 1 view .LVU1346
 3433 0004 9E A4                   		mov.W	52[r2], r4
 3434                             		.loc 1 1262 4 discriminator 1 view .LVU1347
 3435 0006 47 54                   		cmp	r5, r4
 3436 0008 2B 0E                   		ble	.L230
1263:../src/smc_gen/r_drw2d_rx/src/tes/dave_dlist.c ****    {
1264:../src/smc_gen/r_drw2d_rx/src/tes/dave_dlist.c ****       dlist_list[i] = 0;
 3437                             		.loc 1 1264 7 is_stmt 1 discriminator 3 view .LVU1348
 3438                             		.loc 1 1264 17 is_stmt 0 discriminator 3 view .LVU1349
 3439 000a FD C2 54                		shll	#2, r5, r4
 3440 000d 4B 34                   		add	r3, r4
 3441                             		.loc 1 1264 21 discriminator 3 view .LVU1350
 3442 000f F8 46 00                		mov.L	#0, [r4]
1262:../src/smc_gen/r_drw2d_rx/src/tes/dave_dlist.c ****    {
 3443                             		.loc 1 1262 45 discriminator 3 view .LVU1351
 3444 0012 62 15                   		add	#1, r5
 3445                             	.LVL403:
1262:../src/smc_gen/r_drw2d_rx/src/tes/dave_dlist.c ****    {
 3446                             		.loc 1 1262 45 discriminator 3 view .LVU1352
 3447 0014 2E F0                   		bra	.L228
 3448                             	.L230:
1265:../src/smc_gen/r_drw2d_rx/src/tes/dave_dlist.c ****    }
1266:../src/smc_gen/r_drw2d_rx/src/tes/dave_dlist.c ****    dlist->dlist_addresses_cur = 0;
 3449                             		.loc 1 1266 4 is_stmt 1 view .LVU1353
 3450                             		.loc 1 1266 31 is_stmt 0 view .LVU1354
 3451 0016 3D AB 00                		mov.W	#0, 54[r2]
1267:../src/smc_gen/r_drw2d_rx/src/tes/dave_dlist.c **** }
 3452                             		.loc 1 1267 1 view .LVU1355
 3453 0019 02                      		rts
 3454                             	.LFE23:
 3456                             		.section	.text.d2_add_dlistlist_intern,"ax",@progbits
 3457                             		.global	_d2_add_dlistlist_intern
 3459                             	_d2_add_dlistlist_intern:
 3460                             	.LVL404:
 3461                             	.LFB24:
1268:../src/smc_gen/r_drw2d_rx/src/tes/dave_dlist.c **** 
1269:../src/smc_gen/r_drw2d_rx/src/tes/dave_dlist.c **** /*--------------------------------------------------------------------------
1270:../src/smc_gen/r_drw2d_rx/src/tes/dave_dlist.c ****  * Add an address to the list of dlist start addresses. */
1271:../src/smc_gen/r_drw2d_rx/src/tes/dave_dlist.c **** d2_s32* d2_add_dlistlist_intern( const d2_device *handle, d2_dlist *dlist, const void *dlistaddress
1272:../src/smc_gen/r_drw2d_rx/src/tes/dave_dlist.c **** {
 3462                             		.loc 1 1272 1 is_stmt 1 view -0
 3463                             		.loc 1 1272 1 is_stmt 0 view .LVU1357
 3464 0000 6E 6B                   		pushm	r6-r11
 3465                             	.LCFI18:
 3466 0002 EF 2A                   		mov.L	r2, r10
 3467 0004 EF 3B                   		mov.L	r3, r11
1273:../src/smc_gen/r_drw2d_rx/src/tes/dave_dlist.c ****    d2_s32 i, pos;
 3468                             		.loc 1 1273 4 is_stmt 1 view .LVU1358
1274:../src/smc_gen/r_drw2d_rx/src/tes/dave_dlist.c ****    d2_s32 *dlist_list = (d2_s32 *)dlist->dlist_addresses;
 3469                             		.loc 1 1274 4 view .LVU1359
 3470                             		.loc 1 1274 12 is_stmt 0 view .LVU1360
 3471 0006 AB 22                   		mov.L	48[r2], r2
 3472                             	.LVL405:
1275:../src/smc_gen/r_drw2d_rx/src/tes/dave_dlist.c ****    (void)handle; /* PRQA S 3112 */ /*$Misra: #COMPILER_WARNING $*/
 3473                             		.loc 1 1275 4 is_stmt 1 view .LVU1361
1276:../src/smc_gen/r_drw2d_rx/src/tes/dave_dlist.c **** 
1277:../src/smc_gen/r_drw2d_rx/src/tes/dave_dlist.c ****    pos = dlist->dlist_addresses_cur;
 3474                             		.loc 1 1277 4 view .LVU1362
 3475                             		.loc 1 1277 15 is_stmt 0 view .LVU1363
 3476 0008 DD A6 1B                		mov.W	54[r10], r6
 3477                             		.loc 1 1277 8 view .LVU1364
 3478 000b DF 67                   		mov.W	r6, r7
 3479                             	.LVL406:
1278:../src/smc_gen/r_drw2d_rx/src/tes/dave_dlist.c ****    if(pos >= (dlist->dlist_addresses_max - 1)) /* leave last entry 0 */
 3480                             		.loc 1 1278 4 is_stmt 1 view .LVU1365
 3481                             		.loc 1 1278 20 is_stmt 0 view .LVU1366
 3482 000d DD A1 1A                		mov.W	52[r10], r1
 3483                             	.LVL407:
 3484                             		.loc 1 1278 20 view .LVU1367
 3485 0010 DF 15                   		mov.W	r1, r5
 3486                             		.loc 1 1278 42 view .LVU1368
 3487 0012 60 15                   		sub	#1, r5
 3488                             		.loc 1 1278 6 view .LVU1369
 3489 0014 47 75                   		cmp	r7, r5
 3490 0016 2B 12                   		ble	.L236
 3491                             	.LVL408:
 3492                             	.L232:
1279:../src/smc_gen/r_drw2d_rx/src/tes/dave_dlist.c ****    {
1280:../src/smc_gen/r_drw2d_rx/src/tes/dave_dlist.c ****       /* grow dlist list */
1281:../src/smc_gen/r_drw2d_rx/src/tes/dave_dlist.c ****       dlist->dlist_addresses_max = (d2_s16)(dlist->dlist_addresses_max+DLIST_ADRESSES_NUMBER);
1282:../src/smc_gen/r_drw2d_rx/src/tes/dave_dlist.c ****       dlist->dlist_addresses      = d2_reallocmem_p( (d2_u32)dlist->dlist_addresses_max * sizeof(d2
1283:../src/smc_gen/r_drw2d_rx/src/tes/dave_dlist.c ****       dlist_list = (d2_s32 *)dlist->dlist_addresses;
1284:../src/smc_gen/r_drw2d_rx/src/tes/dave_dlist.c **** 
1285:../src/smc_gen/r_drw2d_rx/src/tes/dave_dlist.c ****       /* clear new part */
1286:../src/smc_gen/r_drw2d_rx/src/tes/dave_dlist.c ****       for(i=pos; i<dlist->dlist_addresses_max; i++)
1287:../src/smc_gen/r_drw2d_rx/src/tes/dave_dlist.c ****       {
1288:../src/smc_gen/r_drw2d_rx/src/tes/dave_dlist.c ****          dlist_list[i] = 0;
1289:../src/smc_gen/r_drw2d_rx/src/tes/dave_dlist.c ****       }
1290:../src/smc_gen/r_drw2d_rx/src/tes/dave_dlist.c ****    }
1291:../src/smc_gen/r_drw2d_rx/src/tes/dave_dlist.c **** 
1292:../src/smc_gen/r_drw2d_rx/src/tes/dave_dlist.c ****    dlist_list[pos] = (d2_s32)dlistaddress;
 3493                             		.loc 1 1292 4 is_stmt 1 view .LVU1370
 3494                             		.loc 1 1292 14 is_stmt 0 view .LVU1371
 3495 0018 DF 61                   		mov.W	r6, r1
 3496 001a 6C 21                   		shll	#2, r1
 3497 001c 4B 21                   		add	r2, r1
 3498                             		.loc 1 1292 20 view .LVU1372
 3499 001e E3 1B                   		mov.L	r11, [r1]
1293:../src/smc_gen/r_drw2d_rx/src/tes/dave_dlist.c ****    dlist->dlist_addresses_cur = (d2_s16) (pos + 1);
 3500                             		.loc 1 1293 4 is_stmt 1 view .LVU1373
 3501                             		.loc 1 1293 47 is_stmt 0 view .LVU1374
 3502 0020 62 16                   		add	#1, r6
 3503                             	.LVL409:
 3504                             		.loc 1 1293 31 view .LVU1375
 3505 0022 D7 A6 1B                		mov.W	r6, 54[r10]
1294:../src/smc_gen/r_drw2d_rx/src/tes/dave_dlist.c **** 
1295:../src/smc_gen/r_drw2d_rx/src/tes/dave_dlist.c ****    return &dlist_list[pos];
 3506                             		.loc 1 1295 4 is_stmt 1 view .LVU1376
1296:../src/smc_gen/r_drw2d_rx/src/tes/dave_dlist.c **** }
 3507                             		.loc 1 1296 1 is_stmt 0 view .LVU1377
 3508 0025 3F 6B 06                		rtsd	#24, r6-r11
 3509                             	.LVL410:
 3510                             	.L236:
1281:../src/smc_gen/r_drw2d_rx/src/tes/dave_dlist.c ****       dlist->dlist_addresses      = d2_reallocmem_p( (d2_u32)dlist->dlist_addresses_max * sizeof(d2
 3511                             		.loc 1 1281 7 is_stmt 1 view .LVU1378
1281:../src/smc_gen/r_drw2d_rx/src/tes/dave_dlist.c ****       dlist->dlist_addresses      = d2_reallocmem_p( (d2_u32)dlist->dlist_addresses_max * sizeof(d2
 3512                             		.loc 1 1281 71 is_stmt 0 view .LVU1379
 3513 0028 71 11 10                		add	#16, r1
1281:../src/smc_gen/r_drw2d_rx/src/tes/dave_dlist.c ****       dlist->dlist_addresses      = d2_reallocmem_p( (d2_u32)dlist->dlist_addresses_max * sizeof(d2
 3514                             		.loc 1 1281 34 view .LVU1380
 3515 002b D7 A1 1A                		mov.W	r1, 52[r10]
1282:../src/smc_gen/r_drw2d_rx/src/tes/dave_dlist.c ****       dlist_list = (d2_s32 *)dlist->dlist_addresses;
 3516                             		.loc 1 1282 7 is_stmt 1 view .LVU1381
1282:../src/smc_gen/r_drw2d_rx/src/tes/dave_dlist.c ****       dlist_list = (d2_s32 *)dlist->dlist_addresses;
 3517                             		.loc 1 1282 54 is_stmt 0 view .LVU1382
 3518 002e DF 11                   		mov.W	r1, r1
1282:../src/smc_gen/r_drw2d_rx/src/tes/dave_dlist.c ****       dlist_list = (d2_s32 *)dlist->dlist_addresses;
 3519                             		.loc 1 1282 37 view .LVU1383
 3520 0030 66 13                   		mov.L	#1, r3
 3521                             	.LVL411:
1282:../src/smc_gen/r_drw2d_rx/src/tes/dave_dlist.c ****       dlist_list = (d2_s32 *)dlist->dlist_addresses;
 3522                             		.loc 1 1282 37 view .LVU1384
 3523 0032 6C 21                   		shll	#2, r1
 3524 0034 05 00 00 00             		bsr	_d2_reallocmem_p
 3525                             	.LVL412:
1282:../src/smc_gen/r_drw2d_rx/src/tes/dave_dlist.c ****       dlist_list = (d2_s32 *)dlist->dlist_addresses;
 3526                             		.loc 1 1282 37 view .LVU1385
 3527 0038 EF 12                   		mov.L	r1, r2
1282:../src/smc_gen/r_drw2d_rx/src/tes/dave_dlist.c ****       dlist_list = (d2_s32 *)dlist->dlist_addresses;
 3528                             		.loc 1 1282 35 view .LVU1386
 3529 003a E7 A1 0C                		mov.L	r1, 48[r10]
1283:../src/smc_gen/r_drw2d_rx/src/tes/dave_dlist.c **** 
 3530                             		.loc 1 1283 7 is_stmt 1 view .LVU1387
 3531                             	.LVL413:
1286:../src/smc_gen/r_drw2d_rx/src/tes/dave_dlist.c ****       {
 3532                             		.loc 1 1286 7 view .LVU1388
 3533                             	.L233:
1286:../src/smc_gen/r_drw2d_rx/src/tes/dave_dlist.c ****       {
 3534                             		.loc 1 1286 25 is_stmt 0 discriminator 1 view .LVU1389
 3535 003d DD A5 1A                		mov.W	52[r10], r5
1286:../src/smc_gen/r_drw2d_rx/src/tes/dave_dlist.c ****       {
 3536                             		.loc 1 1286 7 discriminator 1 view .LVU1390
 3537 0040 47 75                   		cmp	r7, r5
 3538 0042 2B D6                   		ble	.L232
1288:../src/smc_gen/r_drw2d_rx/src/tes/dave_dlist.c ****       }
 3539                             		.loc 1 1288 10 is_stmt 1 discriminator 3 view .LVU1391
1288:../src/smc_gen/r_drw2d_rx/src/tes/dave_dlist.c ****       }
 3540                             		.loc 1 1288 20 is_stmt 0 discriminator 3 view .LVU1392
 3541 0044 FD C2 75                		shll	#2, r7, r5
 3542 0047 4B 25                   		add	r2, r5
1288:../src/smc_gen/r_drw2d_rx/src/tes/dave_dlist.c ****       }
 3543                             		.loc 1 1288 24 discriminator 3 view .LVU1393
 3544 0049 F8 56 00                		mov.L	#0, [r5]
1286:../src/smc_gen/r_drw2d_rx/src/tes/dave_dlist.c ****       {
 3545                             		.loc 1 1286 49 discriminator 3 view .LVU1394
 3546 004c 62 17                   		add	#1, r7
 3547                             	.LVL414:
1286:../src/smc_gen/r_drw2d_rx/src/tes/dave_dlist.c ****       {
 3548                             		.loc 1 1286 49 discriminator 3 view .LVU1395
 3549 004e 2E EF                   		bra	.L233
 3550                             	.LFE24:
 3552                             		.section	.text.d2_initdlist_intern,"ax",@progbits
 3553                             		.global	_d2_initdlist_intern
 3555                             	_d2_initdlist_intern:
 3556                             	.LVL415:
 3557                             	.LFB9:
 189:../src/smc_gen/r_drw2d_rx/src/tes/dave_dlist.c ****    void *current_dlist_start;
 3558                             		.loc 1 189 1 is_stmt 1 view -0
 189:../src/smc_gen/r_drw2d_rx/src/tes/dave_dlist.c ****    void *current_dlist_start;
 3559                             		.loc 1 189 1 is_stmt 0 view .LVU1397
 3560 0000 6E 6B                   		pushm	r6-r11
 3561                             	.LCFI19:
 3562 0002 EF 16                   		mov.L	r1, r6
 3563 0004 EF 2A                   		mov.L	r2, r10
 190:../src/smc_gen/r_drw2d_rx/src/tes/dave_dlist.c ****    dlist->device = handle;
 3564                             		.loc 1 190 4 is_stmt 1 view .LVU1398
 191:../src/smc_gen/r_drw2d_rx/src/tes/dave_dlist.c ****    dlist->vidmem_blocks = NULL;
 3565                             		.loc 1 191 4 view .LVU1399
 191:../src/smc_gen/r_drw2d_rx/src/tes/dave_dlist.c ****    dlist->vidmem_blocks = NULL;
 3566                             		.loc 1 191 18 is_stmt 0 view .LVU1400
 3567 0006 E3 21                   		mov.L	r1, [r2]
 192:../src/smc_gen/r_drw2d_rx/src/tes/dave_dlist.c **** 
 3568                             		.loc 1 192 4 is_stmt 1 view .LVU1401
 192:../src/smc_gen/r_drw2d_rx/src/tes/dave_dlist.c **** 
 3569                             		.loc 1 192 25 is_stmt 0 view .LVU1402
 3570 0008 3E 25 00                		mov.L	#0, 20[r2]
 194:../src/smc_gen/r_drw2d_rx/src/tes/dave_dlist.c ****    {
 3571                             		.loc 1 194 4 is_stmt 1 view .LVU1403
 194:../src/smc_gen/r_drw2d_rx/src/tes/dave_dlist.c ****    {
 3572                             		.loc 1 194 26 is_stmt 0 view .LVU1404
 3573 000b ED 1B 1F                		mov.L	124[r1], r11
 194:../src/smc_gen/r_drw2d_rx/src/tes/dave_dlist.c ****    {
 3574                             		.loc 1 194 6 view .LVU1405
 3575 000e 61 0B                   		cmp	#0, r11
 3576 0010 3A CB 00                		beq	.L238
 3577                             	.LBB92:
 196:../src/smc_gen/r_drw2d_rx/src/tes/dave_dlist.c ****       dlist->firstblock = llm_mode->dlist_buffer;
 3578                             		.loc 1 196 7 is_stmt 1 view .LVU1406
 3579                             	.LVL416:
 197:../src/smc_gen/r_drw2d_rx/src/tes/dave_dlist.c **** 
 3580                             		.loc 1 197 7 view .LVU1407
 197:../src/smc_gen/r_drw2d_rx/src/tes/dave_dlist.c **** 
 3581                             		.loc 1 197 25 is_stmt 0 view .LVU1408
 3582 0013 E4 B2 01                		mov.L	[r11], 4[r2]
 199:../src/smc_gen/r_drw2d_rx/src/tes/dave_dlist.c **** 
 3583                             		.loc 1 199 7 is_stmt 1 view .LVU1409
 199:../src/smc_gen/r_drw2d_rx/src/tes/dave_dlist.c **** 
 3584                             		.loc 1 199 30 is_stmt 0 view .LVU1410
 3585 0016 75 41 20                		mov.L	#32, r1
 3586                             	.LVL417:
 199:../src/smc_gen/r_drw2d_rx/src/tes/dave_dlist.c **** 
 3587                             		.loc 1 199 30 view .LVU1411
 3588 0019 05 00 00 00             		bsr	_d2_getmem_p
 3589                             	.LVL418:
 199:../src/smc_gen/r_drw2d_rx/src/tes/dave_dlist.c **** 
 3590                             		.loc 1 199 30 view .LVU1412
 3591 001d EF 17                   		mov.L	r1, r7
 199:../src/smc_gen/r_drw2d_rx/src/tes/dave_dlist.c **** 
 3592                             		.loc 1 199 28 view .LVU1413
 3593 001f E7 A1 05                		mov.L	r1, 20[r10]
 201:../src/smc_gen/r_drw2d_rx/src/tes/dave_dlist.c ****       {
 3594                             		.loc 1 201 7 is_stmt 1 view .LVU1414
 201:../src/smc_gen/r_drw2d_rx/src/tes/dave_dlist.c ****       {
 3595                             		.loc 1 201 9 is_stmt 0 view .LVU1415
 3596 0022 61 01                   		cmp	#0, r1
 3597 0024 3A DA 00                		beq	.L246
 3598                             	.LBB93:
 207:../src/smc_gen/r_drw2d_rx/src/tes/dave_dlist.c ****          d2_u32 i;
 3599                             		.loc 1 207 10 is_stmt 1 view .LVU1416
 3600                             	.LVL419:
 208:../src/smc_gen/r_drw2d_rx/src/tes/dave_dlist.c ****          vmem_blocks->blocks = d2_getmem_p(llm_mode->vidmemblocks * sizeof(void*));
 3601                             		.loc 1 208 10 view .LVU1417
 209:../src/smc_gen/r_drw2d_rx/src/tes/dave_dlist.c ****          if(NULL == vmem_blocks->blocks)
 3602                             		.loc 1 209 10 view .LVU1418
 209:../src/smc_gen/r_drw2d_rx/src/tes/dave_dlist.c ****          if(NULL == vmem_blocks->blocks)
 3603                             		.loc 1 209 52 is_stmt 0 view .LVU1419
 3604 0027 ED B1 02                		mov.L	8[r11], r1
 3605                             	.LVL420:
 209:../src/smc_gen/r_drw2d_rx/src/tes/dave_dlist.c ****          if(NULL == vmem_blocks->blocks)
 3606                             		.loc 1 209 32 view .LVU1420
 3607 002a 6C 21                   		shll	#2, r1
 3608 002c 05 00 00 00             		bsr	_d2_getmem_p
 3609                             	.LVL421:
 209:../src/smc_gen/r_drw2d_rx/src/tes/dave_dlist.c ****          if(NULL == vmem_blocks->blocks)
 3610                             		.loc 1 209 30 view .LVU1421
 3611 0030 E3 71                   		mov.L	r1, [r7]
 210:../src/smc_gen/r_drw2d_rx/src/tes/dave_dlist.c ****          {
 3612                             		.loc 1 210 10 is_stmt 1 view .LVU1422
 210:../src/smc_gen/r_drw2d_rx/src/tes/dave_dlist.c ****          {
 3613                             		.loc 1 210 12 is_stmt 0 view .LVU1423
 3614 0032 61 01                   		cmp	#0, r1
 3615 0034 3A CE 00                		beq	.L247
 214:../src/smc_gen/r_drw2d_rx/src/tes/dave_dlist.c ****          vmem_blocks->block_size = llm_mode->vidmemblocksizefactor * D2_DEV(handle)->dlistblocksize
 3616                             		.loc 1 214 10 is_stmt 1 view .LVU1424
 214:../src/smc_gen/r_drw2d_rx/src/tes/dave_dlist.c ****          vmem_blocks->block_size = llm_mode->vidmemblocksizefactor * D2_DEV(handle)->dlistblocksize
 3617                             		.loc 1 214 34 is_stmt 0 view .LVU1425
 3618 0037 E5 B7 02 01             		mov.L	8[r11], 4[r7]
 215:../src/smc_gen/r_drw2d_rx/src/tes/dave_dlist.c ****          vmem_blocks->num_slices = llm_mode->vidmemblocksizefactor;
 3619                             		.loc 1 215 10 is_stmt 1 view .LVU1426
 215:../src/smc_gen/r_drw2d_rx/src/tes/dave_dlist.c ****          vmem_blocks->num_slices = llm_mode->vidmemblocksizefactor;
 3620                             		.loc 1 215 44 is_stmt 0 view .LVU1427
 3621 003b ED B5 01                		mov.L	4[r11], r5
 215:../src/smc_gen/r_drw2d_rx/src/tes/dave_dlist.c ****          vmem_blocks->num_slices = llm_mode->vidmemblocksizefactor;
 3622                             		.loc 1 215 84 view .LVU1428
 3623 003e ED 64 22                		mov.L	136[r6], r4
 215:../src/smc_gen/r_drw2d_rx/src/tes/dave_dlist.c ****          vmem_blocks->num_slices = llm_mode->vidmemblocksizefactor;
 3624                             		.loc 1 215 68 view .LVU1429
 3625 0041 4F 45                   		mul	r4, r5
 215:../src/smc_gen/r_drw2d_rx/src/tes/dave_dlist.c ****          vmem_blocks->num_slices = llm_mode->vidmemblocksizefactor;
 3626                             		.loc 1 215 34 view .LVU1430
 3627 0043 A0 F5                   		mov.L	r5, 8[r7]
 216:../src/smc_gen/r_drw2d_rx/src/tes/dave_dlist.c **** 
 3628                             		.loc 1 216 10 is_stmt 1 view .LVU1431
 216:../src/smc_gen/r_drw2d_rx/src/tes/dave_dlist.c **** 
 3629                             		.loc 1 216 34 is_stmt 0 view .LVU1432
 3630 0045 E5 B7 01 05             		mov.L	4[r11], 20[r7]
 218:../src/smc_gen/r_drw2d_rx/src/tes/dave_dlist.c ****          {
 3631                             		.loc 1 218 10 is_stmt 1 view .LVU1433
 3632                             	.LVL422:
 218:../src/smc_gen/r_drw2d_rx/src/tes/dave_dlist.c ****          {
 3633                             		.loc 1 218 16 is_stmt 0 view .LVU1434
 3634 0049 66 05                   		mov.L	#0, r5
 3635                             	.LVL423:
 3636                             	.L240:
 218:../src/smc_gen/r_drw2d_rx/src/tes/dave_dlist.c ****          {
 3637                             		.loc 1 218 33 discriminator 1 view .LVU1435
 3638 004b A8 7C                   		mov.L	4[r7], r4
 218:../src/smc_gen/r_drw2d_rx/src/tes/dave_dlist.c ****          {
 3639                             		.loc 1 218 10 discriminator 1 view .LVU1436
 3640 004d 47 54                   		cmp	r5, r4
 3641 004f 25 0F                   		bleu	.L252
 220:../src/smc_gen/r_drw2d_rx/src/tes/dave_dlist.c ****          }
 3642                             		.loc 1 220 13 is_stmt 1 discriminator 3 view .LVU1437
 220:../src/smc_gen/r_drw2d_rx/src/tes/dave_dlist.c ****          }
 3643                             		.loc 1 220 32 is_stmt 0 discriminator 3 view .LVU1438
 3644 0051 FD C2 54                		shll	#2, r5, r4
 3645 0054 06 88 74                		add	[r7], r4
 220:../src/smc_gen/r_drw2d_rx/src/tes/dave_dlist.c ****          }
 3646                             		.loc 1 220 36 discriminator 3 view .LVU1439
 3647 0057 F8 46 00                		mov.L	#0, [r4]
 218:../src/smc_gen/r_drw2d_rx/src/tes/dave_dlist.c ****          {
 3648                             		.loc 1 218 47 discriminator 3 view .LVU1440
 3649 005a 62 15                   		add	#1, r5
 3650                             	.LVL424:
 218:../src/smc_gen/r_drw2d_rx/src/tes/dave_dlist.c ****          {
 3651                             		.loc 1 218 47 discriminator 3 view .LVU1441
 3652 005c 2E EF                   		bra	.L240
 3653                             	.L252:
 222:../src/smc_gen/r_drw2d_rx/src/tes/dave_dlist.c ****          /* allocate first block in vidmem */
 3654                             		.loc 1 222 10 is_stmt 1 view .LVU1442
 222:../src/smc_gen/r_drw2d_rx/src/tes/dave_dlist.c ****          /* allocate first block in vidmem */
 3655                             		.loc 1 222 49 is_stmt 0 view .LVU1443
 3656 005e EC 7B                   		mov.L	[r7], r11
 3657                             	.LVL425:
 222:../src/smc_gen/r_drw2d_rx/src/tes/dave_dlist.c ****          /* allocate first block in vidmem */
 3658                             		.loc 1 222 36 view .LVU1444
 3659 0060 E7 7B 03                		mov.L	r11, 12[r7]
 224:../src/smc_gen/r_drw2d_rx/src/tes/dave_dlist.c ****          if(NULL == vmem_blocks->blocks[0]) 
 3660                             		.loc 1 224 10 is_stmt 1 view .LVU1445
 224:../src/smc_gen/r_drw2d_rx/src/tes/dave_dlist.c ****          if(NULL == vmem_blocks->blocks[0]) 
 3661                             		.loc 1 224 122 is_stmt 0 view .LVU1446
 3662 0063 A8 F3                   		mov.L	8[r7], r3
 224:../src/smc_gen/r_drw2d_rx/src/tes/dave_dlist.c ****          if(NULL == vmem_blocks->blocks[0]) 
 3663                             		.loc 1 224 35 view .LVU1447
 3664 0065 75 13 14                		mul	#20, r3
 3665 0068 66 42                   		mov.L	#4, r2
 3666 006a A9 E1                   		mov.L	24[r6], r1
 3667 006c 05 00 00 00             		bsr	_d1_allocvidmem
 3668                             	.LVL426:
 224:../src/smc_gen/r_drw2d_rx/src/tes/dave_dlist.c ****          if(NULL == vmem_blocks->blocks[0]) 
 3669                             		.loc 1 224 33 view .LVU1448
 3670 0070 E3 B1                   		mov.L	r1, [r11]
 225:../src/smc_gen/r_drw2d_rx/src/tes/dave_dlist.c ****          {
 3671                             		.loc 1 225 10 is_stmt 1 view .LVU1449
 225:../src/smc_gen/r_drw2d_rx/src/tes/dave_dlist.c ****          {
 3672                             		.loc 1 225 32 is_stmt 0 view .LVU1450
 3673 0072 EC 75                   		mov.L	[r7], r5
 225:../src/smc_gen/r_drw2d_rx/src/tes/dave_dlist.c ****          {
 3674                             		.loc 1 225 40 view .LVU1451
 3675 0074 EC 55                   		mov.L	[r5], r5
 225:../src/smc_gen/r_drw2d_rx/src/tes/dave_dlist.c ****          {
 3676                             		.loc 1 225 12 view .LVU1452
 3677 0076 61 05                   		cmp	#0, r5
 3678 0078 3A 8E 00                		beq	.L248
 229:../src/smc_gen/r_drw2d_rx/src/tes/dave_dlist.c ****          vmem_blocks->blocksleft = vmem_blocks->num_blocks;
 3679                             		.loc 1 229 10 is_stmt 1 view .LVU1453
 229:../src/smc_gen/r_drw2d_rx/src/tes/dave_dlist.c ****          vmem_blocks->blocksleft = vmem_blocks->num_blocks;
 3680                             		.loc 1 229 38 is_stmt 0 view .LVU1454
 3681 007b A1 75                   		mov.L	r5, 16[r7]
 230:../src/smc_gen/r_drw2d_rx/src/tes/dave_dlist.c ****          vmem_blocks->slicesleft = vmem_blocks->num_slices;
 3682                             		.loc 1 230 10 is_stmt 1 view .LVU1455
 230:../src/smc_gen/r_drw2d_rx/src/tes/dave_dlist.c ****          vmem_blocks->slicesleft = vmem_blocks->num_slices;
 3683                             		.loc 1 230 34 is_stmt 0 view .LVU1456
 3684 007d E5 77 01 07             		mov.L	4[r7], 28[r7]
 231:../src/smc_gen/r_drw2d_rx/src/tes/dave_dlist.c ****       }
 3685                             		.loc 1 231 10 is_stmt 1 view .LVU1457
 231:../src/smc_gen/r_drw2d_rx/src/tes/dave_dlist.c ****       }
 3686                             		.loc 1 231 34 is_stmt 0 view .LVU1458
 3687 0081 E5 77 05 06             		mov.L	20[r7], 24[r7]
 3688                             	.LVL427:
 3689                             	.L242:
 231:../src/smc_gen/r_drw2d_rx/src/tes/dave_dlist.c ****       }
 3690                             		.loc 1 231 34 view .LVU1459
 3691                             	.LBE93:
 3692                             	.LBE92:
 238:../src/smc_gen/r_drw2d_rx/src/tes/dave_dlist.c **** 
 3693                             		.loc 1 238 4 is_stmt 1 view .LVU1460
 238:../src/smc_gen/r_drw2d_rx/src/tes/dave_dlist.c **** 
 3694                             		.loc 1 238 30 is_stmt 0 view .LVU1461
 3695 0085 ED A7 01                		mov.L	4[r10], r7
 238:../src/smc_gen/r_drw2d_rx/src/tes/dave_dlist.c **** 
 3696                             		.loc 1 238 23 view .LVU1462
 3697 0088 E7 A7 03                		mov.L	r7, 12[r10]
 240:../src/smc_gen/r_drw2d_rx/src/tes/dave_dlist.c ****    {
 3698                             		.loc 1 240 4 is_stmt 1 view .LVU1463
 240:../src/smc_gen/r_drw2d_rx/src/tes/dave_dlist.c ****    {
 3699                             		.loc 1 240 6 is_stmt 0 view .LVU1464
 3700 008b 61 07                   		cmp	#0, r7
 3701 008d 20 7D                   		beq	.L249
 245:../src/smc_gen/r_drw2d_rx/src/tes/dave_dlist.c ****    dlist->position = dlist->firstblock->block;
 3702                             		.loc 1 245 4 is_stmt 1 view .LVU1465
 245:../src/smc_gen/r_drw2d_rx/src/tes/dave_dlist.c ****    dlist->position = dlist->firstblock->block;
 3703                             		.loc 1 245 24 is_stmt 0 view .LVU1466
 3704 008f E7 A7 02                		mov.L	r7, 8[r10]
 246:../src/smc_gen/r_drw2d_rx/src/tes/dave_dlist.c ****    dlist->blocksize = dlist->firstblock->quantity;
 3705                             		.loc 1 246 4 is_stmt 1 view .LVU1467
 246:../src/smc_gen/r_drw2d_rx/src/tes/dave_dlist.c ****    dlist->blocksize = dlist->firstblock->quantity;
 3706                             		.loc 1 246 20 is_stmt 0 view .LVU1468
 3707 0092 E5 7A 01 04             		mov.L	4[r7], 16[r10]
 247:../src/smc_gen/r_drw2d_rx/src/tes/dave_dlist.c ****    dlist->tagindex = 0;
 3708                             		.loc 1 247 4 is_stmt 1 view .LVU1469
 247:../src/smc_gen/r_drw2d_rx/src/tes/dave_dlist.c ****    dlist->tagindex = 0;
 3709                             		.loc 1 247 21 is_stmt 0 view .LVU1470
 3710 0096 E5 7A 02 07             		mov.L	8[r7], 28[r10]
 248:../src/smc_gen/r_drw2d_rx/src/tes/dave_dlist.c ****    dlist->shrinkcount = 0;
 3711                             		.loc 1 248 4 is_stmt 1 view .LVU1471
 248:../src/smc_gen/r_drw2d_rx/src/tes/dave_dlist.c ****    dlist->shrinkcount = 0;
 3712                             		.loc 1 248 20 is_stmt 0 view .LVU1472
 3713 009a F9 A6 06 00             		mov.L	#0, 24[r10]
 249:../src/smc_gen/r_drw2d_rx/src/tes/dave_dlist.c ****    dlist->count = 0;
 3714                             		.loc 1 249 4 is_stmt 1 view .LVU1473
 249:../src/smc_gen/r_drw2d_rx/src/tes/dave_dlist.c ****    dlist->count = 0;
 3715                             		.loc 1 249 23 is_stmt 0 view .LVU1474
 3716 009e F9 A6 0A 00             		mov.L	#0, 40[r10]
 250:../src/smc_gen/r_drw2d_rx/src/tes/dave_dlist.c **** 
 3717                             		.loc 1 250 4 is_stmt 1 view .LVU1475
 250:../src/smc_gen/r_drw2d_rx/src/tes/dave_dlist.c **** 
 3718                             		.loc 1 250 17 is_stmt 0 view .LVU1476
 3719 00a2 F9 A6 0B 00             		mov.L	#0, 44[r10]
 252:../src/smc_gen/r_drw2d_rx/src/tes/dave_dlist.c ****    dlist->dlist_addresses     = d2_getmem_p(DLIST_ADRESSES_NUMBER*sizeof(d2_s32*));
 3720                             		.loc 1 252 4 is_stmt 1 view .LVU1477
 252:../src/smc_gen/r_drw2d_rx/src/tes/dave_dlist.c ****    dlist->dlist_addresses     = d2_getmem_p(DLIST_ADRESSES_NUMBER*sizeof(d2_s32*));
 3721                             		.loc 1 252 31 is_stmt 0 view .LVU1478
 3722 00a6 F9 A5 1A 10             		mov.W	#16, 52[r10]
 253:../src/smc_gen/r_drw2d_rx/src/tes/dave_dlist.c ****    if(NULL == dlist->dlist_addresses) 
 3723                             		.loc 1 253 4 is_stmt 1 view .LVU1479
 253:../src/smc_gen/r_drw2d_rx/src/tes/dave_dlist.c ****    if(NULL == dlist->dlist_addresses) 
 3724                             		.loc 1 253 33 is_stmt 0 view .LVU1480
 3725 00aa 75 41 40                		mov.L	#0x40, r1
 3726 00ad 05 00 00 00             		bsr	_d2_getmem_p
 3727                             	.LVL428:
 253:../src/smc_gen/r_drw2d_rx/src/tes/dave_dlist.c ****    if(NULL == dlist->dlist_addresses) 
 3728                             		.loc 1 253 31 view .LVU1481
 3729 00b1 E7 A1 0C                		mov.L	r1, 48[r10]
 254:../src/smc_gen/r_drw2d_rx/src/tes/dave_dlist.c ****    {
 3730                             		.loc 1 254 4 is_stmt 1 view .LVU1482
 254:../src/smc_gen/r_drw2d_rx/src/tes/dave_dlist.c ****    {
 3731                             		.loc 1 254 6 is_stmt 0 view .LVU1483
 3732 00b4 61 01                   		cmp	#0, r1
 3733 00b6 20 58                   		beq	.L250
 259:../src/smc_gen/r_drw2d_rx/src/tes/dave_dlist.c ****    {
 3734                             		.loc 1 259 4 is_stmt 1 view .LVU1484
 259:../src/smc_gen/r_drw2d_rx/src/tes/dave_dlist.c ****    {
 3735                             		.loc 1 259 20 is_stmt 0 view .LVU1485
 3736 00b8 ED A7 05                		mov.L	20[r10], r7
 259:../src/smc_gen/r_drw2d_rx/src/tes/dave_dlist.c ****    {
 3737                             		.loc 1 259 6 view .LVU1486
 3738 00bb 61 07                   		cmp	#0, r7
 3739 00bd 20 29                   		beq	.L243
 262:../src/smc_gen/r_drw2d_rx/src/tes/dave_dlist.c ****    }
 3740                             		.loc 1 262 7 is_stmt 1 view .LVU1487
 262:../src/smc_gen/r_drw2d_rx/src/tes/dave_dlist.c ****    }
 3741                             		.loc 1 262 49 is_stmt 0 view .LVU1488
 3742 00bf EC 77                   		mov.L	[r7], r7
 262:../src/smc_gen/r_drw2d_rx/src/tes/dave_dlist.c ****    }
 3743                             		.loc 1 262 27 view .LVU1489
 3744 00c1 EC 77                   		mov.L	[r7], r7
 3745                             	.LVL429:
 3746                             	.L244:
 273:../src/smc_gen/r_drw2d_rx/src/tes/dave_dlist.c ****    (void)d2_add_dlistlist_intern(handle, dlist, current_dlist_start);
 3747                             		.loc 1 273 4 is_stmt 1 view .LVU1490
 3748 00c3 EF A2                   		mov.L	r10, r2
 3749 00c5 EF 61                   		mov.L	r6, r1
 3750 00c7 05 00 00 00             		bsr	_d2_clear_dlistlist_intern
 3751                             	.LVL430:
 274:../src/smc_gen/r_drw2d_rx/src/tes/dave_dlist.c **** 
 3752                             		.loc 1 274 4 view .LVU1491
 274:../src/smc_gen/r_drw2d_rx/src/tes/dave_dlist.c **** 
 3753                             		.loc 1 274 10 is_stmt 0 view .LVU1492
 3754 00cb EF 73                   		mov.L	r7, r3
 3755 00cd EF A2                   		mov.L	r10, r2
 3756 00cf EF 61                   		mov.L	r6, r1
 3757 00d1 05 00 00 00             		bsr	_d2_add_dlistlist_intern
 3758                             	.LVL431:
 276:../src/smc_gen/r_drw2d_rx/src/tes/dave_dlist.c **** }
 3759                             		.loc 1 276 4 is_stmt 1 view .LVU1493
 276:../src/smc_gen/r_drw2d_rx/src/tes/dave_dlist.c **** }
 3760                             		.loc 1 276 11 is_stmt 0 view .LVU1494
 3761 00d5 66 11                   		mov.L	#1, r1
 3762                             	.LVL432:
 3763 00d7 03                      		.balign 8,3,2
 3764                             	.L237:
 277:../src/smc_gen/r_drw2d_rx/src/tes/dave_dlist.c **** 
 3765                             		.loc 1 277 1 view .LVU1495
 3766 00d8 3F 6B 06                		rtsd	#24, r6-r11
 3767                             	.LVL433:
 3768                             	.L238:
 236:../src/smc_gen/r_drw2d_rx/src/tes/dave_dlist.c ****    }
 3769                             		.loc 1 236 7 is_stmt 1 view .LVU1496
 236:../src/smc_gen/r_drw2d_rx/src/tes/dave_dlist.c ****    }
 3770                             		.loc 1 236 27 is_stmt 0 view .LVU1497
 3771 00db EF 32                   		mov.L	r3, r2
 3772                             	.LVL434:
 236:../src/smc_gen/r_drw2d_rx/src/tes/dave_dlist.c ****    }
 3773                             		.loc 1 236 27 view .LVU1498
 3774 00dd 05 00 00 00             		bsr	_d2_alloc_dlistblock_intern
 3775                             	.LVL435:
 236:../src/smc_gen/r_drw2d_rx/src/tes/dave_dlist.c ****    }
 3776                             		.loc 1 236 25 view .LVU1499
 3777 00e1 E7 A1 01                		mov.L	r1, 4[r10]
 3778 00e4 2E A1                   		bra	.L242
 3779                             	.L243:
 264:../src/smc_gen/r_drw2d_rx/src/tes/dave_dlist.c ****    {
 3780                             		.loc 1 264 9 is_stmt 1 view .LVU1500
 264:../src/smc_gen/r_drw2d_rx/src/tes/dave_dlist.c ****    {
 3781                             		.loc 1 264 35 is_stmt 0 view .LVU1501
 3782 00e6 ED 67 21                		mov.L	132[r6], r7
 264:../src/smc_gen/r_drw2d_rx/src/tes/dave_dlist.c ****    {
 3783                             		.loc 1 264 11 view .LVU1502
 3784 00e9 FD 74 C7 12             		tst	#18, r7
 3785 00ed 12                      		beq	.L245
 264:../src/smc_gen/r_drw2d_rx/src/tes/dave_dlist.c ****    {
 3786                             		.loc 1 264 110 discriminator 1 view .LVU1503
 3787 00ee ED A7 01                		mov.L	4[r10], r7
 264:../src/smc_gen/r_drw2d_rx/src/tes/dave_dlist.c ****    {
 3788                             		.loc 1 264 122 discriminator 1 view .LVU1504
 3789 00f1 A9 77                   		mov.L	16[r7], r7
 264:../src/smc_gen/r_drw2d_rx/src/tes/dave_dlist.c ****    {
 3790                             		.loc 1 264 93 discriminator 1 view .LVU1505
 3791 00f3 61 07                   		cmp	#0, r7
 3792 00f5 21 CE                   		bne	.L244
 3793                             	.L245:
 270:../src/smc_gen/r_drw2d_rx/src/tes/dave_dlist.c ****    }
 3794                             		.loc 1 270 7 is_stmt 1 view .LVU1506
 270:../src/smc_gen/r_drw2d_rx/src/tes/dave_dlist.c ****    }
 3795                             		.loc 1 270 34 is_stmt 0 view .LVU1507
 3796 00f7 ED A7 01                		mov.L	4[r10], r7
 270:../src/smc_gen/r_drw2d_rx/src/tes/dave_dlist.c ****    }
 3797                             		.loc 1 270 27 view .LVU1508
 3798 00fa A8 7F                   		mov.L	4[r7], r7
 3799                             	.LVL436:
 270:../src/smc_gen/r_drw2d_rx/src/tes/dave_dlist.c ****    }
 3800                             		.loc 1 270 27 view .LVU1509
 3801 00fc 2E C7                   		bra	.L244
 3802                             	.LVL437:
 3803                             	.L246:
 3804                             	.LBB95:
 203:../src/smc_gen/r_drw2d_rx/src/tes/dave_dlist.c ****       }
 3805                             		.loc 1 203 17 view .LVU1510
 3806 00fe 66 01                   		mov.L	#0, r1
 3807 0100 2E D8                   		bra	.L237
 3808                             	.LVL438:
 3809                             	.L247:
 3810                             	.LBB94:
 212:../src/smc_gen/r_drw2d_rx/src/tes/dave_dlist.c ****          }
 3811                             		.loc 1 212 20 view .LVU1511
 3812 0102 66 01                   		mov.L	#0, r1
 3813 0104 2E D4                   		bra	.L237
 3814                             	.LVL439:
 3815                             	.L248:
 227:../src/smc_gen/r_drw2d_rx/src/tes/dave_dlist.c ****          }
 3816                             		.loc 1 227 20 view .LVU1512
 3817 0106 66 01                   		mov.L	#0, r1
 3818 0108 2E D0                   		bra	.L237
 3819                             	.LVL440:
 3820                             	.L249:
 227:../src/smc_gen/r_drw2d_rx/src/tes/dave_dlist.c ****          }
 3821                             		.loc 1 227 20 view .LVU1513
 3822                             	.LBE94:
 3823                             	.LBE95:
 242:../src/smc_gen/r_drw2d_rx/src/tes/dave_dlist.c ****    }
 3824                             		.loc 1 242 14 view .LVU1514
 3825 010a 66 01                   		mov.L	#0, r1
 3826 010c 2E CC                   		bra	.L237
 3827                             	.L250:
 256:../src/smc_gen/r_drw2d_rx/src/tes/dave_dlist.c ****    }
 3828                             		.loc 1 256 14 view .LVU1515
 3829 010e 66 01                   		mov.L	#0, r1
 3830 0110 2E C8                   		bra	.L237
 3831                             	.LFE9:
 3833 0112 74 10 01 00 00 00       		.section	.text.d2_executedlist,"ax",@progbits
 3834                             		.global	_d2_executedlist
 3836                             	_d2_executedlist:
 3837                             	.LVL441:
 3838                             	.LFB25:
1297:../src/smc_gen/r_drw2d_rx/src/tes/dave_dlist.c **** 
1298:../src/smc_gen/r_drw2d_rx/src/tes/dave_dlist.c **** /*------------------------------------------------------------------------
1299:../src/smc_gen/r_drw2d_rx/src/tes/dave_dlist.c ****  * function: d2_executedlist
1300:../src/smc_gen/r_drw2d_rx/src/tes/dave_dlist.c ****  *
1301:../src/smc_gen/r_drw2d_rx/src/tes/dave_dlist.c ****  * Execute an already prepared display list. 
1302:../src/smc_gen/r_drw2d_rx/src/tes/dave_dlist.c ****  * A display list (Dlist) can be created e.g. by <d2_dumprenderbuffer>.  
1303:../src/smc_gen/r_drw2d_rx/src/tes/dave_dlist.c ****  *
1304:../src/smc_gen/r_drw2d_rx/src/tes/dave_dlist.c ****  * Basically the address will be sent to D/AVE and will be executed immediately.
1305:../src/smc_gen/r_drw2d_rx/src/tes/dave_dlist.c ****  * So the dlist address must be accessible by the GPU and 
1306:../src/smc_gen/r_drw2d_rx/src/tes/dave_dlist.c ****  * it is in the application's responsibility to prepare the Dlist
1307:../src/smc_gen/r_drw2d_rx/src/tes/dave_dlist.c ****  * correctly.
1308:../src/smc_gen/r_drw2d_rx/src/tes/dave_dlist.c ****  * 
1309:../src/smc_gen/r_drw2d_rx/src/tes/dave_dlist.c ****  * d2_executedlist must not be called while D/AVE is busy rendering
1310:../src/smc_gen/r_drw2d_rx/src/tes/dave_dlist.c ****  * (see: <Render Buffers>). 
1311:../src/smc_gen/r_drw2d_rx/src/tes/dave_dlist.c ****  *
1312:../src/smc_gen/r_drw2d_rx/src/tes/dave_dlist.c ****  * Note: 
1313:../src/smc_gen/r_drw2d_rx/src/tes/dave_dlist.c ****  * This has no influence on the render buffer mechanism. The
1314:../src/smc_gen/r_drw2d_rx/src/tes/dave_dlist.c ****  * driver will manage cooperation of render buffers and Dlists.
1315:../src/smc_gen/r_drw2d_rx/src/tes/dave_dlist.c ****  *
1316:../src/smc_gen/r_drw2d_rx/src/tes/dave_dlist.c ****  * Note: 
1317:../src/smc_gen/r_drw2d_rx/src/tes/dave_dlist.c ****  * In case d2_opendevice was called with d2_df_no_dlist address must 
1318:../src/smc_gen/r_drw2d_rx/src/tes/dave_dlist.c ****  * be accessible by the CPU.
1319:../src/smc_gen/r_drw2d_rx/src/tes/dave_dlist.c ****  *
1320:../src/smc_gen/r_drw2d_rx/src/tes/dave_dlist.c ****  * parameters:
1321:../src/smc_gen/r_drw2d_rx/src/tes/dave_dlist.c ****  *   handle  - device pointer (see: <d2_opendevice>)
1322:../src/smc_gen/r_drw2d_rx/src/tes/dave_dlist.c ****  *   address - Address of the Dlist (must be accessible by the GPU)
1323:../src/smc_gen/r_drw2d_rx/src/tes/dave_dlist.c ****  *   flags   - reserved (set to 0)
1324:../src/smc_gen/r_drw2d_rx/src/tes/dave_dlist.c ****  *
1325:../src/smc_gen/r_drw2d_rx/src/tes/dave_dlist.c ****  *
1326:../src/smc_gen/r_drw2d_rx/src/tes/dave_dlist.c ****  * returns:
1327:../src/smc_gen/r_drw2d_rx/src/tes/dave_dlist.c ****  *   errorcode (D2_OK if successful) see <Errorcodes> for details
1328:../src/smc_gen/r_drw2d_rx/src/tes/dave_dlist.c ****  * */
1329:../src/smc_gen/r_drw2d_rx/src/tes/dave_dlist.c **** d2_s32 d2_executedlist( d2_device *handle, const void *address, d2_u32 flags )
1330:../src/smc_gen/r_drw2d_rx/src/tes/dave_dlist.c **** {
 3839                             		.loc 1 1330 1 is_stmt 1 view -0
 3840                             		.loc 1 1330 1 is_stmt 0 view .LVU1517
 3841 0000 7E A7                   		push.l	r7
 3842                             	.LCFI20:
 3843 0002 71 00 C8                		add	#-56, r0
 3844                             	.LCFI21:
 3845 0005 EF 17                   		mov.L	r1, r7
1331:../src/smc_gen/r_drw2d_rx/src/tes/dave_dlist.c ****    d2_devicedata *dev = D2_DEV(handle);
 3846                             		.loc 1 1331 4 is_stmt 1 view .LVU1518
 3847                             	.LVL442:
1332:../src/smc_gen/r_drw2d_rx/src/tes/dave_dlist.c ****    d2_dlist  dlist;
 3848                             		.loc 1 1332 4 view .LVU1519
1333:../src/smc_gen/r_drw2d_rx/src/tes/dave_dlist.c ****    d2_s32 *dlist_list;
 3849                             		.loc 1 1333 4 view .LVU1520
1334:../src/smc_gen/r_drw2d_rx/src/tes/dave_dlist.c ****    (void) flags; /* PRQA S 3112 */ /*$Misra: #COMPILER_WARNING $*/
 3850                             		.loc 1 1334 4 view .LVU1521
1335:../src/smc_gen/r_drw2d_rx/src/tes/dave_dlist.c **** 
1336:../src/smc_gen/r_drw2d_rx/src/tes/dave_dlist.c ****    D2_VALIDATE( handle,  D2_INVALIDDEVICE ); /* PRQA S 4130, 3112 */ /* $Misra: #DEBUG_MACRO $*/
 3851                             		.loc 1 1336 4 view .LVU1522
1337:../src/smc_gen/r_drw2d_rx/src/tes/dave_dlist.c ****    D2_VALIDATE( address, D2_INVALIDBUFFER ); /* PRQA S 4130, 3112 */ /* $Misra: #DEBUG_MACRO $*/
 3852                             		.loc 1 1337 4 view .LVU1523
1338:../src/smc_gen/r_drw2d_rx/src/tes/dave_dlist.c **** 
1339:../src/smc_gen/r_drw2d_rx/src/tes/dave_dlist.c ****    /* put dlist_start to special address list */
1340:../src/smc_gen/r_drw2d_rx/src/tes/dave_dlist.c ****    dlist.dlist_addresses     = dev->dlist_list_single;
 3853                             		.loc 1 1340 4 view .LVU1524
 3854                             		.loc 1 1340 32 is_stmt 0 view .LVU1525
 3855 0007 72 15 CC 01             		add	#0x1cc, r1, r5
 3856                             		.loc 1 1340 30 view .LVU1526
 3857 000b A3 05                   		mov.L	r5, 48[r0]
1341:../src/smc_gen/r_drw2d_rx/src/tes/dave_dlist.c ****    dlist.dlist_addresses_max = 2;
 3858                             		.loc 1 1341 4 is_stmt 1 view .LVU1527
 3859                             		.loc 1 1341 30 is_stmt 0 view .LVU1528
 3860 000d 3D 8A 02                		mov.W	#2, 52[r0]
1342:../src/smc_gen/r_drw2d_rx/src/tes/dave_dlist.c ****    dlist.dlist_addresses_cur = 1;
 3861                             		.loc 1 1342 4 is_stmt 1 view .LVU1529
 3862                             		.loc 1 1342 30 is_stmt 0 view .LVU1530
 3863 0010 3D 8B 01                		mov.W	#1, 54[r0]
1343:../src/smc_gen/r_drw2d_rx/src/tes/dave_dlist.c **** 
1344:../src/smc_gen/r_drw2d_rx/src/tes/dave_dlist.c ****    dlist_list = (d2_s32 *)dlist.dlist_addresses;
 3864                             		.loc 1 1344 4 is_stmt 1 view .LVU1531
 3865                             	.LVL443:
1345:../src/smc_gen/r_drw2d_rx/src/tes/dave_dlist.c ****    dlist_list[0] = (d2_s32)address;
 3866                             		.loc 1 1345 4 view .LVU1532
 3867                             		.loc 1 1345 18 is_stmt 0 view .LVU1533
 3868 0013 E7 12 73                		mov.L	r2, 460[r1]
1346:../src/smc_gen/r_drw2d_rx/src/tes/dave_dlist.c ****    dlist_list[1] = 0;
 3869                             		.loc 1 1346 4 is_stmt 1 view .LVU1534
 3870                             		.loc 1 1346 18 is_stmt 0 view .LVU1535
 3871 0016 F9 16 74 00             		mov.L	#0, 464[r1]
1347:../src/smc_gen/r_drw2d_rx/src/tes/dave_dlist.c **** 
1348:../src/smc_gen/r_drw2d_rx/src/tes/dave_dlist.c ****    /* start dlist execution */
1349:../src/smc_gen/r_drw2d_rx/src/tes/dave_dlist.c ****    d2hw_start(handle, &dlist, 1);
 3872                             		.loc 1 1349 4 is_stmt 1 view .LVU1536
 3873 001a 66 13                   		mov.L	#1, r3
 3874                             	.LVL444:
 3875                             		.loc 1 1349 4 is_stmt 0 view .LVU1537
 3876 001c EF 02                   		mov.L	r0, r2
 3877                             	.LVL445:
 3878                             		.loc 1 1349 4 view .LVU1538
 3879 001e 05 00 00 00             		bsr	_d2hw_start
 3880                             	.LVL446:
1350:../src/smc_gen/r_drw2d_rx/src/tes/dave_dlist.c **** 
1351:../src/smc_gen/r_drw2d_rx/src/tes/dave_dlist.c ****    D2_RETOK(handle);
 3881                             		.loc 1 1351 4 is_stmt 1 view .LVU1539
 3882                             	.LBB96:
 3883                             	.LBI96:
 239:../src/smc_gen/r_drw2d_rx/src/tes/dave_intern.h **** {
 3884                             		.loc 3 239 25 view .LVU1540
 3885                             	.LBB97:
 241:../src/smc_gen/r_drw2d_rx/src/tes/dave_intern.h **** 
 3886                             		.loc 3 241 4 view .LVU1541
 241:../src/smc_gen/r_drw2d_rx/src/tes/dave_intern.h **** 
 3887                             		.loc 3 241 30 is_stmt 0 view .LVU1542
 3888 0022 FA 74 C6 01 00          		mov.B	#0, 454[r7]
 3889                             		.loc 3 243 4 is_stmt 1 view .LVU1543
 3890                             	.LVL447:
 3891                             		.loc 3 243 4 is_stmt 0 view .LVU1544
 3892                             	.LBE97:
 3893                             	.LBE96:
1352:../src/smc_gen/r_drw2d_rx/src/tes/dave_dlist.c **** }
 3894                             		.loc 1 1352 1 view .LVU1545
 3895 0027 66 01                   		mov.L	#0, r1
 3896 0029 3F 77 0F                		rtsd	#60, r7-r7
 3897                             		.loc 1 1352 1 view .LVU1546
 3898                             	.LFE25:
 3900                             		.section	.text.d2_adddlist,"ax",@progbits
 3901                             		.global	_d2_adddlist
 3903                             	_d2_adddlist:
 3904                             	.LVL448:
 3905                             	.LFB26:
1353:../src/smc_gen/r_drw2d_rx/src/tes/dave_dlist.c **** 
1354:../src/smc_gen/r_drw2d_rx/src/tes/dave_dlist.c **** /*------------------------------------------------------------------------
1355:../src/smc_gen/r_drw2d_rx/src/tes/dave_dlist.c ****  * function: d2_adddlist
1356:../src/smc_gen/r_drw2d_rx/src/tes/dave_dlist.c ****  *
1357:../src/smc_gen/r_drw2d_rx/src/tes/dave_dlist.c ****  * Add an already prepared display list to the current render buffer.
1358:../src/smc_gen/r_drw2d_rx/src/tes/dave_dlist.c ****  * A display list (Dlist) can be created e.g. by <d2_dumprenderbuffer>.  
1359:../src/smc_gen/r_drw2d_rx/src/tes/dave_dlist.c ****  *
1360:../src/smc_gen/r_drw2d_rx/src/tes/dave_dlist.c ****  * Depending on the flags, the Dlist will be added to the current
1361:../src/smc_gen/r_drw2d_rx/src/tes/dave_dlist.c ****  * render buffer by copying its content or by adding 'call' operations
1362:../src/smc_gen/r_drw2d_rx/src/tes/dave_dlist.c ****  * to the current render buffer.
1363:../src/smc_gen/r_drw2d_rx/src/tes/dave_dlist.c ****  *
1364:../src/smc_gen/r_drw2d_rx/src/tes/dave_dlist.c ****  * If a 'postprocess' rendermode is active the layers are merged before
1365:../src/smc_gen/r_drw2d_rx/src/tes/dave_dlist.c ****  * the Dlist is added (see: <d2_selectrendermode>).
1366:../src/smc_gen/r_drw2d_rx/src/tes/dave_dlist.c ****  *
1367:../src/smc_gen/r_drw2d_rx/src/tes/dave_dlist.c ****  * Note: 
1368:../src/smc_gen/r_drw2d_rx/src/tes/dave_dlist.c ****  * If d2_al_no_copy is selected, the GPU must be able to select the
1369:../src/smc_gen/r_drw2d_rx/src/tes/dave_dlist.c ****  * specified address, in case if d2_al_copy the CPU must be able to 
1370:../src/smc_gen/r_drw2d_rx/src/tes/dave_dlist.c ****  * access the Dlist.
1371:../src/smc_gen/r_drw2d_rx/src/tes/dave_dlist.c ****  *
1372:../src/smc_gen/r_drw2d_rx/src/tes/dave_dlist.c ****  * Note: 
1373:../src/smc_gen/r_drw2d_rx/src/tes/dave_dlist.c ****  * For the mode d2_al_no_copy the low level driver must support the handling
1374:../src/smc_gen/r_drw2d_rx/src/tes/dave_dlist.c ****  * of lists of Dlist start addresses (see: <d2_level1interface> and 
1375:../src/smc_gen/r_drw2d_rx/src/tes/dave_dlist.c ****  * low level device <D1 Display list handling at ../../../driver_l1/files/doc/d1_dlistindirect-txt.
1376:../src/smc_gen/r_drw2d_rx/src/tes/dave_dlist.c ****  * 
1377:../src/smc_gen/r_drw2d_rx/src/tes/dave_dlist.c ****  * If this handling is not supported then no Dlists can be added in this mode.
1378:../src/smc_gen/r_drw2d_rx/src/tes/dave_dlist.c ****  *
1379:../src/smc_gen/r_drw2d_rx/src/tes/dave_dlist.c ****  * parameters:
1380:../src/smc_gen/r_drw2d_rx/src/tes/dave_dlist.c ****  *   handle  - device pointer (see: <d2_opendevice>)
1381:../src/smc_gen/r_drw2d_rx/src/tes/dave_dlist.c ****  *   address - Address of the Dlist 
1382:../src/smc_gen/r_drw2d_rx/src/tes/dave_dlist.c ****  *            (in case of d2_al_no_copy must be accessible by the GPU 
1383:../src/smc_gen/r_drw2d_rx/src/tes/dave_dlist.c ****  *             in case of d2_al_no_copy must be accessible by CPU)
1384:../src/smc_gen/r_drw2d_rx/src/tes/dave_dlist.c ****  *   size    - size of Dlist
1385:../src/smc_gen/r_drw2d_rx/src/tes/dave_dlist.c ****  *   flags   - d2_al_copy, d2_al_no_copy
1386:../src/smc_gen/r_drw2d_rx/src/tes/dave_dlist.c ****  *
1387:../src/smc_gen/r_drw2d_rx/src/tes/dave_dlist.c ****  * returns:
1388:../src/smc_gen/r_drw2d_rx/src/tes/dave_dlist.c ****  *   errorcode (D2_OK if successful) see <Errorcodes> for details
1389:../src/smc_gen/r_drw2d_rx/src/tes/dave_dlist.c ****  *
1390:../src/smc_gen/r_drw2d_rx/src/tes/dave_dlist.c ****  * flags:
1391:../src/smc_gen/r_drw2d_rx/src/tes/dave_dlist.c ****  *   d2_al_default - default behavior d2_al_copy.
1392:../src/smc_gen/r_drw2d_rx/src/tes/dave_dlist.c ****  *   d2_al_copy    - content will be copied.
1393:../src/smc_gen/r_drw2d_rx/src/tes/dave_dlist.c ****  *   d2_al_no_copy - call to the Dlist will be added.
1394:../src/smc_gen/r_drw2d_rx/src/tes/dave_dlist.c ****  *
1395:../src/smc_gen/r_drw2d_rx/src/tes/dave_dlist.c ****  * see also:
1396:../src/smc_gen/r_drw2d_rx/src/tes/dave_dlist.c ****  *   <d2_dumprenderbuffer>, <d2_getrenderbuffersize>, <d2_relocateframe>
1397:../src/smc_gen/r_drw2d_rx/src/tes/dave_dlist.c ****  * */
1398:../src/smc_gen/r_drw2d_rx/src/tes/dave_dlist.c **** d2_s32 d2_adddlist( d2_device *handle, void *address, d2_s32 size, d2_u32 flags )
1399:../src/smc_gen/r_drw2d_rx/src/tes/dave_dlist.c **** {  
 3906                             		.loc 1 1399 1 is_stmt 1 view -0
 3907                             		.loc 1 1399 1 is_stmt 0 view .LVU1548
 3908 0000 6E 6C                   		pushm	r6-r12
 3909                             	.LCFI22:
 3910 0002 EF 17                   		mov.L	r1, r7
 3911 0004 EF 2B                   		mov.L	r2, r11
 3912 0006 EF 3C                   		mov.L	r3, r12
 3913 0008 EF 4A                   		mov.L	r4, r10
1400:../src/smc_gen/r_drw2d_rx/src/tes/dave_dlist.c ****    d2_devicedata *dev   = D2_DEV(handle);
 3914                             		.loc 1 1400 4 is_stmt 1 view .LVU1549
 3915                             	.LVL449:
1401:../src/smc_gen/r_drw2d_rx/src/tes/dave_dlist.c ****    d2_dlist      *dlist;
 3916                             		.loc 1 1401 4 view .LVU1550
1402:../src/smc_gen/r_drw2d_rx/src/tes/dave_dlist.c ****    void          *current_dlist_start;
 3917                             		.loc 1 1402 4 view .LVU1551
1403:../src/smc_gen/r_drw2d_rx/src/tes/dave_dlist.c **** 
1404:../src/smc_gen/r_drw2d_rx/src/tes/dave_dlist.c ****    D2_VALIDATE( handle,  D2_INVALIDDEVICE ); /* PRQA S 4130, 3112 */ /* $Misra: #DEBUG_MACRO $*/
 3918                             		.loc 1 1404 4 view .LVU1552
1405:../src/smc_gen/r_drw2d_rx/src/tes/dave_dlist.c ****    D2_VALIDATE( address, D2_INVALIDBUFFER ); /* PRQA S 4130, 3112 */ /* $Misra: #DEBUG_MACRO $*/
 3919                             		.loc 1 1405 4 view .LVU1553
1406:../src/smc_gen/r_drw2d_rx/src/tes/dave_dlist.c ****    D2_VALIDATE( size,    D2_VALUETOOSMALL ); /* PRQA S 4130, 3112 */ /* $Misra: #DEBUG_MACRO $*/
 3920                             		.loc 1 1406 4 view .LVU1554
1407:../src/smc_gen/r_drw2d_rx/src/tes/dave_dlist.c **** 
1408:../src/smc_gen/r_drw2d_rx/src/tes/dave_dlist.c ****    dlist = &dev->selectedbuffer->baselist;
 3921                             		.loc 1 1408 4 view .LVU1555
 3922                             		.loc 1 1408 16 is_stmt 0 view .LVU1556
 3923 000a A8 9E                   		mov.L	12[r1], r6
 3924                             	.LVL450:
1409:../src/smc_gen/r_drw2d_rx/src/tes/dave_dlist.c **** 
1410:../src/smc_gen/r_drw2d_rx/src/tes/dave_dlist.c ****    /* reset postprocessing mode if still active */
1411:../src/smc_gen/r_drw2d_rx/src/tes/dave_dlist.c ****    if(d2_rm_postprocess == dev->rendermode)
 3925                             		.loc 1 1411 4 is_stmt 1 view .LVU1557
 3926                             		.loc 1 1411 31 is_stmt 0 view .LVU1558
 3927 000c AE 1D                   		mov.L	100[r1], r5
 3928                             		.loc 1 1411 6 view .LVU1559
 3929 000e 61 85                   		cmp	#8, r5
 3930 0010 20 3F                   		beq	.L260
 3931                             	.LVL451:
 3932                             	.L256:
1412:../src/smc_gen/r_drw2d_rx/src/tes/dave_dlist.c ****    {
1413:../src/smc_gen/r_drw2d_rx/src/tes/dave_dlist.c ****       (void)d2_selectrendermode( handle, d2_rm_solid );
1414:../src/smc_gen/r_drw2d_rx/src/tes/dave_dlist.c ****    }
1415:../src/smc_gen/r_drw2d_rx/src/tes/dave_dlist.c **** 
1416:../src/smc_gen/r_drw2d_rx/src/tes/dave_dlist.c ****    /* merge in layers if they contain data */
1417:../src/smc_gen/r_drw2d_rx/src/tes/dave_dlist.c ****    d2_layer2dlist_intern( handle );
 3933                             		.loc 1 1417 4 is_stmt 1 view .LVU1560
 3934 0012 EF 71                   		mov.L	r7, r1
 3935 0014 05 00 00 00             		bsr	_d2_layer2dlist_intern
 3936                             	.LVL452:
1418:../src/smc_gen/r_drw2d_rx/src/tes/dave_dlist.c **** 
1419:../src/smc_gen/r_drw2d_rx/src/tes/dave_dlist.c ****    if(d2_al_copy == flags)
 3937                             		.loc 1 1419 4 view .LVU1561
 3938                             		.loc 1 1419 6 is_stmt 0 view .LVU1562
 3939 0018 61 0A                   		cmp	#0, r10
 3940 001a 20 3D                   		beq	.L261
1420:../src/smc_gen/r_drw2d_rx/src/tes/dave_dlist.c ****    {
1421:../src/smc_gen/r_drw2d_rx/src/tes/dave_dlist.c ****       d2_scratch2dlist_intern(handle);
1422:../src/smc_gen/r_drw2d_rx/src/tes/dave_dlist.c **** 
1423:../src/smc_gen/r_drw2d_rx/src/tes/dave_dlist.c ****       /* append our dlist to the dlist*/
1424:../src/smc_gen/r_drw2d_rx/src/tes/dave_dlist.c ****       (void)d2_dlist2dlist_intern(handle, dlist, address, size);
1425:../src/smc_gen/r_drw2d_rx/src/tes/dave_dlist.c ****    }
1426:../src/smc_gen/r_drw2d_rx/src/tes/dave_dlist.c ****    else
1427:../src/smc_gen/r_drw2d_rx/src/tes/dave_dlist.c ****    {
1428:../src/smc_gen/r_drw2d_rx/src/tes/dave_dlist.c ****       if( (0 != dev->dlist_indirect_supported) && (0 == (dev->flags & d2_df_no_dlist)) ) 
 3941                             		.loc 1 1428 7 is_stmt 1 view .LVU1563
 3942                             		.loc 1 1428 9 is_stmt 0 view .LVU1564
 3943 001c CE 7A C9 01             		mov.B	457[r7], r10
 3944                             	.LVL453:
 3945                             		.loc 1 1428 9 view .LVU1565
 3946 0020 61 0A                   		cmp	#0, r10
 3947 0022 20 47                   		beq	.L258
 3948                             		.loc 1 1428 61 discriminator 1 view .LVU1566
 3949 0024 ED 7A 1A                		mov.L	104[r7], r10
 3950                             		.loc 1 1428 48 discriminator 1 view .LVU1567
 3951 0027 FD 74 CA 01             		tst	#1, r10
 3952 002b 21 3E                   		bne	.L258
1429:../src/smc_gen/r_drw2d_rx/src/tes/dave_dlist.c ****       {
1430:../src/smc_gen/r_drw2d_rx/src/tes/dave_dlist.c ****          current_dlist_start = d2_preparedlist_read_intern( handle, dlist, 0 );
 3953                             		.loc 1 1430 10 is_stmt 1 view .LVU1568
 3954                             		.loc 1 1430 32 is_stmt 0 view .LVU1569
 3955 002d 66 03                   		mov.L	#0, r3
 3956 002f EF 62                   		mov.L	r6, r2
 3957 0031 EF 71                   		mov.L	r7, r1
 3958 0033 05 00 00 00             		bsr	_d2_preparedlist_read_intern
 3959                             	.LVL454:
 3960 0037 EF 1A                   		mov.L	r1, r10
 3961                             	.LVL455:
1431:../src/smc_gen/r_drw2d_rx/src/tes/dave_dlist.c **** 
1432:../src/smc_gen/r_drw2d_rx/src/tes/dave_dlist.c ****          /* append dlist_start to address list*/
1433:../src/smc_gen/r_drw2d_rx/src/tes/dave_dlist.c ****          (void)d2_add_dlistlist_intern(handle, dlist, address);
 3962                             		.loc 1 1433 10 is_stmt 1 view .LVU1570
 3963                             		.loc 1 1433 16 is_stmt 0 view .LVU1571
 3964 0039 EF B3                   		mov.L	r11, r3
 3965 003b EF 62                   		mov.L	r6, r2
 3966 003d EF 71                   		mov.L	r7, r1
 3967                             	.LVL456:
 3968                             		.loc 1 1433 16 view .LVU1572
 3969 003f 05 00 00 00             		bsr	_d2_add_dlistlist_intern
 3970                             	.LVL457:
1434:../src/smc_gen/r_drw2d_rx/src/tes/dave_dlist.c **** 
1435:../src/smc_gen/r_drw2d_rx/src/tes/dave_dlist.c ****          /* append current dlist position to address list */
1436:../src/smc_gen/r_drw2d_rx/src/tes/dave_dlist.c ****          (void)d2_add_dlistlist_intern(handle, dlist, current_dlist_start);
 3971                             		.loc 1 1436 10 is_stmt 1 view .LVU1573
 3972                             		.loc 1 1436 16 is_stmt 0 view .LVU1574
 3973 0043 EF A3                   		mov.L	r10, r3
 3974 0045 EF 62                   		mov.L	r6, r2
 3975 0047 EF 71                   		mov.L	r7, r1
 3976 0049 05 00 00 00             		bsr	_d2_add_dlistlist_intern
 3977                             	.LVL458:
 3978 004d 2E 1C                   		bra	.L258
 3979                             	.LVL459:
 3980                             	.L260:
1413:../src/smc_gen/r_drw2d_rx/src/tes/dave_dlist.c ****    }
 3981                             		.loc 1 1413 7 is_stmt 1 view .LVU1575
1413:../src/smc_gen/r_drw2d_rx/src/tes/dave_dlist.c ****    }
 3982                             		.loc 1 1413 13 is_stmt 0 view .LVU1576
 3983 004f 66 12                   		mov.L	#1, r2
 3984                             	.LVL460:
1413:../src/smc_gen/r_drw2d_rx/src/tes/dave_dlist.c ****    }
 3985                             		.loc 1 1413 13 view .LVU1577
 3986 0051 05 00 00 00             		bsr	_d2_selectrendermode
 3987                             	.LVL461:
1413:../src/smc_gen/r_drw2d_rx/src/tes/dave_dlist.c ****    }
 3988                             		.loc 1 1413 13 view .LVU1578
 3989 0055 2E BD                   		bra	.L256
 3990                             	.L261:
1421:../src/smc_gen/r_drw2d_rx/src/tes/dave_dlist.c **** 
 3991                             		.loc 1 1421 7 is_stmt 1 view .LVU1579
 3992 0057 EF 71                   		mov.L	r7, r1
 3993 0059 05 00 00 00             		bsr	_d2_scratch2dlist_intern
 3994                             	.LVL462:
1424:../src/smc_gen/r_drw2d_rx/src/tes/dave_dlist.c ****    }
 3995                             		.loc 1 1424 7 view .LVU1580
1424:../src/smc_gen/r_drw2d_rx/src/tes/dave_dlist.c ****    }
 3996                             		.loc 1 1424 13 is_stmt 0 view .LVU1581
 3997 005d EF C4                   		mov.L	r12, r4
 3998 005f EF B3                   		mov.L	r11, r3
 3999 0061 EF 62                   		mov.L	r6, r2
 4000 0063 EF 71                   		mov.L	r7, r1
 4001 0065 05 00 00 00             		bsr	_d2_dlist2dlist_intern
 4002                             	.LVL463:
 4003                             		.balign 8,3,4
 4004                             	.L258:
1437:../src/smc_gen/r_drw2d_rx/src/tes/dave_dlist.c ****       }
1438:../src/smc_gen/r_drw2d_rx/src/tes/dave_dlist.c ****    }
1439:../src/smc_gen/r_drw2d_rx/src/tes/dave_dlist.c **** 
1440:../src/smc_gen/r_drw2d_rx/src/tes/dave_dlist.c ****    D2_RETOK(handle);
 4005                             		.loc 1 1440 4 is_stmt 1 view .LVU1582
 4006                             	.LBB98:
 4007                             	.LBI98:
 239:../src/smc_gen/r_drw2d_rx/src/tes/dave_intern.h **** {
 4008                             		.loc 3 239 25 view .LVU1583
 4009                             	.LBB99:
 241:../src/smc_gen/r_drw2d_rx/src/tes/dave_intern.h **** 
 4010                             		.loc 3 241 4 view .LVU1584
 241:../src/smc_gen/r_drw2d_rx/src/tes/dave_intern.h **** 
 4011                             		.loc 3 241 30 is_stmt 0 view .LVU1585
 4012 0069 FA 74 C6 01 00          		mov.B	#0, 454[r7]
 4013                             		.loc 3 243 4 is_stmt 1 view .LVU1586
 4014                             	.LVL464:
 4015                             		.loc 3 243 4 is_stmt 0 view .LVU1587
 4016                             	.LBE99:
 4017                             	.LBE98:
1441:../src/smc_gen/r_drw2d_rx/src/tes/dave_dlist.c **** }
 4018                             		.loc 1 1441 1 view .LVU1588
 4019 006e 66 01                   		mov.L	#0, r1
 4020 0070 3F 6C 07                		rtsd	#28, r6-r12
 4021                             		.loc 1 1441 1 view .LVU1589
 4022                             	.LFE26:
 4502                             	.Letext0:
 4503                             		.file 4 "D:\\e2_studio\\workspace\\FULLMONI_WIDE\\Firmware\\src\\smc_gen\\r_drw2d_rx\\inc\\tes/dav
 4504                             		.file 5 "D:\\e2_studio\\workspace\\FULLMONI_WIDE\\Firmware\\src\\smc_gen\\r_drw2d_rx\\inc\\tes/dav
 4505                             		.file 6 "D:\\e2_studio\\workspace\\FULLMONI_WIDE\\Firmware\\src\\smc_gen\\r_drw2d_rx\\inc\\tes/dav
 4506                             		.file 7 "../src/smc_gen/r_drw2d_rx/src/tes/dave_rbuffer.h"
 4507                             		.file 8 "../src/smc_gen/r_drw2d_rx/src/tes/dave_gradient.h"
 4508                             		.file 9 "../src/smc_gen/r_drw2d_rx/src/tes/dave_context.h"
 4509                             		.file 10 "../src/smc_gen/r_drw2d_rx/src/tes/dave_hardware.h"
 4510                             		.file 11 "../src/smc_gen/r_drw2d_rx/src/tes/dave_memory.h"
